ARM GAS  C:\Users\JC\AppData\Local\Temp\ccbVWoGr.s 			page 1


   1              		.syntax unified
   2              		.cpu cortex-m4
   3              		.eabi_attribute 27, 1
   4              		.fpu fpv4-sp-d16
   5              		.eabi_attribute 20, 1
   6              		.eabi_attribute 21, 1
   7              		.eabi_attribute 23, 3
   8              		.eabi_attribute 24, 1
   9              		.eabi_attribute 25, 1
  10              		.eabi_attribute 26, 1
  11              		.eabi_attribute 30, 1
  12              		.eabi_attribute 34, 1
  13              		.eabi_attribute 18, 4
  14              		.thumb
  15              		.syntax unified
  16              		.file	"main_cm4.c"
  17              		.text
  18              	.Ltext0:
  19              		.cfi_sections	.debug_frame
  20              		.section	.text.genericEventHandler,"ax",%progbits
  21              		.align	2
  22              		.global	genericEventHandler
  23              		.thumb
  24              		.thumb_func
  25              		.type	genericEventHandler, %function
  26              	genericEventHandler:
  27              	.LFB540:
  28              		.file 1 "main_cm4.c"
   1:main_cm4.c    **** /* ========================================
   2:main_cm4.c    ****  *
   3:main_cm4.c    ****  * Copyright YOUR COMPANY, THE YEAR
   4:main_cm4.c    ****  * All Rights Reserved
   5:main_cm4.c    ****  * UNPUBLISHED, LICENSED SOFTWARE.
   6:main_cm4.c    ****  *
   7:main_cm4.c    ****  * CONFIDENTIAL AND PROPRIETARY INFORMATION
   8:main_cm4.c    ****  * WHICH IS THE PROPERTY OF your company.
   9:main_cm4.c    ****  *
  10:main_cm4.c    ****  * ========================================
  11:main_cm4.c    **** */
  12:main_cm4.c    **** #include "project.h"
  13:main_cm4.c    **** #include "stdio.h"
  14:main_cm4.c    **** 
  15:main_cm4.c    **** // global variables
  16:main_cm4.c    **** static float currentVal[1] = {0.00};
  17:main_cm4.c    **** static uint8_t testData;
  18:main_cm4.c    **** static uint8_t test[4] = {0x01,0x02,0x0a,0x0b};
  19:main_cm4.c    **** int bluetooth_conn = 0;
  20:main_cm4.c    **** float data;
  21:main_cm4.c    **** 
  22:main_cm4.c    **** void userIsr(void);
  23:main_cm4.c    **** 
  24:main_cm4.c    **** void genericEventHandler(uint32_t event, void *eventParameter)
  25:main_cm4.c    **** {
  29              		.loc 1 25 0
  30              		.cfi_startproc
  31              		@ args = 0, pretend = 0, frame = 0
  32              		@ frame_needed = 0, uses_anonymous_args = 0
ARM GAS  C:\Users\JC\AppData\Local\Temp\ccbVWoGr.s 			page 2


  33              	.LVL0:
  34 0000 08B5     		push	{r3, lr}
  35              		.cfi_def_cfa_offset 8
  36              		.cfi_offset 3, -8
  37              		.cfi_offset 14, -4
  26:main_cm4.c    ****     switch(event)
  38              		.loc 1 26 0
  39 0002 44F20803 		movw	r3, #16392
  40 0006 9842     		cmp	r0, r3
  41 0008 06D0     		beq	.L3
  42 000a 45F20103 		movw	r3, #20481
  43 000e 9842     		cmp	r0, r3
  44 0010 0AD0     		beq	.L4
  45 0012 B0F5805F 		cmp	r0, #4096
  46 0016 0AD1     		bne	.L1
  47              	.L3:
  27:main_cm4.c    ****     {
  28:main_cm4.c    ****         case CY_BLE_EVT_STACK_ON:
  29:main_cm4.c    ****         case CY_BLE_EVT_GAP_DEVICE_DISCONNECTED:
  30:main_cm4.c    ****         {
  31:main_cm4.c    ****             Cy_BLE_GAPP_StartAdvertisement(CY_BLE_ADVERTISING_FAST, CY_BLE_PERIPHERAL_CONFIGURATION
  48              		.loc 1 31 0
  49 0018 0021     		movs	r1, #0
  50              	.LVL1:
  51 001a 0846     		mov	r0, r1
  52              	.LVL2:
  53 001c FFF7FEFF 		bl	Cy_BLE_GAPP_StartAdvertisement
  54              	.LVL3:
  32:main_cm4.c    ****             bluetooth_conn = 0;
  55              		.loc 1 32 0
  56 0020 0022     		movs	r2, #0
  57 0022 034B     		ldr	r3, .L6
  58 0024 1A60     		str	r2, [r3]
  33:main_cm4.c    ****             break;
  59              		.loc 1 33 0
  60 0026 08BD     		pop	{r3, pc}
  61              	.LVL4:
  62              	.L4:
  34:main_cm4.c    ****         }
  35:main_cm4.c    ****         
  36:main_cm4.c    ****         case CY_BLE_EVT_GATT_CONNECT_IND:
  37:main_cm4.c    ****         {
  38:main_cm4.c    ****             bluetooth_conn = 1;
  63              		.loc 1 38 0
  64 0028 0122     		movs	r2, #1
  65 002a 014B     		ldr	r3, .L6
  66 002c 1A60     		str	r2, [r3]
  67              	.L1:
  68 002e 08BD     		pop	{r3, pc}
  69              	.L7:
  70              		.align	2
  71              	.L6:
  72 0030 00000000 		.word	.LANCHOR0
  73              		.cfi_endproc
  74              	.LFE540:
  75              		.size	genericEventHandler, .-genericEventHandler
  76              		.section	.text.bleInterruptNotify,"ax",%progbits
ARM GAS  C:\Users\JC\AppData\Local\Temp\ccbVWoGr.s 			page 3


  77              		.align	2
  78              		.global	bleInterruptNotify
  79              		.thumb
  80              		.thumb_func
  81              		.type	bleInterruptNotify, %function
  82              	bleInterruptNotify:
  83              	.LFB541:
  39:main_cm4.c    ****             break;
  40:main_cm4.c    ****         }
  41:main_cm4.c    ****         case CY_BLE_EVT_GATTS_WRITE_REQ:
  42:main_cm4.c    ****         {
  43:main_cm4.c    ****             cy_stc_ble_gatts_write_cmd_req_param_t *writeReqParameter = (cy_stc_ble_gatts_write_cmd
  44:main_cm4.c    ****             
  45:main_cm4.c    ****             break;
  46:main_cm4.c    ****         }
  47:main_cm4.c    ****     }
  48:main_cm4.c    **** }
  49:main_cm4.c    **** 
  50:main_cm4.c    **** void bleInterruptNotify()
  51:main_cm4.c    **** {
  84              		.loc 1 51 0
  85              		.cfi_startproc
  86              		@ args = 0, pretend = 0, frame = 0
  87              		@ frame_needed = 0, uses_anonymous_args = 0
  88 0000 08B5     		push	{r3, lr}
  89              		.cfi_def_cfa_offset 8
  90              		.cfi_offset 3, -8
  91              		.cfi_offset 14, -4
  52:main_cm4.c    ****     Cy_BLE_ProcessEvents();
  92              		.loc 1 52 0
  93 0002 FFF7FEFF 		bl	Cy_BLE_ProcessEvents
  94              	.LVL5:
  95 0006 08BD     		pop	{r3, pc}
  96              		.cfi_endproc
  97              	.LFE541:
  98              		.size	bleInterruptNotify, .-bleInterruptNotify
  99              		.global	__aeabi_f2d
 100              		.section	.text.main,"ax",%progbits
 101              		.align	2
 102              		.global	main
 103              		.thumb
 104              		.thumb_func
 105              		.type	main, %function
 106              	main:
 107              	.LFB542:
  53:main_cm4.c    **** }
  54:main_cm4.c    **** 
  55:main_cm4.c    **** int main(void)
  56:main_cm4.c    **** {
 108              		.loc 1 56 0
 109              		.cfi_startproc
 110              		@ args = 0, pretend = 0, frame = 24
 111              		@ frame_needed = 0, uses_anonymous_args = 0
 112 0000 10B5     		push	{r4, lr}
 113              		.cfi_def_cfa_offset 8
 114              		.cfi_offset 4, -8
 115              		.cfi_offset 14, -4
ARM GAS  C:\Users\JC\AppData\Local\Temp\ccbVWoGr.s 			page 4


 116 0002 86B0     		sub	sp, sp, #24
 117              		.cfi_def_cfa_offset 32
 118              	.LBB5:
 119              	.LBB6:
 120              		.file 2 "Generated_Source\\PSoC6\\pdl\\cmsis/include/cmsis_gcc.h"
   1:Generated_Source\PSoC6\pdl\cmsis/include/cmsis_gcc.h **** /**************************************************************************//**
   2:Generated_Source\PSoC6\pdl\cmsis/include/cmsis_gcc.h ****  * @file     cmsis_gcc.h
   3:Generated_Source\PSoC6\pdl\cmsis/include/cmsis_gcc.h ****  * @brief    CMSIS compiler GCC header file
   4:Generated_Source\PSoC6\pdl\cmsis/include/cmsis_gcc.h ****  * @version  V5.0.3
   5:Generated_Source\PSoC6\pdl\cmsis/include/cmsis_gcc.h ****  * @date     16. January 2018
   6:Generated_Source\PSoC6\pdl\cmsis/include/cmsis_gcc.h ****  ******************************************************************************/
   7:Generated_Source\PSoC6\pdl\cmsis/include/cmsis_gcc.h **** /*
   8:Generated_Source\PSoC6\pdl\cmsis/include/cmsis_gcc.h ****  * Copyright (c) 2009-2017 ARM Limited. All rights reserved.
   9:Generated_Source\PSoC6\pdl\cmsis/include/cmsis_gcc.h ****  *
  10:Generated_Source\PSoC6\pdl\cmsis/include/cmsis_gcc.h ****  * SPDX-License-Identifier: Apache-2.0
  11:Generated_Source\PSoC6\pdl\cmsis/include/cmsis_gcc.h ****  *
  12:Generated_Source\PSoC6\pdl\cmsis/include/cmsis_gcc.h ****  * Licensed under the Apache License, Version 2.0 (the License); you may
  13:Generated_Source\PSoC6\pdl\cmsis/include/cmsis_gcc.h ****  * not use this file except in compliance with the License.
  14:Generated_Source\PSoC6\pdl\cmsis/include/cmsis_gcc.h ****  * You may obtain a copy of the License at
  15:Generated_Source\PSoC6\pdl\cmsis/include/cmsis_gcc.h ****  *
  16:Generated_Source\PSoC6\pdl\cmsis/include/cmsis_gcc.h ****  * www.apache.org/licenses/LICENSE-2.0
  17:Generated_Source\PSoC6\pdl\cmsis/include/cmsis_gcc.h ****  *
  18:Generated_Source\PSoC6\pdl\cmsis/include/cmsis_gcc.h ****  * Unless required by applicable law or agreed to in writing, software
  19:Generated_Source\PSoC6\pdl\cmsis/include/cmsis_gcc.h ****  * distributed under the License is distributed on an AS IS BASIS, WITHOUT
  20:Generated_Source\PSoC6\pdl\cmsis/include/cmsis_gcc.h ****  * WARRANTIES OR CONDITIONS OF ANY KIND, either express or implied.
  21:Generated_Source\PSoC6\pdl\cmsis/include/cmsis_gcc.h ****  * See the License for the specific language governing permissions and
  22:Generated_Source\PSoC6\pdl\cmsis/include/cmsis_gcc.h ****  * limitations under the License.
  23:Generated_Source\PSoC6\pdl\cmsis/include/cmsis_gcc.h ****  */
  24:Generated_Source\PSoC6\pdl\cmsis/include/cmsis_gcc.h **** 
  25:Generated_Source\PSoC6\pdl\cmsis/include/cmsis_gcc.h **** #ifndef __CMSIS_GCC_H
  26:Generated_Source\PSoC6\pdl\cmsis/include/cmsis_gcc.h **** #define __CMSIS_GCC_H
  27:Generated_Source\PSoC6\pdl\cmsis/include/cmsis_gcc.h **** 
  28:Generated_Source\PSoC6\pdl\cmsis/include/cmsis_gcc.h **** /* ignore some GCC warnings */
  29:Generated_Source\PSoC6\pdl\cmsis/include/cmsis_gcc.h **** #pragma GCC diagnostic push
  30:Generated_Source\PSoC6\pdl\cmsis/include/cmsis_gcc.h **** #pragma GCC diagnostic ignored "-Wsign-conversion"
  31:Generated_Source\PSoC6\pdl\cmsis/include/cmsis_gcc.h **** #pragma GCC diagnostic ignored "-Wconversion"
  32:Generated_Source\PSoC6\pdl\cmsis/include/cmsis_gcc.h **** #pragma GCC diagnostic ignored "-Wunused-parameter"
  33:Generated_Source\PSoC6\pdl\cmsis/include/cmsis_gcc.h **** 
  34:Generated_Source\PSoC6\pdl\cmsis/include/cmsis_gcc.h **** /* Fallback for __has_builtin */
  35:Generated_Source\PSoC6\pdl\cmsis/include/cmsis_gcc.h **** #ifndef __has_builtin
  36:Generated_Source\PSoC6\pdl\cmsis/include/cmsis_gcc.h ****   #define __has_builtin(x) (0)
  37:Generated_Source\PSoC6\pdl\cmsis/include/cmsis_gcc.h **** #endif
  38:Generated_Source\PSoC6\pdl\cmsis/include/cmsis_gcc.h **** 
  39:Generated_Source\PSoC6\pdl\cmsis/include/cmsis_gcc.h **** /* CMSIS compiler specific defines */
  40:Generated_Source\PSoC6\pdl\cmsis/include/cmsis_gcc.h **** #ifndef   __ASM
  41:Generated_Source\PSoC6\pdl\cmsis/include/cmsis_gcc.h ****   #define __ASM                                  __asm
  42:Generated_Source\PSoC6\pdl\cmsis/include/cmsis_gcc.h **** #endif
  43:Generated_Source\PSoC6\pdl\cmsis/include/cmsis_gcc.h **** #ifndef   __INLINE
  44:Generated_Source\PSoC6\pdl\cmsis/include/cmsis_gcc.h ****   #define __INLINE                               inline
  45:Generated_Source\PSoC6\pdl\cmsis/include/cmsis_gcc.h **** #endif
  46:Generated_Source\PSoC6\pdl\cmsis/include/cmsis_gcc.h **** #ifndef   __STATIC_INLINE
  47:Generated_Source\PSoC6\pdl\cmsis/include/cmsis_gcc.h ****   #define __STATIC_INLINE                        static inline
  48:Generated_Source\PSoC6\pdl\cmsis/include/cmsis_gcc.h **** #endif
  49:Generated_Source\PSoC6\pdl\cmsis/include/cmsis_gcc.h **** #ifndef   __STATIC_FORCEINLINE                 
  50:Generated_Source\PSoC6\pdl\cmsis/include/cmsis_gcc.h ****   #define __STATIC_FORCEINLINE                   __attribute__((always_inline)) static inline
  51:Generated_Source\PSoC6\pdl\cmsis/include/cmsis_gcc.h **** #endif                                           
  52:Generated_Source\PSoC6\pdl\cmsis/include/cmsis_gcc.h **** #ifndef   __NO_RETURN
ARM GAS  C:\Users\JC\AppData\Local\Temp\ccbVWoGr.s 			page 5


  53:Generated_Source\PSoC6\pdl\cmsis/include/cmsis_gcc.h ****   #define __NO_RETURN                            __attribute__((__noreturn__))
  54:Generated_Source\PSoC6\pdl\cmsis/include/cmsis_gcc.h **** #endif
  55:Generated_Source\PSoC6\pdl\cmsis/include/cmsis_gcc.h **** #ifndef   __USED
  56:Generated_Source\PSoC6\pdl\cmsis/include/cmsis_gcc.h ****   #define __USED                                 __attribute__((used))
  57:Generated_Source\PSoC6\pdl\cmsis/include/cmsis_gcc.h **** #endif
  58:Generated_Source\PSoC6\pdl\cmsis/include/cmsis_gcc.h **** #ifndef   __WEAK
  59:Generated_Source\PSoC6\pdl\cmsis/include/cmsis_gcc.h ****   #define __WEAK                                 __attribute__((weak))
  60:Generated_Source\PSoC6\pdl\cmsis/include/cmsis_gcc.h **** #endif
  61:Generated_Source\PSoC6\pdl\cmsis/include/cmsis_gcc.h **** #ifndef   __PACKED
  62:Generated_Source\PSoC6\pdl\cmsis/include/cmsis_gcc.h ****   #define __PACKED                               __attribute__((packed, aligned(1)))
  63:Generated_Source\PSoC6\pdl\cmsis/include/cmsis_gcc.h **** #endif
  64:Generated_Source\PSoC6\pdl\cmsis/include/cmsis_gcc.h **** #ifndef   __PACKED_STRUCT
  65:Generated_Source\PSoC6\pdl\cmsis/include/cmsis_gcc.h ****   #define __PACKED_STRUCT                        struct __attribute__((packed, aligned(1)))
  66:Generated_Source\PSoC6\pdl\cmsis/include/cmsis_gcc.h **** #endif
  67:Generated_Source\PSoC6\pdl\cmsis/include/cmsis_gcc.h **** #ifndef   __PACKED_UNION
  68:Generated_Source\PSoC6\pdl\cmsis/include/cmsis_gcc.h ****   #define __PACKED_UNION                         union __attribute__((packed, aligned(1)))
  69:Generated_Source\PSoC6\pdl\cmsis/include/cmsis_gcc.h **** #endif
  70:Generated_Source\PSoC6\pdl\cmsis/include/cmsis_gcc.h **** #ifndef   __UNALIGNED_UINT32        /* deprecated */
  71:Generated_Source\PSoC6\pdl\cmsis/include/cmsis_gcc.h ****   #pragma GCC diagnostic push
  72:Generated_Source\PSoC6\pdl\cmsis/include/cmsis_gcc.h ****   #pragma GCC diagnostic ignored "-Wpacked"
  73:Generated_Source\PSoC6\pdl\cmsis/include/cmsis_gcc.h ****   #pragma GCC diagnostic ignored "-Wattributes"
  74:Generated_Source\PSoC6\pdl\cmsis/include/cmsis_gcc.h ****   struct __attribute__((packed)) T_UINT32 { uint32_t v; };
  75:Generated_Source\PSoC6\pdl\cmsis/include/cmsis_gcc.h ****   #pragma GCC diagnostic pop
  76:Generated_Source\PSoC6\pdl\cmsis/include/cmsis_gcc.h ****   #define __UNALIGNED_UINT32(x)                  (((struct T_UINT32 *)(x))->v)
  77:Generated_Source\PSoC6\pdl\cmsis/include/cmsis_gcc.h **** #endif
  78:Generated_Source\PSoC6\pdl\cmsis/include/cmsis_gcc.h **** #ifndef   __UNALIGNED_UINT16_WRITE
  79:Generated_Source\PSoC6\pdl\cmsis/include/cmsis_gcc.h ****   #pragma GCC diagnostic push
  80:Generated_Source\PSoC6\pdl\cmsis/include/cmsis_gcc.h ****   #pragma GCC diagnostic ignored "-Wpacked"
  81:Generated_Source\PSoC6\pdl\cmsis/include/cmsis_gcc.h ****   #pragma GCC diagnostic ignored "-Wattributes"
  82:Generated_Source\PSoC6\pdl\cmsis/include/cmsis_gcc.h ****   __PACKED_STRUCT T_UINT16_WRITE { uint16_t v; };
  83:Generated_Source\PSoC6\pdl\cmsis/include/cmsis_gcc.h ****   #pragma GCC diagnostic pop
  84:Generated_Source\PSoC6\pdl\cmsis/include/cmsis_gcc.h ****   #define __UNALIGNED_UINT16_WRITE(addr, val)    (void)((((struct T_UINT16_WRITE *)(void *)(addr))-
  85:Generated_Source\PSoC6\pdl\cmsis/include/cmsis_gcc.h **** #endif
  86:Generated_Source\PSoC6\pdl\cmsis/include/cmsis_gcc.h **** #ifndef   __UNALIGNED_UINT16_READ
  87:Generated_Source\PSoC6\pdl\cmsis/include/cmsis_gcc.h ****   #pragma GCC diagnostic push
  88:Generated_Source\PSoC6\pdl\cmsis/include/cmsis_gcc.h ****   #pragma GCC diagnostic ignored "-Wpacked"
  89:Generated_Source\PSoC6\pdl\cmsis/include/cmsis_gcc.h ****   #pragma GCC diagnostic ignored "-Wattributes"
  90:Generated_Source\PSoC6\pdl\cmsis/include/cmsis_gcc.h ****   __PACKED_STRUCT T_UINT16_READ { uint16_t v; };
  91:Generated_Source\PSoC6\pdl\cmsis/include/cmsis_gcc.h ****   #pragma GCC diagnostic pop
  92:Generated_Source\PSoC6\pdl\cmsis/include/cmsis_gcc.h ****   #define __UNALIGNED_UINT16_READ(addr)          (((const struct T_UINT16_READ *)(const void *)(add
  93:Generated_Source\PSoC6\pdl\cmsis/include/cmsis_gcc.h **** #endif
  94:Generated_Source\PSoC6\pdl\cmsis/include/cmsis_gcc.h **** #ifndef   __UNALIGNED_UINT32_WRITE
  95:Generated_Source\PSoC6\pdl\cmsis/include/cmsis_gcc.h ****   #pragma GCC diagnostic push
  96:Generated_Source\PSoC6\pdl\cmsis/include/cmsis_gcc.h ****   #pragma GCC diagnostic ignored "-Wpacked"
  97:Generated_Source\PSoC6\pdl\cmsis/include/cmsis_gcc.h ****   #pragma GCC diagnostic ignored "-Wattributes"
  98:Generated_Source\PSoC6\pdl\cmsis/include/cmsis_gcc.h ****   __PACKED_STRUCT T_UINT32_WRITE { uint32_t v; };
  99:Generated_Source\PSoC6\pdl\cmsis/include/cmsis_gcc.h ****   #pragma GCC diagnostic pop
 100:Generated_Source\PSoC6\pdl\cmsis/include/cmsis_gcc.h ****   #define __UNALIGNED_UINT32_WRITE(addr, val)    (void)((((struct T_UINT32_WRITE *)(void *)(addr))-
 101:Generated_Source\PSoC6\pdl\cmsis/include/cmsis_gcc.h **** #endif
 102:Generated_Source\PSoC6\pdl\cmsis/include/cmsis_gcc.h **** #ifndef   __UNALIGNED_UINT32_READ
 103:Generated_Source\PSoC6\pdl\cmsis/include/cmsis_gcc.h ****   #pragma GCC diagnostic push
 104:Generated_Source\PSoC6\pdl\cmsis/include/cmsis_gcc.h ****   #pragma GCC diagnostic ignored "-Wpacked"
 105:Generated_Source\PSoC6\pdl\cmsis/include/cmsis_gcc.h ****   #pragma GCC diagnostic ignored "-Wattributes"
 106:Generated_Source\PSoC6\pdl\cmsis/include/cmsis_gcc.h ****   __PACKED_STRUCT T_UINT32_READ { uint32_t v; };
 107:Generated_Source\PSoC6\pdl\cmsis/include/cmsis_gcc.h ****   #pragma GCC diagnostic pop
 108:Generated_Source\PSoC6\pdl\cmsis/include/cmsis_gcc.h ****   #define __UNALIGNED_UINT32_READ(addr)          (((const struct T_UINT32_READ *)(const void *)(add
 109:Generated_Source\PSoC6\pdl\cmsis/include/cmsis_gcc.h **** #endif
ARM GAS  C:\Users\JC\AppData\Local\Temp\ccbVWoGr.s 			page 6


 110:Generated_Source\PSoC6\pdl\cmsis/include/cmsis_gcc.h **** #ifndef   __ALIGNED
 111:Generated_Source\PSoC6\pdl\cmsis/include/cmsis_gcc.h ****   #define __ALIGNED(x)                           __attribute__((aligned(x)))
 112:Generated_Source\PSoC6\pdl\cmsis/include/cmsis_gcc.h **** #endif
 113:Generated_Source\PSoC6\pdl\cmsis/include/cmsis_gcc.h **** #ifndef   __RESTRICT
 114:Generated_Source\PSoC6\pdl\cmsis/include/cmsis_gcc.h ****   #define __RESTRICT                             __restrict
 115:Generated_Source\PSoC6\pdl\cmsis/include/cmsis_gcc.h **** #endif
 116:Generated_Source\PSoC6\pdl\cmsis/include/cmsis_gcc.h **** 
 117:Generated_Source\PSoC6\pdl\cmsis/include/cmsis_gcc.h **** 
 118:Generated_Source\PSoC6\pdl\cmsis/include/cmsis_gcc.h **** /* ###########################  Core Function Access  ########################### */
 119:Generated_Source\PSoC6\pdl\cmsis/include/cmsis_gcc.h **** /** \ingroup  CMSIS_Core_FunctionInterface
 120:Generated_Source\PSoC6\pdl\cmsis/include/cmsis_gcc.h ****     \defgroup CMSIS_Core_RegAccFunctions CMSIS Core Register Access Functions
 121:Generated_Source\PSoC6\pdl\cmsis/include/cmsis_gcc.h ****   @{
 122:Generated_Source\PSoC6\pdl\cmsis/include/cmsis_gcc.h ****  */
 123:Generated_Source\PSoC6\pdl\cmsis/include/cmsis_gcc.h **** 
 124:Generated_Source\PSoC6\pdl\cmsis/include/cmsis_gcc.h **** /**
 125:Generated_Source\PSoC6\pdl\cmsis/include/cmsis_gcc.h ****   \brief   Enable IRQ Interrupts
 126:Generated_Source\PSoC6\pdl\cmsis/include/cmsis_gcc.h ****   \details Enables IRQ interrupts by clearing the I-bit in the CPSR.
 127:Generated_Source\PSoC6\pdl\cmsis/include/cmsis_gcc.h ****            Can only be executed in Privileged modes.
 128:Generated_Source\PSoC6\pdl\cmsis/include/cmsis_gcc.h ****  */
 129:Generated_Source\PSoC6\pdl\cmsis/include/cmsis_gcc.h **** __STATIC_FORCEINLINE void __enable_irq(void)
 130:Generated_Source\PSoC6\pdl\cmsis/include/cmsis_gcc.h **** {
 131:Generated_Source\PSoC6\pdl\cmsis/include/cmsis_gcc.h ****   __ASM volatile ("cpsie i" : : : "memory");
 121              		.loc 2 131 0
 122              		.syntax unified
 123              	@ 131 "Generated_Source\PSoC6\pdl\cmsis/include/cmsis_gcc.h" 1
 124 0004 62B6     		cpsie i
 125              	@ 0 "" 2
 126              		.thumb
 127              		.syntax unified
 128              	.LBE6:
 129              	.LBE5:
  57:main_cm4.c    ****     __enable_irq(); /* Enable global interrupts. */
  58:main_cm4.c    ****     
  59:main_cm4.c    ****     Cy_BLE_Start(genericEventHandler);
 130              		.loc 1 59 0
 131 0006 1F48     		ldr	r0, .L15
 132 0008 FFF7FEFF 		bl	Cy_BLE_Start
 133              	.LVL6:
  60:main_cm4.c    ****     
  61:main_cm4.c    ****     while(Cy_BLE_GetState() != CY_BLE_STATE_ON)
 134              		.loc 1 61 0
 135 000c 01E0     		b	.L11
 136              	.L12:
  62:main_cm4.c    ****     {
  63:main_cm4.c    ****         Cy_BLE_ProcessEvents();
 137              		.loc 1 63 0
 138 000e FFF7FEFF 		bl	Cy_BLE_ProcessEvents
 139              	.LVL7:
 140              	.L11:
  61:main_cm4.c    ****     {
 141              		.loc 1 61 0
 142 0012 1D4B     		ldr	r3, .L15+4
 143 0014 1B78     		ldrb	r3, [r3]	@ zero_extendqisi2
 144 0016 022B     		cmp	r3, #2
 145 0018 F9D1     		bne	.L12
  64:main_cm4.c    ****     }
  65:main_cm4.c    ****     Cy_BLE_RegisterAppHostCallback(bleInterruptNotify);
ARM GAS  C:\Users\JC\AppData\Local\Temp\ccbVWoGr.s 			page 7


 146              		.loc 1 65 0
 147 001a 1C48     		ldr	r0, .L15+8
 148 001c FFF7FEFF 		bl	Cy_BLE_RegisterAppHostCallback
 149              	.LVL8:
  66:main_cm4.c    **** 
  67:main_cm4.c    ****     /* Place your initialization/startup code here (e.g. MyInst_Start()) */
  68:main_cm4.c    ****     
  69:main_cm4.c    ****     UART_1_Start();
 150              		.loc 1 69 0
 151 0020 FFF7FEFF 		bl	UART_1_Start
 152              	.LVL9:
  70:main_cm4.c    ****     ADC_1_Start();
 153              		.loc 1 70 0
 154 0024 FFF7FEFF 		bl	ADC_1_Start
 155              	.LVL10:
  71:main_cm4.c    ****     
  72:main_cm4.c    ****     
  73:main_cm4.c    ****     // voltage
  74:main_cm4.c    ****     float v1;
  75:main_cm4.c    ****     int16_t voltCount;
  76:main_cm4.c    ****     printf("hello\n");
 156              		.loc 1 76 0
 157 0028 1948     		ldr	r0, .L15+12
 158 002a FFF7FEFF 		bl	puts
 159              	.LVL11:
 160              	.L13:
 161              	.LBB7:
  77:main_cm4.c    **** 
  78:main_cm4.c    ****     for(;;)
  79:main_cm4.c    ****     {
  80:main_cm4.c    ****         /* Place your application code here. */
  81:main_cm4.c    ****         // Read ADC values
  82:main_cm4.c    ****         Cy_SAR_StartConvert(SAR, CY_SAR_START_CONVERT_SINGLE_SHOT);
 162              		.loc 1 82 0 discriminator 1
 163 002e 194C     		ldr	r4, .L15+16
 164 0030 0021     		movs	r1, #0
 165 0032 2046     		mov	r0, r4
 166 0034 FFF7FEFF 		bl	Cy_SAR_StartConvert
 167              	.LVL12:
  83:main_cm4.c    ****         voltCount = Cy_SAR_GetResult16(SAR, 0);
 168              		.loc 1 83 0 discriminator 1
 169 0038 0021     		movs	r1, #0
 170 003a 2046     		mov	r0, r4
 171 003c FFF7FEFF 		bl	Cy_SAR_GetResult16
 172              	.LVL13:
  84:main_cm4.c    ****         v1 = Cy_SAR_CountsTo_Volts(SAR, 0, voltCount);
 173              		.loc 1 84 0 discriminator 1
 174 0040 0246     		mov	r2, r0
 175 0042 0021     		movs	r1, #0
 176 0044 2046     		mov	r0, r4
 177              	.LVL14:
 178 0046 FFF7FEFF 		bl	Cy_SAR_CountsTo_Volts
 179              	.LVL15:
  85:main_cm4.c    ****         /* Place your application code here. */
  86:main_cm4.c    ****         printf("Volt is: %f\r\n", v1);
 180              		.loc 1 86 0 discriminator 1
 181 004a FFF7FEFF 		bl	__aeabi_f2d
ARM GAS  C:\Users\JC\AppData\Local\Temp\ccbVWoGr.s 			page 8


 182              	.LVL16:
 183 004e 0246     		mov	r2, r0
 184 0050 0B46     		mov	r3, r1
 185 0052 1148     		ldr	r0, .L15+20
 186 0054 FFF7FEFF 		bl	printf
 187              	.LVL17:
  87:main_cm4.c    ****         currentVal[0] = v1;
  88:main_cm4.c    ****         
  89:main_cm4.c    ****         cy_stc_ble_gatt_handle_value_pair_t serviceHandle;
  90:main_cm4.c    ****         cy_stc_ble_gatt_value_t serviceData;
  91:main_cm4.c    ****         
  92:main_cm4.c    **** //        if (testData > 10) {
  93:main_cm4.c    **** //            testData = 0;
  94:main_cm4.c    **** //        }
  95:main_cm4.c    **** //        else {
  96:main_cm4.c    **** //            testData++;
  97:main_cm4.c    **** //        }
  98:main_cm4.c    **** //        
  99:main_cm4.c    ****         testData = 10;
 100:main_cm4.c    ****         
 101:main_cm4.c    ****         
 102:main_cm4.c    ****         serviceData.val = testData;
 188              		.loc 1 102 0 discriminator 1
 189 0058 0A23     		movs	r3, #10
 190 005a 0193     		str	r3, [sp, #4]
 103:main_cm4.c    ****         serviceData.len = sizeof(testData);
 191              		.loc 1 103 0 discriminator 1
 192 005c 0123     		movs	r3, #1
 193 005e ADF80830 		strh	r3, [sp, #8]	@ movhi
 104:main_cm4.c    ****         
 105:main_cm4.c    ****         serviceHandle.attrHandle = CY_BLE_DEVICE_INTERFACE_CURRENT_VAL_CHAR_HANDLE;
 194              		.loc 1 105 0 discriminator 1
 195 0062 1223     		movs	r3, #18
 196 0064 ADF81430 		strh	r3, [sp, #20]	@ movhi
 106:main_cm4.c    ****         serviceHandle.value = serviceData;
 197              		.loc 1 106 0 discriminator 1
 198 0068 03AB     		add	r3, sp, #12
 199 006a 01AA     		add	r2, sp, #4
 200 006c 92E80300 		ldmia	r2, {r0, r1}
 201 0070 83E80300 		stmia	r3, {r0, r1}
 107:main_cm4.c    ****         Cy_BLE_GATTS_WriteAttributeValueLocal(&serviceHandle);
 202              		.loc 1 107 0 discriminator 1
 203 0074 1846     		mov	r0, r3
 204 0076 FFF7FEFF 		bl	Cy_BLE_GATTS_WriteAttributeValueLocal
 205              	.LVL18:
 108:main_cm4.c    ****         
 109:main_cm4.c    ****         CyDelay(100);
 206              		.loc 1 109 0 discriminator 1
 207 007a 6420     		movs	r0, #100
 208 007c FFF7FEFF 		bl	Cy_SysLib_Delay
 209              	.LVL19:
 210 0080 D5E7     		b	.L13
 211              	.L16:
 212 0082 00BF     		.align	2
 213              	.L15:
 214 0084 00000000 		.word	genericEventHandler
 215 0088 00000000 		.word	cy_ble_state
ARM GAS  C:\Users\JC\AppData\Local\Temp\ccbVWoGr.s 			page 9


 216 008c 00000000 		.word	bleInterruptNotify
 217 0090 00000000 		.word	.LC0
 218 0094 00001D41 		.word	1092419584
 219 0098 08000000 		.word	.LC1
 220              	.LBE7:
 221              		.cfi_endproc
 222              	.LFE542:
 223              		.size	main, .-main
 224              		.comm	data,4,4
 225              		.global	bluetooth_conn
 226              		.section	.rodata.str1.4,"aMS",%progbits,1
 227              		.align	2
 228              	.LC0:
 229 0000 68656C6C 		.ascii	"hello\000"
 229      6F00
 230 0006 0000     		.space	2
 231              	.LC1:
 232 0008 566F6C74 		.ascii	"Volt is: %f\015\012\000"
 232      2069733A 
 232      2025660D 
 232      0A00
 233              		.bss
 234              		.align	2
 235              		.set	.LANCHOR0,. + 0
 236              		.type	bluetooth_conn, %object
 237              		.size	bluetooth_conn, 4
 238              	bluetooth_conn:
 239 0000 00000000 		.space	4
 240              		.text
 241              	.Letext0:
 242              		.file 3 "c:\\program files (x86)\\cypress\\psoc creator\\4.4\\psoc creator\\import\\gnu\\arm\\5.4.
 243              		.file 4 "c:\\program files (x86)\\cypress\\psoc creator\\4.4\\psoc creator\\import\\gnu\\arm\\5.4.
 244              		.file 5 "Generated_Source\\PSoC6\\pdl\\devices/psoc6/include/ip/cyip_sar.h"
 245              		.file 6 "Generated_Source\\PSoC6\\pdl\\devices/psoc6/include/psoc6_01_config.h"
 246              		.file 7 "Generated_Source\\PSoC6\\pdl\\drivers/peripheral/device/cy_device.h"
 247              		.file 8 "Generated_Source\\PSoC6\\pdl\\drivers/peripheral/sar/cy_sar.h"
 248              		.file 9 "Generated_Source\\PSoC6\\pdl\\drivers/peripheral/scb/cy_scb_uart.h"
 249              		.file 10 "Generated_Source\\PSoC6\\pdl\\middleware/ble/cy_ble_stack.h"
 250              		.file 11 "Generated_Source\\PSoC6\\pdl\\middleware/ble/cy_ble_stack_host_main.h"
 251              		.file 12 "Generated_Source\\PSoC6\\pdl\\middleware/ble/cy_ble_stack_gatt.h"
 252              		.file 13 "Generated_Source\\PSoC6\\pdl\\middleware/ble/cy_ble_gap.h"
 253              		.file 14 "Generated_Source\\PSoC6\\pdl\\middleware/ble/cy_ble_stack_gatt_server.h"
 254              		.file 15 "Generated_Source\\PSoC6/ADC_1.h"
 255              		.file 16 "Generated_Source\\PSoC6\\pdl\\cmsis/include/core_cm4.h"
 256              		.file 17 "Generated_Source\\PSoC6/UART_1.h"
 257              		.file 18 "c:\\program files (x86)\\cypress\\psoc creator\\4.4\\psoc creator\\import\\gnu\\arm\\5.4
 258              		.file 19 "Generated_Source\\PSoC6\\pdl\\middleware/ble/cy_ble_gatt.h"
 259              		.file 20 "Generated_Source\\PSoC6\\pdl\\drivers/peripheral/syslib/cy_syslib.h"
 260              		.file 21 "Generated_Source\\PSoC6/BLE.h"
 261              		.file 22 "Generated_Source\\PSoC6\\pdl\\middleware/ble/cy_ble.h"
 262              		.file 23 "<built-in>"