ARM GAS  C:\Users\JC\AppData\Local\Temp\ccavrowa.s 			page 1


   1              		.syntax unified
   2              		.cpu cortex-m4
   3              		.eabi_attribute 27, 1
   4              		.fpu fpv4-sp-d16
   5              		.eabi_attribute 20, 1
   6              		.eabi_attribute 21, 1
   7              		.eabi_attribute 23, 3
   8              		.eabi_attribute 24, 1
   9              		.eabi_attribute 25, 1
  10              		.eabi_attribute 26, 1
  11              		.eabi_attribute 30, 6
  12              		.eabi_attribute 34, 1
  13              		.eabi_attribute 18, 4
  14              		.thumb
  15              		.syntax unified
  16              		.file	"cy_ble_event_handler.c"
  17              		.text
  18              	.Ltext0:
  19              		.cfi_sections	.debug_frame
  20              		.section	.text.Cy_BLE_GetAdvertisementState,"ax",%progbits
  21              		.align	2
  22              		.thumb
  23              		.thumb_func
  24              		.type	Cy_BLE_GetAdvertisementState, %function
  25              	Cy_BLE_GetAdvertisementState:
  26              	.LFB170:
  27              		.file 1 "Generated_Source\\PSoC6\\pdl\\middleware\\ble\\cy_ble_gap.h"
   1:Generated_Source\PSoC6\pdl\middleware\ble/cy_ble_gap.h **** /***************************************************************************//**
   2:Generated_Source\PSoC6\pdl\middleware\ble/cy_ble_gap.h **** * \file cy_ble_gap.h
   3:Generated_Source\PSoC6\pdl\middleware\ble/cy_ble_gap.h **** * \version 2.60
   4:Generated_Source\PSoC6\pdl\middleware\ble/cy_ble_gap.h **** *
   5:Generated_Source\PSoC6\pdl\middleware\ble/cy_ble_gap.h **** * \brief
   6:Generated_Source\PSoC6\pdl\middleware\ble/cy_ble_gap.h **** *  Contains the prototypes and constants used in the BLE GAP profile.
   7:Generated_Source\PSoC6\pdl\middleware\ble/cy_ble_gap.h **** *
   8:Generated_Source\PSoC6\pdl\middleware\ble/cy_ble_gap.h **** ********************************************************************************
   9:Generated_Source\PSoC6\pdl\middleware\ble/cy_ble_gap.h **** * \copyright
  10:Generated_Source\PSoC6\pdl\middleware\ble/cy_ble_gap.h **** * Copyright 2017-2020, Cypress Semiconductor Corporation.  All rights reserved.
  11:Generated_Source\PSoC6\pdl\middleware\ble/cy_ble_gap.h **** * You may use this file only in accordance with the license, terms, conditions,
  12:Generated_Source\PSoC6\pdl\middleware\ble/cy_ble_gap.h **** * disclaimers, and limitations in the end user license agreement accompanying
  13:Generated_Source\PSoC6\pdl\middleware\ble/cy_ble_gap.h **** * the software package with which this file was provided.
  14:Generated_Source\PSoC6\pdl\middleware\ble/cy_ble_gap.h **** *******************************************************************************/
  15:Generated_Source\PSoC6\pdl\middleware\ble/cy_ble_gap.h **** 
  16:Generated_Source\PSoC6\pdl\middleware\ble/cy_ble_gap.h **** 
  17:Generated_Source\PSoC6\pdl\middleware\ble/cy_ble_gap.h **** #ifndef CY_BLE_GAP_H
  18:Generated_Source\PSoC6\pdl\middleware\ble/cy_ble_gap.h **** #define CY_BLE_GAP_H
  19:Generated_Source\PSoC6\pdl\middleware\ble/cy_ble_gap.h ****     
  20:Generated_Source\PSoC6\pdl\middleware\ble/cy_ble_gap.h **** #include "cy_ble_config.h"
  21:Generated_Source\PSoC6\pdl\middleware\ble/cy_ble_gap.h **** 
  22:Generated_Source\PSoC6\pdl\middleware\ble/cy_ble_gap.h **** /***************************************
  23:Generated_Source\PSoC6\pdl\middleware\ble/cy_ble_gap.h **** * BLE Stack includes
  24:Generated_Source\PSoC6\pdl\middleware\ble/cy_ble_gap.h **** ***************************************/
  25:Generated_Source\PSoC6\pdl\middleware\ble/cy_ble_gap.h **** #include "cy_ble_stack_gatt.h"    
  26:Generated_Source\PSoC6\pdl\middleware\ble/cy_ble_gap.h **** #include "cy_ble_stack_gap.h"
  27:Generated_Source\PSoC6\pdl\middleware\ble/cy_ble_gap.h **** #include "cy_ble_stack_gap_central.h"
  28:Generated_Source\PSoC6\pdl\middleware\ble/cy_ble_gap.h **** #include "cy_ble_stack_gap_peripheral.h"
  29:Generated_Source\PSoC6\pdl\middleware\ble/cy_ble_gap.h **** 
  30:Generated_Source\PSoC6\pdl\middleware\ble/cy_ble_gap.h **** /* C binding of definitions if building with C++ compiler */
ARM GAS  C:\Users\JC\AppData\Local\Temp\ccavrowa.s 			page 2


  31:Generated_Source\PSoC6\pdl\middleware\ble/cy_ble_gap.h **** #ifdef __cplusplus
  32:Generated_Source\PSoC6\pdl\middleware\ble/cy_ble_gap.h **** extern "C" {
  33:Generated_Source\PSoC6\pdl\middleware\ble/cy_ble_gap.h **** #endif /* __cplusplus */
  34:Generated_Source\PSoC6\pdl\middleware\ble/cy_ble_gap.h **** 
  35:Generated_Source\PSoC6\pdl\middleware\ble/cy_ble_gap.h **** /***************************************
  36:Generated_Source\PSoC6\pdl\middleware\ble/cy_ble_gap.h **** * Conditional Compilation Parameters
  37:Generated_Source\PSoC6\pdl\middleware\ble/cy_ble_gap.h **** ***************************************/
  38:Generated_Source\PSoC6\pdl\middleware\ble/cy_ble_gap.h **** /**
  39:Generated_Source\PSoC6\pdl\middleware\ble/cy_ble_gap.h ****  * The BLE operation mode.
  40:Generated_Source\PSoC6\pdl\middleware\ble/cy_ble_gap.h ****  */
  41:Generated_Source\PSoC6\pdl\middleware\ble/cy_ble_gap.h **** #define CY_BLE_MODE                          (CY_BLE_CONFIG_MODE)
  42:Generated_Source\PSoC6\pdl\middleware\ble/cy_ble_gap.h **** 
  43:Generated_Source\PSoC6\pdl\middleware\ble/cy_ble_gap.h **** /** 
  44:Generated_Source\PSoC6\pdl\middleware\ble/cy_ble_gap.h ****  * Maximum number of BLE connections
  45:Generated_Source\PSoC6\pdl\middleware\ble/cy_ble_gap.h ****  * This parameter displays how many BLE connections (both Central and 
  46:Generated_Source\PSoC6\pdl\middleware\ble/cy_ble_gap.h ****  * Peripheral) are allowed. Valid range is from 1 to 4.
  47:Generated_Source\PSoC6\pdl\middleware\ble/cy_ble_gap.h ****  */
  48:Generated_Source\PSoC6\pdl\middleware\ble/cy_ble_gap.h **** #define CY_BLE_CONN_COUNT                    (CY_BLE_CONFIG_CONN_COUNT)
  49:Generated_Source\PSoC6\pdl\middleware\ble/cy_ble_gap.h ****  
  50:Generated_Source\PSoC6\pdl\middleware\ble/cy_ble_gap.h **** /**
  51:Generated_Source\PSoC6\pdl\middleware\ble/cy_ble_gap.h ****  * The GAP Role 
  52:Generated_Source\PSoC6\pdl\middleware\ble/cy_ble_gap.h ****  * The following defined mask can be used:
  53:Generated_Source\PSoC6\pdl\middleware\ble/cy_ble_gap.h ****  * CY_BLE_GAP_PERIPHERAL  (0x01u) - device operates as peripheral.
  54:Generated_Source\PSoC6\pdl\middleware\ble/cy_ble_gap.h ****  * CY_BLE_GAP_CENTRAL     (0x02u) - device operates as central. 
  55:Generated_Source\PSoC6\pdl\middleware\ble/cy_ble_gap.h ****  * CY_BLE_GAP_BROADCASTER (0x04u) - device operates as broadcaster.
  56:Generated_Source\PSoC6\pdl\middleware\ble/cy_ble_gap.h ****  * CY_BLE_GAP_OBSERVER    (0x08u) - device operates as observer.
  57:Generated_Source\PSoC6\pdl\middleware\ble/cy_ble_gap.h ****  * CY_BLE_GAP_HCI         (0x00u) - used when BLE operates in HCI mode.
  58:Generated_Source\PSoC6\pdl\middleware\ble/cy_ble_gap.h ****  */ 
  59:Generated_Source\PSoC6\pdl\middleware\ble/cy_ble_gap.h **** #define CY_BLE_GAP_ROLE                       (CY_BLE_CONFIG_GAP_ROLE)
  60:Generated_Source\PSoC6\pdl\middleware\ble/cy_ble_gap.h **** 
  61:Generated_Source\PSoC6\pdl\middleware\ble/cy_ble_gap.h **** /** The number of GAP Peripheral configurations structures */
  62:Generated_Source\PSoC6\pdl\middleware\ble/cy_ble_gap.h **** #define CY_BLE_GAP_PERIPHERAL_COUNT           (CY_BLE_CONFIG_GAP_PERIPHERAL_COUNT)
  63:Generated_Source\PSoC6\pdl\middleware\ble/cy_ble_gap.h **** 
  64:Generated_Source\PSoC6\pdl\middleware\ble/cy_ble_gap.h **** /** The number of GAP Broadcaster configurations structures */
  65:Generated_Source\PSoC6\pdl\middleware\ble/cy_ble_gap.h **** #define CY_BLE_GAP_BROADCASTER_COUNT          (CY_BLE_CONFIG_GAP_BROADCASTER_COUNT)
  66:Generated_Source\PSoC6\pdl\middleware\ble/cy_ble_gap.h **** 
  67:Generated_Source\PSoC6\pdl\middleware\ble/cy_ble_gap.h **** /** The number of GAP Central configurations structures */
  68:Generated_Source\PSoC6\pdl\middleware\ble/cy_ble_gap.h **** #define CY_BLE_GAP_CENTRAL_COUNT              (CY_BLE_CONFIG_GAP_CENTRAL_COUNT)
  69:Generated_Source\PSoC6\pdl\middleware\ble/cy_ble_gap.h **** 
  70:Generated_Source\PSoC6\pdl\middleware\ble/cy_ble_gap.h **** /** The number of GAP Observer configurations structures */
  71:Generated_Source\PSoC6\pdl\middleware\ble/cy_ble_gap.h **** #define CY_BLE_GAP_OBSERVER_COUNT             (CY_BLE_CONFIG_GAP_OBSERVER_COUNT)
  72:Generated_Source\PSoC6\pdl\middleware\ble/cy_ble_gap.h **** 
  73:Generated_Source\PSoC6\pdl\middleware\ble/cy_ble_gap.h **** /** The number of Security configurations structures */
  74:Generated_Source\PSoC6\pdl\middleware\ble/cy_ble_gap.h **** #define CY_BLE_AUTH_INFO_COUNT                (CY_BLE_CONFIG_AUTH_INFO_COUNT)
  75:Generated_Source\PSoC6\pdl\middleware\ble/cy_ble_gap.h **** 
  76:Generated_Source\PSoC6\pdl\middleware\ble/cy_ble_gap.h **** /** The Bonding Requirement structures */
  77:Generated_Source\PSoC6\pdl\middleware\ble/cy_ble_gap.h **** #define CY_BLE_BONDING_REQUIREMENT            (CY_BLE_CONFIG_BONDING_REQUIREMENT)
  78:Generated_Source\PSoC6\pdl\middleware\ble/cy_ble_gap.h **** 
  79:Generated_Source\PSoC6\pdl\middleware\ble/cy_ble_gap.h **** /** The GAP Role defines */
  80:Generated_Source\PSoC6\pdl\middleware\ble/cy_ble_gap.h **** #define CY_BLE_GAP_ROLE_PERIPHERAL            (0u != (CY_BLE_GAP_ROLE & CY_BLE_GAP_PERIPHERAL))
  81:Generated_Source\PSoC6\pdl\middleware\ble/cy_ble_gap.h **** #define CY_BLE_GAP_ROLE_CENTRAL               (0u != (CY_BLE_GAP_ROLE & CY_BLE_GAP_CENTRAL))
  82:Generated_Source\PSoC6\pdl\middleware\ble/cy_ble_gap.h **** #define CY_BLE_GAP_ROLE_OBSERVER              (0u != (CY_BLE_GAP_ROLE & CY_BLE_GAP_OBSERVER))
  83:Generated_Source\PSoC6\pdl\middleware\ble/cy_ble_gap.h **** #define CY_BLE_GAP_ROLE_BROADCASTER           (0u != (CY_BLE_GAP_ROLE & CY_BLE_GAP_BROADCASTER))
  84:Generated_Source\PSoC6\pdl\middleware\ble/cy_ble_gap.h **** 
  85:Generated_Source\PSoC6\pdl\middleware\ble/cy_ble_gap.h **** #define CY_BLE_GAPP_CONF_COUNT                (CY_BLE_GAP_PERIPHERAL_COUNT + CY_BLE_GAP_BROADCASTER
  86:Generated_Source\PSoC6\pdl\middleware\ble/cy_ble_gap.h **** #define CY_BLE_GAPC_CONF_COUNT                (CY_BLE_GAP_CENTRAL_COUNT + CY_BLE_GAP_OBSERVER_COUNT
  87:Generated_Source\PSoC6\pdl\middleware\ble/cy_ble_gap.h **** 
ARM GAS  C:\Users\JC\AppData\Local\Temp\ccavrowa.s 			page 3


  88:Generated_Source\PSoC6\pdl\middleware\ble/cy_ble_gap.h **** /***************************************
  89:Generated_Source\PSoC6\pdl\middleware\ble/cy_ble_gap.h **** * Type Definitions
  90:Generated_Source\PSoC6\pdl\middleware\ble/cy_ble_gap.h **** ***************************************/
  91:Generated_Source\PSoC6\pdl\middleware\ble/cy_ble_gap.h **** 
  92:Generated_Source\PSoC6\pdl\middleware\ble/cy_ble_gap.h **** #if (CY_BLE_MODE_PROFILE)
  93:Generated_Source\PSoC6\pdl\middleware\ble/cy_ble_gap.h **** 
  94:Generated_Source\PSoC6\pdl\middleware\ble/cy_ble_gap.h **** /***************************************
  95:Generated_Source\PSoC6\pdl\middleware\ble/cy_ble_gap.h **** * Enumerated Types and Structures
  96:Generated_Source\PSoC6\pdl\middleware\ble/cy_ble_gap.h **** ***************************************/
  97:Generated_Source\PSoC6\pdl\middleware\ble/cy_ble_gap.h **** 
  98:Generated_Source\PSoC6\pdl\middleware\ble/cy_ble_gap.h **** /**
  99:Generated_Source\PSoC6\pdl\middleware\ble/cy_ble_gap.h ****  * \addtogroup group_ble_common_api_gap_definitions
 100:Generated_Source\PSoC6\pdl\middleware\ble/cy_ble_gap.h ****  * @{
 101:Generated_Source\PSoC6\pdl\middleware\ble/cy_ble_gap.h ****  */
 102:Generated_Source\PSoC6\pdl\middleware\ble/cy_ble_gap.h **** 
 103:Generated_Source\PSoC6\pdl\middleware\ble/cy_ble_gap.h **** /** BLE state machine type */
 104:Generated_Source\PSoC6\pdl\middleware\ble/cy_ble_gap.h **** typedef enum
 105:Generated_Source\PSoC6\pdl\middleware\ble/cy_ble_gap.h **** {
 106:Generated_Source\PSoC6\pdl\middleware\ble/cy_ble_gap.h ****     CY_BLE_STATE_STOPPED,                             /**< BLE is turned off */
 107:Generated_Source\PSoC6\pdl\middleware\ble/cy_ble_gap.h ****     CY_BLE_STATE_INITIALIZING,                        /**< Initializing state */
 108:Generated_Source\PSoC6\pdl\middleware\ble/cy_ble_gap.h ****     CY_BLE_STATE_ON,                                  /**< BLE is turned on */
 109:Generated_Source\PSoC6\pdl\middleware\ble/cy_ble_gap.h **** #if (CY_BLE_GAP_ROLE_CENTRAL)
 110:Generated_Source\PSoC6\pdl\middleware\ble/cy_ble_gap.h ****     CY_BLE_STATE_CONNECTING,                          /**< Connecting */
 111:Generated_Source\PSoC6\pdl\middleware\ble/cy_ble_gap.h **** #endif /* CY_BLE_GAP_ROLE_CENTRAL */
 112:Generated_Source\PSoC6\pdl\middleware\ble/cy_ble_gap.h **** } cy_en_ble_state_t;
 113:Generated_Source\PSoC6\pdl\middleware\ble/cy_ble_gap.h **** 
 114:Generated_Source\PSoC6\pdl\middleware\ble/cy_ble_gap.h **** 
 115:Generated_Source\PSoC6\pdl\middleware\ble/cy_ble_gap.h **** /** Scanning state machine type */
 116:Generated_Source\PSoC6\pdl\middleware\ble/cy_ble_gap.h **** typedef enum
 117:Generated_Source\PSoC6\pdl\middleware\ble/cy_ble_gap.h **** {
 118:Generated_Source\PSoC6\pdl\middleware\ble/cy_ble_gap.h ****     CY_BLE_SCAN_STATE_STOPPED,                        /**< Scanning is stopped */
 119:Generated_Source\PSoC6\pdl\middleware\ble/cy_ble_gap.h ****     CY_BLE_SCAN_STATE_SCAN_INITIATED,                 /**< Scanning is initiated */
 120:Generated_Source\PSoC6\pdl\middleware\ble/cy_ble_gap.h ****     CY_BLE_SCAN_STATE_SCANNING,                       /**< Scanning process */
 121:Generated_Source\PSoC6\pdl\middleware\ble/cy_ble_gap.h ****     CY_BLE_SCAN_STATE_STOP_INITIATED                  /**< Stop scanning is initiated */
 122:Generated_Source\PSoC6\pdl\middleware\ble/cy_ble_gap.h **** } cy_en_ble_scan_state_t;
 123:Generated_Source\PSoC6\pdl\middleware\ble/cy_ble_gap.h **** 
 124:Generated_Source\PSoC6\pdl\middleware\ble/cy_ble_gap.h **** /** Advertising state machine type */
 125:Generated_Source\PSoC6\pdl\middleware\ble/cy_ble_gap.h **** typedef enum
 126:Generated_Source\PSoC6\pdl\middleware\ble/cy_ble_gap.h **** {
 127:Generated_Source\PSoC6\pdl\middleware\ble/cy_ble_gap.h ****     CY_BLE_ADV_STATE_STOPPED,                         /**< Advertising is stopped */
 128:Generated_Source\PSoC6\pdl\middleware\ble/cy_ble_gap.h ****     CY_BLE_ADV_STATE_ADV_INITIATED,                   /**< Advertising is initiated */
 129:Generated_Source\PSoC6\pdl\middleware\ble/cy_ble_gap.h ****     CY_BLE_ADV_STATE_ADVERTISING,                     /**< Advertising process */
 130:Generated_Source\PSoC6\pdl\middleware\ble/cy_ble_gap.h ****     CY_BLE_ADV_STATE_STOP_INITIATED                   /**< Stop advertising is initiated */
 131:Generated_Source\PSoC6\pdl\middleware\ble/cy_ble_gap.h **** } cy_en_ble_adv_state_t;
 132:Generated_Source\PSoC6\pdl\middleware\ble/cy_ble_gap.h **** 
 133:Generated_Source\PSoC6\pdl\middleware\ble/cy_ble_gap.h **** /** Connection state machine type */
 134:Generated_Source\PSoC6\pdl\middleware\ble/cy_ble_gap.h **** typedef enum
 135:Generated_Source\PSoC6\pdl\middleware\ble/cy_ble_gap.h **** {
 136:Generated_Source\PSoC6\pdl\middleware\ble/cy_ble_gap.h ****     CY_BLE_CONN_STATE_DISCONNECTED,                   /**< Essentially idle state */
 137:Generated_Source\PSoC6\pdl\middleware\ble/cy_ble_gap.h ****     CY_BLE_CONN_STATE_CLIENT_DISCONNECTED_DISCOVERED, /**< Server is disconnected but discovered */
 138:Generated_Source\PSoC6\pdl\middleware\ble/cy_ble_gap.h ****     CY_BLE_CONN_STATE_CONNECTED,                      /**< Peer device is connected for this and fo
 139:Generated_Source\PSoC6\pdl\middleware\ble/cy_ble_gap.h ****     CY_BLE_CONN_STATE_CLIENT_SRVC_DISCOVERING,        /**< Server services are being discovered */
 140:Generated_Source\PSoC6\pdl\middleware\ble/cy_ble_gap.h ****     CY_BLE_CONN_STATE_CLIENT_INCL_DISCOVERING,        /**< Server included services are being disco
 141:Generated_Source\PSoC6\pdl\middleware\ble/cy_ble_gap.h ****     CY_BLE_CONN_STATE_CLIENT_CHAR_DISCOVERING,        /**< Server characteristics are being discove
 142:Generated_Source\PSoC6\pdl\middleware\ble/cy_ble_gap.h ****     CY_BLE_CONN_STATE_CLIENT_DESCR_DISCOVERING,       /**< Server char. descriptors are being disco
 143:Generated_Source\PSoC6\pdl\middleware\ble/cy_ble_gap.h ****     CY_BLE_CONN_STATE_CLIENT_DISCOVERED               /**< Server is discovered */
 144:Generated_Source\PSoC6\pdl\middleware\ble/cy_ble_gap.h **** } cy_en_ble_conn_state_t;
ARM GAS  C:\Users\JC\AppData\Local\Temp\ccavrowa.s 			page 4


 145:Generated_Source\PSoC6\pdl\middleware\ble/cy_ble_gap.h **** 
 146:Generated_Source\PSoC6\pdl\middleware\ble/cy_ble_gap.h **** /** Structure with Generic Access Profile Service (GAPS) attribute handles */
 147:Generated_Source\PSoC6\pdl\middleware\ble/cy_ble_gap.h **** typedef struct
 148:Generated_Source\PSoC6\pdl\middleware\ble/cy_ble_gap.h **** {
 149:Generated_Source\PSoC6\pdl\middleware\ble/cy_ble_gap.h ****     /** Service handle*/
 150:Generated_Source\PSoC6\pdl\middleware\ble/cy_ble_gap.h ****     cy_ble_gatt_db_attr_handle_t serviceHandle;
 151:Generated_Source\PSoC6\pdl\middleware\ble/cy_ble_gap.h **** 
 152:Generated_Source\PSoC6\pdl\middleware\ble/cy_ble_gap.h ****     /** Handle of the GAPS Device Name Characteristic */
 153:Generated_Source\PSoC6\pdl\middleware\ble/cy_ble_gap.h ****     cy_ble_gatt_db_attr_handle_t deviceNameCharHandle;
 154:Generated_Source\PSoC6\pdl\middleware\ble/cy_ble_gap.h **** 
 155:Generated_Source\PSoC6\pdl\middleware\ble/cy_ble_gap.h ****     /** Handle of the GAPS Appearance Characteristic */
 156:Generated_Source\PSoC6\pdl\middleware\ble/cy_ble_gap.h ****     cy_ble_gatt_db_attr_handle_t appearanceCharHandle;
 157:Generated_Source\PSoC6\pdl\middleware\ble/cy_ble_gap.h **** 
 158:Generated_Source\PSoC6\pdl\middleware\ble/cy_ble_gap.h ****     /** Handle of the GAPS Peripheral Preferred Connection Parameters Characteristic */
 159:Generated_Source\PSoC6\pdl\middleware\ble/cy_ble_gap.h ****     cy_ble_gatt_db_attr_handle_t prefConnParamCharHandle;
 160:Generated_Source\PSoC6\pdl\middleware\ble/cy_ble_gap.h **** 
 161:Generated_Source\PSoC6\pdl\middleware\ble/cy_ble_gap.h ****     /** Handle of the GAPS Central Address Resolution characteristic */
 162:Generated_Source\PSoC6\pdl\middleware\ble/cy_ble_gap.h ****     cy_ble_gatt_db_attr_handle_t centralAddrResolutionCharHandle;
 163:Generated_Source\PSoC6\pdl\middleware\ble/cy_ble_gap.h **** 
 164:Generated_Source\PSoC6\pdl\middleware\ble/cy_ble_gap.h ****     /** Handle of the GAPS Resolvable Private Address Only characteristic */
 165:Generated_Source\PSoC6\pdl\middleware\ble/cy_ble_gap.h ****     cy_ble_gatt_db_attr_handle_t resolvablePrivateAddressOnly;
 166:Generated_Source\PSoC6\pdl\middleware\ble/cy_ble_gap.h **** } cy_stc_ble_gaps_t;
 167:Generated_Source\PSoC6\pdl\middleware\ble/cy_ble_gap.h **** 
 168:Generated_Source\PSoC6\pdl\middleware\ble/cy_ble_gap.h **** /** GAP Service characteristics server's GATT DB handles structure type */
 169:Generated_Source\PSoC6\pdl\middleware\ble/cy_ble_gap.h **** typedef struct
 170:Generated_Source\PSoC6\pdl\middleware\ble/cy_ble_gap.h **** {
 171:Generated_Source\PSoC6\pdl\middleware\ble/cy_ble_gap.h ****     /** Handle of the GAPS Device Name Characteristic */
 172:Generated_Source\PSoC6\pdl\middleware\ble/cy_ble_gap.h ****     cy_ble_gatt_db_attr_handle_t deviceNameCharHandle;
 173:Generated_Source\PSoC6\pdl\middleware\ble/cy_ble_gap.h **** 
 174:Generated_Source\PSoC6\pdl\middleware\ble/cy_ble_gap.h ****     /** Handle of the GAPS Appearance Characteristic */
 175:Generated_Source\PSoC6\pdl\middleware\ble/cy_ble_gap.h ****     cy_ble_gatt_db_attr_handle_t appearanceCharHandle;
 176:Generated_Source\PSoC6\pdl\middleware\ble/cy_ble_gap.h **** 
 177:Generated_Source\PSoC6\pdl\middleware\ble/cy_ble_gap.h ****     /** Handle of the GAPS Peripheral Privacy Flag Parameters Characteristic */
 178:Generated_Source\PSoC6\pdl\middleware\ble/cy_ble_gap.h ****     cy_ble_gatt_db_attr_handle_t periphPrivacyCharHandle;
 179:Generated_Source\PSoC6\pdl\middleware\ble/cy_ble_gap.h **** 
 180:Generated_Source\PSoC6\pdl\middleware\ble/cy_ble_gap.h ****     /** Handle of the GAPS Reconnection Address Characteristic */
 181:Generated_Source\PSoC6\pdl\middleware\ble/cy_ble_gap.h ****     cy_ble_gatt_db_attr_handle_t reconnAddrCharHandle;
 182:Generated_Source\PSoC6\pdl\middleware\ble/cy_ble_gap.h **** 
 183:Generated_Source\PSoC6\pdl\middleware\ble/cy_ble_gap.h ****     /** Handle of the GAPS Peripheral Preferred Connection Parameters Characteristic */
 184:Generated_Source\PSoC6\pdl\middleware\ble/cy_ble_gap.h ****     cy_ble_gatt_db_attr_handle_t prefConnParamCharHandle;
 185:Generated_Source\PSoC6\pdl\middleware\ble/cy_ble_gap.h **** 
 186:Generated_Source\PSoC6\pdl\middleware\ble/cy_ble_gap.h ****     /** Handle of the GAPS Central Address Resolution characteristic */
 187:Generated_Source\PSoC6\pdl\middleware\ble/cy_ble_gap.h ****     cy_ble_gatt_db_attr_handle_t centralAddrResolutionCharHandle;
 188:Generated_Source\PSoC6\pdl\middleware\ble/cy_ble_gap.h **** 
 189:Generated_Source\PSoC6\pdl\middleware\ble/cy_ble_gap.h ****     /** Handle of the GAPS Resolvable Private Address Only characteristic */
 190:Generated_Source\PSoC6\pdl\middleware\ble/cy_ble_gap.h ****     cy_ble_gatt_db_attr_handle_t resolvablePrivateAddressOnly;
 191:Generated_Source\PSoC6\pdl\middleware\ble/cy_ble_gap.h **** }cy_stc_ble_gapc_t;
 192:Generated_Source\PSoC6\pdl\middleware\ble/cy_ble_gap.h **** 
 193:Generated_Source\PSoC6\pdl\middleware\ble/cy_ble_gap.h **** /* Stack mode defines */
 194:Generated_Source\PSoC6\pdl\middleware\ble/cy_ble_gap.h **** 
 195:Generated_Source\PSoC6\pdl\middleware\ble/cy_ble_gap.h **** /** Advertisement SIG assigned numbers */
 196:Generated_Source\PSoC6\pdl\middleware\ble/cy_ble_gap.h **** typedef enum
 197:Generated_Source\PSoC6\pdl\middleware\ble/cy_ble_gap.h **** {
 198:Generated_Source\PSoC6\pdl\middleware\ble/cy_ble_gap.h ****     /** Flags */
 199:Generated_Source\PSoC6\pdl\middleware\ble/cy_ble_gap.h ****     CY_BLE_GAP_ADV_FLAGS = 0x01u,
 200:Generated_Source\PSoC6\pdl\middleware\ble/cy_ble_gap.h **** 
 201:Generated_Source\PSoC6\pdl\middleware\ble/cy_ble_gap.h ****     /** Incomplete List of 16-bit Service Class UUIDs */
ARM GAS  C:\Users\JC\AppData\Local\Temp\ccavrowa.s 			page 5


 202:Generated_Source\PSoC6\pdl\middleware\ble/cy_ble_gap.h ****     CY_BLE_GAP_ADV_INCOMPL_16UUID,
 203:Generated_Source\PSoC6\pdl\middleware\ble/cy_ble_gap.h **** 
 204:Generated_Source\PSoC6\pdl\middleware\ble/cy_ble_gap.h ****     /** Complete List of 16-bit Service Class UUIDs */
 205:Generated_Source\PSoC6\pdl\middleware\ble/cy_ble_gap.h ****     CY_BLE_GAP_ADV_COMPL_16UUID,
 206:Generated_Source\PSoC6\pdl\middleware\ble/cy_ble_gap.h **** 
 207:Generated_Source\PSoC6\pdl\middleware\ble/cy_ble_gap.h ****     /** Incomplete List of 32-bit Service Class UUIDs */
 208:Generated_Source\PSoC6\pdl\middleware\ble/cy_ble_gap.h ****     CY_BLE_GAP_ADV_INCOMPL_32_UUID,
 209:Generated_Source\PSoC6\pdl\middleware\ble/cy_ble_gap.h **** 
 210:Generated_Source\PSoC6\pdl\middleware\ble/cy_ble_gap.h ****     /** Complete List of 32-bit Service Class UUIDs */
 211:Generated_Source\PSoC6\pdl\middleware\ble/cy_ble_gap.h ****     CY_BLE_GAP_ADV_COMPL_32_UUID,
 212:Generated_Source\PSoC6\pdl\middleware\ble/cy_ble_gap.h **** 
 213:Generated_Source\PSoC6\pdl\middleware\ble/cy_ble_gap.h ****     /** Incomplete List of 128-bit Service Class UUIDs */
 214:Generated_Source\PSoC6\pdl\middleware\ble/cy_ble_gap.h ****     CY_BLE_GAP_ADV_INCOMPL_128_UUID,
 215:Generated_Source\PSoC6\pdl\middleware\ble/cy_ble_gap.h **** 
 216:Generated_Source\PSoC6\pdl\middleware\ble/cy_ble_gap.h ****     /** Complete List of 128-bit Service Class UUIDs */
 217:Generated_Source\PSoC6\pdl\middleware\ble/cy_ble_gap.h ****     CY_BLE_GAP_ADV_COMPL_128_UUID,
 218:Generated_Source\PSoC6\pdl\middleware\ble/cy_ble_gap.h **** 
 219:Generated_Source\PSoC6\pdl\middleware\ble/cy_ble_gap.h ****     /** Shortened Local Name */
 220:Generated_Source\PSoC6\pdl\middleware\ble/cy_ble_gap.h ****     CY_BLE_GAP_ADV_SHORT_NAME,
 221:Generated_Source\PSoC6\pdl\middleware\ble/cy_ble_gap.h **** 
 222:Generated_Source\PSoC6\pdl\middleware\ble/cy_ble_gap.h ****     /** Complete Local Name */
 223:Generated_Source\PSoC6\pdl\middleware\ble/cy_ble_gap.h ****     CY_BLE_GAP_ADV_COMPL_NAME,
 224:Generated_Source\PSoC6\pdl\middleware\ble/cy_ble_gap.h **** 
 225:Generated_Source\PSoC6\pdl\middleware\ble/cy_ble_gap.h ****     /** Tx Power Level */
 226:Generated_Source\PSoC6\pdl\middleware\ble/cy_ble_gap.h ****     CY_BLE_GAP_ADV_TX_PWR_LVL,
 227:Generated_Source\PSoC6\pdl\middleware\ble/cy_ble_gap.h **** 
 228:Generated_Source\PSoC6\pdl\middleware\ble/cy_ble_gap.h ****     /** Class of Device */
 229:Generated_Source\PSoC6\pdl\middleware\ble/cy_ble_gap.h ****     CY_BLE_GAP_ADV_CLASS_OF_DEVICE = 0x0Du,
 230:Generated_Source\PSoC6\pdl\middleware\ble/cy_ble_gap.h **** 
 231:Generated_Source\PSoC6\pdl\middleware\ble/cy_ble_gap.h ****     /** Simple Pairing Hash C */
 232:Generated_Source\PSoC6\pdl\middleware\ble/cy_ble_gap.h ****     CY_BLE_GAP_ADV_SMPL_PAIR_HASH_C,
 233:Generated_Source\PSoC6\pdl\middleware\ble/cy_ble_gap.h **** 
 234:Generated_Source\PSoC6\pdl\middleware\ble/cy_ble_gap.h ****     /** Simple Pairing Randomizer R */
 235:Generated_Source\PSoC6\pdl\middleware\ble/cy_ble_gap.h ****     CY_BLE_GAP_ADV_SMPL_PAIR_RANDOM_R,
 236:Generated_Source\PSoC6\pdl\middleware\ble/cy_ble_gap.h **** 
 237:Generated_Source\PSoC6\pdl\middleware\ble/cy_ble_gap.h ****     /** Device ID*/
 238:Generated_Source\PSoC6\pdl\middleware\ble/cy_ble_gap.h ****     CY_BLE_GAP_ADV_DEVICE_ID,
 239:Generated_Source\PSoC6\pdl\middleware\ble/cy_ble_gap.h **** 
 240:Generated_Source\PSoC6\pdl\middleware\ble/cy_ble_gap.h ****     /** Security Manager TK Value */
 241:Generated_Source\PSoC6\pdl\middleware\ble/cy_ble_gap.h ****     CY_BLE_GAP_ADV_SCRT_MNGR_TK_VAL = 0x10u,
 242:Generated_Source\PSoC6\pdl\middleware\ble/cy_ble_gap.h **** 
 243:Generated_Source\PSoC6\pdl\middleware\ble/cy_ble_gap.h ****     /** Security Manager Out of Band Flags */
 244:Generated_Source\PSoC6\pdl\middleware\ble/cy_ble_gap.h ****     CY_BLE_GAP_ADV_SCRT_MNGR_OOB_FLAGS,
 245:Generated_Source\PSoC6\pdl\middleware\ble/cy_ble_gap.h **** 
 246:Generated_Source\PSoC6\pdl\middleware\ble/cy_ble_gap.h ****     /** Slave Connection Interval Range */
 247:Generated_Source\PSoC6\pdl\middleware\ble/cy_ble_gap.h ****     CY_BLE_GAP_ADV_SLAVE_CONN_INTRV_RANGE,
 248:Generated_Source\PSoC6\pdl\middleware\ble/cy_ble_gap.h **** 
 249:Generated_Source\PSoC6\pdl\middleware\ble/cy_ble_gap.h ****     /** List of 16-bit Service Solicitation UUIDs */
 250:Generated_Source\PSoC6\pdl\middleware\ble/cy_ble_gap.h ****     CY_BLE_GAP_ADV_SOLICIT_16UUID = 0x14u,
 251:Generated_Source\PSoC6\pdl\middleware\ble/cy_ble_gap.h **** 
 252:Generated_Source\PSoC6\pdl\middleware\ble/cy_ble_gap.h ****     /** List of 128-bit Service Solicitation UUIDs */
 253:Generated_Source\PSoC6\pdl\middleware\ble/cy_ble_gap.h ****     CY_BLE_GAP_ADV_SOLICIT_128UUID,
 254:Generated_Source\PSoC6\pdl\middleware\ble/cy_ble_gap.h **** 
 255:Generated_Source\PSoC6\pdl\middleware\ble/cy_ble_gap.h ****     /** Service Data - 16-bit UUID */
 256:Generated_Source\PSoC6\pdl\middleware\ble/cy_ble_gap.h ****     CY_BLE_GAP_ADV_SRVC_DATA_16UUID,
 257:Generated_Source\PSoC6\pdl\middleware\ble/cy_ble_gap.h **** 
 258:Generated_Source\PSoC6\pdl\middleware\ble/cy_ble_gap.h ****     /** Public Target Address */
ARM GAS  C:\Users\JC\AppData\Local\Temp\ccavrowa.s 			page 6


 259:Generated_Source\PSoC6\pdl\middleware\ble/cy_ble_gap.h ****     CY_BLE_GAP_ADV_PUBLIC_TARGET_ADDR,
 260:Generated_Source\PSoC6\pdl\middleware\ble/cy_ble_gap.h **** 
 261:Generated_Source\PSoC6\pdl\middleware\ble/cy_ble_gap.h ****     /** Random Target Address */
 262:Generated_Source\PSoC6\pdl\middleware\ble/cy_ble_gap.h ****     CY_BLE_GAP_ADV_RANDOM_TARGET_ADDR,
 263:Generated_Source\PSoC6\pdl\middleware\ble/cy_ble_gap.h **** 
 264:Generated_Source\PSoC6\pdl\middleware\ble/cy_ble_gap.h ****     /** Appearance */
 265:Generated_Source\PSoC6\pdl\middleware\ble/cy_ble_gap.h ****     CY_BLE_GAP_ADV_APPEARANCE,
 266:Generated_Source\PSoC6\pdl\middleware\ble/cy_ble_gap.h **** 
 267:Generated_Source\PSoC6\pdl\middleware\ble/cy_ble_gap.h ****     /** Advertising Interval */
 268:Generated_Source\PSoC6\pdl\middleware\ble/cy_ble_gap.h ****     CY_BLE_GAP_ADV_ADVERT_INTERVAL,
 269:Generated_Source\PSoC6\pdl\middleware\ble/cy_ble_gap.h **** 
 270:Generated_Source\PSoC6\pdl\middleware\ble/cy_ble_gap.h ****     /** LE Bluetooth Device Address */
 271:Generated_Source\PSoC6\pdl\middleware\ble/cy_ble_gap.h ****     CY_BLE_GAP_ADV_LE_BT_DEVICE_ADDR,
 272:Generated_Source\PSoC6\pdl\middleware\ble/cy_ble_gap.h **** 
 273:Generated_Source\PSoC6\pdl\middleware\ble/cy_ble_gap.h ****     /** LE Role */
 274:Generated_Source\PSoC6\pdl\middleware\ble/cy_ble_gap.h ****     CY_BLE_GAP_ADV_LE_ROLE,
 275:Generated_Source\PSoC6\pdl\middleware\ble/cy_ble_gap.h **** 
 276:Generated_Source\PSoC6\pdl\middleware\ble/cy_ble_gap.h ****     /** Simple Pairing Hash C-256 */
 277:Generated_Source\PSoC6\pdl\middleware\ble/cy_ble_gap.h ****     CY_BLE_GAP_ADV_SMPL_PAIR_HASH_C256,
 278:Generated_Source\PSoC6\pdl\middleware\ble/cy_ble_gap.h **** 
 279:Generated_Source\PSoC6\pdl\middleware\ble/cy_ble_gap.h ****     /** Simple Pairing Randomizer R-256 */
 280:Generated_Source\PSoC6\pdl\middleware\ble/cy_ble_gap.h ****     CY_BLE_GAP_ADV_SMPL_PAIR_RANDOM_R256,
 281:Generated_Source\PSoC6\pdl\middleware\ble/cy_ble_gap.h **** 
 282:Generated_Source\PSoC6\pdl\middleware\ble/cy_ble_gap.h ****     /** List of 32-bit Service Solicitation UUIDs */
 283:Generated_Source\PSoC6\pdl\middleware\ble/cy_ble_gap.h ****     CY_BLE_GAP_ADV_SOLICIT_32UUID,
 284:Generated_Source\PSoC6\pdl\middleware\ble/cy_ble_gap.h **** 
 285:Generated_Source\PSoC6\pdl\middleware\ble/cy_ble_gap.h ****     /** Service Data - 32-bit UUID */
 286:Generated_Source\PSoC6\pdl\middleware\ble/cy_ble_gap.h ****     CY_BLE_GAP_ADV_SRVC_DATA_32UUID,
 287:Generated_Source\PSoC6\pdl\middleware\ble/cy_ble_gap.h **** 
 288:Generated_Source\PSoC6\pdl\middleware\ble/cy_ble_gap.h ****     /** Service Data - 128-bit UUID */
 289:Generated_Source\PSoC6\pdl\middleware\ble/cy_ble_gap.h ****     CY_BLE_GAP_ADV_SRVC_DATA_128UUID,
 290:Generated_Source\PSoC6\pdl\middleware\ble/cy_ble_gap.h **** 
 291:Generated_Source\PSoC6\pdl\middleware\ble/cy_ble_gap.h ****     /** 3D Information Data */
 292:Generated_Source\PSoC6\pdl\middleware\ble/cy_ble_gap.h ****     CY_BLE_GAP_ADV_3D_INFO_DATA = 0x3D,
 293:Generated_Source\PSoC6\pdl\middleware\ble/cy_ble_gap.h **** 
 294:Generated_Source\PSoC6\pdl\middleware\ble/cy_ble_gap.h ****     /** Manufacturer Specific Data */
 295:Generated_Source\PSoC6\pdl\middleware\ble/cy_ble_gap.h ****     CY_BLE_GAP_ADV_MANUFACTURER_SPECIFIC_DATA = 0xFF
 296:Generated_Source\PSoC6\pdl\middleware\ble/cy_ble_gap.h **** }cy_en_ble_gap_adv_assign_numbers_t;
 297:Generated_Source\PSoC6\pdl\middleware\ble/cy_ble_gap.h **** 
 298:Generated_Source\PSoC6\pdl\middleware\ble/cy_ble_gap.h **** /** GAPP advertising configuration parameters structure */
 299:Generated_Source\PSoC6\pdl\middleware\ble/cy_ble_gap.h **** typedef struct
 300:Generated_Source\PSoC6\pdl\middleware\ble/cy_ble_gap.h **** {
 301:Generated_Source\PSoC6\pdl\middleware\ble/cy_ble_gap.h ****     /** The minimum interval for fast advertising the data and establishing the LE Connection */
 302:Generated_Source\PSoC6\pdl\middleware\ble/cy_ble_gap.h ****     uint16_t fastAdvIntervalMin;
 303:Generated_Source\PSoC6\pdl\middleware\ble/cy_ble_gap.h **** 
 304:Generated_Source\PSoC6\pdl\middleware\ble/cy_ble_gap.h ****     /** The maximum interval for fast advertising the data and establishing the LE Connection */
 305:Generated_Source\PSoC6\pdl\middleware\ble/cy_ble_gap.h ****     uint16_t fastAdvIntervalMax;
 306:Generated_Source\PSoC6\pdl\middleware\ble/cy_ble_gap.h **** 
 307:Generated_Source\PSoC6\pdl\middleware\ble/cy_ble_gap.h ****     /** The timeout value of  fast advertising with fast advertising interval parameters */
 308:Generated_Source\PSoC6\pdl\middleware\ble/cy_ble_gap.h ****     uint16_t fastAdvTimeOut;
 309:Generated_Source\PSoC6\pdl\middleware\ble/cy_ble_gap.h **** 
 310:Generated_Source\PSoC6\pdl\middleware\ble/cy_ble_gap.h ****     /** Slow advertising enable */
 311:Generated_Source\PSoC6\pdl\middleware\ble/cy_ble_gap.h ****     uint8_t  slowAdvEnable;
 312:Generated_Source\PSoC6\pdl\middleware\ble/cy_ble_gap.h **** 
 313:Generated_Source\PSoC6\pdl\middleware\ble/cy_ble_gap.h ****     /** The minimum interval for slow advertising the data and establishing the LE Connection */
 314:Generated_Source\PSoC6\pdl\middleware\ble/cy_ble_gap.h ****     uint16_t slowAdvIntervalMin;
 315:Generated_Source\PSoC6\pdl\middleware\ble/cy_ble_gap.h **** 
ARM GAS  C:\Users\JC\AppData\Local\Temp\ccavrowa.s 			page 7


 316:Generated_Source\PSoC6\pdl\middleware\ble/cy_ble_gap.h ****     /** The maximum interval for slow  advertising the data and establishing the LE Connection */
 317:Generated_Source\PSoC6\pdl\middleware\ble/cy_ble_gap.h ****     uint16_t slowAdvIntervalMax;
 318:Generated_Source\PSoC6\pdl\middleware\ble/cy_ble_gap.h **** 
 319:Generated_Source\PSoC6\pdl\middleware\ble/cy_ble_gap.h ****     /** The timeout value of slow advertising with slow advertising interval parameters */
 320:Generated_Source\PSoC6\pdl\middleware\ble/cy_ble_gap.h ****     uint16_t slowAdvTimeOut;
 321:Generated_Source\PSoC6\pdl\middleware\ble/cy_ble_gap.h **** }cy_stc_ble_gapp_adv_params_t;
 322:Generated_Source\PSoC6\pdl\middleware\ble/cy_ble_gap.h **** 
 323:Generated_Source\PSoC6\pdl\middleware\ble/cy_ble_gap.h **** /** GAPC advertising configuration parameters structure */
 324:Generated_Source\PSoC6\pdl\middleware\ble/cy_ble_gap.h **** typedef struct
 325:Generated_Source\PSoC6\pdl\middleware\ble/cy_ble_gap.h **** {
 326:Generated_Source\PSoC6\pdl\middleware\ble/cy_ble_gap.h ****     /** The scan interval when operating in Fast connection */
 327:Generated_Source\PSoC6\pdl\middleware\ble/cy_ble_gap.h ****     uint16_t fastScanInterval;
 328:Generated_Source\PSoC6\pdl\middleware\ble/cy_ble_gap.h **** 
 329:Generated_Source\PSoC6\pdl\middleware\ble/cy_ble_gap.h ****     /** Defines the scan window when operating in Fast connection */
 330:Generated_Source\PSoC6\pdl\middleware\ble/cy_ble_gap.h ****     uint16_t fastScanWindow;
 331:Generated_Source\PSoC6\pdl\middleware\ble/cy_ble_gap.h **** 
 332:Generated_Source\PSoC6\pdl\middleware\ble/cy_ble_gap.h ****     /** The timeout value of scanning with fast scan parameters */
 333:Generated_Source\PSoC6\pdl\middleware\ble/cy_ble_gap.h ****     uint16_t fastScanTimeOut;
 334:Generated_Source\PSoC6\pdl\middleware\ble/cy_ble_gap.h **** 
 335:Generated_Source\PSoC6\pdl\middleware\ble/cy_ble_gap.h ****     /** Slow scan enable/disable */
 336:Generated_Source\PSoC6\pdl\middleware\ble/cy_ble_gap.h ****     uint8_t  slowScanEnabled;
 337:Generated_Source\PSoC6\pdl\middleware\ble/cy_ble_gap.h **** 
 338:Generated_Source\PSoC6\pdl\middleware\ble/cy_ble_gap.h ****     /** The scan interval when operating in Slow connection */
 339:Generated_Source\PSoC6\pdl\middleware\ble/cy_ble_gap.h ****     uint16_t slowScanInterval;
 340:Generated_Source\PSoC6\pdl\middleware\ble/cy_ble_gap.h **** 
 341:Generated_Source\PSoC6\pdl\middleware\ble/cy_ble_gap.h ****     /** Defines the scan window when operating in Slow connection */
 342:Generated_Source\PSoC6\pdl\middleware\ble/cy_ble_gap.h ****     uint16_t slowScanWindow;
 343:Generated_Source\PSoC6\pdl\middleware\ble/cy_ble_gap.h **** 
 344:Generated_Source\PSoC6\pdl\middleware\ble/cy_ble_gap.h ****     /** The timeout value of scanning with Slow scan parameters */
 345:Generated_Source\PSoC6\pdl\middleware\ble/cy_ble_gap.h ****     uint16_t slowScanTimeOut;
 346:Generated_Source\PSoC6\pdl\middleware\ble/cy_ble_gap.h **** 
 347:Generated_Source\PSoC6\pdl\middleware\ble/cy_ble_gap.h ****     /** The minimum permissible connection time value to be used during a connection event */
 348:Generated_Source\PSoC6\pdl\middleware\ble/cy_ble_gap.h ****     uint16_t gapcConnectionIntervalMin;
 349:Generated_Source\PSoC6\pdl\middleware\ble/cy_ble_gap.h **** 
 350:Generated_Source\PSoC6\pdl\middleware\ble/cy_ble_gap.h ****     /** The maximum permissible connection time value to be used during a connection event */
 351:Generated_Source\PSoC6\pdl\middleware\ble/cy_ble_gap.h ****     uint16_t gapcConnectionIntervalMax;
 352:Generated_Source\PSoC6\pdl\middleware\ble/cy_ble_gap.h **** 
 353:Generated_Source\PSoC6\pdl\middleware\ble/cy_ble_gap.h ****     /** Defines the maximum time between two received Data Packet PDUs before
 354:Generated_Source\PSoC6\pdl\middleware\ble/cy_ble_gap.h ****      *  the connection is considered lost */
 355:Generated_Source\PSoC6\pdl\middleware\ble/cy_ble_gap.h ****     uint16_t gapcConnectionSlaveLatency;
 356:Generated_Source\PSoC6\pdl\middleware\ble/cy_ble_gap.h **** 
 357:Generated_Source\PSoC6\pdl\middleware\ble/cy_ble_gap.h ****     /** Defines the LE link supervision timeout interval */
 358:Generated_Source\PSoC6\pdl\middleware\ble/cy_ble_gap.h ****     uint16_t gapcConnectionTimeOut;
 359:Generated_Source\PSoC6\pdl\middleware\ble/cy_ble_gap.h **** }cy_stc_ble_gapc_scan_params_t;
 360:Generated_Source\PSoC6\pdl\middleware\ble/cy_ble_gap.h **** 
 361:Generated_Source\PSoC6\pdl\middleware\ble/cy_ble_gap.h **** /** Store BLE Application Data parameter into flash */
 362:Generated_Source\PSoC6\pdl\middleware\ble/cy_ble_gap.h **** typedef struct
 363:Generated_Source\PSoC6\pdl\middleware\ble/cy_ble_gap.h **** {
 364:Generated_Source\PSoC6\pdl\middleware\ble/cy_ble_gap.h ****     /** Source buffer */
 365:Generated_Source\PSoC6\pdl\middleware\ble/cy_ble_gap.h ****     const uint8_t *srcBuff;
 366:Generated_Source\PSoC6\pdl\middleware\ble/cy_ble_gap.h **** 
 367:Generated_Source\PSoC6\pdl\middleware\ble/cy_ble_gap.h ****     /** Destination buffer */
 368:Generated_Source\PSoC6\pdl\middleware\ble/cy_ble_gap.h ****     const uint8_t *destAddr;
 369:Generated_Source\PSoC6\pdl\middleware\ble/cy_ble_gap.h **** 
 370:Generated_Source\PSoC6\pdl\middleware\ble/cy_ble_gap.h ****     /** Source buffer length */
 371:Generated_Source\PSoC6\pdl\middleware\ble/cy_ble_gap.h ****     uint32_t      buffLen;
 372:Generated_Source\PSoC6\pdl\middleware\ble/cy_ble_gap.h ****     
ARM GAS  C:\Users\JC\AppData\Local\Temp\ccavrowa.s 			page 8


 373:Generated_Source\PSoC6\pdl\middleware\ble/cy_ble_gap.h ****     /** Write mode: blocking (default) / non-blocking */
 374:Generated_Source\PSoC6\pdl\middleware\ble/cy_ble_gap.h ****     uint32_t      writeMode;
 375:Generated_Source\PSoC6\pdl\middleware\ble/cy_ble_gap.h ****     
 376:Generated_Source\PSoC6\pdl\middleware\ble/cy_ble_gap.h **** } cy_stc_ble_app_flash_param_t;
 377:Generated_Source\PSoC6\pdl\middleware\ble/cy_ble_gap.h **** 
 378:Generated_Source\PSoC6\pdl\middleware\ble/cy_ble_gap.h **** /** @} group_ble_common_api_gap_definitions */
 379:Generated_Source\PSoC6\pdl\middleware\ble/cy_ble_gap.h ****  
 380:Generated_Source\PSoC6\pdl\middleware\ble/cy_ble_gap.h **** /***************************************
 381:Generated_Source\PSoC6\pdl\middleware\ble/cy_ble_gap.h **** * API Constants
 382:Generated_Source\PSoC6\pdl\middleware\ble/cy_ble_gap.h **** ***************************************/
 383:Generated_Source\PSoC6\pdl\middleware\ble/cy_ble_gap.h **** #define CY_BLE_AD_TYPE_MORE16UUID                  (0x02u)
 384:Generated_Source\PSoC6\pdl\middleware\ble/cy_ble_gap.h **** #define CY_BLE_AD_TYPE_CMPL16UUID                  (0x03u)
 385:Generated_Source\PSoC6\pdl\middleware\ble/cy_ble_gap.h **** #define CY_BLE_AD_TYPE_MORE32UUID                  (0x04u)
 386:Generated_Source\PSoC6\pdl\middleware\ble/cy_ble_gap.h **** #define CY_BLE_AD_TYPE_CMPL32UUID                  (0x05u)
 387:Generated_Source\PSoC6\pdl\middleware\ble/cy_ble_gap.h **** #define CY_BLE_AD_TYPE_MORE128UUID                 (0x06u)
 388:Generated_Source\PSoC6\pdl\middleware\ble/cy_ble_gap.h **** #define CY_BLE_AD_TYPE_CMPL128UUID                 (0x07u)
 389:Generated_Source\PSoC6\pdl\middleware\ble/cy_ble_gap.h **** 
 390:Generated_Source\PSoC6\pdl\middleware\ble/cy_ble_gap.h **** #define CY_BLE_AD_TYPE_SERVICE_DATA                (0x16u)
 391:Generated_Source\PSoC6\pdl\middleware\ble/cy_ble_gap.h **** #define CY_BLE_AD_SERVICE_DATA_OVERHEAD            (0x03u)
 392:Generated_Source\PSoC6\pdl\middleware\ble/cy_ble_gap.h **** 
 393:Generated_Source\PSoC6\pdl\middleware\ble/cy_ble_gap.h **** #define CY_BLE_DISCOVERY_IDLE                      (0x00u)
 394:Generated_Source\PSoC6\pdl\middleware\ble/cy_ble_gap.h **** #define CY_BLE_DISCOVERY_SERVICE                   (0x01u)
 395:Generated_Source\PSoC6\pdl\middleware\ble/cy_ble_gap.h **** #define CY_BLE_DISCOVERY_CHAR                      (0x02u)
 396:Generated_Source\PSoC6\pdl\middleware\ble/cy_ble_gap.h **** #define CY_BLE_DISCOVERY_DESCR                     (0x03u)
 397:Generated_Source\PSoC6\pdl\middleware\ble/cy_ble_gap.h **** #define CY_BLE_DISCOVERY_DONE                      (0x04u)
 398:Generated_Source\PSoC6\pdl\middleware\ble/cy_ble_gap.h **** 
 399:Generated_Source\PSoC6\pdl\middleware\ble/cy_ble_gap.h **** /* Cy_BLE_NextCharDscrDiscovery parameters */
 400:Generated_Source\PSoC6\pdl\middleware\ble/cy_ble_gap.h **** #define CY_BLE_DISCOVERY_INIT                      (0x00u)
 401:Generated_Source\PSoC6\pdl\middleware\ble/cy_ble_gap.h **** #define CY_BLE_DISCOVERY_CONTINUE                  (0x01u)
 402:Generated_Source\PSoC6\pdl\middleware\ble/cy_ble_gap.h **** 
 403:Generated_Source\PSoC6\pdl\middleware\ble/cy_ble_gap.h **** #define CY_BLE_SFLASH_DIE_X_MASK                   (0x3Fu)
 404:Generated_Source\PSoC6\pdl\middleware\ble/cy_ble_gap.h **** #define CY_BLE_SFLASH_DIE_X_BITS                   (6u)
 405:Generated_Source\PSoC6\pdl\middleware\ble/cy_ble_gap.h **** #define CY_BLE_SFLASH_DIE_Y_MASK                   (0x3Fu)
 406:Generated_Source\PSoC6\pdl\middleware\ble/cy_ble_gap.h **** #define CY_BLE_SFLASH_DIE_Y_BITS                   (6u)
 407:Generated_Source\PSoC6\pdl\middleware\ble/cy_ble_gap.h **** #define CY_BLE_SFLASH_DIE_XY_BITS                  (CY_BLE_SFLASH_DIE_X_BITS + CY_BLE_SFLASH_DIE_Y_
 408:Generated_Source\PSoC6\pdl\middleware\ble/cy_ble_gap.h **** #define CY_BLE_SFLASH_DIE_WAFER_MASK               (0x1Fu)
 409:Generated_Source\PSoC6\pdl\middleware\ble/cy_ble_gap.h **** #define CY_BLE_SFLASH_DIE_WAFER_BITS               (5u)
 410:Generated_Source\PSoC6\pdl\middleware\ble/cy_ble_gap.h **** #define CY_BLE_SFLASH_DIE_XYWAFER_BITS             (CY_BLE_SFLASH_DIE_XY_BITS + CY_BLE_SFLASH_DIE_W
 411:Generated_Source\PSoC6\pdl\middleware\ble/cy_ble_gap.h **** #define CY_BLE_SFLASH_DIE_LOT_MASK                 (0x7Fu)
 412:Generated_Source\PSoC6\pdl\middleware\ble/cy_ble_gap.h **** #define CY_BLE_SFLASH_DIE_LOT_BITS                 (7u)
 413:Generated_Source\PSoC6\pdl\middleware\ble/cy_ble_gap.h **** 
 414:Generated_Source\PSoC6\pdl\middleware\ble/cy_ble_gap.h **** /* Device address stored by user in ROW4 of the SFLASH */
 415:Generated_Source\PSoC6\pdl\middleware\ble/cy_ble_gap.h **** #define CY_BLE_SFLASH_DEVICE_ADDRESS_PTR           ((cy_stc_ble_gap_bd_addr_t*)(SFLASH->BLE_DEVICE_
 416:Generated_Source\PSoC6\pdl\middleware\ble/cy_ble_gap.h **** #define CY_BLE_AD_STRUCTURE_MAX_LENGTH             (31u)
 417:Generated_Source\PSoC6\pdl\middleware\ble/cy_ble_gap.h **** 
 418:Generated_Source\PSoC6\pdl\middleware\ble/cy_ble_gap.h **** /* AD types for complete, shortened local name and device address */
 419:Generated_Source\PSoC6\pdl\middleware\ble/cy_ble_gap.h **** #define CY_BLE_SHORT_LOCAL_NAME                    (0x08u)  /**< Shortened Local Name */
 420:Generated_Source\PSoC6\pdl\middleware\ble/cy_ble_gap.h **** #define CY_BLE_COMPLETE_LOCAL_NAME                 (0x09u)  /**< Complete Local Name */
 421:Generated_Source\PSoC6\pdl\middleware\ble/cy_ble_gap.h **** #define CY_BLE_ADV_DEVICE_ADDR                     (0x1Bu)  /**< LE Bluetooth Device Address */
 422:Generated_Source\PSoC6\pdl\middleware\ble/cy_ble_gap.h **** 
 423:Generated_Source\PSoC6\pdl\middleware\ble/cy_ble_gap.h **** #define CY_BLE_ADVERTISING_FAST                    (0x00u)
 424:Generated_Source\PSoC6\pdl\middleware\ble/cy_ble_gap.h **** #define CY_BLE_ADVERTISING_SLOW                    (0x01u)
 425:Generated_Source\PSoC6\pdl\middleware\ble/cy_ble_gap.h **** #define CY_BLE_ADVERTISING_CUSTOM                  (0x02u)
 426:Generated_Source\PSoC6\pdl\middleware\ble/cy_ble_gap.h **** 
 427:Generated_Source\PSoC6\pdl\middleware\ble/cy_ble_gap.h **** #define CY_BLE_SCANNING_FAST                       (0x00u)
 428:Generated_Source\PSoC6\pdl\middleware\ble/cy_ble_gap.h **** #define CY_BLE_SCANNING_SLOW                       (0x01u)
 429:Generated_Source\PSoC6\pdl\middleware\ble/cy_ble_gap.h **** #define CY_BLE_SCANNING_CUSTOM                     (0x02u)
ARM GAS  C:\Users\JC\AppData\Local\Temp\ccavrowa.s 			page 9


 430:Generated_Source\PSoC6\pdl\middleware\ble/cy_ble_gap.h **** 
 431:Generated_Source\PSoC6\pdl\middleware\ble/cy_ble_gap.h **** #define CY_BLE_PENDING_STACK_FLASH_WRITE_BIT       (0x01u)
 432:Generated_Source\PSoC6\pdl\middleware\ble/cy_ble_gap.h **** #define CY_BLE_PENDING_CCCD_FLASH_WRITE_BIT        (0x02u)
 433:Generated_Source\PSoC6\pdl\middleware\ble/cy_ble_gap.h **** #define CY_BLE_PENDING_CCCD_FLASH_CLEAR_BIT        (0x04u)
 434:Generated_Source\PSoC6\pdl\middleware\ble/cy_ble_gap.h **** #define CY_BLE_PENDING_CCCD_FLASH_CLEAR_ALL_BIT    (0x08u)
 435:Generated_Source\PSoC6\pdl\middleware\ble/cy_ble_gap.h **** #define CY_BLE_PENDING_CCCD_FLASH_CLEAR_MASK \
 436:Generated_Source\PSoC6\pdl\middleware\ble/cy_ble_gap.h ****     (CY_BLE_PENDING_CCCD_FLASH_CLEAR_BIT | CY_BLE_PENDING_CCCD_FLASH_CLEAR_ALL_BIT)
 437:Generated_Source\PSoC6\pdl\middleware\ble/cy_ble_gap.h ****   
 438:Generated_Source\PSoC6\pdl\middleware\ble/cy_ble_gap.h **** /**
 439:Generated_Source\PSoC6\pdl\middleware\ble/cy_ble_gap.h ****  * \addtogroup group_ble_common_api_macros
 440:Generated_Source\PSoC6\pdl\middleware\ble/cy_ble_gap.h ****  * @{
 441:Generated_Source\PSoC6\pdl\middleware\ble/cy_ble_gap.h ****  */
 442:Generated_Source\PSoC6\pdl\middleware\ble/cy_ble_gap.h ****  
 443:Generated_Source\PSoC6\pdl\middleware\ble/cy_ble_gap.h **** /* GAP Advertisement Flags */
 444:Generated_Source\PSoC6\pdl\middleware\ble/cy_ble_gap.h **** #define CY_BLE_GAP_ADV_FLAG_LE_LIMITED_DISC_MODE        (0x01u)     /**< LE Limited Discoverable Mo
 445:Generated_Source\PSoC6\pdl\middleware\ble/cy_ble_gap.h **** #define CY_BLE_GAP_ADV_FLAG_LE_GENERAL_DISC_MODE        (0x02u)     /**< LE General Discoverable Mo
 446:Generated_Source\PSoC6\pdl\middleware\ble/cy_ble_gap.h **** #define CY_BLE_GAP_ADV_FLAG_BR_EDR_NOT_SUPPORTED        (0x04u)     /**< BR/EDR not supported. */
 447:Generated_Source\PSoC6\pdl\middleware\ble/cy_ble_gap.h **** #define CY_BLE_GAP_ADV_FLAG_LE_BR_EDR_CONTROLLER        (0x08u)     /**< Simultaneous LE and BR/EDR
 448:Generated_Source\PSoC6\pdl\middleware\ble/cy_ble_gap.h **** #define CY_BLE_GAP_ADV_FLAG_LE_BR_EDR_HOST              (0x10u)     /**< Simultaneous LE and BR/EDR
 449:Generated_Source\PSoC6\pdl\middleware\ble/cy_ble_gap.h **** #define CY_BLE_GAP_ADV_FLAGS_PACKET_LENGTH              (0x02u)     /**< Length of flags in an adve
 450:Generated_Source\PSoC6\pdl\middleware\ble/cy_ble_gap.h **** 
 451:Generated_Source\PSoC6\pdl\middleware\ble/cy_ble_gap.h **** /* GAP Advertising interval min and max */
 452:Generated_Source\PSoC6\pdl\middleware\ble/cy_ble_gap.h **** #define CY_BLE_GAP_ADV_ADVERT_INTERVAL_MIN              (0x0020u)   /**< Minimum Advertising interv
 453:Generated_Source\PSoC6\pdl\middleware\ble/cy_ble_gap.h ****                                                                      *   i.e. 20 ms. */
 454:Generated_Source\PSoC6\pdl\middleware\ble/cy_ble_gap.h **** #define CY_BLE_GAP_ADV_ADVERT_INTERVAL_NONCON_MIN       (0x00A0u)   /**< Minimum Advertising interv
 455:Generated_Source\PSoC6\pdl\middleware\ble/cy_ble_gap.h ****                                                                      *   for non connectable mode, 
 456:Generated_Source\PSoC6\pdl\middleware\ble/cy_ble_gap.h **** #define CY_BLE_GAP_ADV_ADVERT_INTERVAL_MAX              (0x4000u)   /**< Maximum Advertising interv
 457:Generated_Source\PSoC6\pdl\middleware\ble/cy_ble_gap.h ****                                                                      *   i.e. 10.24 s. */
 458:Generated_Source\PSoC6\pdl\middleware\ble/cy_ble_gap.h **** #define CY_BLE_GAP_ADV_ADVERT_INTERVAL_PACKET_LENGTH    (0x03u)     /**< Length of the Advertising 
 459:Generated_Source\PSoC6\pdl\middleware\ble/cy_ble_gap.h ****                                                                      *   an advertisement packet */
 460:Generated_Source\PSoC6\pdl\middleware\ble/cy_ble_gap.h **** #define CY_BLE_GAPC_CONNECTING_TIMEOUT                  (30u)       /**< Seconds */
 461:Generated_Source\PSoC6\pdl\middleware\ble/cy_ble_gap.h **** #define CY_BLE_INVALID_CONN_HANDLE_VALUE                (0xFFu)     /**< Invalid Connection Handle 
 462:Generated_Source\PSoC6\pdl\middleware\ble/cy_ble_gap.h **** 
 463:Generated_Source\PSoC6\pdl\middleware\ble/cy_ble_gap.h **** /* Write mode for Cy_BLE_StoreAppData */
 464:Generated_Source\PSoC6\pdl\middleware\ble/cy_ble_gap.h **** #define CY_BLE_STORE_DATA_MODE_BLOCKING                 (0x0u)      /**< Blocking write */
 465:Generated_Source\PSoC6\pdl\middleware\ble/cy_ble_gap.h **** #define CY_BLE_STORE_DATA_MODE_NON_BLOCKING             (0x1u)      /**< Non-blocking write */
 466:Generated_Source\PSoC6\pdl\middleware\ble/cy_ble_gap.h **** 
 467:Generated_Source\PSoC6\pdl\middleware\ble/cy_ble_gap.h **** /** @} group_ble_common_api_macros */
 468:Generated_Source\PSoC6\pdl\middleware\ble/cy_ble_gap.h **** 
 469:Generated_Source\PSoC6\pdl\middleware\ble/cy_ble_gap.h **** /***************************************
 470:Generated_Source\PSoC6\pdl\middleware\ble/cy_ble_gap.h **** * Private Function Prototypes
 471:Generated_Source\PSoC6\pdl\middleware\ble/cy_ble_gap.h **** ***************************************/
 472:Generated_Source\PSoC6\pdl\middleware\ble/cy_ble_gap.h **** void Cy_BLE_ServiceInit(void);
 473:Generated_Source\PSoC6\pdl\middleware\ble/cy_ble_gap.h **** uint32_t Cy_BLE_GetDiscoveryIdx(cy_stc_ble_conn_handle_t connHandle);
 474:Generated_Source\PSoC6\pdl\middleware\ble/cy_ble_gap.h **** 
 475:Generated_Source\PSoC6\pdl\middleware\ble/cy_ble_gap.h **** /***************************************
 476:Generated_Source\PSoC6\pdl\middleware\ble/cy_ble_gap.h **** * Function Prototypes
 477:Generated_Source\PSoC6\pdl\middleware\ble/cy_ble_gap.h **** ***************************************/
 478:Generated_Source\PSoC6\pdl\middleware\ble/cy_ble_gap.h **** /**
 479:Generated_Source\PSoC6\pdl\middleware\ble/cy_ble_gap.h ****  * \addtogroup group_ble_common_api_functions
 480:Generated_Source\PSoC6\pdl\middleware\ble/cy_ble_gap.h ****  * @{
 481:Generated_Source\PSoC6\pdl\middleware\ble/cy_ble_gap.h ****  */
 482:Generated_Source\PSoC6\pdl\middleware\ble/cy_ble_gap.h **** 
 483:Generated_Source\PSoC6\pdl\middleware\ble/cy_ble_gap.h **** cy_en_ble_api_result_t Cy_BLE_StoreAppData(const cy_stc_ble_app_flash_param_t *param);
 484:Generated_Source\PSoC6\pdl\middleware\ble/cy_ble_gap.h **** 
 485:Generated_Source\PSoC6\pdl\middleware\ble/cy_ble_gap.h **** #if ((CY_BLE_GAP_ROLE_PERIPHERAL || CY_BLE_GAP_ROLE_CENTRAL) && (CY_BLE_BONDING_REQUIREMENT == CY_B
 486:Generated_Source\PSoC6\pdl\middleware\ble/cy_ble_gap.h **** cy_en_ble_api_result_t Cy_BLE_StoreBondingData(void);
ARM GAS  C:\Users\JC\AppData\Local\Temp\ccavrowa.s 			page 10


 487:Generated_Source\PSoC6\pdl\middleware\ble/cy_ble_gap.h **** cy_en_ble_api_result_t Cy_BLE_GAP_RemoveBondedDevice(cy_stc_ble_gap_bd_addr_t* bdAddr);
 488:Generated_Source\PSoC6\pdl\middleware\ble/cy_ble_gap.h **** #endif /* (CY_BLE_GAP_ROLE_PERIPHERAL || CY_BLE_GAP_ROLE_CENTRAL) && (CY_BLE_BONDING_REQUIREMENT ==
 489:Generated_Source\PSoC6\pdl\middleware\ble/cy_ble_gap.h **** 
 490:Generated_Source\PSoC6\pdl\middleware\ble/cy_ble_gap.h **** #if (CY_BLE_GAP_ROLE_PERIPHERAL || CY_BLE_GAP_ROLE_CENTRAL)
 491:Generated_Source\PSoC6\pdl\middleware\ble/cy_ble_gap.h **** bool Cy_BLE_IsPeerConnected(uint8_t *bdAddr);
 492:Generated_Source\PSoC6\pdl\middleware\ble/cy_ble_gap.h **** bool Cy_BLE_IsDevicePaired(cy_stc_ble_conn_handle_t *connHandle);
 493:Generated_Source\PSoC6\pdl\middleware\ble/cy_ble_gap.h **** uint8_t Cy_BLE_GetDeviceRole(cy_stc_ble_conn_handle_t *connHandle);
 494:Generated_Source\PSoC6\pdl\middleware\ble/cy_ble_gap.h **** 
 495:Generated_Source\PSoC6\pdl\middleware\ble/cy_ble_gap.h **** cy_en_ble_api_result_t Cy_BLE_GetRssiPeer(uint8_t  bdHandle);
 496:Generated_Source\PSoC6\pdl\middleware\ble/cy_ble_gap.h **** #endif /* (CY_BLE_GAP_ROLE_PERIPHERAL || CY_BLE_GAP_ROLE_CENTRAL) */
 497:Generated_Source\PSoC6\pdl\middleware\ble/cy_ble_gap.h **** /** @} group_ble_common_api_functions */
 498:Generated_Source\PSoC6\pdl\middleware\ble/cy_ble_gap.h **** 
 499:Generated_Source\PSoC6\pdl\middleware\ble/cy_ble_gap.h **** /**
 500:Generated_Source\PSoC6\pdl\middleware\ble/cy_ble_gap.h ****  * \addtogroup group_ble_common_api_gap_peripheral_functions
 501:Generated_Source\PSoC6\pdl\middleware\ble/cy_ble_gap.h ****  * @{
 502:Generated_Source\PSoC6\pdl\middleware\ble/cy_ble_gap.h ****  */
 503:Generated_Source\PSoC6\pdl\middleware\ble/cy_ble_gap.h ****  
 504:Generated_Source\PSoC6\pdl\middleware\ble/cy_ble_gap.h **** #if (CY_BLE_GAP_ROLE_PERIPHERAL || CY_BLE_GAP_ROLE_BROADCASTER)
 505:Generated_Source\PSoC6\pdl\middleware\ble/cy_ble_gap.h **** cy_en_ble_api_result_t Cy_BLE_GAPP_StartAdvertisement(uint8_t advertisingIntervalType, uint8_t adve
 506:Generated_Source\PSoC6\pdl\middleware\ble/cy_ble_gap.h **** cy_en_ble_api_result_t Cy_BLE_GAPP_StopAdvertisement(void);
 507:Generated_Source\PSoC6\pdl\middleware\ble/cy_ble_gap.h **** 
 508:Generated_Source\PSoC6\pdl\middleware\ble/cy_ble_gap.h **** /** \cond IGNORE */
 509:Generated_Source\PSoC6\pdl\middleware\ble/cy_ble_gap.h **** void Cy_BLE_ChangeAdDeviceAddress(const cy_stc_ble_gap_bd_addr_t* bdAddr, uint8_t dest);
 510:Generated_Source\PSoC6\pdl\middleware\ble/cy_ble_gap.h **** /** \endcond */
 511:Generated_Source\PSoC6\pdl\middleware\ble/cy_ble_gap.h **** 
 512:Generated_Source\PSoC6\pdl\middleware\ble/cy_ble_gap.h **** #endif /* CY_BLE_GAP_ROLE_PERIPHERAL */
 513:Generated_Source\PSoC6\pdl\middleware\ble/cy_ble_gap.h **** 
 514:Generated_Source\PSoC6\pdl\middleware\ble/cy_ble_gap.h **** /** @} group_ble_common_api_gap_peripheral_functions */
 515:Generated_Source\PSoC6\pdl\middleware\ble/cy_ble_gap.h **** 
 516:Generated_Source\PSoC6\pdl\middleware\ble/cy_ble_gap.h **** /**
 517:Generated_Source\PSoC6\pdl\middleware\ble/cy_ble_gap.h ****  * \addtogroup group_ble_common_api_gap_central_functions
 518:Generated_Source\PSoC6\pdl\middleware\ble/cy_ble_gap.h ****  * @{
 519:Generated_Source\PSoC6\pdl\middleware\ble/cy_ble_gap.h ****  */
 520:Generated_Source\PSoC6\pdl\middleware\ble/cy_ble_gap.h ****  
 521:Generated_Source\PSoC6\pdl\middleware\ble/cy_ble_gap.h **** #if (CY_BLE_GAP_ROLE_CENTRAL || CY_BLE_GAP_ROLE_OBSERVER)
 522:Generated_Source\PSoC6\pdl\middleware\ble/cy_ble_gap.h **** cy_en_ble_api_result_t Cy_BLE_GAPC_StartScan(uint8_t scanningIntervalType, uint8_t scanParamIndex);
 523:Generated_Source\PSoC6\pdl\middleware\ble/cy_ble_gap.h **** cy_en_ble_api_result_t Cy_BLE_GAPC_StopScan(void);
 524:Generated_Source\PSoC6\pdl\middleware\ble/cy_ble_gap.h **** #endif /* CY_BLE_GAP_ROLE_CENTRAL || CY_BLE_GAP_ROLE_OBSERVER */
 525:Generated_Source\PSoC6\pdl\middleware\ble/cy_ble_gap.h **** 
 526:Generated_Source\PSoC6\pdl\middleware\ble/cy_ble_gap.h **** #if (CY_BLE_GAP_ROLE_CENTRAL)
 527:Generated_Source\PSoC6\pdl\middleware\ble/cy_ble_gap.h **** cy_en_ble_api_result_t Cy_BLE_GAPC_ConnectDevice(const cy_stc_ble_gap_bd_addr_t * address, uint8_t 
 528:Generated_Source\PSoC6\pdl\middleware\ble/cy_ble_gap.h **** cy_en_ble_api_result_t Cy_BLE_GAPC_CancelDeviceConnection(void);
 529:Generated_Source\PSoC6\pdl\middleware\ble/cy_ble_gap.h **** #endif /* CY_BLE_GAP_ROLE_CENTRAL */
 530:Generated_Source\PSoC6\pdl\middleware\ble/cy_ble_gap.h **** 
 531:Generated_Source\PSoC6\pdl\middleware\ble/cy_ble_gap.h **** /** @} group_ble_common_api_gap_central_functions */
 532:Generated_Source\PSoC6\pdl\middleware\ble/cy_ble_gap.h **** 
 533:Generated_Source\PSoC6\pdl\middleware\ble/cy_ble_gap.h **** /***************************************
 534:Generated_Source\PSoC6\pdl\middleware\ble/cy_ble_gap.h **** * External data references
 535:Generated_Source\PSoC6\pdl\middleware\ble/cy_ble_gap.h **** ***************************************/
 536:Generated_Source\PSoC6\pdl\middleware\ble/cy_ble_gap.h **** extern volatile uint8_t cy_ble_eventHandlerFlag;
 537:Generated_Source\PSoC6\pdl\middleware\ble/cy_ble_gap.h **** extern cy_stc_ble_gap_bd_addr_t *cy_ble_sflashDeviceAddress;
 538:Generated_Source\PSoC6\pdl\middleware\ble/cy_ble_gap.h **** extern cy_stc_ble_gap_bd_addr_t cy_ble_deviceAddress;
 539:Generated_Source\PSoC6\pdl\middleware\ble/cy_ble_gap.h **** extern cy_en_ble_state_t cy_ble_state;
 540:Generated_Source\PSoC6\pdl\middleware\ble/cy_ble_gap.h **** 
 541:Generated_Source\PSoC6\pdl\middleware\ble/cy_ble_gap.h **** #if ((CY_BLE_GAP_ROLE_PERIPHERAL || CY_BLE_GAP_ROLE_CENTRAL))
 542:Generated_Source\PSoC6\pdl\middleware\ble/cy_ble_gap.h **** extern cy_stc_ble_gap_auth_info_t cy_ble_authInfo[CY_BLE_AUTH_INFO_COUNT];
 543:Generated_Source\PSoC6\pdl\middleware\ble/cy_ble_gap.h **** #endif /* ((CY_BLE_GAP_ROLE_PERIPHERAL || CY_BLE_GAP_ROLE_CENTRAL)) */
ARM GAS  C:\Users\JC\AppData\Local\Temp\ccavrowa.s 			page 11


 544:Generated_Source\PSoC6\pdl\middleware\ble/cy_ble_gap.h **** 
 545:Generated_Source\PSoC6\pdl\middleware\ble/cy_ble_gap.h **** #if (CY_BLE_GAP_ROLE_PERIPHERAL || CY_BLE_GAP_ROLE_BROADCASTER)
 546:Generated_Source\PSoC6\pdl\middleware\ble/cy_ble_gap.h **** extern cy_en_ble_adv_state_t cy_ble_advState;
 547:Generated_Source\PSoC6\pdl\middleware\ble/cy_ble_gap.h **** extern uint8_t cy_ble_advIndex;
 548:Generated_Source\PSoC6\pdl\middleware\ble/cy_ble_gap.h **** #endif  /* (CY_BLE_GAP_ROLE_PERIPHERAL || CY_BLE_GAP_ROLE_BROADCASTER) */
 549:Generated_Source\PSoC6\pdl\middleware\ble/cy_ble_gap.h **** 
 550:Generated_Source\PSoC6\pdl\middleware\ble/cy_ble_gap.h **** #if (CY_BLE_GAP_ROLE_CENTRAL || CY_BLE_GAP_ROLE_OBSERVER)
 551:Generated_Source\PSoC6\pdl\middleware\ble/cy_ble_gap.h **** extern cy_en_ble_scan_state_t cy_ble_scanState;
 552:Generated_Source\PSoC6\pdl\middleware\ble/cy_ble_gap.h **** extern uint8_t cy_ble_scanIndex;
 553:Generated_Source\PSoC6\pdl\middleware\ble/cy_ble_gap.h **** #endif /* (CY_BLE_GAP_ROLE_CENTRAL || CY_BLE_GAP_ROLE_OBSERVER) */
 554:Generated_Source\PSoC6\pdl\middleware\ble/cy_ble_gap.h **** 
 555:Generated_Source\PSoC6\pdl\middleware\ble/cy_ble_gap.h **** #if ((CY_BLE_GAP_ROLE_PERIPHERAL || CY_BLE_GAP_ROLE_CENTRAL))
 556:Generated_Source\PSoC6\pdl\middleware\ble/cy_ble_gap.h **** extern cy_stc_ble_conn_handle_t cy_ble_connHandle[CY_BLE_CONN_COUNT];
 557:Generated_Source\PSoC6\pdl\middleware\ble/cy_ble_gap.h **** extern cy_en_ble_conn_state_t cy_ble_connState[CY_BLE_CONN_COUNT];
 558:Generated_Source\PSoC6\pdl\middleware\ble/cy_ble_gap.h **** 
 559:Generated_Source\PSoC6\pdl\middleware\ble/cy_ble_gap.h **** extern volatile uint8_t cy_ble_devConnRole[CY_BLE_CONN_COUNT];                                     
 560:Generated_Source\PSoC6\pdl\middleware\ble/cy_ble_gap.h **** extern volatile bool cy_ble_pairStatus[CY_BLE_CONN_COUNT];
 561:Generated_Source\PSoC6\pdl\middleware\ble/cy_ble_gap.h **** 
 562:Generated_Source\PSoC6\pdl\middleware\ble/cy_ble_gap.h **** #endif /* ((CY_BLE_GAP_ROLE_PERIPHERAL || CY_BLE_GAP_ROLE_CENTRAL)) */
 563:Generated_Source\PSoC6\pdl\middleware\ble/cy_ble_gap.h **** 
 564:Generated_Source\PSoC6\pdl\middleware\ble/cy_ble_gap.h **** #if (CY_BLE_GAP_ROLE_CENTRAL || CY_BLE_GAP_ROLE_OBSERVER)
 565:Generated_Source\PSoC6\pdl\middleware\ble/cy_ble_gap.h **** extern cy_stc_ble_gapc_disc_info_t cy_ble_discoveryInfo[CY_BLE_GAPC_CONF_COUNT];
 566:Generated_Source\PSoC6\pdl\middleware\ble/cy_ble_gap.h **** #endif /* CY_BLE_GAP_ROLE_CENTRAL || CY_BLE_GAP_ROLE_OBSERVER */
 567:Generated_Source\PSoC6\pdl\middleware\ble/cy_ble_gap.h **** 
 568:Generated_Source\PSoC6\pdl\middleware\ble/cy_ble_gap.h **** #if (CY_BLE_GAP_ROLE_CENTRAL)
 569:Generated_Source\PSoC6\pdl\middleware\ble/cy_ble_gap.h **** extern cy_stc_ble_gapc_conn_info_t cy_ble_connectionParameters;
 570:Generated_Source\PSoC6\pdl\middleware\ble/cy_ble_gap.h **** extern cy_stc_ble_timer_info_t cy_ble_connectingTimeout;
 571:Generated_Source\PSoC6\pdl\middleware\ble/cy_ble_gap.h **** #endif /* CY_BLE_GAP_ROLE_CENTRAL */
 572:Generated_Source\PSoC6\pdl\middleware\ble/cy_ble_gap.h **** 
 573:Generated_Source\PSoC6\pdl\middleware\ble/cy_ble_gap.h **** #if (CY_BLE_GAP_ROLE_PERIPHERAL || CY_BLE_GAP_ROLE_BROADCASTER)
 574:Generated_Source\PSoC6\pdl\middleware\ble/cy_ble_gap.h **** extern cy_stc_ble_gapp_disc_mode_info_t cy_ble_discoveryModeInfo[CY_BLE_GAPP_CONF_COUNT];
 575:Generated_Source\PSoC6\pdl\middleware\ble/cy_ble_gap.h **** extern cy_stc_ble_gapp_disc_param_t cy_ble_discoveryParam[CY_BLE_GAPP_CONF_COUNT];
 576:Generated_Source\PSoC6\pdl\middleware\ble/cy_ble_gap.h **** extern cy_stc_ble_gapp_disc_data_t cy_ble_discoveryData[CY_BLE_GAPP_CONF_COUNT];
 577:Generated_Source\PSoC6\pdl\middleware\ble/cy_ble_gap.h **** extern cy_stc_ble_gapp_scan_rsp_data_t cy_ble_scanRspData[CY_BLE_GAPP_CONF_COUNT];
 578:Generated_Source\PSoC6\pdl\middleware\ble/cy_ble_gap.h **** #endif /* CY_BLE_GAP_ROLE_PERIPHERAL || CY_BLE_GAP_ROLE_BROADCASTER */
 579:Generated_Source\PSoC6\pdl\middleware\ble/cy_ble_gap.h **** 
 580:Generated_Source\PSoC6\pdl\middleware\ble/cy_ble_gap.h **** #if ((CY_BLE_GAP_ROLE_PERIPHERAL || CY_BLE_GAP_ROLE_CENTRAL) && (CY_BLE_BONDING_REQUIREMENT == CY_B
 581:Generated_Source\PSoC6\pdl\middleware\ble/cy_ble_gap.h **** 
 582:Generated_Source\PSoC6\pdl\middleware\ble/cy_ble_gap.h **** /**
 583:Generated_Source\PSoC6\pdl\middleware\ble/cy_ble_gap.h ****  * \addtogroup group_ble_common_api_global_variables
 584:Generated_Source\PSoC6\pdl\middleware\ble/cy_ble_gap.h ****  * @{
 585:Generated_Source\PSoC6\pdl\middleware\ble/cy_ble_gap.h ****  */  
 586:Generated_Source\PSoC6\pdl\middleware\ble/cy_ble_gap.h **** /** This is a two-bit variable that contains status of pending write to flash operation.
 587:Generated_Source\PSoC6\pdl\middleware\ble/cy_ble_gap.h ****  * This variable is initialized to zero in Cy_BLE_Init().
 588:Generated_Source\PSoC6\pdl\middleware\ble/cy_ble_gap.h ****  * CY_BLE_PENDING_CCCD_FLASH_WRITE_BIT flag is set after write to CCCD event when a
 589:Generated_Source\PSoC6\pdl\middleware\ble/cy_ble_gap.h ****  * peer device supports bonding (cy_ble_peerBonding[eventParam->connHandle.attId] == CY_BLE_GAP_BON
 590:Generated_Source\PSoC6\pdl\middleware\ble/cy_ble_gap.h ****  * CY_BLE_PENDING_STACK_FLASH_WRITE_BIT flag is set after CY_BLE_EVT_PENDING_FLASH_WRITE event.
 591:Generated_Source\PSoC6\pdl\middleware\ble/cy_ble_gap.h ****  * Cy_BLE_StoreBondingData() should be called to store pending bonding data.
 592:Generated_Source\PSoC6\pdl\middleware\ble/cy_ble_gap.h ****  * This function automatically clears pending bits after write operation is complete.
 593:Generated_Source\PSoC6\pdl\middleware\ble/cy_ble_gap.h ****  */
 594:Generated_Source\PSoC6\pdl\middleware\ble/cy_ble_gap.h **** extern uint8_t cy_ble_pendingFlashWrite;
 595:Generated_Source\PSoC6\pdl\middleware\ble/cy_ble_gap.h **** /** @} group_ble_common_api_global_variables */
 596:Generated_Source\PSoC6\pdl\middleware\ble/cy_ble_gap.h ****     
 597:Generated_Source\PSoC6\pdl\middleware\ble/cy_ble_gap.h **** /** Bonding type setting of peer device, CY_BLE_GAP_BONDING_NONE or CY_BLE_GAP_BONDING.
 598:Generated_Source\PSoC6\pdl\middleware\ble/cy_ble_gap.h ****  * It is initialized after pairing with peer device and used for cy_ble_pendingFlashWrite variable
 599:Generated_Source\PSoC6\pdl\middleware\ble/cy_ble_gap.h ****  * setting.
 600:Generated_Source\PSoC6\pdl\middleware\ble/cy_ble_gap.h ****  */
ARM GAS  C:\Users\JC\AppData\Local\Temp\ccavrowa.s 			page 12


 601:Generated_Source\PSoC6\pdl\middleware\ble/cy_ble_gap.h **** extern uint8_t cy_ble_peerBonding[CY_BLE_CONN_COUNT];
 602:Generated_Source\PSoC6\pdl\middleware\ble/cy_ble_gap.h **** 
 603:Generated_Source\PSoC6\pdl\middleware\ble/cy_ble_gap.h **** #endif  /* (CY_BLE_BONDING_REQUIREMENT == CY_BLE_BONDING_YES) */
 604:Generated_Source\PSoC6\pdl\middleware\ble/cy_ble_gap.h **** 
 605:Generated_Source\PSoC6\pdl\middleware\ble/cy_ble_gap.h **** 
 606:Generated_Source\PSoC6\pdl\middleware\ble/cy_ble_gap.h **** /***************************************
 607:Generated_Source\PSoC6\pdl\middleware\ble/cy_ble_gap.h **** * Exported Functions (MACROS)
 608:Generated_Source\PSoC6\pdl\middleware\ble/cy_ble_gap.h **** ***************************************/
 609:Generated_Source\PSoC6\pdl\middleware\ble/cy_ble_gap.h **** #if ((CY_BLE_GAP_ROLE_PERIPHERAL || CY_BLE_GAP_ROLE_CENTRAL))
 610:Generated_Source\PSoC6\pdl\middleware\ble/cy_ble_gap.h ****    
 611:Generated_Source\PSoC6\pdl\middleware\ble/cy_ble_gap.h **** /******************************************************************************
 612:Generated_Source\PSoC6\pdl\middleware\ble/cy_ble_gap.h **** * Function Name: Cy_BLE_GetConnHandleIdx
 613:Generated_Source\PSoC6\pdl\middleware\ble/cy_ble_gap.h **** ***************************************************************************//**
 614:Generated_Source\PSoC6\pdl\middleware\ble/cy_ble_gap.h **** *
 615:Generated_Source\PSoC6\pdl\middleware\ble/cy_ble_gap.h **** *  This function searches the array of connection handles (cy_ble_connHandle[])
 616:Generated_Source\PSoC6\pdl\middleware\ble/cy_ble_gap.h **** *  for the location (index) of a handle that corresponds to the input parameter
 617:Generated_Source\PSoC6\pdl\middleware\ble/cy_ble_gap.h **** *  connHandle. bdHandle.
 618:Generated_Source\PSoC6\pdl\middleware\ble/cy_ble_gap.h **** *
 619:Generated_Source\PSoC6\pdl\middleware\ble/cy_ble_gap.h **** *  This function is designated for internal usage. 
 620:Generated_Source\PSoC6\pdl\middleware\ble/cy_ble_gap.h **** *    
 621:Generated_Source\PSoC6\pdl\middleware\ble/cy_ble_gap.h **** *  \param connHandle: The connection handle.
 622:Generated_Source\PSoC6\pdl\middleware\ble/cy_ble_gap.h **** *
 623:Generated_Source\PSoC6\pdl\middleware\ble/cy_ble_gap.h **** *  \return
 624:Generated_Source\PSoC6\pdl\middleware\ble/cy_ble_gap.h **** *  retValue: the index of connHandle  
 625:Generated_Source\PSoC6\pdl\middleware\ble/cy_ble_gap.h **** *    
 626:Generated_Source\PSoC6\pdl\middleware\ble/cy_ble_gap.h **** ******************************************************************************/
 627:Generated_Source\PSoC6\pdl\middleware\ble/cy_ble_gap.h **** __STATIC_INLINE uint8_t Cy_BLE_GetConnHandleIdx(cy_stc_ble_conn_handle_t connHandle)
 628:Generated_Source\PSoC6\pdl\middleware\ble/cy_ble_gap.h **** {
 629:Generated_Source\PSoC6\pdl\middleware\ble/cy_ble_gap.h ****     uint8_t idx;
 630:Generated_Source\PSoC6\pdl\middleware\ble/cy_ble_gap.h ****     uint8_t retValue = CY_BLE_CONN_COUNT;
 631:Generated_Source\PSoC6\pdl\middleware\ble/cy_ble_gap.h **** 
 632:Generated_Source\PSoC6\pdl\middleware\ble/cy_ble_gap.h ****     for(idx = 0u; idx < CY_BLE_CONN_COUNT; idx++)
 633:Generated_Source\PSoC6\pdl\middleware\ble/cy_ble_gap.h ****     {
 634:Generated_Source\PSoC6\pdl\middleware\ble/cy_ble_gap.h ****         if(cy_ble_connHandle[idx].bdHandle == connHandle.bdHandle)
 635:Generated_Source\PSoC6\pdl\middleware\ble/cy_ble_gap.h ****         {
 636:Generated_Source\PSoC6\pdl\middleware\ble/cy_ble_gap.h ****             retValue = idx;
 637:Generated_Source\PSoC6\pdl\middleware\ble/cy_ble_gap.h ****             break;
 638:Generated_Source\PSoC6\pdl\middleware\ble/cy_ble_gap.h ****         }
 639:Generated_Source\PSoC6\pdl\middleware\ble/cy_ble_gap.h ****     }
 640:Generated_Source\PSoC6\pdl\middleware\ble/cy_ble_gap.h ****     if(retValue == CY_BLE_CONN_COUNT)
 641:Generated_Source\PSoC6\pdl\middleware\ble/cy_ble_gap.h ****     {
 642:Generated_Source\PSoC6\pdl\middleware\ble/cy_ble_gap.h ****         /* HALT in debug mode */
 643:Generated_Source\PSoC6\pdl\middleware\ble/cy_ble_gap.h ****         CY_ASSERT(retValue != CY_BLE_CONN_COUNT);
 644:Generated_Source\PSoC6\pdl\middleware\ble/cy_ble_gap.h ****         retValue = 0u;
 645:Generated_Source\PSoC6\pdl\middleware\ble/cy_ble_gap.h ****     }
 646:Generated_Source\PSoC6\pdl\middleware\ble/cy_ble_gap.h **** 
 647:Generated_Source\PSoC6\pdl\middleware\ble/cy_ble_gap.h ****     return(retValue);
 648:Generated_Source\PSoC6\pdl\middleware\ble/cy_ble_gap.h **** }
 649:Generated_Source\PSoC6\pdl\middleware\ble/cy_ble_gap.h **** #endif  /* ((CY_BLE_GAP_ROLE_PERIPHERAL || CY_BLE_GAP_ROLE_CENTRAL)) */
 650:Generated_Source\PSoC6\pdl\middleware\ble/cy_ble_gap.h **** 
 651:Generated_Source\PSoC6\pdl\middleware\ble/cy_ble_gap.h **** /**
 652:Generated_Source\PSoC6\pdl\middleware\ble/cy_ble_gap.h ****  * \addtogroup group_ble_common_api_functions
 653:Generated_Source\PSoC6\pdl\middleware\ble/cy_ble_gap.h ****  * @{
 654:Generated_Source\PSoC6\pdl\middleware\ble/cy_ble_gap.h **** */
 655:Generated_Source\PSoC6\pdl\middleware\ble/cy_ble_gap.h **** /******************************************************************************
 656:Generated_Source\PSoC6\pdl\middleware\ble/cy_ble_gap.h **** * Function Name: Cy_BLE_GetState
 657:Generated_Source\PSoC6\pdl\middleware\ble/cy_ble_gap.h **** ***************************************************************************//**
ARM GAS  C:\Users\JC\AppData\Local\Temp\ccavrowa.s 			page 13


 658:Generated_Source\PSoC6\pdl\middleware\ble/cy_ble_gap.h **** *
 659:Generated_Source\PSoC6\pdl\middleware\ble/cy_ble_gap.h **** *  This function is used to determine the current state of the BLE Middleware
 660:Generated_Source\PSoC6\pdl\middleware\ble/cy_ble_gap.h **** *  state machine :
 661:Generated_Source\PSoC6\pdl\middleware\ble/cy_ble_gap.h **** *
 662:Generated_Source\PSoC6\pdl\middleware\ble/cy_ble_gap.h **** *  \image html ble_middleware_state_machine.png
 663:Generated_Source\PSoC6\pdl\middleware\ble/cy_ble_gap.h **** *
 664:Generated_Source\PSoC6\pdl\middleware\ble/cy_ble_gap.h **** *  The BLE Middleware is in the state #CY_BLE_STATE_INITIALIZING after the 
 665:Generated_Source\PSoC6\pdl\middleware\ble/cy_ble_gap.h **** *  Cy_BLE_Enable() is called and until the #CY_BLE_EVT_STACK_ON event is not 
 666:Generated_Source\PSoC6\pdl\middleware\ble/cy_ble_gap.h **** *  received. After successful initialization the state is changed to 
 667:Generated_Source\PSoC6\pdl\middleware\ble/cy_ble_gap.h **** *  #CY_BLE_STATE_ON.
 668:Generated_Source\PSoC6\pdl\middleware\ble/cy_ble_gap.h **** *
 669:Generated_Source\PSoC6\pdl\middleware\ble/cy_ble_gap.h **** *  The BLE Middleware is in the state #CY_BLE_STATE_STOPPED 
 670:Generated_Source\PSoC6\pdl\middleware\ble/cy_ble_gap.h **** *  when the #CY_BLE_EVT_STACK_SHUTDOWN_COMPLETE event is received (after the 
 671:Generated_Source\PSoC6\pdl\middleware\ble/cy_ble_gap.h **** *  Cy_BLE_Disable() is called).
 672:Generated_Source\PSoC6\pdl\middleware\ble/cy_ble_gap.h **** *  
 673:Generated_Source\PSoC6\pdl\middleware\ble/cy_ble_gap.h **** *  For GAP Central role when the Cy_BLE_GAPC_ConnectDevice() is called, the state
 674:Generated_Source\PSoC6\pdl\middleware\ble/cy_ble_gap.h **** *  is changed to #CY_BLE_STATE_CONNECTING. After successful connection indicated
 675:Generated_Source\PSoC6\pdl\middleware\ble/cy_ble_gap.h **** *  by #CY_BLE_EVT_GAP_DEVICE_CONNECTED or #CY_BLE_EVT_GAP_ENHANCE_CONN_COMPLETE
 676:Generated_Source\PSoC6\pdl\middleware\ble/cy_ble_gap.h **** *  event or the timeout indicated by #CY_BLE_EVT_TIMEOUT event, the state is
 677:Generated_Source\PSoC6\pdl\middleware\ble/cy_ble_gap.h **** *  changed to #CY_BLE_STATE_ON.
 678:Generated_Source\PSoC6\pdl\middleware\ble/cy_ble_gap.h **** *
 679:Generated_Source\PSoC6\pdl\middleware\ble/cy_ble_gap.h **** * \return
 680:Generated_Source\PSoC6\pdl\middleware\ble/cy_ble_gap.h **** * \ref cy_en_ble_state_t : The current BLE Middleware state. The following are 
 681:Generated_Source\PSoC6\pdl\middleware\ble/cy_ble_gap.h **** *                         possible states:
 682:Generated_Source\PSoC6\pdl\middleware\ble/cy_ble_gap.h **** *
 683:Generated_Source\PSoC6\pdl\middleware\ble/cy_ble_gap.h **** *   State                      | Description
 684:Generated_Source\PSoC6\pdl\middleware\ble/cy_ble_gap.h **** *   -------------------------- | -----------
 685:Generated_Source\PSoC6\pdl\middleware\ble/cy_ble_gap.h **** *   CY_BLE_STATE_STOPPED       | BLE is turned off.
 686:Generated_Source\PSoC6\pdl\middleware\ble/cy_ble_gap.h **** *   CY_BLE_STATE_INITIALIZING  | BLE is initializing (waiting for #CY_BLE_EVT_STACK_ON event).
 687:Generated_Source\PSoC6\pdl\middleware\ble/cy_ble_gap.h **** *   CY_BLE_STATE_ON            | BLE is turned on.
 688:Generated_Source\PSoC6\pdl\middleware\ble/cy_ble_gap.h **** *   CY_BLE_STATE_CONNECTING    | BLE is connecting.
 689:Generated_Source\PSoC6\pdl\middleware\ble/cy_ble_gap.h **** 
 690:Generated_Source\PSoC6\pdl\middleware\ble/cy_ble_gap.h **** ******************************************************************************/
 691:Generated_Source\PSoC6\pdl\middleware\ble/cy_ble_gap.h **** #define Cy_BLE_GetState()    (cy_ble_state)
 692:Generated_Source\PSoC6\pdl\middleware\ble/cy_ble_gap.h **** 
 693:Generated_Source\PSoC6\pdl\middleware\ble/cy_ble_gap.h **** /** \cond IGNORE */
 694:Generated_Source\PSoC6\pdl\middleware\ble/cy_ble_gap.h **** /******************************************************************************
 695:Generated_Source\PSoC6\pdl\middleware\ble/cy_ble_gap.h **** * Function Name: Cy_BLE_SetState
 696:Generated_Source\PSoC6\pdl\middleware\ble/cy_ble_gap.h **** ***************************************************************************//**
 697:Generated_Source\PSoC6\pdl\middleware\ble/cy_ble_gap.h **** *
 698:Generated_Source\PSoC6\pdl\middleware\ble/cy_ble_gap.h **** *  Used to set the BLE Middleware state machine's state.
 699:Generated_Source\PSoC6\pdl\middleware\ble/cy_ble_gap.h **** *
 700:Generated_Source\PSoC6\pdl\middleware\ble/cy_ble_gap.h **** *  \param state: The desired state to which the event handler's
 701:Generated_Source\PSoC6\pdl\middleware\ble/cy_ble_gap.h **** *   state machine should be set. The parameter state is a variable
 702:Generated_Source\PSoC6\pdl\middleware\ble/cy_ble_gap.h **** *   of type cy_en_ble_state_t.
 703:Generated_Source\PSoC6\pdl\middleware\ble/cy_ble_gap.h **** *
 704:Generated_Source\PSoC6\pdl\middleware\ble/cy_ble_gap.h **** * \return
 705:Generated_Source\PSoC6\pdl\middleware\ble/cy_ble_gap.h **** *  None
 706:Generated_Source\PSoC6\pdl\middleware\ble/cy_ble_gap.h **** *
 707:Generated_Source\PSoC6\pdl\middleware\ble/cy_ble_gap.h **** ******************************************************************************/
 708:Generated_Source\PSoC6\pdl\middleware\ble/cy_ble_gap.h **** #define Cy_BLE_SetState(state)    (cy_ble_state = (state))
 709:Generated_Source\PSoC6\pdl\middleware\ble/cy_ble_gap.h **** /** \endcond */
 710:Generated_Source\PSoC6\pdl\middleware\ble/cy_ble_gap.h **** 
 711:Generated_Source\PSoC6\pdl\middleware\ble/cy_ble_gap.h **** #if (CY_BLE_GAP_ROLE_PERIPHERAL || CY_BLE_GAP_ROLE_BROADCASTER)
 712:Generated_Source\PSoC6\pdl\middleware\ble/cy_ble_gap.h **** 
 713:Generated_Source\PSoC6\pdl\middleware\ble/cy_ble_gap.h **** 
 714:Generated_Source\PSoC6\pdl\middleware\ble/cy_ble_gap.h **** /******************************************************************************
ARM GAS  C:\Users\JC\AppData\Local\Temp\ccavrowa.s 			page 14


 715:Generated_Source\PSoC6\pdl\middleware\ble/cy_ble_gap.h **** * Function Name: Cy_BLE_GetAdvertisementState
 716:Generated_Source\PSoC6\pdl\middleware\ble/cy_ble_gap.h **** ***************************************************************************//**
 717:Generated_Source\PSoC6\pdl\middleware\ble/cy_ble_gap.h **** *    
 718:Generated_Source\PSoC6\pdl\middleware\ble/cy_ble_gap.h **** *  This function returns the state of the link layer hardware advertisement
 719:Generated_Source\PSoC6\pdl\middleware\ble/cy_ble_gap.h **** *  engine.
 720:Generated_Source\PSoC6\pdl\middleware\ble/cy_ble_gap.h **** *
 721:Generated_Source\PSoC6\pdl\middleware\ble/cy_ble_gap.h **** *  \image html ble_advertisement_state_machine.png
 722:Generated_Source\PSoC6\pdl\middleware\ble/cy_ble_gap.h **** *
 723:Generated_Source\PSoC6\pdl\middleware\ble/cy_ble_gap.h **** *  When Cy_BLE_GAPP_StartAdvertisement() is called, the state is set to
 724:Generated_Source\PSoC6\pdl\middleware\ble/cy_ble_gap.h **** *  #CY_BLE_ADV_STATE_ADV_INITIATED. It automatically changes to
 725:Generated_Source\PSoC6\pdl\middleware\ble/cy_ble_gap.h **** *  #CY_BLE_ADV_STATE_ADVERTISING when #CY_BLE_EVT_GAPP_ADVERTISEMENT_START_STOP
 726:Generated_Source\PSoC6\pdl\middleware\ble/cy_ble_gap.h **** *  event is received. When Cy_BLE_GAPP_StopAdvertisement() is called, the
 727:Generated_Source\PSoC6\pdl\middleware\ble/cy_ble_gap.h **** *  state is set to #CY_BLE_ADV_STATE_STOP_INITIATED. It automatically changes
 728:Generated_Source\PSoC6\pdl\middleware\ble/cy_ble_gap.h **** *  to #CY_BLE_ADV_STATE_STOPPED when the #CY_BLE_EVT_GAPP_ADVERTISEMENT_START_STOP
 729:Generated_Source\PSoC6\pdl\middleware\ble/cy_ble_gap.h **** *  event is received.
 730:Generated_Source\PSoC6\pdl\middleware\ble/cy_ble_gap.h **** *
 731:Generated_Source\PSoC6\pdl\middleware\ble/cy_ble_gap.h **** * \return
 732:Generated_Source\PSoC6\pdl\middleware\ble/cy_ble_gap.h **** * \ref cy_en_ble_adv_state_t :The current advertising state. The following are 
 733:Generated_Source\PSoC6\pdl\middleware\ble/cy_ble_gap.h **** *                              possible states.
 734:Generated_Source\PSoC6\pdl\middleware\ble/cy_ble_gap.h **** *
 735:Generated_Source\PSoC6\pdl\middleware\ble/cy_ble_gap.h **** *               State                |         Description
 736:Generated_Source\PSoC6\pdl\middleware\ble/cy_ble_gap.h **** *   -------------------------------- | -----------------------------
 737:Generated_Source\PSoC6\pdl\middleware\ble/cy_ble_gap.h **** *   CY_BLE_ADV_STATE_STOPPED         | Advertising is stopped.
 738:Generated_Source\PSoC6\pdl\middleware\ble/cy_ble_gap.h **** *   CY_BLE_ADV_STATE_ADV_INITIATED   | Advertising is initiated.
 739:Generated_Source\PSoC6\pdl\middleware\ble/cy_ble_gap.h **** *   CY_BLE_ADV_STATE_ADVERTISING     | Advertising is initiated.
 740:Generated_Source\PSoC6\pdl\middleware\ble/cy_ble_gap.h **** *   CY_BLE_ADV_STATE_STOP_INITIATED  | Stop advertising is initiated.
 741:Generated_Source\PSoC6\pdl\middleware\ble/cy_ble_gap.h **** *
 742:Generated_Source\PSoC6\pdl\middleware\ble/cy_ble_gap.h **** ******************************************************************************/
 743:Generated_Source\PSoC6\pdl\middleware\ble/cy_ble_gap.h **** __STATIC_INLINE cy_en_ble_adv_state_t Cy_BLE_GetAdvertisementState(void)
 744:Generated_Source\PSoC6\pdl\middleware\ble/cy_ble_gap.h **** {
  28              		.loc 1 744 0
  29              		.cfi_startproc
  30              		@ args = 0, pretend = 0, frame = 0
  31              		@ frame_needed = 1, uses_anonymous_args = 0
  32              		@ link register save eliminated.
  33 0000 80B4     		push	{r7}
  34              		.cfi_def_cfa_offset 4
  35              		.cfi_offset 7, -4
  36 0002 00AF     		add	r7, sp, #0
  37              		.cfi_def_cfa_register 7
 745:Generated_Source\PSoC6\pdl\middleware\ble/cy_ble_gap.h ****     return(cy_ble_advState);
  38              		.loc 1 745 0
  39 0004 034B     		ldr	r3, .L3
  40 0006 1B78     		ldrb	r3, [r3]	@ zero_extendqisi2
 746:Generated_Source\PSoC6\pdl\middleware\ble/cy_ble_gap.h **** }
  41              		.loc 1 746 0
  42 0008 1846     		mov	r0, r3
  43 000a BD46     		mov	sp, r7
  44              		.cfi_def_cfa_register 13
  45              		@ sp needed
  46 000c 5DF8047B 		ldr	r7, [sp], #4
  47              		.cfi_restore 7
  48              		.cfi_def_cfa_offset 0
  49 0010 7047     		bx	lr
  50              	.L4:
  51 0012 00BF     		.align	2
  52              	.L3:
ARM GAS  C:\Users\JC\AppData\Local\Temp\ccavrowa.s 			page 15


  53 0014 00000000 		.word	cy_ble_advState
  54              		.cfi_endproc
  55              	.LFE170:
  56              		.size	Cy_BLE_GetAdvertisementState, .-Cy_BLE_GetAdvertisementState
  57              		.section	.text.Cy_BLE_SetAdvertisementState,"ax",%progbits
  58              		.align	2
  59              		.thumb
  60              		.thumb_func
  61              		.type	Cy_BLE_SetAdvertisementState, %function
  62              	Cy_BLE_SetAdvertisementState:
  63              	.LFB171:
 747:Generated_Source\PSoC6\pdl\middleware\ble/cy_ble_gap.h **** 
 748:Generated_Source\PSoC6\pdl\middleware\ble/cy_ble_gap.h **** /** \cond IGNORE */
 749:Generated_Source\PSoC6\pdl\middleware\ble/cy_ble_gap.h **** /******************************************************************************
 750:Generated_Source\PSoC6\pdl\middleware\ble/cy_ble_gap.h **** * Function Name: Cy_BLE_SetAdvertisementState
 751:Generated_Source\PSoC6\pdl\middleware\ble/cy_ble_gap.h **** ***************************************************************************//**
 752:Generated_Source\PSoC6\pdl\middleware\ble/cy_ble_gap.h **** *
 753:Generated_Source\PSoC6\pdl\middleware\ble/cy_ble_gap.h **** *  Used to set the state of the link layer hardware advertisement engine.
 754:Generated_Source\PSoC6\pdl\middleware\ble/cy_ble_gap.h **** *
 755:Generated_Source\PSoC6\pdl\middleware\ble/cy_ble_gap.h **** *  \param state: The desired state.
 756:Generated_Source\PSoC6\pdl\middleware\ble/cy_ble_gap.h **** *
 757:Generated_Source\PSoC6\pdl\middleware\ble/cy_ble_gap.h **** * \return
 758:Generated_Source\PSoC6\pdl\middleware\ble/cy_ble_gap.h **** *  None
 759:Generated_Source\PSoC6\pdl\middleware\ble/cy_ble_gap.h **** *
 760:Generated_Source\PSoC6\pdl\middleware\ble/cy_ble_gap.h **** ******************************************************************************/
 761:Generated_Source\PSoC6\pdl\middleware\ble/cy_ble_gap.h **** __STATIC_INLINE void Cy_BLE_SetAdvertisementState(cy_en_ble_adv_state_t state)
 762:Generated_Source\PSoC6\pdl\middleware\ble/cy_ble_gap.h **** {
  64              		.loc 1 762 0
  65              		.cfi_startproc
  66              		@ args = 0, pretend = 0, frame = 8
  67              		@ frame_needed = 1, uses_anonymous_args = 0
  68              		@ link register save eliminated.
  69 0000 80B4     		push	{r7}
  70              		.cfi_def_cfa_offset 4
  71              		.cfi_offset 7, -4
  72 0002 83B0     		sub	sp, sp, #12
  73              		.cfi_def_cfa_offset 16
  74 0004 00AF     		add	r7, sp, #0
  75              		.cfi_def_cfa_register 7
  76 0006 0346     		mov	r3, r0
  77 0008 FB71     		strb	r3, [r7, #7]
 763:Generated_Source\PSoC6\pdl\middleware\ble/cy_ble_gap.h ****     cy_ble_advState = state;
  78              		.loc 1 763 0
  79 000a 044A     		ldr	r2, .L6
  80 000c FB79     		ldrb	r3, [r7, #7]
  81 000e 1370     		strb	r3, [r2]
 764:Generated_Source\PSoC6\pdl\middleware\ble/cy_ble_gap.h **** }
  82              		.loc 1 764 0
  83 0010 00BF     		nop
  84 0012 0C37     		adds	r7, r7, #12
  85              		.cfi_def_cfa_offset 4
  86 0014 BD46     		mov	sp, r7
  87              		.cfi_def_cfa_register 13
  88              		@ sp needed
  89 0016 5DF8047B 		ldr	r7, [sp], #4
  90              		.cfi_restore 7
  91              		.cfi_def_cfa_offset 0
ARM GAS  C:\Users\JC\AppData\Local\Temp\ccavrowa.s 			page 16


  92 001a 7047     		bx	lr
  93              	.L7:
  94              		.align	2
  95              	.L6:
  96 001c 00000000 		.word	cy_ble_advState
  97              		.cfi_endproc
  98              	.LFE171:
  99              		.size	Cy_BLE_SetAdvertisementState, .-Cy_BLE_SetAdvertisementState
 100              		.section	.text.Cy_BLE_GetConnectionState,"ax",%progbits
 101              		.align	2
 102              		.thumb
 103              		.thumb_func
 104              		.type	Cy_BLE_GetConnectionState, %function
 105              	Cy_BLE_GetConnectionState:
 106              	.LFB172:
 765:Generated_Source\PSoC6\pdl\middleware\ble/cy_ble_gap.h **** /** \endcond */
 766:Generated_Source\PSoC6\pdl\middleware\ble/cy_ble_gap.h **** 
 767:Generated_Source\PSoC6\pdl\middleware\ble/cy_ble_gap.h **** #endif /* (CY_BLE_GAP_ROLE_PERIPHERAL || CY_BLE_GAP_ROLE_BROADCASTER) */
 768:Generated_Source\PSoC6\pdl\middleware\ble/cy_ble_gap.h **** 
 769:Generated_Source\PSoC6\pdl\middleware\ble/cy_ble_gap.h **** #if (CY_BLE_GAP_ROLE_CENTRAL || CY_BLE_GAP_ROLE_OBSERVER)
 770:Generated_Source\PSoC6\pdl\middleware\ble/cy_ble_gap.h **** 
 771:Generated_Source\PSoC6\pdl\middleware\ble/cy_ble_gap.h **** /******************************************************************************
 772:Generated_Source\PSoC6\pdl\middleware\ble/cy_ble_gap.h **** * Function Name: Cy_BLE_GetScanState
 773:Generated_Source\PSoC6\pdl\middleware\ble/cy_ble_gap.h **** ***************************************************************************//**
 774:Generated_Source\PSoC6\pdl\middleware\ble/cy_ble_gap.h **** *    
 775:Generated_Source\PSoC6\pdl\middleware\ble/cy_ble_gap.h **** *  This returns the state of the link layer hardware scan engine.
 776:Generated_Source\PSoC6\pdl\middleware\ble/cy_ble_gap.h **** *
 777:Generated_Source\PSoC6\pdl\middleware\ble/cy_ble_gap.h **** *  \image html ble_scanning_state_machine.png
 778:Generated_Source\PSoC6\pdl\middleware\ble/cy_ble_gap.h **** *   
 779:Generated_Source\PSoC6\pdl\middleware\ble/cy_ble_gap.h **** *  When Cy_BLE_GAPC_StartScan() is called the state is set to
 780:Generated_Source\PSoC6\pdl\middleware\ble/cy_ble_gap.h **** *  #CY_BLE_SCAN_STATE_SCAN_INITIATED. It automatically changes to
 781:Generated_Source\PSoC6\pdl\middleware\ble/cy_ble_gap.h **** *  #CY_BLE_SCAN_STATE_SCANNING when the #CY_BLE_EVT_GAPC_SCAN_START_STOP event is
 782:Generated_Source\PSoC6\pdl\middleware\ble/cy_ble_gap.h **** *  received. 
 783:Generated_Source\PSoC6\pdl\middleware\ble/cy_ble_gap.h **** *  When Cy_BLE_GAPC_StopScan() is called, the state is set to
 784:Generated_Source\PSoC6\pdl\middleware\ble/cy_ble_gap.h **** *  #CY_BLE_SCAN_STATE_STOP_INITIATED. It automatically changes to
 785:Generated_Source\PSoC6\pdl\middleware\ble/cy_ble_gap.h **** *  #CY_BLE_SCAN_STATE_STOPPED when the #CY_BLE_EVT_GAPC_SCAN_START_STOP event is
 786:Generated_Source\PSoC6\pdl\middleware\ble/cy_ble_gap.h **** *  received.
 787:Generated_Source\PSoC6\pdl\middleware\ble/cy_ble_gap.h **** *
 788:Generated_Source\PSoC6\pdl\middleware\ble/cy_ble_gap.h **** *  \return
 789:Generated_Source\PSoC6\pdl\middleware\ble/cy_ble_gap.h **** *  \ref cy_en_ble_scan_state_t : The current scan state. The following are 
 790:Generated_Source\PSoC6\pdl\middleware\ble/cy_ble_gap.h **** *                                possible states.
 791:Generated_Source\PSoC6\pdl\middleware\ble/cy_ble_gap.h **** *
 792:Generated_Source\PSoC6\pdl\middleware\ble/cy_ble_gap.h **** *               State                |         Description
 793:Generated_Source\PSoC6\pdl\middleware\ble/cy_ble_gap.h **** *   -------------------------------- | -----------------------------
 794:Generated_Source\PSoC6\pdl\middleware\ble/cy_ble_gap.h **** *   CY_BLE_SCAN_STATE_STOPPED        | Scanning is stopped.
 795:Generated_Source\PSoC6\pdl\middleware\ble/cy_ble_gap.h **** *   CY_BLE_SCAN_STATE_SCAN_INITIATED | Scanning is initiated.
 796:Generated_Source\PSoC6\pdl\middleware\ble/cy_ble_gap.h **** *   CY_BLE_SCAN_STATE_SCANNING       | Scanning process.
 797:Generated_Source\PSoC6\pdl\middleware\ble/cy_ble_gap.h **** *   CY_BLE_SCAN_STATE_STOP_INITIATED | Stop scanning is initiated.
 798:Generated_Source\PSoC6\pdl\middleware\ble/cy_ble_gap.h **** *
 799:Generated_Source\PSoC6\pdl\middleware\ble/cy_ble_gap.h **** ******************************************************************************/
 800:Generated_Source\PSoC6\pdl\middleware\ble/cy_ble_gap.h **** __STATIC_INLINE cy_en_ble_scan_state_t Cy_BLE_GetScanState(void)
 801:Generated_Source\PSoC6\pdl\middleware\ble/cy_ble_gap.h **** {
 802:Generated_Source\PSoC6\pdl\middleware\ble/cy_ble_gap.h ****     return(cy_ble_scanState);
 803:Generated_Source\PSoC6\pdl\middleware\ble/cy_ble_gap.h **** }
 804:Generated_Source\PSoC6\pdl\middleware\ble/cy_ble_gap.h **** 
 805:Generated_Source\PSoC6\pdl\middleware\ble/cy_ble_gap.h **** /** \cond IGNORE */
 806:Generated_Source\PSoC6\pdl\middleware\ble/cy_ble_gap.h **** /******************************************************************************
ARM GAS  C:\Users\JC\AppData\Local\Temp\ccavrowa.s 			page 17


 807:Generated_Source\PSoC6\pdl\middleware\ble/cy_ble_gap.h **** * Function Name: Cy_BLE_SetScanState
 808:Generated_Source\PSoC6\pdl\middleware\ble/cy_ble_gap.h **** ***************************************************************************//**
 809:Generated_Source\PSoC6\pdl\middleware\ble/cy_ble_gap.h **** *
 810:Generated_Source\PSoC6\pdl\middleware\ble/cy_ble_gap.h **** *  Used to set the state of the link layer hardware scan engine.
 811:Generated_Source\PSoC6\pdl\middleware\ble/cy_ble_gap.h **** *
 812:Generated_Source\PSoC6\pdl\middleware\ble/cy_ble_gap.h **** *  \param state: The desired state.
 813:Generated_Source\PSoC6\pdl\middleware\ble/cy_ble_gap.h **** *
 814:Generated_Source\PSoC6\pdl\middleware\ble/cy_ble_gap.h **** *  \return
 815:Generated_Source\PSoC6\pdl\middleware\ble/cy_ble_gap.h **** *  None
 816:Generated_Source\PSoC6\pdl\middleware\ble/cy_ble_gap.h **** *
 817:Generated_Source\PSoC6\pdl\middleware\ble/cy_ble_gap.h **** ******************************************************************************/
 818:Generated_Source\PSoC6\pdl\middleware\ble/cy_ble_gap.h **** __STATIC_INLINE void Cy_BLE_SetScanState(cy_en_ble_scan_state_t state)
 819:Generated_Source\PSoC6\pdl\middleware\ble/cy_ble_gap.h **** {
 820:Generated_Source\PSoC6\pdl\middleware\ble/cy_ble_gap.h ****     cy_ble_scanState = state;
 821:Generated_Source\PSoC6\pdl\middleware\ble/cy_ble_gap.h **** }
 822:Generated_Source\PSoC6\pdl\middleware\ble/cy_ble_gap.h **** /** \endcond */
 823:Generated_Source\PSoC6\pdl\middleware\ble/cy_ble_gap.h **** 
 824:Generated_Source\PSoC6\pdl\middleware\ble/cy_ble_gap.h **** #endif  /* (CY_BLE_GAP_ROLE_CENTRAL || CY_BLE_GAP_ROLE_OBSERVER) */
 825:Generated_Source\PSoC6\pdl\middleware\ble/cy_ble_gap.h **** 
 826:Generated_Source\PSoC6\pdl\middleware\ble/cy_ble_gap.h ****  
 827:Generated_Source\PSoC6\pdl\middleware\ble/cy_ble_gap.h **** #if ((CY_BLE_GAP_ROLE_PERIPHERAL || CY_BLE_GAP_ROLE_CENTRAL))
 828:Generated_Source\PSoC6\pdl\middleware\ble/cy_ble_gap.h **** 
 829:Generated_Source\PSoC6\pdl\middleware\ble/cy_ble_gap.h **** /******************************************************************************
 830:Generated_Source\PSoC6\pdl\middleware\ble/cy_ble_gap.h **** * Function Name: Cy_BLE_GetConnectionState
 831:Generated_Source\PSoC6\pdl\middleware\ble/cy_ble_gap.h **** ***************************************************************************//**
 832:Generated_Source\PSoC6\pdl\middleware\ble/cy_ble_gap.h **** *  This function returns the state of the BLE link for the specified connection
 833:Generated_Source\PSoC6\pdl\middleware\ble/cy_ble_gap.h **** *  handle.
 834:Generated_Source\PSoC6\pdl\middleware\ble/cy_ble_gap.h **** *
 835:Generated_Source\PSoC6\pdl\middleware\ble/cy_ble_gap.h **** *  The state is set to #CY_BLE_CONN_STATE_CONNECTED when #CY_BLE_EVT_GATT_CONNECT_IND
 836:Generated_Source\PSoC6\pdl\middleware\ble/cy_ble_gap.h **** *  event is received with the corresponding connection handle.
 837:Generated_Source\PSoC6\pdl\middleware\ble/cy_ble_gap.h **** *  The state is set to #CY_BLE_CONN_STATE_DISCONNECTED when the
 838:Generated_Source\PSoC6\pdl\middleware\ble/cy_ble_gap.h **** *  #CY_BLE_EVT_GATT_DISCONNECT_IND event is received.
 839:Generated_Source\PSoC6\pdl\middleware\ble/cy_ble_gap.h **** *
 840:Generated_Source\PSoC6\pdl\middleware\ble/cy_ble_gap.h **** *  For GATT Client role when Cy_BLE_GATTC_StartDiscovery() is called, the state
 841:Generated_Source\PSoC6\pdl\middleware\ble/cy_ble_gap.h **** *  indicates the current flow of the discovery procedure by
 842:Generated_Source\PSoC6\pdl\middleware\ble/cy_ble_gap.h **** *  #CY_BLE_CONN_STATE_CLIENT_SRVC_DISCOVERING,
 843:Generated_Source\PSoC6\pdl\middleware\ble/cy_ble_gap.h **** *  #CY_BLE_CONN_STATE_CLIENT_INCL_DISCOVERING,
 844:Generated_Source\PSoC6\pdl\middleware\ble/cy_ble_gap.h **** *  #CY_BLE_CONN_STATE_CLIENT_CHAR_DISCOVERING,
 845:Generated_Source\PSoC6\pdl\middleware\ble/cy_ble_gap.h **** *  #CY_BLE_CONN_STATE_CLIENT_DESCR_DISCOVERING and changes to
 846:Generated_Source\PSoC6\pdl\middleware\ble/cy_ble_gap.h **** *  #CY_BLE_CONN_STATE_CLIENT_DISCOVERED when the procedure successfully completes.
 847:Generated_Source\PSoC6\pdl\middleware\ble/cy_ble_gap.h **** *
 848:Generated_Source\PSoC6\pdl\middleware\ble/cy_ble_gap.h **** *  The state changes from #CY_BLE_CONN_STATE_CLIENT_DISCOVERED to
 849:Generated_Source\PSoC6\pdl\middleware\ble/cy_ble_gap.h **** *  #CY_BLE_CONN_STATE_CLIENT_DISCONNECTED_DISCOVERED when
 850:Generated_Source\PSoC6\pdl\middleware\ble/cy_ble_gap.h **** *  the #CY_BLE_EVT_GATT_DISCONNECT_IND event is received.
 851:Generated_Source\PSoC6\pdl\middleware\ble/cy_ble_gap.h **** *  The state comes backs to #CY_BLE_CONN_STATE_CLIENT_DISCOVERED when
 852:Generated_Source\PSoC6\pdl\middleware\ble/cy_ble_gap.h **** *  #CY_BLE_EVT_GATT_CONNECT_IND event is received and resolvable device
 853:Generated_Source\PSoC6\pdl\middleware\ble/cy_ble_gap.h **** *  address is not changed.
 854:Generated_Source\PSoC6\pdl\middleware\ble/cy_ble_gap.h **** *
 855:Generated_Source\PSoC6\pdl\middleware\ble/cy_ble_gap.h **** *  \param connHandle: The connection handle.
 856:Generated_Source\PSoC6\pdl\middleware\ble/cy_ble_gap.h **** *
 857:Generated_Source\PSoC6\pdl\middleware\ble/cy_ble_gap.h **** * \return
 858:Generated_Source\PSoC6\pdl\middleware\ble/cy_ble_gap.h **** * \ref cy_en_ble_conn_state_t : The current client state. The following are 
 859:Generated_Source\PSoC6\pdl\middleware\ble/cy_ble_gap.h **** *                               possible states.
 860:Generated_Source\PSoC6\pdl\middleware\ble/cy_ble_gap.h **** *
 861:Generated_Source\PSoC6\pdl\middleware\ble/cy_ble_gap.h **** *               State                                |         Description
 862:Generated_Source\PSoC6\pdl\middleware\ble/cy_ble_gap.h **** *   ------------------------------------------------ | -----------------------------
 863:Generated_Source\PSoC6\pdl\middleware\ble/cy_ble_gap.h **** *   CY_BLE_CONN_STATE_DISCONNECTED                   | Essentially idle state
ARM GAS  C:\Users\JC\AppData\Local\Temp\ccavrowa.s 			page 18


 864:Generated_Source\PSoC6\pdl\middleware\ble/cy_ble_gap.h **** *   CY_BLE_CONN_STATE_CLIENT_DISCONNECTED_DISCOVERED | Server is disconnected but discovered.
 865:Generated_Source\PSoC6\pdl\middleware\ble/cy_ble_gap.h **** *   CY_BLE_CONN_STATE_CONNECTED                      | Peer device is connected for this and follow
 866:Generated_Source\PSoC6\pdl\middleware\ble/cy_ble_gap.h **** *   CY_BLE_CONN_STATE_CLIENT_SRVC_DISCOVERING        | Server services are being discovered.
 867:Generated_Source\PSoC6\pdl\middleware\ble/cy_ble_gap.h **** *   CY_BLE_CONN_STATE_CLIENT_INCL_DISCOVERING        | Server included services are being discovere
 868:Generated_Source\PSoC6\pdl\middleware\ble/cy_ble_gap.h **** *   CY_BLE_CONN_STATE_CLIENT_CHAR_DISCOVERING        | Server characteristics are being discovered
 869:Generated_Source\PSoC6\pdl\middleware\ble/cy_ble_gap.h **** *   CY_BLE_CONN_STATE_CLIENT_DESCR_DISCOVERING       | Server char. descriptors are being discovere
 870:Generated_Source\PSoC6\pdl\middleware\ble/cy_ble_gap.h **** *   CY_BLE_CONN_STATE_CLIENT_DISCOVERED              | Server is discovered   
 871:Generated_Source\PSoC6\pdl\middleware\ble/cy_ble_gap.h **** *
 872:Generated_Source\PSoC6\pdl\middleware\ble/cy_ble_gap.h **** *  \funcusage 
 873:Generated_Source\PSoC6\pdl\middleware\ble/cy_ble_gap.h **** *  \snippet ble\3.0\snippet\main.c BLE Common API: Cy_BLE_GetConnectionState()
 874:Generated_Source\PSoC6\pdl\middleware\ble/cy_ble_gap.h **** *
 875:Generated_Source\PSoC6\pdl\middleware\ble/cy_ble_gap.h **** ******************************************************************************/
 876:Generated_Source\PSoC6\pdl\middleware\ble/cy_ble_gap.h **** __STATIC_INLINE cy_en_ble_conn_state_t Cy_BLE_GetConnectionState(cy_stc_ble_conn_handle_t connHandl
 877:Generated_Source\PSoC6\pdl\middleware\ble/cy_ble_gap.h **** {
 107              		.loc 1 877 0
 108              		.cfi_startproc
 109              		@ args = 0, pretend = 0, frame = 8
 110              		@ frame_needed = 1, uses_anonymous_args = 0
 111              		@ link register save eliminated.
 112 0000 80B4     		push	{r7}
 113              		.cfi_def_cfa_offset 4
 114              		.cfi_offset 7, -4
 115 0002 83B0     		sub	sp, sp, #12
 116              		.cfi_def_cfa_offset 16
 117 0004 00AF     		add	r7, sp, #0
 118              		.cfi_def_cfa_register 7
 119 0006 B880     		strh	r0, [r7, #4]	@ movhi
 878:Generated_Source\PSoC6\pdl\middleware\ble/cy_ble_gap.h ****     return((connHandle.attId < CY_BLE_CONN_COUNT) ? cy_ble_connState[connHandle.attId] : CY_BLE_CON
 120              		.loc 1 878 0
 121 0008 7B79     		ldrb	r3, [r7, #5]	@ zero_extendqisi2
 122 000a 002B     		cmp	r3, #0
 123 000c 04D1     		bne	.L9
 124              		.loc 1 878 0 is_stmt 0 discriminator 1
 125 000e 7B79     		ldrb	r3, [r7, #5]	@ zero_extendqisi2
 126 0010 1A46     		mov	r2, r3
 127 0012 054B     		ldr	r3, .L12
 128 0014 9B5C     		ldrb	r3, [r3, r2]	@ zero_extendqisi2
 129 0016 00E0     		b	.L10
 130              	.L9:
 131              		.loc 1 878 0 discriminator 2
 132 0018 0023     		movs	r3, #0
 133              	.L10:
 879:Generated_Source\PSoC6\pdl\middleware\ble/cy_ble_gap.h **** }
 134              		.loc 1 879 0 is_stmt 1 discriminator 4
 135 001a 1846     		mov	r0, r3
 136 001c 0C37     		adds	r7, r7, #12
 137              		.cfi_def_cfa_offset 4
 138 001e BD46     		mov	sp, r7
 139              		.cfi_def_cfa_register 13
 140              		@ sp needed
 141 0020 5DF8047B 		ldr	r7, [sp], #4
 142              		.cfi_restore 7
 143              		.cfi_def_cfa_offset 0
 144 0024 7047     		bx	lr
 145              	.L13:
 146 0026 00BF     		.align	2
 147              	.L12:
ARM GAS  C:\Users\JC\AppData\Local\Temp\ccavrowa.s 			page 19


 148 0028 00000000 		.word	cy_ble_connState
 149              		.cfi_endproc
 150              	.LFE172:
 151              		.size	Cy_BLE_GetConnectionState, .-Cy_BLE_GetConnectionState
 152              		.section	.rodata
 153              		.align	2
 154              	.LC2:
 155 0000 47656E65 		.ascii	"Generated_Source\\PSoC6\\pdl\\middleware\\ble\\cy_b"
 155      72617465 
 155      645F536F 
 155      75726365 
 155      5C50536F 
 156 002e 6C655F67 		.ascii	"le_gap.h\000"
 156      61702E68 
 156      00
 157              		.section	.text.Cy_BLE_SetConnectionState,"ax",%progbits
 158              		.align	2
 159              		.thumb
 160              		.thumb_func
 161              		.type	Cy_BLE_SetConnectionState, %function
 162              	Cy_BLE_SetConnectionState:
 163              	.LFB173:
 880:Generated_Source\PSoC6\pdl\middleware\ble/cy_ble_gap.h **** 
 881:Generated_Source\PSoC6\pdl\middleware\ble/cy_ble_gap.h **** /** \cond IGNORE */
 882:Generated_Source\PSoC6\pdl\middleware\ble/cy_ble_gap.h **** /******************************************************************************
 883:Generated_Source\PSoC6\pdl\middleware\ble/cy_ble_gap.h **** * Function Name: Cy_BLE_SetConnectionState
 884:Generated_Source\PSoC6\pdl\middleware\ble/cy_ble_gap.h **** ***************************************************************************//**
 885:Generated_Source\PSoC6\pdl\middleware\ble/cy_ble_gap.h **** *
 886:Generated_Source\PSoC6\pdl\middleware\ble/cy_ble_gap.h **** *  Used to set BLE link state for the specified connection handle.
 887:Generated_Source\PSoC6\pdl\middleware\ble/cy_ble_gap.h **** *
 888:Generated_Source\PSoC6\pdl\middleware\ble/cy_ble_gap.h **** *  \param connHandle: Peer device handle
 889:Generated_Source\PSoC6\pdl\middleware\ble/cy_ble_gap.h **** *  \param state:  The state that is desired to be set
 890:Generated_Source\PSoC6\pdl\middleware\ble/cy_ble_gap.h **** *
 891:Generated_Source\PSoC6\pdl\middleware\ble/cy_ble_gap.h **** ******************************************************************************/
 892:Generated_Source\PSoC6\pdl\middleware\ble/cy_ble_gap.h **** __STATIC_INLINE void Cy_BLE_SetConnectionState(cy_stc_ble_conn_handle_t connHandle,
 893:Generated_Source\PSoC6\pdl\middleware\ble/cy_ble_gap.h ****                                                cy_en_ble_conn_state_t state)
 894:Generated_Source\PSoC6\pdl\middleware\ble/cy_ble_gap.h **** {
 164              		.loc 1 894 0
 165              		.cfi_startproc
 166              		@ args = 0, pretend = 0, frame = 8
 167              		@ frame_needed = 1, uses_anonymous_args = 0
 168 0000 80B5     		push	{r7, lr}
 169              		.cfi_def_cfa_offset 8
 170              		.cfi_offset 7, -8
 171              		.cfi_offset 14, -4
 172 0002 82B0     		sub	sp, sp, #8
 173              		.cfi_def_cfa_offset 16
 174 0004 00AF     		add	r7, sp, #0
 175              		.cfi_def_cfa_register 7
 176 0006 B880     		strh	r0, [r7, #4]	@ movhi
 177 0008 0B46     		mov	r3, r1
 178 000a FB70     		strb	r3, [r7, #3]
 895:Generated_Source\PSoC6\pdl\middleware\ble/cy_ble_gap.h ****     if(connHandle.attId < CY_BLE_CONN_COUNT)
 179              		.loc 1 895 0
 180 000c 7B79     		ldrb	r3, [r7, #5]	@ zero_extendqisi2
 181 000e 002B     		cmp	r3, #0
 182 0010 05D1     		bne	.L15
ARM GAS  C:\Users\JC\AppData\Local\Temp\ccavrowa.s 			page 20


 896:Generated_Source\PSoC6\pdl\middleware\ble/cy_ble_gap.h ****     {
 897:Generated_Source\PSoC6\pdl\middleware\ble/cy_ble_gap.h ****         cy_ble_connState[connHandle.attId] = state;
 183              		.loc 1 897 0
 184 0012 7B79     		ldrb	r3, [r7, #5]	@ zero_extendqisi2
 185 0014 1946     		mov	r1, r3
 186 0016 084A     		ldr	r2, .L18
 187 0018 FB78     		ldrb	r3, [r7, #3]
 188 001a 5354     		strb	r3, [r2, r1]
 898:Generated_Source\PSoC6\pdl\middleware\ble/cy_ble_gap.h ****     }
 899:Generated_Source\PSoC6\pdl\middleware\ble/cy_ble_gap.h ****     else
 900:Generated_Source\PSoC6\pdl\middleware\ble/cy_ble_gap.h ****     {
 901:Generated_Source\PSoC6\pdl\middleware\ble/cy_ble_gap.h ****         /* Halt in debug mode*/
 902:Generated_Source\PSoC6\pdl\middleware\ble/cy_ble_gap.h ****         CY_ASSERT(connHandle.attId >= CY_BLE_CONN_COUNT);
 903:Generated_Source\PSoC6\pdl\middleware\ble/cy_ble_gap.h ****     }
 904:Generated_Source\PSoC6\pdl\middleware\ble/cy_ble_gap.h **** }
 189              		.loc 1 904 0
 190 001c 07E0     		b	.L17
 191              	.L15:
 902:Generated_Source\PSoC6\pdl\middleware\ble/cy_ble_gap.h ****     }
 192              		.loc 1 902 0
 193 001e 7B79     		ldrb	r3, [r7, #5]	@ zero_extendqisi2
 194 0020 002B     		cmp	r3, #0
 195 0022 04D1     		bne	.L17
 902:Generated_Source\PSoC6\pdl\middleware\ble/cy_ble_gap.h ****     }
 196              		.loc 1 902 0 is_stmt 0 discriminator 1
 197 0024 40F28631 		movw	r1, #902
 198 0028 0448     		ldr	r0, .L18+4
 199 002a FFF7FEFF 		bl	Cy_SysLib_AssertFailed
 200              	.L17:
 201              		.loc 1 904 0 is_stmt 1
 202 002e 00BF     		nop
 203 0030 0837     		adds	r7, r7, #8
 204              		.cfi_def_cfa_offset 8
 205 0032 BD46     		mov	sp, r7
 206              		.cfi_def_cfa_register 13
 207              		@ sp needed
 208 0034 80BD     		pop	{r7, pc}
 209              	.L19:
 210 0036 00BF     		.align	2
 211              	.L18:
 212 0038 00000000 		.word	cy_ble_connState
 213 003c 00000000 		.word	.LC2
 214              		.cfi_endproc
 215              	.LFE173:
 216              		.size	Cy_BLE_SetConnectionState, .-Cy_BLE_SetConnectionState
 217              		.section	.rodata
 218 0037 00       		.align	2
 219              	.LC1:
 220 0038 FF       		.byte	-1
 221 0039 FF       		.byte	-1
 222              		.section	.text.Cy_BLE_GetConnHandleByBdHandle,"ax",%progbits
 223              		.align	2
 224              		.thumb
 225              		.thumb_func
 226              		.type	Cy_BLE_GetConnHandleByBdHandle, %function
 227              	Cy_BLE_GetConnHandleByBdHandle:
 228              	.LFB175:
ARM GAS  C:\Users\JC\AppData\Local\Temp\ccavrowa.s 			page 21


 905:Generated_Source\PSoC6\pdl\middleware\ble/cy_ble_gap.h **** /** \endcond */
 906:Generated_Source\PSoC6\pdl\middleware\ble/cy_ble_gap.h **** 
 907:Generated_Source\PSoC6\pdl\middleware\ble/cy_ble_gap.h **** /******************************************************************************
 908:Generated_Source\PSoC6\pdl\middleware\ble/cy_ble_gap.h **** * Function Name: Cy_BLE_GetNumOfActiveConn
 909:Generated_Source\PSoC6\pdl\middleware\ble/cy_ble_gap.h **** ***************************************************************************//**
 910:Generated_Source\PSoC6\pdl\middleware\ble/cy_ble_gap.h **** *
 911:Generated_Source\PSoC6\pdl\middleware\ble/cy_ble_gap.h **** *  Used to get active number of connections.
 912:Generated_Source\PSoC6\pdl\middleware\ble/cy_ble_gap.h **** *
 913:Generated_Source\PSoC6\pdl\middleware\ble/cy_ble_gap.h **** *  \return
 914:Generated_Source\PSoC6\pdl\middleware\ble/cy_ble_gap.h **** *  connNum - number of active connections
 915:Generated_Source\PSoC6\pdl\middleware\ble/cy_ble_gap.h **** *
 916:Generated_Source\PSoC6\pdl\middleware\ble/cy_ble_gap.h **** ******************************************************************************/
 917:Generated_Source\PSoC6\pdl\middleware\ble/cy_ble_gap.h **** __STATIC_INLINE uint8_t Cy_BLE_GetNumOfActiveConn(void)
 918:Generated_Source\PSoC6\pdl\middleware\ble/cy_ble_gap.h **** {
 919:Generated_Source\PSoC6\pdl\middleware\ble/cy_ble_gap.h ****     uint32_t i;
 920:Generated_Source\PSoC6\pdl\middleware\ble/cy_ble_gap.h ****     uint8_t connNum = 0u;
 921:Generated_Source\PSoC6\pdl\middleware\ble/cy_ble_gap.h **** 
 922:Generated_Source\PSoC6\pdl\middleware\ble/cy_ble_gap.h ****     for(i = 0u; i < CY_BLE_CONN_COUNT; i++)
 923:Generated_Source\PSoC6\pdl\middleware\ble/cy_ble_gap.h ****     {
 924:Generated_Source\PSoC6\pdl\middleware\ble/cy_ble_gap.h ****         if(cy_ble_connState[i] >= CY_BLE_CONN_STATE_CONNECTED)
 925:Generated_Source\PSoC6\pdl\middleware\ble/cy_ble_gap.h ****         {
 926:Generated_Source\PSoC6\pdl\middleware\ble/cy_ble_gap.h ****             connNum++;
 927:Generated_Source\PSoC6\pdl\middleware\ble/cy_ble_gap.h ****         }
 928:Generated_Source\PSoC6\pdl\middleware\ble/cy_ble_gap.h ****     }
 929:Generated_Source\PSoC6\pdl\middleware\ble/cy_ble_gap.h **** 
 930:Generated_Source\PSoC6\pdl\middleware\ble/cy_ble_gap.h ****     return(connNum);
 931:Generated_Source\PSoC6\pdl\middleware\ble/cy_ble_gap.h **** }
 932:Generated_Source\PSoC6\pdl\middleware\ble/cy_ble_gap.h **** 
 933:Generated_Source\PSoC6\pdl\middleware\ble/cy_ble_gap.h **** 
 934:Generated_Source\PSoC6\pdl\middleware\ble/cy_ble_gap.h **** /******************************************************************************
 935:Generated_Source\PSoC6\pdl\middleware\ble/cy_ble_gap.h **** * Function Name: Cy_BLE_GetConnHandleByBdHandle
 936:Generated_Source\PSoC6\pdl\middleware\ble/cy_ble_gap.h **** ***************************************************************************//**
 937:Generated_Source\PSoC6\pdl\middleware\ble/cy_ble_gap.h **** *
 938:Generated_Source\PSoC6\pdl\middleware\ble/cy_ble_gap.h **** *  Used to get connection handle by bdHandle
 939:Generated_Source\PSoC6\pdl\middleware\ble/cy_ble_gap.h **** *  This function halts in debug mode if bdHandle does not exist in the connected device
 940:Generated_Source\PSoC6\pdl\middleware\ble/cy_ble_gap.h **** *  list
 941:Generated_Source\PSoC6\pdl\middleware\ble/cy_ble_gap.h **** *
 942:Generated_Source\PSoC6\pdl\middleware\ble/cy_ble_gap.h **** *  \param bdHandle: Peer device handle
 943:Generated_Source\PSoC6\pdl\middleware\ble/cy_ble_gap.h **** *
 944:Generated_Source\PSoC6\pdl\middleware\ble/cy_ble_gap.h **** *  \return
 945:Generated_Source\PSoC6\pdl\middleware\ble/cy_ble_gap.h **** *  * connHandle: Full connection handle.
 946:Generated_Source\PSoC6\pdl\middleware\ble/cy_ble_gap.h **** *  * connHandle.attId = CY_BLE_INVALID_CONN_HANDLE_VALUE: invalid bdHandle
 947:Generated_Source\PSoC6\pdl\middleware\ble/cy_ble_gap.h **** *
 948:Generated_Source\PSoC6\pdl\middleware\ble/cy_ble_gap.h **** ******************************************************************************/
 949:Generated_Source\PSoC6\pdl\middleware\ble/cy_ble_gap.h **** __STATIC_INLINE cy_stc_ble_conn_handle_t Cy_BLE_GetConnHandleByBdHandle(uint8_t bdHandle)
 950:Generated_Source\PSoC6\pdl\middleware\ble/cy_ble_gap.h **** {
 229              		.loc 1 950 0
 230              		.cfi_startproc
 231              		@ args = 0, pretend = 0, frame = 24
 232              		@ frame_needed = 1, uses_anonymous_args = 0
 233 0000 80B5     		push	{r7, lr}
 234              		.cfi_def_cfa_offset 8
 235              		.cfi_offset 7, -8
 236              		.cfi_offset 14, -4
 237 0002 86B0     		sub	sp, sp, #24
 238              		.cfi_def_cfa_offset 32
 239 0004 00AF     		add	r7, sp, #0
ARM GAS  C:\Users\JC\AppData\Local\Temp\ccavrowa.s 			page 22


 240              		.cfi_def_cfa_register 7
 241 0006 0346     		mov	r3, r0
 242 0008 FB71     		strb	r3, [r7, #7]
 951:Generated_Source\PSoC6\pdl\middleware\ble/cy_ble_gap.h ****     uint32_t i;
 952:Generated_Source\PSoC6\pdl\middleware\ble/cy_ble_gap.h ****     cy_stc_ble_conn_handle_t cHandle =
 243              		.loc 1 952 0
 244 000a 244A     		ldr	r2, .L27
 245 000c 07F10C03 		add	r3, r7, #12
 246 0010 1288     		ldrh	r2, [r2]	@ unaligned
 247 0012 1A80     		strh	r2, [r3]	@ unaligned
 953:Generated_Source\PSoC6\pdl\middleware\ble/cy_ble_gap.h ****     {
 954:Generated_Source\PSoC6\pdl\middleware\ble/cy_ble_gap.h ****         .attId    = CY_BLE_INVALID_CONN_HANDLE_VALUE,
 955:Generated_Source\PSoC6\pdl\middleware\ble/cy_ble_gap.h ****         .bdHandle = CY_BLE_INVALID_CONN_HANDLE_VALUE
 956:Generated_Source\PSoC6\pdl\middleware\ble/cy_ble_gap.h ****     };
 957:Generated_Source\PSoC6\pdl\middleware\ble/cy_ble_gap.h **** 
 958:Generated_Source\PSoC6\pdl\middleware\ble/cy_ble_gap.h ****     for(i = 0u; i < CY_BLE_CONN_COUNT; i++)
 248              		.loc 1 958 0
 249 0014 0023     		movs	r3, #0
 250 0016 7B61     		str	r3, [r7, #20]
 251 0018 25E0     		b	.L21
 252              	.L24:
 959:Generated_Source\PSoC6\pdl\middleware\ble/cy_ble_gap.h ****     {
 960:Generated_Source\PSoC6\pdl\middleware\ble/cy_ble_gap.h ****         if((Cy_BLE_GetConnectionState(cy_ble_connHandle[i]) >= CY_BLE_CONN_STATE_CONNECTED) &&
 253              		.loc 1 960 0
 254 001a 214A     		ldr	r2, .L27+4
 255 001c 7B69     		ldr	r3, [r7, #20]
 256 001e 12F81310 		ldrb	r1, [r2, r3, lsl #1]	@ zero_extendqisi2
 257 0022 5B00     		lsls	r3, r3, #1
 258 0024 1344     		add	r3, r3, r2
 259 0026 5B78     		ldrb	r3, [r3, #1]	@ zero_extendqisi2
 260 0028 1B02     		lsls	r3, r3, #8
 261 002a 43EA0102 		orr	r2, r3, r1
 262 002e 0023     		movs	r3, #0
 263 0030 62F30F03 		bfi	r3, r2, #0, #16
 264 0034 1846     		mov	r0, r3
 265 0036 FFF7FEFF 		bl	Cy_BLE_GetConnectionState
 266 003a 0346     		mov	r3, r0
 267 003c 012B     		cmp	r3, #1
 268 003e 0FD9     		bls	.L22
 961:Generated_Source\PSoC6\pdl\middleware\ble/cy_ble_gap.h ****                 (cy_ble_connHandle[i].bdHandle == bdHandle))
 269              		.loc 1 961 0 discriminator 1
 270 0040 174A     		ldr	r2, .L27+4
 271 0042 7B69     		ldr	r3, [r7, #20]
 272 0044 12F81330 		ldrb	r3, [r2, r3, lsl #1]	@ zero_extendqisi2
 960:Generated_Source\PSoC6\pdl\middleware\ble/cy_ble_gap.h ****                 (cy_ble_connHandle[i].bdHandle == bdHandle))
 273              		.loc 1 960 0 discriminator 1
 274 0048 FA79     		ldrb	r2, [r7, #7]	@ zero_extendqisi2
 275 004a 9A42     		cmp	r2, r3
 276 004c 08D1     		bne	.L22
 962:Generated_Source\PSoC6\pdl\middleware\ble/cy_ble_gap.h ****         {
 963:Generated_Source\PSoC6\pdl\middleware\ble/cy_ble_gap.h ****             cHandle = cy_ble_connHandle[i];
 277              		.loc 1 963 0
 278 004e 1449     		ldr	r1, .L27+4
 279 0050 7B69     		ldr	r3, [r7, #20]
 280 0052 07F10C02 		add	r2, r7, #12
 281 0056 5B00     		lsls	r3, r3, #1
 282 0058 0B44     		add	r3, r3, r1
ARM GAS  C:\Users\JC\AppData\Local\Temp\ccavrowa.s 			page 23


 283 005a 1B88     		ldrh	r3, [r3]	@ unaligned
 284 005c 1380     		strh	r3, [r2]	@ unaligned
 964:Generated_Source\PSoC6\pdl\middleware\ble/cy_ble_gap.h ****             break;
 285              		.loc 1 964 0
 286 005e 05E0     		b	.L23
 287              	.L22:
 958:Generated_Source\PSoC6\pdl\middleware\ble/cy_ble_gap.h ****     {
 288              		.loc 1 958 0 discriminator 2
 289 0060 7B69     		ldr	r3, [r7, #20]
 290 0062 0133     		adds	r3, r3, #1
 291 0064 7B61     		str	r3, [r7, #20]
 292              	.L21:
 958:Generated_Source\PSoC6\pdl\middleware\ble/cy_ble_gap.h ****     {
 293              		.loc 1 958 0 is_stmt 0 discriminator 1
 294 0066 7B69     		ldr	r3, [r7, #20]
 295 0068 002B     		cmp	r3, #0
 296 006a D6D0     		beq	.L24
 297              	.L23:
 965:Generated_Source\PSoC6\pdl\middleware\ble/cy_ble_gap.h ****         }
 966:Generated_Source\PSoC6\pdl\middleware\ble/cy_ble_gap.h ****     }
 967:Generated_Source\PSoC6\pdl\middleware\ble/cy_ble_gap.h ****     if(cHandle.attId == CY_BLE_INVALID_CONN_HANDLE_VALUE)
 298              		.loc 1 967 0 is_stmt 1
 299 006c 7B7B     		ldrb	r3, [r7, #13]	@ zero_extendqisi2
 300 006e FF2B     		cmp	r3, #255
 301 0070 07D1     		bne	.L25
 968:Generated_Source\PSoC6\pdl\middleware\ble/cy_ble_gap.h ****     {
 969:Generated_Source\PSoC6\pdl\middleware\ble/cy_ble_gap.h ****         /* HALT in debug mode */
 970:Generated_Source\PSoC6\pdl\middleware\ble/cy_ble_gap.h ****         CY_ASSERT(cHandle.attId != CY_BLE_INVALID_CONN_HANDLE_VALUE);
 302              		.loc 1 970 0
 303 0072 7B7B     		ldrb	r3, [r7, #13]	@ zero_extendqisi2
 304 0074 FF2B     		cmp	r3, #255
 305 0076 04D1     		bne	.L25
 306              		.loc 1 970 0 is_stmt 0 discriminator 1
 307 0078 40F2CA31 		movw	r1, #970
 308 007c 0948     		ldr	r0, .L27+8
 309 007e FFF7FEFF 		bl	Cy_SysLib_AssertFailed
 310              	.L25:
 971:Generated_Source\PSoC6\pdl\middleware\ble/cy_ble_gap.h ****     }
 972:Generated_Source\PSoC6\pdl\middleware\ble/cy_ble_gap.h **** 
 973:Generated_Source\PSoC6\pdl\middleware\ble/cy_ble_gap.h ****     return cHandle;
 311              		.loc 1 973 0 is_stmt 1
 312 0082 BB89     		ldrh	r3, [r7, #12]	@ movhi
 313 0084 3B82     		strh	r3, [r7, #16]	@ movhi
 314 0086 0023     		movs	r3, #0
 315 0088 3A7C     		ldrb	r2, [r7, #16]	@ zero_extendqisi2
 316 008a 62F30703 		bfi	r3, r2, #0, #8
 317 008e 7A7C     		ldrb	r2, [r7, #17]	@ zero_extendqisi2
 318 0090 62F30F23 		bfi	r3, r2, #8, #8
 974:Generated_Source\PSoC6\pdl\middleware\ble/cy_ble_gap.h **** }
 319              		.loc 1 974 0
 320 0094 1846     		mov	r0, r3	@ movhi
 321 0096 1837     		adds	r7, r7, #24
 322              		.cfi_def_cfa_offset 8
 323 0098 BD46     		mov	sp, r7
 324              		.cfi_def_cfa_register 13
 325              		@ sp needed
 326 009a 80BD     		pop	{r7, pc}
ARM GAS  C:\Users\JC\AppData\Local\Temp\ccavrowa.s 			page 24


 327              	.L28:
 328              		.align	2
 329              	.L27:
 330 009c 38000000 		.word	.LC1
 331 00a0 00000000 		.word	cy_ble_connHandle
 332 00a4 00000000 		.word	.LC2
 333              		.cfi_endproc
 334              	.LFE175:
 335              		.size	Cy_BLE_GetConnHandleByBdHandle, .-Cy_BLE_GetConnHandleByBdHandle
 336              		.comm	cy_ble_busyStatus,1,4
 337              		.comm	cy_ble_eventHandlerFlag,1,1
 338              		.comm	cy_ble_cmdStatus,4,4
 339              		.comm	cy_ble_advertisingIntervalType,1,1
 340              		.comm	cy_ble_eventHandler,8,4
 341              		.section	.text.Cy_BLE_RegisterServiceEventHandler,"ax",%progbits
 342              		.align	2
 343              		.global	Cy_BLE_RegisterServiceEventHandler
 344              		.thumb
 345              		.thumb_func
 346              		.type	Cy_BLE_RegisterServiceEventHandler, %function
 347              	Cy_BLE_RegisterServiceEventHandler:
 348              	.LFB256:
 349              		.file 2 "Generated_Source\\PSoC6\\pdl\\middleware\\ble\\cy_ble_event_handler.c"
   1:Generated_Source\PSoC6\pdl\middleware\ble/cy_ble_event_handler.c **** /***************************************************************************//**
   2:Generated_Source\PSoC6\pdl\middleware\ble/cy_ble_event_handler.c **** * \file cy_ble_event_handler.c
   3:Generated_Source\PSoC6\pdl\middleware\ble/cy_ble_event_handler.c **** * \version 2.60
   4:Generated_Source\PSoC6\pdl\middleware\ble/cy_ble_event_handler.c **** *
   5:Generated_Source\PSoC6\pdl\middleware\ble/cy_ble_event_handler.c **** * \brief
   6:Generated_Source\PSoC6\pdl\middleware\ble/cy_ble_event_handler.c **** *  This file contains the source code for the Event Handler State Machine
   7:Generated_Source\PSoC6\pdl\middleware\ble/cy_ble_event_handler.c **** *  of the BLE Middleware.
   8:Generated_Source\PSoC6\pdl\middleware\ble/cy_ble_event_handler.c **** *
   9:Generated_Source\PSoC6\pdl\middleware\ble/cy_ble_event_handler.c **** ********************************************************************************
  10:Generated_Source\PSoC6\pdl\middleware\ble/cy_ble_event_handler.c **** * \copyright
  11:Generated_Source\PSoC6\pdl\middleware\ble/cy_ble_event_handler.c **** * Copyright 2017-2020, Cypress Semiconductor Corporation.  All rights reserved.
  12:Generated_Source\PSoC6\pdl\middleware\ble/cy_ble_event_handler.c **** * You may use this file only in accordance with the license, terms, conditions,
  13:Generated_Source\PSoC6\pdl\middleware\ble/cy_ble_event_handler.c **** * disclaimers, and limitations in the end user license agreement accompanying
  14:Generated_Source\PSoC6\pdl\middleware\ble/cy_ble_event_handler.c **** * the software package with which this file was provided.
  15:Generated_Source\PSoC6\pdl\middleware\ble/cy_ble_event_handler.c **** *******************************************************************************/
  16:Generated_Source\PSoC6\pdl\middleware\ble/cy_ble_event_handler.c **** 
  17:Generated_Source\PSoC6\pdl\middleware\ble/cy_ble_event_handler.c **** #include "cy_ble_event_handler.h"
  18:Generated_Source\PSoC6\pdl\middleware\ble/cy_ble_event_handler.c **** 
  19:Generated_Source\PSoC6\pdl\middleware\ble/cy_ble_event_handler.c **** /* C binding of definitions if building with C++ compiler */
  20:Generated_Source\PSoC6\pdl\middleware\ble/cy_ble_event_handler.c **** #ifdef __cplusplus
  21:Generated_Source\PSoC6\pdl\middleware\ble/cy_ble_event_handler.c **** extern "C" {
  22:Generated_Source\PSoC6\pdl\middleware\ble/cy_ble_event_handler.c **** #endif /* __cplusplus */
  23:Generated_Source\PSoC6\pdl\middleware\ble/cy_ble_event_handler.c **** 
  24:Generated_Source\PSoC6\pdl\middleware\ble/cy_ble_event_handler.c **** #if (CY_BLE_MODE_PROFILE)
  25:Generated_Source\PSoC6\pdl\middleware\ble/cy_ble_event_handler.c **** 
  26:Generated_Source\PSoC6\pdl\middleware\ble/cy_ble_event_handler.c **** /***************************************
  27:Generated_Source\PSoC6\pdl\middleware\ble/cy_ble_event_handler.c **** * Private Function Prototypes
  28:Generated_Source\PSoC6\pdl\middleware\ble/cy_ble_event_handler.c **** ***************************************/
  29:Generated_Source\PSoC6\pdl\middleware\ble/cy_ble_event_handler.c **** 
  30:Generated_Source\PSoC6\pdl\middleware\ble/cy_ble_event_handler.c **** static void Cy_BLE_TimeOutEventHandler(const cy_stc_ble_timeout_param_t *eventParam);
  31:Generated_Source\PSoC6\pdl\middleware\ble/cy_ble_event_handler.c **** 
  32:Generated_Source\PSoC6\pdl\middleware\ble/cy_ble_event_handler.c **** #if (CY_BLE_GATT_ROLE_SERVER)
  33:Generated_Source\PSoC6\pdl\middleware\ble/cy_ble_event_handler.c **** static void Cy_BLE_SendWriteResponse(const cy_stc_ble_gatts_write_cmd_req_param_t *eventParam,
  34:Generated_Source\PSoC6\pdl\middleware\ble/cy_ble_event_handler.c ****                                      cy_en_ble_gatt_err_code_t gattErr);
ARM GAS  C:\Users\JC\AppData\Local\Temp\ccavrowa.s 			page 25


  35:Generated_Source\PSoC6\pdl\middleware\ble/cy_ble_event_handler.c **** #endif /* CY_BLE_GATT_ROLE_SERVER */
  36:Generated_Source\PSoC6\pdl\middleware\ble/cy_ble_event_handler.c **** 
  37:Generated_Source\PSoC6\pdl\middleware\ble/cy_ble_event_handler.c **** #if (CY_BLE_GATT_ROLE_CLIENT)
  38:Generated_Source\PSoC6\pdl\middleware\ble/cy_ble_event_handler.c **** static void Cy_BLE_GAPC_DiscoverCharacteristicsEventHandler(cy_stc_ble_disc_char_info_t *discCharIn
  39:Generated_Source\PSoC6\pdl\middleware\ble/cy_ble_event_handler.c **** #endif /* CY_BLE_GATT_ROLE_CLIENT */
  40:Generated_Source\PSoC6\pdl\middleware\ble/cy_ble_event_handler.c **** 
  41:Generated_Source\PSoC6\pdl\middleware\ble/cy_ble_event_handler.c **** 
  42:Generated_Source\PSoC6\pdl\middleware\ble/cy_ble_event_handler.c **** /***************************************
  43:Generated_Source\PSoC6\pdl\middleware\ble/cy_ble_event_handler.c **** * Global Variables
  44:Generated_Source\PSoC6\pdl\middleware\ble/cy_ble_event_handler.c **** ***************************************/
  45:Generated_Source\PSoC6\pdl\middleware\ble/cy_ble_event_handler.c **** volatile uint8_t cy_ble_busyStatus[CY_BLE_CONN_COUNT];
  46:Generated_Source\PSoC6\pdl\middleware\ble/cy_ble_event_handler.c **** volatile uint8_t cy_ble_eventHandlerFlag;
  47:Generated_Source\PSoC6\pdl\middleware\ble/cy_ble_event_handler.c **** volatile uint32_t cy_ble_cmdStatus;
  48:Generated_Source\PSoC6\pdl\middleware\ble/cy_ble_event_handler.c **** 
  49:Generated_Source\PSoC6\pdl\middleware\ble/cy_ble_event_handler.c **** #if (CY_BLE_GAP_ROLE_PERIPHERAL || CY_BLE_GAP_ROLE_BROADCASTER)
  50:Generated_Source\PSoC6\pdl\middleware\ble/cy_ble_event_handler.c **** uint8_t cy_ble_advertisingIntervalType;
  51:Generated_Source\PSoC6\pdl\middleware\ble/cy_ble_event_handler.c **** #endif /* CY_BLE_GAP_ROLE_PERIPHERAL || CY_BLE_GAP_ROLE_BROADCASTER) */
  52:Generated_Source\PSoC6\pdl\middleware\ble/cy_ble_event_handler.c **** 
  53:Generated_Source\PSoC6\pdl\middleware\ble/cy_ble_event_handler.c **** #if (CY_BLE_GAP_ROLE_CENTRAL || CY_BLE_GAP_ROLE_OBSERVER)
  54:Generated_Source\PSoC6\pdl\middleware\ble/cy_ble_event_handler.c **** uint8_t cy_ble_scanningIntervalType;
  55:Generated_Source\PSoC6\pdl\middleware\ble/cy_ble_event_handler.c **** #endif /* CY_BLE_GAP_ROLE_CENTRAL || CY_BLE_GAP_ROLE_OBSERVER */
  56:Generated_Source\PSoC6\pdl\middleware\ble/cy_ble_event_handler.c **** 
  57:Generated_Source\PSoC6\pdl\middleware\ble/cy_ble_event_handler.c **** #if (CY_BLE_GATT_ROLE_CLIENT)
  58:Generated_Source\PSoC6\pdl\middleware\ble/cy_ble_event_handler.c **** cy_stc_ble_discovery_t cy_ble_discovery[CY_BLE_GATTC_COUNT];
  59:Generated_Source\PSoC6\pdl\middleware\ble/cy_ble_event_handler.c **** cy_stc_ble_disc_srvc_info_t cy_ble_serverInfo[CY_BLE_GATTC_COUNT][CY_BLE_SRVI_COUNT];
  60:Generated_Source\PSoC6\pdl\middleware\ble/cy_ble_event_handler.c **** #endif /* CY_BLE_GATT_ROLE_CLIENT */
  61:Generated_Source\PSoC6\pdl\middleware\ble/cy_ble_event_handler.c **** 
  62:Generated_Source\PSoC6\pdl\middleware\ble/cy_ble_event_handler.c **** #if (CY_BLE_GAP_ROLE_PERIPHERAL || CY_BLE_GAP_ROLE_CENTRAL)
  63:Generated_Source\PSoC6\pdl\middleware\ble/cy_ble_event_handler.c **** cy_stc_ble_event_handler_t cy_ble_eventHandler;
  64:Generated_Source\PSoC6\pdl\middleware\ble/cy_ble_event_handler.c **** 
  65:Generated_Source\PSoC6\pdl\middleware\ble/cy_ble_event_handler.c **** 
  66:Generated_Source\PSoC6\pdl\middleware\ble/cy_ble_event_handler.c **** /******************************************************************************
  67:Generated_Source\PSoC6\pdl\middleware\ble/cy_ble_event_handler.c **** * Function Name: Cy_BLE_RegisterServiceEventHandler
  68:Generated_Source\PSoC6\pdl\middleware\ble/cy_ble_event_handler.c **** ***************************************************************************//**
  69:Generated_Source\PSoC6\pdl\middleware\ble/cy_ble_event_handler.c **** *
  70:Generated_Source\PSoC6\pdl\middleware\ble/cy_ble_event_handler.c **** *  Registration Service Event Handler
  71:Generated_Source\PSoC6\pdl\middleware\ble/cy_ble_event_handler.c **** *
  72:Generated_Source\PSoC6\pdl\middleware\ble/cy_ble_event_handler.c **** *  \param  eventHandlerFunc: The pointer to the callback procedure.
  73:Generated_Source\PSoC6\pdl\middleware\ble/cy_ble_event_handler.c **** *
  74:Generated_Source\PSoC6\pdl\middleware\ble/cy_ble_event_handler.c **** *  \return
  75:Generated_Source\PSoC6\pdl\middleware\ble/cy_ble_event_handler.c **** *  cy_en_ble_api_result_t : Return value indicates if the function succeeded or
  76:Generated_Source\PSoC6\pdl\middleware\ble/cy_ble_event_handler.c **** *  failed. The following are possible error codes.
  77:Generated_Source\PSoC6\pdl\middleware\ble/cy_ble_event_handler.c **** *
  78:Generated_Source\PSoC6\pdl\middleware\ble/cy_ble_event_handler.c **** *   Error Codes                           | Description
  79:Generated_Source\PSoC6\pdl\middleware\ble/cy_ble_event_handler.c **** *   ------------                          | -----------
  80:Generated_Source\PSoC6\pdl\middleware\ble/cy_ble_event_handler.c **** *   CY_BLE_SUCCESS                        | The function completed successfully.
  81:Generated_Source\PSoC6\pdl\middleware\ble/cy_ble_event_handler.c **** *   CY_BLE_ERROR_INVALID_PARAMETER        | On specifying NULL as input parameter.
  82:Generated_Source\PSoC6\pdl\middleware\ble/cy_ble_event_handler.c **** *   CY_BLE_ERROR_MEMORY_ALLOCATION_FAILED | Buffer overflow in the registration callback.
  83:Generated_Source\PSoC6\pdl\middleware\ble/cy_ble_event_handler.c **** *
  84:Generated_Source\PSoC6\pdl\middleware\ble/cy_ble_event_handler.c **** ******************************************************************************/
  85:Generated_Source\PSoC6\pdl\middleware\ble/cy_ble_event_handler.c **** cy_en_ble_api_result_t Cy_BLE_RegisterServiceEventHandler(cy_ble_event_handle_t eventHandlerFunc)
  86:Generated_Source\PSoC6\pdl\middleware\ble/cy_ble_event_handler.c **** {
 350              		.loc 2 86 0
 351              		.cfi_startproc
 352              		@ args = 0, pretend = 0, frame = 24
 353              		@ frame_needed = 1, uses_anonymous_args = 0
 354              		@ link register save eliminated.
ARM GAS  C:\Users\JC\AppData\Local\Temp\ccavrowa.s 			page 26


 355 0000 80B4     		push	{r7}
 356              		.cfi_def_cfa_offset 4
 357              		.cfi_offset 7, -4
 358 0002 87B0     		sub	sp, sp, #28
 359              		.cfi_def_cfa_offset 32
 360 0004 00AF     		add	r7, sp, #0
 361              		.cfi_def_cfa_register 7
 362 0006 7860     		str	r0, [r7, #4]
  87:Generated_Source\PSoC6\pdl\middleware\ble/cy_ble_event_handler.c ****     cy_en_ble_api_result_t apiResult = CY_BLE_SUCCESS;
 363              		.loc 2 87 0
 364 0008 0023     		movs	r3, #0
 365 000a 7B61     		str	r3, [r7, #20]
  88:Generated_Source\PSoC6\pdl\middleware\ble/cy_ble_event_handler.c ****     uint8_t existFlag = 0u;
 366              		.loc 2 88 0
 367 000c 0023     		movs	r3, #0
 368 000e FB74     		strb	r3, [r7, #19]
  89:Generated_Source\PSoC6\pdl\middleware\ble/cy_ble_event_handler.c **** 
  90:Generated_Source\PSoC6\pdl\middleware\ble/cy_ble_event_handler.c ****     if(eventHandlerFunc == NULL)
 369              		.loc 2 90 0
 370 0010 7B68     		ldr	r3, [r7, #4]
 371 0012 002B     		cmp	r3, #0
 372 0014 02D1     		bne	.L30
  91:Generated_Source\PSoC6\pdl\middleware\ble/cy_ble_event_handler.c ****     {
  92:Generated_Source\PSoC6\pdl\middleware\ble/cy_ble_event_handler.c ****         apiResult = CY_BLE_ERROR_INVALID_PARAMETER;
 373              		.loc 2 92 0
 374 0016 1E4B     		ldr	r3, .L38
 375 0018 7B61     		str	r3, [r7, #20]
 376 001a 17E0     		b	.L31
 377              	.L30:
 378              	.LBB2:
  93:Generated_Source\PSoC6\pdl\middleware\ble/cy_ble_event_handler.c ****     }
  94:Generated_Source\PSoC6\pdl\middleware\ble/cy_ble_event_handler.c ****     else
  95:Generated_Source\PSoC6\pdl\middleware\ble/cy_ble_event_handler.c ****     {
  96:Generated_Source\PSoC6\pdl\middleware\ble/cy_ble_event_handler.c ****         /* Check if eventHandlerFunc has been already registered */
  97:Generated_Source\PSoC6\pdl\middleware\ble/cy_ble_event_handler.c ****         uint32_t idx;
  98:Generated_Source\PSoC6\pdl\middleware\ble/cy_ble_event_handler.c ****         for(idx = 0u; (idx < cy_ble_eventHandler.count) && (existFlag == 0u); idx++)
 379              		.loc 2 98 0
 380 001c 0023     		movs	r3, #0
 381 001e FB60     		str	r3, [r7, #12]
 382 0020 0BE0     		b	.L32
 383              	.L34:
  99:Generated_Source\PSoC6\pdl\middleware\ble/cy_ble_event_handler.c ****         {
 100:Generated_Source\PSoC6\pdl\middleware\ble/cy_ble_event_handler.c ****             if(cy_ble_eventHandler.serviceEventHandler[idx] == eventHandlerFunc)
 384              		.loc 2 100 0
 385 0022 1C4A     		ldr	r2, .L38+4
 386 0024 FB68     		ldr	r3, [r7, #12]
 387 0026 52F82320 		ldr	r2, [r2, r3, lsl #2]
 388 002a 7B68     		ldr	r3, [r7, #4]
 389 002c 9A42     		cmp	r2, r3
 390 002e 01D1     		bne	.L33
 101:Generated_Source\PSoC6\pdl\middleware\ble/cy_ble_event_handler.c ****             {
 102:Generated_Source\PSoC6\pdl\middleware\ble/cy_ble_event_handler.c ****                 existFlag = 1u;
 391              		.loc 2 102 0
 392 0030 0123     		movs	r3, #1
 393 0032 FB74     		strb	r3, [r7, #19]
 394              	.L33:
  98:Generated_Source\PSoC6\pdl\middleware\ble/cy_ble_event_handler.c ****         {
ARM GAS  C:\Users\JC\AppData\Local\Temp\ccavrowa.s 			page 27


 395              		.loc 2 98 0 discriminator 2
 396 0034 FB68     		ldr	r3, [r7, #12]
 397 0036 0133     		adds	r3, r3, #1
 398 0038 FB60     		str	r3, [r7, #12]
 399              	.L32:
  98:Generated_Source\PSoC6\pdl\middleware\ble/cy_ble_event_handler.c ****         {
 400              		.loc 2 98 0 is_stmt 0 discriminator 1
 401 003a 164B     		ldr	r3, .L38+4
 402 003c 1B79     		ldrb	r3, [r3, #4]	@ zero_extendqisi2
 403 003e 1A46     		mov	r2, r3
 404 0040 FB68     		ldr	r3, [r7, #12]
 405 0042 9A42     		cmp	r2, r3
 406 0044 02D9     		bls	.L31
  98:Generated_Source\PSoC6\pdl\middleware\ble/cy_ble_event_handler.c ****         {
 407              		.loc 2 98 0 discriminator 3
 408 0046 FB7C     		ldrb	r3, [r7, #19]	@ zero_extendqisi2
 409 0048 002B     		cmp	r3, #0
 410 004a EAD0     		beq	.L34
 411              	.L31:
 412              	.LBE2:
 103:Generated_Source\PSoC6\pdl\middleware\ble/cy_ble_event_handler.c ****             }
 104:Generated_Source\PSoC6\pdl\middleware\ble/cy_ble_event_handler.c ****         }
 105:Generated_Source\PSoC6\pdl\middleware\ble/cy_ble_event_handler.c ****     }
 106:Generated_Source\PSoC6\pdl\middleware\ble/cy_ble_event_handler.c ****     /* Register eventHandlerFunc callback */
 107:Generated_Source\PSoC6\pdl\middleware\ble/cy_ble_event_handler.c ****     if((apiResult == CY_BLE_SUCCESS) && (existFlag == 0u))
 413              		.loc 2 107 0 is_stmt 1
 414 004c 7B69     		ldr	r3, [r7, #20]
 415 004e 002B     		cmp	r3, #0
 416 0050 16D1     		bne	.L35
 417              		.loc 2 107 0 is_stmt 0 discriminator 1
 418 0052 FB7C     		ldrb	r3, [r7, #19]	@ zero_extendqisi2
 419 0054 002B     		cmp	r3, #0
 420 0056 13D1     		bne	.L35
 108:Generated_Source\PSoC6\pdl\middleware\ble/cy_ble_event_handler.c ****     {
 109:Generated_Source\PSoC6\pdl\middleware\ble/cy_ble_event_handler.c ****         if(cy_ble_eventHandler.count < CY_BLE_MAX_SRVI)
 421              		.loc 2 109 0 is_stmt 1
 422 0058 0E4B     		ldr	r3, .L38+4
 423 005a 1B79     		ldrb	r3, [r3, #4]	@ zero_extendqisi2
 424 005c 002B     		cmp	r3, #0
 425 005e 0DD1     		bne	.L36
 110:Generated_Source\PSoC6\pdl\middleware\ble/cy_ble_event_handler.c ****         {
 111:Generated_Source\PSoC6\pdl\middleware\ble/cy_ble_event_handler.c ****             cy_ble_eventHandler.serviceEventHandler[cy_ble_eventHandler.count] = eventHandlerFunc;
 426              		.loc 2 111 0
 427 0060 0C4B     		ldr	r3, .L38+4
 428 0062 1B79     		ldrb	r3, [r3, #4]	@ zero_extendqisi2
 429 0064 1946     		mov	r1, r3
 430 0066 0B4A     		ldr	r2, .L38+4
 431 0068 7B68     		ldr	r3, [r7, #4]
 432 006a 42F82130 		str	r3, [r2, r1, lsl #2]
 112:Generated_Source\PSoC6\pdl\middleware\ble/cy_ble_event_handler.c ****             cy_ble_eventHandler.count += 1u;
 433              		.loc 2 112 0
 434 006e 094B     		ldr	r3, .L38+4
 435 0070 1B79     		ldrb	r3, [r3, #4]	@ zero_extendqisi2
 436 0072 0133     		adds	r3, r3, #1
 437 0074 DAB2     		uxtb	r2, r3
 438 0076 074B     		ldr	r3, .L38+4
 439 0078 1A71     		strb	r2, [r3, #4]
ARM GAS  C:\Users\JC\AppData\Local\Temp\ccavrowa.s 			page 28


 440 007a 01E0     		b	.L35
 441              	.L36:
 113:Generated_Source\PSoC6\pdl\middleware\ble/cy_ble_event_handler.c ****         }
 114:Generated_Source\PSoC6\pdl\middleware\ble/cy_ble_event_handler.c ****         else
 115:Generated_Source\PSoC6\pdl\middleware\ble/cy_ble_event_handler.c ****         {
 116:Generated_Source\PSoC6\pdl\middleware\ble/cy_ble_event_handler.c ****             apiResult = CY_BLE_ERROR_MEMORY_ALLOCATION_FAILED;
 442              		.loc 2 116 0
 443 007c 064B     		ldr	r3, .L38+8
 444 007e 7B61     		str	r3, [r7, #20]
 445              	.L35:
 117:Generated_Source\PSoC6\pdl\middleware\ble/cy_ble_event_handler.c ****         }
 118:Generated_Source\PSoC6\pdl\middleware\ble/cy_ble_event_handler.c ****     }
 119:Generated_Source\PSoC6\pdl\middleware\ble/cy_ble_event_handler.c **** 
 120:Generated_Source\PSoC6\pdl\middleware\ble/cy_ble_event_handler.c ****     return(apiResult);
 446              		.loc 2 120 0
 447 0080 7B69     		ldr	r3, [r7, #20]
 121:Generated_Source\PSoC6\pdl\middleware\ble/cy_ble_event_handler.c **** }
 448              		.loc 2 121 0
 449 0082 1846     		mov	r0, r3
 450 0084 1C37     		adds	r7, r7, #28
 451              		.cfi_def_cfa_offset 4
 452 0086 BD46     		mov	sp, r7
 453              		.cfi_def_cfa_register 13
 454              		@ sp needed
 455 0088 5DF8047B 		ldr	r7, [sp], #4
 456              		.cfi_restore 7
 457              		.cfi_def_cfa_offset 0
 458 008c 7047     		bx	lr
 459              	.L39:
 460 008e 00BF     		.align	2
 461              	.L38:
 462 0090 01001600 		.word	1441793
 463 0094 00000000 		.word	cy_ble_eventHandler
 464 0098 03001600 		.word	1441795
 465              		.cfi_endproc
 466              	.LFE256:
 467              		.size	Cy_BLE_RegisterServiceEventHandler, .-Cy_BLE_RegisterServiceEventHandler
 468              		.section	.text.Cy_BLE_InvokeServiceEventHandler,"ax",%progbits
 469              		.align	2
 470              		.global	Cy_BLE_InvokeServiceEventHandler
 471              		.thumb
 472              		.thumb_func
 473              		.type	Cy_BLE_InvokeServiceEventHandler, %function
 474              	Cy_BLE_InvokeServiceEventHandler:
 475              	.LFB257:
 122:Generated_Source\PSoC6\pdl\middleware\ble/cy_ble_event_handler.c **** 
 123:Generated_Source\PSoC6\pdl\middleware\ble/cy_ble_event_handler.c **** /******************************************************************************
 124:Generated_Source\PSoC6\pdl\middleware\ble/cy_ble_event_handler.c **** * Function Name: Cy_BLE_InvokeServiceEventHandler
 125:Generated_Source\PSoC6\pdl\middleware\ble/cy_ble_event_handler.c **** ***************************************************************************//**
 126:Generated_Source\PSoC6\pdl\middleware\ble/cy_ble_event_handler.c **** *
 127:Generated_Source\PSoC6\pdl\middleware\ble/cy_ble_event_handler.c **** *  Invoke registered service event handlers.
 128:Generated_Source\PSoC6\pdl\middleware\ble/cy_ble_event_handler.c **** *
 129:Generated_Source\PSoC6\pdl\middleware\ble/cy_ble_event_handler.c **** *  \param eventCode:   The event code.
 130:Generated_Source\PSoC6\pdl\middleware\ble/cy_ble_event_handler.c **** *  \param eventParam:  The event parameters.
 131:Generated_Source\PSoC6\pdl\middleware\ble/cy_ble_event_handler.c **** *
 132:Generated_Source\PSoC6\pdl\middleware\ble/cy_ble_event_handler.c **** * \return
 133:Generated_Source\PSoC6\pdl\middleware\ble/cy_ble_event_handler.c **** *  A return value of type cy_en_ble_gatt_err_code_t.
ARM GAS  C:\Users\JC\AppData\Local\Temp\ccavrowa.s 			page 29


 134:Generated_Source\PSoC6\pdl\middleware\ble/cy_ble_event_handler.c **** *
 135:Generated_Source\PSoC6\pdl\middleware\ble/cy_ble_event_handler.c **** ******************************************************************************/
 136:Generated_Source\PSoC6\pdl\middleware\ble/cy_ble_event_handler.c **** cy_en_ble_gatt_err_code_t Cy_BLE_InvokeServiceEventHandler(uint32_t eventCode,
 137:Generated_Source\PSoC6\pdl\middleware\ble/cy_ble_event_handler.c ****                                                            void *eventParam)
 138:Generated_Source\PSoC6\pdl\middleware\ble/cy_ble_event_handler.c **** {
 476              		.loc 2 138 0
 477              		.cfi_startproc
 478              		@ args = 0, pretend = 0, frame = 16
 479              		@ frame_needed = 1, uses_anonymous_args = 0
 480 0000 80B5     		push	{r7, lr}
 481              		.cfi_def_cfa_offset 8
 482              		.cfi_offset 7, -8
 483              		.cfi_offset 14, -4
 484 0002 84B0     		sub	sp, sp, #16
 485              		.cfi_def_cfa_offset 24
 486 0004 00AF     		add	r7, sp, #0
 487              		.cfi_def_cfa_register 7
 488 0006 7860     		str	r0, [r7, #4]
 489 0008 3960     		str	r1, [r7]
 139:Generated_Source\PSoC6\pdl\middleware\ble/cy_ble_event_handler.c ****     uint32_t idx;
 140:Generated_Source\PSoC6\pdl\middleware\ble/cy_ble_event_handler.c ****     cy_en_ble_gatt_err_code_t gattErr = CY_BLE_GATT_ERR_NONE;
 490              		.loc 2 140 0
 491 000a 0023     		movs	r3, #0
 492 000c FB72     		strb	r3, [r7, #11]
 141:Generated_Source\PSoC6\pdl\middleware\ble/cy_ble_event_handler.c **** 
 142:Generated_Source\PSoC6\pdl\middleware\ble/cy_ble_event_handler.c ****     for(idx = 0u; (idx < cy_ble_eventHandler.count) && ((cy_ble_eventHandlerFlag & CY_BLE_CALLBACK)
 493              		.loc 2 142 0
 494 000e 0023     		movs	r3, #0
 495 0010 FB60     		str	r3, [r7, #12]
 496 0012 0BE0     		b	.L41
 497              	.L43:
 143:Generated_Source\PSoC6\pdl\middleware\ble/cy_ble_event_handler.c ****     {
 144:Generated_Source\PSoC6\pdl\middleware\ble/cy_ble_event_handler.c ****         gattErr = cy_ble_eventHandler.serviceEventHandler[idx](eventCode, eventParam);
 498              		.loc 2 144 0 discriminator 4
 499 0014 0E4A     		ldr	r2, .L45
 500 0016 FB68     		ldr	r3, [r7, #12]
 501 0018 52F82330 		ldr	r3, [r2, r3, lsl #2]
 502 001c 3968     		ldr	r1, [r7]
 503 001e 7868     		ldr	r0, [r7, #4]
 504 0020 9847     		blx	r3
 505 0022 0346     		mov	r3, r0
 506 0024 FB72     		strb	r3, [r7, #11]
 142:Generated_Source\PSoC6\pdl\middleware\ble/cy_ble_event_handler.c ****     {
 507              		.loc 2 142 0 discriminator 4
 508 0026 FB68     		ldr	r3, [r7, #12]
 509 0028 0133     		adds	r3, r3, #1
 510 002a FB60     		str	r3, [r7, #12]
 511              	.L41:
 142:Generated_Source\PSoC6\pdl\middleware\ble/cy_ble_event_handler.c ****     {
 512              		.loc 2 142 0 is_stmt 0 discriminator 1
 513 002c 084B     		ldr	r3, .L45
 514 002e 1B79     		ldrb	r3, [r3, #4]	@ zero_extendqisi2
 515 0030 1A46     		mov	r2, r3
 516 0032 FB68     		ldr	r3, [r7, #12]
 517 0034 9A42     		cmp	r2, r3
 518 0036 06D9     		bls	.L42
 142:Generated_Source\PSoC6\pdl\middleware\ble/cy_ble_event_handler.c ****     {
ARM GAS  C:\Users\JC\AppData\Local\Temp\ccavrowa.s 			page 30


 519              		.loc 2 142 0 discriminator 3
 520 0038 064B     		ldr	r3, .L45+4
 521 003a 1B78     		ldrb	r3, [r3]
 522 003c DBB2     		uxtb	r3, r3
 523 003e 03F00103 		and	r3, r3, #1
 524 0042 002B     		cmp	r3, #0
 525 0044 E6D1     		bne	.L43
 526              	.L42:
 145:Generated_Source\PSoC6\pdl\middleware\ble/cy_ble_event_handler.c ****     }
 146:Generated_Source\PSoC6\pdl\middleware\ble/cy_ble_event_handler.c **** 
 147:Generated_Source\PSoC6\pdl\middleware\ble/cy_ble_event_handler.c ****     return(gattErr);
 527              		.loc 2 147 0 is_stmt 1
 528 0046 FB7A     		ldrb	r3, [r7, #11]	@ zero_extendqisi2
 148:Generated_Source\PSoC6\pdl\middleware\ble/cy_ble_event_handler.c **** }
 529              		.loc 2 148 0
 530 0048 1846     		mov	r0, r3
 531 004a 1037     		adds	r7, r7, #16
 532              		.cfi_def_cfa_offset 8
 533 004c BD46     		mov	sp, r7
 534              		.cfi_def_cfa_register 13
 535              		@ sp needed
 536 004e 80BD     		pop	{r7, pc}
 537              	.L46:
 538              		.align	2
 539              	.L45:
 540 0050 00000000 		.word	cy_ble_eventHandler
 541 0054 00000000 		.word	cy_ble_eventHandlerFlag
 542              		.cfi_endproc
 543              	.LFE257:
 544              		.size	Cy_BLE_InvokeServiceEventHandler, .-Cy_BLE_InvokeServiceEventHandler
 545              		.section	.text.Cy_BLE_SendWriteResponse,"ax",%progbits
 546              		.align	2
 547              		.thumb
 548              		.thumb_func
 549              		.type	Cy_BLE_SendWriteResponse, %function
 550              	Cy_BLE_SendWriteResponse:
 551              	.LFB258:
 149:Generated_Source\PSoC6\pdl\middleware\ble/cy_ble_event_handler.c **** #endif /* CY_BLE_GAP_ROLE_PERIPHERAL || CY_BLE_GAP_ROLE_CENTRAL */
 150:Generated_Source\PSoC6\pdl\middleware\ble/cy_ble_event_handler.c **** 
 151:Generated_Source\PSoC6\pdl\middleware\ble/cy_ble_event_handler.c **** #if (CY_BLE_GATT_ROLE_SERVER)
 152:Generated_Source\PSoC6\pdl\middleware\ble/cy_ble_event_handler.c **** 
 153:Generated_Source\PSoC6\pdl\middleware\ble/cy_ble_event_handler.c **** 
 154:Generated_Source\PSoC6\pdl\middleware\ble/cy_ble_event_handler.c **** /******************************************************************************
 155:Generated_Source\PSoC6\pdl\middleware\ble/cy_ble_event_handler.c **** * Function Name: Cy_BLE_SendWriteResponse
 156:Generated_Source\PSoC6\pdl\middleware\ble/cy_ble_event_handler.c **** ***************************************************************************//**
 157:Generated_Source\PSoC6\pdl\middleware\ble/cy_ble_event_handler.c **** *
 158:Generated_Source\PSoC6\pdl\middleware\ble/cy_ble_event_handler.c **** *  Sends the Write Response to Write Request when event was handled by service.
 159:Generated_Source\PSoC6\pdl\middleware\ble/cy_ble_event_handler.c **** *
 160:Generated_Source\PSoC6\pdl\middleware\ble/cy_ble_event_handler.c **** *  \param eventParam - The event parameter.
 161:Generated_Source\PSoC6\pdl\middleware\ble/cy_ble_event_handler.c **** *  \param gattErr - The error code.
 162:Generated_Source\PSoC6\pdl\middleware\ble/cy_ble_event_handler.c **** *
 163:Generated_Source\PSoC6\pdl\middleware\ble/cy_ble_event_handler.c **** * \return
 164:Generated_Source\PSoC6\pdl\middleware\ble/cy_ble_event_handler.c **** *  None.
 165:Generated_Source\PSoC6\pdl\middleware\ble/cy_ble_event_handler.c **** *
 166:Generated_Source\PSoC6\pdl\middleware\ble/cy_ble_event_handler.c **** ******************************************************************************/
 167:Generated_Source\PSoC6\pdl\middleware\ble/cy_ble_event_handler.c **** static void Cy_BLE_SendWriteResponse(const cy_stc_ble_gatts_write_cmd_req_param_t *eventParam,
 168:Generated_Source\PSoC6\pdl\middleware\ble/cy_ble_event_handler.c ****                                      cy_en_ble_gatt_err_code_t gattErr)
ARM GAS  C:\Users\JC\AppData\Local\Temp\ccavrowa.s 			page 31


 169:Generated_Source\PSoC6\pdl\middleware\ble/cy_ble_event_handler.c **** {
 552              		.loc 2 169 0
 553              		.cfi_startproc
 554              		@ args = 0, pretend = 0, frame = 16
 555              		@ frame_needed = 1, uses_anonymous_args = 0
 556 0000 80B5     		push	{r7, lr}
 557              		.cfi_def_cfa_offset 8
 558              		.cfi_offset 7, -8
 559              		.cfi_offset 14, -4
 560 0002 84B0     		sub	sp, sp, #16
 561              		.cfi_def_cfa_offset 24
 562 0004 00AF     		add	r7, sp, #0
 563              		.cfi_def_cfa_register 7
 564 0006 7860     		str	r0, [r7, #4]
 565 0008 0B46     		mov	r3, r1
 566 000a FB70     		strb	r3, [r7, #3]
 170:Generated_Source\PSoC6\pdl\middleware\ble/cy_ble_event_handler.c ****     cy_stc_ble_gatt_err_param_t err_param =
 567              		.loc 2 170 0
 568 000c 07F10803 		add	r3, r7, #8
 569 0010 0022     		movs	r2, #0
 570 0012 1A60     		str	r2, [r3]
 571 0014 9A80     		strh	r2, [r3, #4]	@ movhi
 572 0016 7B68     		ldr	r3, [r7, #4]
 573 0018 9B89     		ldrh	r3, [r3, #12]	@ movhi
 574 001a 3B81     		strh	r3, [r7, #8]	@ movhi
 171:Generated_Source\PSoC6\pdl\middleware\ble/cy_ble_event_handler.c ****     {
 172:Generated_Source\PSoC6\pdl\middleware\ble/cy_ble_event_handler.c ****         .errInfo.opCode     = CY_BLE_GATT_WRITE_REQ,
 173:Generated_Source\PSoC6\pdl\middleware\ble/cy_ble_event_handler.c ****         .errInfo.attrHandle = eventParam->handleValPair.attrHandle,        
 575              		.loc 2 173 0
 576 001c 7B68     		ldr	r3, [r7, #4]
 577 001e 1B89     		ldrh	r3, [r3, #8]
 170:Generated_Source\PSoC6\pdl\middleware\ble/cy_ble_event_handler.c ****     cy_stc_ble_gatt_err_param_t err_param =
 578              		.loc 2 170 0
 579 0020 7B81     		strh	r3, [r7, #10]	@ movhi
 580 0022 1223     		movs	r3, #18
 581 0024 3B73     		strb	r3, [r7, #12]
 174:Generated_Source\PSoC6\pdl\middleware\ble/cy_ble_event_handler.c ****         .connHandle         = eventParam->connHandle
 175:Generated_Source\PSoC6\pdl\middleware\ble/cy_ble_event_handler.c ****     };
 176:Generated_Source\PSoC6\pdl\middleware\ble/cy_ble_event_handler.c **** 
 177:Generated_Source\PSoC6\pdl\middleware\ble/cy_ble_event_handler.c ****     /* Send response when event was handled by the service */
 178:Generated_Source\PSoC6\pdl\middleware\ble/cy_ble_event_handler.c ****     if((cy_ble_eventHandlerFlag & CY_BLE_CALLBACK) == 0u)
 582              		.loc 2 178 0
 583 0026 0D4B     		ldr	r3, .L51
 584 0028 1B78     		ldrb	r3, [r3]
 585 002a DBB2     		uxtb	r3, r3
 586 002c 03F00103 		and	r3, r3, #1
 587 0030 002B     		cmp	r3, #0
 588 0032 0ED1     		bne	.L50
 179:Generated_Source\PSoC6\pdl\middleware\ble/cy_ble_event_handler.c ****     {
 180:Generated_Source\PSoC6\pdl\middleware\ble/cy_ble_event_handler.c ****         if(gattErr != CY_BLE_GATT_ERR_NONE)
 589              		.loc 2 180 0
 590 0034 FB78     		ldrb	r3, [r7, #3]	@ zero_extendqisi2
 591 0036 002B     		cmp	r3, #0
 592 0038 07D0     		beq	.L49
 181:Generated_Source\PSoC6\pdl\middleware\ble/cy_ble_event_handler.c ****         {
 182:Generated_Source\PSoC6\pdl\middleware\ble/cy_ble_event_handler.c ****             /* Send an Error Response */
 183:Generated_Source\PSoC6\pdl\middleware\ble/cy_ble_event_handler.c ****             err_param.errInfo.errorCode  = gattErr;
ARM GAS  C:\Users\JC\AppData\Local\Temp\ccavrowa.s 			page 32


 593              		.loc 2 183 0
 594 003a FB78     		ldrb	r3, [r7, #3]
 595 003c 7B73     		strb	r3, [r7, #13]
 184:Generated_Source\PSoC6\pdl\middleware\ble/cy_ble_event_handler.c ****             (void)Cy_BLE_GATTS_ErrorRsp(&err_param);
 596              		.loc 2 184 0
 597 003e 07F10803 		add	r3, r7, #8
 598 0042 1846     		mov	r0, r3
 599 0044 FFF7FEFF 		bl	Cy_BLE_GATTS_ErrorRsp
 185:Generated_Source\PSoC6\pdl\middleware\ble/cy_ble_event_handler.c ****         }
 186:Generated_Source\PSoC6\pdl\middleware\ble/cy_ble_event_handler.c ****         else
 187:Generated_Source\PSoC6\pdl\middleware\ble/cy_ble_event_handler.c ****         {
 188:Generated_Source\PSoC6\pdl\middleware\ble/cy_ble_event_handler.c ****             /* Send an Write Response */
 189:Generated_Source\PSoC6\pdl\middleware\ble/cy_ble_event_handler.c ****             (void)Cy_BLE_GATTS_WriteRsp(eventParam->connHandle);
 190:Generated_Source\PSoC6\pdl\middleware\ble/cy_ble_event_handler.c ****         }
 191:Generated_Source\PSoC6\pdl\middleware\ble/cy_ble_event_handler.c ****     } 
 192:Generated_Source\PSoC6\pdl\middleware\ble/cy_ble_event_handler.c **** }
 600              		.loc 2 192 0
 601 0048 03E0     		b	.L50
 602              	.L49:
 189:Generated_Source\PSoC6\pdl\middleware\ble/cy_ble_event_handler.c ****         }
 603              		.loc 2 189 0
 604 004a 7B68     		ldr	r3, [r7, #4]
 605 004c D868     		ldr	r0, [r3, #12]
 606 004e FFF7FEFF 		bl	Cy_BLE_GATTS_WriteRsp
 607              	.L50:
 608              		.loc 2 192 0
 609 0052 00BF     		nop
 610 0054 1037     		adds	r7, r7, #16
 611              		.cfi_def_cfa_offset 8
 612 0056 BD46     		mov	sp, r7
 613              		.cfi_def_cfa_register 13
 614              		@ sp needed
 615 0058 80BD     		pop	{r7, pc}
 616              	.L52:
 617 005a 00BF     		.align	2
 618              	.L51:
 619 005c 00000000 		.word	cy_ble_eventHandlerFlag
 620              		.cfi_endproc
 621              	.LFE258:
 622              		.size	Cy_BLE_SendWriteResponse, .-Cy_BLE_SendWriteResponse
 623              		.section	.text.Cy_BLE_TimeOutEventHandler,"ax",%progbits
 624              		.align	2
 625              		.thumb
 626              		.thumb_func
 627              		.type	Cy_BLE_TimeOutEventHandler, %function
 628              	Cy_BLE_TimeOutEventHandler:
 629              	.LFB259:
 193:Generated_Source\PSoC6\pdl\middleware\ble/cy_ble_event_handler.c **** #endif /* CY_BLE_GATT_ROLE_SERVER */
 194:Generated_Source\PSoC6\pdl\middleware\ble/cy_ble_event_handler.c **** 
 195:Generated_Source\PSoC6\pdl\middleware\ble/cy_ble_event_handler.c **** 
 196:Generated_Source\PSoC6\pdl\middleware\ble/cy_ble_event_handler.c **** /******************************************************************************
 197:Generated_Source\PSoC6\pdl\middleware\ble/cy_ble_event_handler.c **** * Function Name: Cy_BLE_TimeOutEventHandler
 198:Generated_Source\PSoC6\pdl\middleware\ble/cy_ble_event_handler.c **** ***************************************************************************//**
 199:Generated_Source\PSoC6\pdl\middleware\ble/cy_ble_event_handler.c **** *
 200:Generated_Source\PSoC6\pdl\middleware\ble/cy_ble_event_handler.c **** *  Handles a CY_BLE_EVT_TIMEOUT event from the BLE Stack.
 201:Generated_Source\PSoC6\pdl\middleware\ble/cy_ble_event_handler.c **** *
 202:Generated_Source\PSoC6\pdl\middleware\ble/cy_ble_event_handler.c **** *  \param eventParam: The pointer to a structure of type cy_stc_ble_timeout_param_t.
ARM GAS  C:\Users\JC\AppData\Local\Temp\ccavrowa.s 			page 33


 203:Generated_Source\PSoC6\pdl\middleware\ble/cy_ble_event_handler.c **** *
 204:Generated_Source\PSoC6\pdl\middleware\ble/cy_ble_event_handler.c **** * \return
 205:Generated_Source\PSoC6\pdl\middleware\ble/cy_ble_event_handler.c **** *  None
 206:Generated_Source\PSoC6\pdl\middleware\ble/cy_ble_event_handler.c **** *
 207:Generated_Source\PSoC6\pdl\middleware\ble/cy_ble_event_handler.c **** ******************************************************************************/
 208:Generated_Source\PSoC6\pdl\middleware\ble/cy_ble_event_handler.c **** static void Cy_BLE_TimeOutEventHandler(const cy_stc_ble_timeout_param_t *eventParam)
 209:Generated_Source\PSoC6\pdl\middleware\ble/cy_ble_event_handler.c **** {
 630              		.loc 2 209 0
 631              		.cfi_startproc
 632              		@ args = 0, pretend = 0, frame = 8
 633              		@ frame_needed = 1, uses_anonymous_args = 0
 634              		@ link register save eliminated.
 635 0000 80B4     		push	{r7}
 636              		.cfi_def_cfa_offset 4
 637              		.cfi_offset 7, -4
 638 0002 83B0     		sub	sp, sp, #12
 639              		.cfi_def_cfa_offset 16
 640 0004 00AF     		add	r7, sp, #0
 641              		.cfi_def_cfa_register 7
 642 0006 7860     		str	r0, [r7, #4]
 210:Generated_Source\PSoC6\pdl\middleware\ble/cy_ble_event_handler.c ****     if(eventParam->reasonCode == CY_BLE_GATT_RSP_TO)
 211:Generated_Source\PSoC6\pdl\middleware\ble/cy_ble_event_handler.c ****     {
 212:Generated_Source\PSoC6\pdl\middleware\ble/cy_ble_event_handler.c ****     #if (CY_BLE_GATT_ROLE_CLIENT)
 213:Generated_Source\PSoC6\pdl\middleware\ble/cy_ble_event_handler.c ****         {
 214:Generated_Source\PSoC6\pdl\middleware\ble/cy_ble_event_handler.c ****             uint32_t discIdx = Cy_BLE_GetDiscoveryIdx(eventParam->CY_BLE_HANDLE.connHandle);
 215:Generated_Source\PSoC6\pdl\middleware\ble/cy_ble_event_handler.c ****             if((discIdx < CY_BLE_GATTC_COUNT) && (cy_ble_discovery[discIdx].autoDiscoveryFlag != 0u
 216:Generated_Source\PSoC6\pdl\middleware\ble/cy_ble_event_handler.c ****             {
 217:Generated_Source\PSoC6\pdl\middleware\ble/cy_ble_event_handler.c ****                 switch(Cy_BLE_GetConnectionState(eventParam->CY_BLE_HANDLE.connHandle))
 218:Generated_Source\PSoC6\pdl\middleware\ble/cy_ble_event_handler.c ****                 {
 219:Generated_Source\PSoC6\pdl\middleware\ble/cy_ble_event_handler.c ****                     case CY_BLE_CONN_STATE_CLIENT_SRVC_DISCOVERING:
 220:Generated_Source\PSoC6\pdl\middleware\ble/cy_ble_event_handler.c ****                         Cy_BLE_ApplCallback((uint32_t)CY_BLE_EVT_GATTC_SRVC_DISCOVERY_FAILED,
 221:Generated_Source\PSoC6\pdl\middleware\ble/cy_ble_event_handler.c ****                                             (cy_stc_ble_conn_handle_t*)&eventParam->CY_BLE_HANDLE.c
 222:Generated_Source\PSoC6\pdl\middleware\ble/cy_ble_event_handler.c ****                         break;
 223:Generated_Source\PSoC6\pdl\middleware\ble/cy_ble_event_handler.c **** 
 224:Generated_Source\PSoC6\pdl\middleware\ble/cy_ble_event_handler.c ****                     case CY_BLE_CONN_STATE_CLIENT_INCL_DISCOVERING:
 225:Generated_Source\PSoC6\pdl\middleware\ble/cy_ble_event_handler.c ****                         Cy_BLE_ApplCallback((uint32_t)CY_BLE_EVT_GATTC_INCL_DISCOVERY_FAILED,
 226:Generated_Source\PSoC6\pdl\middleware\ble/cy_ble_event_handler.c ****                                             (cy_stc_ble_conn_handle_t*)&eventParam->CY_BLE_HANDLE.c
 227:Generated_Source\PSoC6\pdl\middleware\ble/cy_ble_event_handler.c ****                         break;
 228:Generated_Source\PSoC6\pdl\middleware\ble/cy_ble_event_handler.c **** 
 229:Generated_Source\PSoC6\pdl\middleware\ble/cy_ble_event_handler.c ****                     case CY_BLE_CONN_STATE_CLIENT_CHAR_DISCOVERING:
 230:Generated_Source\PSoC6\pdl\middleware\ble/cy_ble_event_handler.c ****                         Cy_BLE_ApplCallback((uint32_t)CY_BLE_EVT_GATTC_CHAR_DISCOVERY_FAILED,
 231:Generated_Source\PSoC6\pdl\middleware\ble/cy_ble_event_handler.c ****                                             (cy_stc_ble_conn_handle_t*)&eventParam->CY_BLE_HANDLE.c
 232:Generated_Source\PSoC6\pdl\middleware\ble/cy_ble_event_handler.c ****                         break;
 233:Generated_Source\PSoC6\pdl\middleware\ble/cy_ble_event_handler.c **** 
 234:Generated_Source\PSoC6\pdl\middleware\ble/cy_ble_event_handler.c ****                     case CY_BLE_CONN_STATE_CLIENT_DESCR_DISCOVERING:
 235:Generated_Source\PSoC6\pdl\middleware\ble/cy_ble_event_handler.c ****                         Cy_BLE_ApplCallback((uint32_t)CY_BLE_EVT_GATTC_DESCR_DISCOVERY_FAILED,
 236:Generated_Source\PSoC6\pdl\middleware\ble/cy_ble_event_handler.c ****                                             (cy_stc_ble_conn_handle_t*)&eventParam->CY_BLE_HANDLE.c
 237:Generated_Source\PSoC6\pdl\middleware\ble/cy_ble_event_handler.c ****                         break;
 238:Generated_Source\PSoC6\pdl\middleware\ble/cy_ble_event_handler.c **** 
 239:Generated_Source\PSoC6\pdl\middleware\ble/cy_ble_event_handler.c ****                     default:        /* Other states should not be set in Auto discovery mode */
 240:Generated_Source\PSoC6\pdl\middleware\ble/cy_ble_event_handler.c ****                         break;
 241:Generated_Source\PSoC6\pdl\middleware\ble/cy_ble_event_handler.c ****                 }
 242:Generated_Source\PSoC6\pdl\middleware\ble/cy_ble_event_handler.c ****                 cy_ble_discovery[discIdx].autoDiscoveryFlag = 0u;
 243:Generated_Source\PSoC6\pdl\middleware\ble/cy_ble_event_handler.c ****                 Cy_BLE_SetConnectionState(eventParam->CY_BLE_HANDLE.connHandle, CY_BLE_CONN_STATE_C
 244:Generated_Source\PSoC6\pdl\middleware\ble/cy_ble_event_handler.c ****             }
 245:Generated_Source\PSoC6\pdl\middleware\ble/cy_ble_event_handler.c ****         }
 246:Generated_Source\PSoC6\pdl\middleware\ble/cy_ble_event_handler.c ****     #endif /* CY_BLE_GATT_ROLE_CLIENT */
ARM GAS  C:\Users\JC\AppData\Local\Temp\ccavrowa.s 			page 34


 247:Generated_Source\PSoC6\pdl\middleware\ble/cy_ble_event_handler.c ****     }
 248:Generated_Source\PSoC6\pdl\middleware\ble/cy_ble_event_handler.c **** 
 249:Generated_Source\PSoC6\pdl\middleware\ble/cy_ble_event_handler.c ****     #if (CY_BLE_GAP_ROLE_CENTRAL)
 250:Generated_Source\PSoC6\pdl\middleware\ble/cy_ble_event_handler.c ****     /* Connection procedure timeout */
 251:Generated_Source\PSoC6\pdl\middleware\ble/cy_ble_event_handler.c ****     if((eventParam->reasonCode == CY_BLE_GENERIC_APP_TO) &&
 252:Generated_Source\PSoC6\pdl\middleware\ble/cy_ble_event_handler.c ****        (cy_ble_connectingTimeout.timerHandle == eventParam->timerHandle))
 253:Generated_Source\PSoC6\pdl\middleware\ble/cy_ble_event_handler.c ****     {
 254:Generated_Source\PSoC6\pdl\middleware\ble/cy_ble_event_handler.c ****         if(Cy_BLE_GetState() == CY_BLE_STATE_CONNECTING)
 255:Generated_Source\PSoC6\pdl\middleware\ble/cy_ble_event_handler.c ****         {
 256:Generated_Source\PSoC6\pdl\middleware\ble/cy_ble_event_handler.c ****             (void)Cy_BLE_GAPC_CancelDeviceConnection();
 257:Generated_Source\PSoC6\pdl\middleware\ble/cy_ble_event_handler.c ****         }
 258:Generated_Source\PSoC6\pdl\middleware\ble/cy_ble_event_handler.c ****     }
 259:Generated_Source\PSoC6\pdl\middleware\ble/cy_ble_event_handler.c ****     #endif /* CY_BLE_GAP_ROLE_CENTRAL */
 260:Generated_Source\PSoC6\pdl\middleware\ble/cy_ble_event_handler.c **** }
 643              		.loc 2 260 0
 644 0008 00BF     		nop
 645 000a 0C37     		adds	r7, r7, #12
 646              		.cfi_def_cfa_offset 4
 647 000c BD46     		mov	sp, r7
 648              		.cfi_def_cfa_register 13
 649              		@ sp needed
 650 000e 5DF8047B 		ldr	r7, [sp], #4
 651              		.cfi_restore 7
 652              		.cfi_def_cfa_offset 0
 653 0012 7047     		bx	lr
 654              		.cfi_endproc
 655              	.LFE259:
 656              		.size	Cy_BLE_TimeOutEventHandler, .-Cy_BLE_TimeOutEventHandler
 657              		.section	.text.Cy_BLE_IsDeviceAddressValid,"ax",%progbits
 658              		.align	2
 659              		.global	Cy_BLE_IsDeviceAddressValid
 660              		.thumb
 661              		.thumb_func
 662              		.type	Cy_BLE_IsDeviceAddressValid, %function
 663              	Cy_BLE_IsDeviceAddressValid:
 664              	.LFB260:
 261:Generated_Source\PSoC6\pdl\middleware\ble/cy_ble_event_handler.c **** 
 262:Generated_Source\PSoC6\pdl\middleware\ble/cy_ble_event_handler.c **** 
 263:Generated_Source\PSoC6\pdl\middleware\ble/cy_ble_event_handler.c **** /******************************************************************************
 264:Generated_Source\PSoC6\pdl\middleware\ble/cy_ble_event_handler.c **** * Function Name: Cy_BLE_IsDeviceAddressValid
 265:Generated_Source\PSoC6\pdl\middleware\ble/cy_ble_event_handler.c **** ***************************************************************************//**
 266:Generated_Source\PSoC6\pdl\middleware\ble/cy_ble_event_handler.c **** *
 267:Generated_Source\PSoC6\pdl\middleware\ble/cy_ble_event_handler.c **** *  This function verifies that the device address is valid (not equal zero)
 268:Generated_Source\PSoC6\pdl\middleware\ble/cy_ble_event_handler.c **** *    
 269:Generated_Source\PSoC6\pdl\middleware\ble/cy_ble_event_handler.c **** *  \param deviceAddress: The pointer to the BD address of
 270:Generated_Source\PSoC6\pdl\middleware\ble/cy_ble_event_handler.c **** *                        type #cy_stc_ble_gap_bd_addr_t.
 271:Generated_Source\PSoC6\pdl\middleware\ble/cy_ble_event_handler.c **** *
 272:Generated_Source\PSoC6\pdl\middleware\ble/cy_ble_event_handler.c **** *  \return
 273:Generated_Source\PSoC6\pdl\middleware\ble/cy_ble_event_handler.c **** *   A non-zero value when a device address is valid
 274:Generated_Source\PSoC6\pdl\middleware\ble/cy_ble_event_handler.c **** *
 275:Generated_Source\PSoC6\pdl\middleware\ble/cy_ble_event_handler.c **** ******************************************************************************/
 276:Generated_Source\PSoC6\pdl\middleware\ble/cy_ble_event_handler.c **** uint8_t Cy_BLE_IsDeviceAddressValid(const cy_stc_ble_gap_bd_addr_t *deviceAddress)
 277:Generated_Source\PSoC6\pdl\middleware\ble/cy_ble_event_handler.c **** {
 665              		.loc 2 277 0
 666              		.cfi_startproc
 667              		@ args = 0, pretend = 0, frame = 16
 668              		@ frame_needed = 1, uses_anonymous_args = 0
ARM GAS  C:\Users\JC\AppData\Local\Temp\ccavrowa.s 			page 35


 669              		@ link register save eliminated.
 670 0000 80B4     		push	{r7}
 671              		.cfi_def_cfa_offset 4
 672              		.cfi_offset 7, -4
 673 0002 85B0     		sub	sp, sp, #20
 674              		.cfi_def_cfa_offset 24
 675 0004 00AF     		add	r7, sp, #0
 676              		.cfi_def_cfa_register 7
 677 0006 7860     		str	r0, [r7, #4]
 278:Generated_Source\PSoC6\pdl\middleware\ble/cy_ble_event_handler.c ****     uint8_t addressValid = 0u;
 678              		.loc 2 278 0
 679 0008 0023     		movs	r3, #0
 680 000a FB73     		strb	r3, [r7, #15]
 279:Generated_Source\PSoC6\pdl\middleware\ble/cy_ble_event_handler.c ****     uint32_t i;
 280:Generated_Source\PSoC6\pdl\middleware\ble/cy_ble_event_handler.c **** 
 281:Generated_Source\PSoC6\pdl\middleware\ble/cy_ble_event_handler.c ****     if(deviceAddress->type == CY_BLE_GAP_ADDR_TYPE_PUBLIC)
 681              		.loc 2 281 0
 682 000c 7B68     		ldr	r3, [r7, #4]
 683 000e 9B79     		ldrb	r3, [r3, #6]	@ zero_extendqisi2
 684 0010 002B     		cmp	r3, #0
 685 0012 11D1     		bne	.L55
 282:Generated_Source\PSoC6\pdl\middleware\ble/cy_ble_event_handler.c ****     {
 283:Generated_Source\PSoC6\pdl\middleware\ble/cy_ble_event_handler.c ****         for(i = 0u; i < CY_BLE_GAP_BD_ADDR_SIZE; i++)
 686              		.loc 2 283 0
 687 0014 0023     		movs	r3, #0
 688 0016 BB60     		str	r3, [r7, #8]
 689 0018 0BE0     		b	.L56
 690              	.L58:
 284:Generated_Source\PSoC6\pdl\middleware\ble/cy_ble_event_handler.c ****         {
 285:Generated_Source\PSoC6\pdl\middleware\ble/cy_ble_event_handler.c ****             if(deviceAddress->bdAddr[i] != 0u)
 691              		.loc 2 285 0
 692 001a 7A68     		ldr	r2, [r7, #4]
 693 001c BB68     		ldr	r3, [r7, #8]
 694 001e 1344     		add	r3, r3, r2
 695 0020 1B78     		ldrb	r3, [r3]	@ zero_extendqisi2
 696 0022 002B     		cmp	r3, #0
 697 0024 02D0     		beq	.L57
 286:Generated_Source\PSoC6\pdl\middleware\ble/cy_ble_event_handler.c ****             {
 287:Generated_Source\PSoC6\pdl\middleware\ble/cy_ble_event_handler.c ****                 addressValid = 1u;
 698              		.loc 2 287 0
 699 0026 0123     		movs	r3, #1
 700 0028 FB73     		strb	r3, [r7, #15]
 288:Generated_Source\PSoC6\pdl\middleware\ble/cy_ble_event_handler.c ****                 break;
 701              		.loc 2 288 0
 702 002a 05E0     		b	.L55
 703              	.L57:
 283:Generated_Source\PSoC6\pdl\middleware\ble/cy_ble_event_handler.c ****         {
 704              		.loc 2 283 0 discriminator 2
 705 002c BB68     		ldr	r3, [r7, #8]
 706 002e 0133     		adds	r3, r3, #1
 707 0030 BB60     		str	r3, [r7, #8]
 708              	.L56:
 283:Generated_Source\PSoC6\pdl\middleware\ble/cy_ble_event_handler.c ****         {
 709              		.loc 2 283 0 is_stmt 0 discriminator 1
 710 0032 BB68     		ldr	r3, [r7, #8]
 711 0034 052B     		cmp	r3, #5
 712 0036 F0D9     		bls	.L58
ARM GAS  C:\Users\JC\AppData\Local\Temp\ccavrowa.s 			page 36


 713              	.L55:
 289:Generated_Source\PSoC6\pdl\middleware\ble/cy_ble_event_handler.c ****             }
 290:Generated_Source\PSoC6\pdl\middleware\ble/cy_ble_event_handler.c ****         }
 291:Generated_Source\PSoC6\pdl\middleware\ble/cy_ble_event_handler.c ****     }
 292:Generated_Source\PSoC6\pdl\middleware\ble/cy_ble_event_handler.c **** 
 293:Generated_Source\PSoC6\pdl\middleware\ble/cy_ble_event_handler.c ****     return(addressValid);
 714              		.loc 2 293 0 is_stmt 1
 715 0038 FB7B     		ldrb	r3, [r7, #15]	@ zero_extendqisi2
 294:Generated_Source\PSoC6\pdl\middleware\ble/cy_ble_event_handler.c **** }
 716              		.loc 2 294 0
 717 003a 1846     		mov	r0, r3
 718 003c 1437     		adds	r7, r7, #20
 719              		.cfi_def_cfa_offset 4
 720 003e BD46     		mov	sp, r7
 721              		.cfi_def_cfa_register 13
 722              		@ sp needed
 723 0040 5DF8047B 		ldr	r7, [sp], #4
 724              		.cfi_restore 7
 725              		.cfi_def_cfa_offset 0
 726 0044 7047     		bx	lr
 727              		.cfi_endproc
 728              	.LFE260:
 729              		.size	Cy_BLE_IsDeviceAddressValid, .-Cy_BLE_IsDeviceAddressValid
 730 0046 00BF     		.section	.rodata
 731 003a 0000     		.align	2
 732              	.LC0:
 733 003c 3F       		.byte	63
 734 003d 06       		.byte	6
 735 003e 00       		.byte	0
 736 003f 00       		.byte	0
 737 0040 00       		.byte	0
 738 0041 00       		.byte	0
 739 0042 00       		.byte	0
 740 0043 00       		.byte	0
 741              		.section	.text.Cy_BLE_EventHandler,"ax",%progbits
 742              		.align	2
 743              		.global	Cy_BLE_EventHandler
 744              		.thumb
 745              		.thumb_func
 746              		.type	Cy_BLE_EventHandler, %function
 747              	Cy_BLE_EventHandler:
 748              	.LFB261:
 295:Generated_Source\PSoC6\pdl\middleware\ble/cy_ble_event_handler.c **** 
 296:Generated_Source\PSoC6\pdl\middleware\ble/cy_ble_event_handler.c **** 
 297:Generated_Source\PSoC6\pdl\middleware\ble/cy_ble_event_handler.c **** /******************************************************************************
 298:Generated_Source\PSoC6\pdl\middleware\ble/cy_ble_event_handler.c **** * Function Name: Cy_BLE_EventHandler
 299:Generated_Source\PSoC6\pdl\middleware\ble/cy_ble_event_handler.c **** ***************************************************************************//**
 300:Generated_Source\PSoC6\pdl\middleware\ble/cy_ble_event_handler.c **** *
 301:Generated_Source\PSoC6\pdl\middleware\ble/cy_ble_event_handler.c **** *  Handles events from the BLE Stack.
 302:Generated_Source\PSoC6\pdl\middleware\ble/cy_ble_event_handler.c **** *
 303:Generated_Source\PSoC6\pdl\middleware\ble/cy_ble_event_handler.c **** *  \param event:   The event code.
 304:Generated_Source\PSoC6\pdl\middleware\ble/cy_ble_event_handler.c **** *  \param evParam: The event parameters.
 305:Generated_Source\PSoC6\pdl\middleware\ble/cy_ble_event_handler.c **** *
 306:Generated_Source\PSoC6\pdl\middleware\ble/cy_ble_event_handler.c **** * \return
 307:Generated_Source\PSoC6\pdl\middleware\ble/cy_ble_event_handler.c **** *  None.
 308:Generated_Source\PSoC6\pdl\middleware\ble/cy_ble_event_handler.c **** *
 309:Generated_Source\PSoC6\pdl\middleware\ble/cy_ble_event_handler.c **** ******************************************************************************/
ARM GAS  C:\Users\JC\AppData\Local\Temp\ccavrowa.s 			page 37


 310:Generated_Source\PSoC6\pdl\middleware\ble/cy_ble_event_handler.c **** void Cy_BLE_EventHandler(cy_en_ble_event_t event,
 311:Generated_Source\PSoC6\pdl\middleware\ble/cy_ble_event_handler.c ****                          void *evParam)
 312:Generated_Source\PSoC6\pdl\middleware\ble/cy_ble_event_handler.c **** {
 749              		.loc 2 312 0
 750              		.cfi_startproc
 751              		@ args = 0, pretend = 0, frame = 72
 752              		@ frame_needed = 1, uses_anonymous_args = 0
 753 0000 80B5     		push	{r7, lr}
 754              		.cfi_def_cfa_offset 8
 755              		.cfi_offset 7, -8
 756              		.cfi_offset 14, -4
 757 0002 92B0     		sub	sp, sp, #72
 758              		.cfi_def_cfa_offset 80
 759 0004 00AF     		add	r7, sp, #0
 760              		.cfi_def_cfa_register 7
 761 0006 0346     		mov	r3, r0
 762 0008 3960     		str	r1, [r7]
 763 000a FB80     		strh	r3, [r7, #6]	@ movhi
 313:Generated_Source\PSoC6\pdl\middleware\ble/cy_ble_event_handler.c ****     cy_ble_eventHandlerFlag |= CY_BLE_CALLBACK;
 764              		.loc 2 313 0
 765 000c C74B     		ldr	r3, .L121
 766 000e 1B78     		ldrb	r3, [r3]
 767 0010 DBB2     		uxtb	r3, r3
 768 0012 43F00103 		orr	r3, r3, #1
 769 0016 DAB2     		uxtb	r2, r3
 770 0018 C44B     		ldr	r3, .L121
 771 001a 1A70     		strb	r2, [r3]
 314:Generated_Source\PSoC6\pdl\middleware\ble/cy_ble_event_handler.c **** 
 315:Generated_Source\PSoC6\pdl\middleware\ble/cy_ble_event_handler.c ****     /* Common Profile event handling */
 316:Generated_Source\PSoC6\pdl\middleware\ble/cy_ble_event_handler.c ****     switch(event)
 772              		.loc 2 316 0
 773 001c FB88     		ldrh	r3, [r7, #6]
 774 001e 44F20702 		movw	r2, #16391
 775 0022 9342     		cmp	r3, r2
 776 0024 00F0E481 		beq	.L62
 777 0028 44F20702 		movw	r2, #16391
 778 002c 9342     		cmp	r3, r2
 779 002e 49DC     		bgt	.L63
 780 0030 42F20402 		movw	r2, #8196
 781 0034 9342     		cmp	r3, r2
 782 0036 00F03981 		beq	.L64
 783 003a 42F20402 		movw	r2, #8196
 784 003e 9342     		cmp	r3, r2
 785 0040 1DDC     		bgt	.L65
 786 0042 41F20202 		movw	r2, #4098
 787 0046 9342     		cmp	r3, r2
 788 0048 00F07E81 		beq	.L66
 789 004c 41F20202 		movw	r2, #4098
 790 0050 9342     		cmp	r3, r2
 791 0052 09DC     		bgt	.L67
 792 0054 B3F5805F 		cmp	r3, #4096
 793 0058 00F09380 		beq	.L68
 794 005c 41F20102 		movw	r2, #4097
 795 0060 9342     		cmp	r3, r2
 796 0062 00F05981 		beq	.L69
 317:Generated_Source\PSoC6\pdl\middleware\ble/cy_ble_event_handler.c ****     {
 318:Generated_Source\PSoC6\pdl\middleware\ble/cy_ble_event_handler.c ****         /**********************************************************
ARM GAS  C:\Users\JC\AppData\Local\Temp\ccavrowa.s 			page 38


 319:Generated_Source\PSoC6\pdl\middleware\ble/cy_ble_event_handler.c ****          * General events
 320:Generated_Source\PSoC6\pdl\middleware\ble/cy_ble_event_handler.c ****          ************************************************************/
 321:Generated_Source\PSoC6\pdl\middleware\ble/cy_ble_event_handler.c ****         case CY_BLE_EVT_HCI_PKT_RCVD:
 322:Generated_Source\PSoC6\pdl\middleware\ble/cy_ble_event_handler.c ****         {
 323:Generated_Source\PSoC6\pdl\middleware\ble/cy_ble_event_handler.c ****             #if (CY_BLE_MODE_PROFILE) && (!CY_BLE_STACK_MODE_IPC)
 324:Generated_Source\PSoC6\pdl\middleware\ble/cy_ble_event_handler.c ****             cy_stc_ble_hci_tx_packet_info_t *HciPktParams = (cy_stc_ble_hci_tx_packet_info_t*)evPar
 325:Generated_Source\PSoC6\pdl\middleware\ble/cy_ble_event_handler.c ****             
 326:Generated_Source\PSoC6\pdl\middleware\ble/cy_ble_event_handler.c ****             Cy_BLE_HAL_SoftHciHostReceiveControllerPkt(HciPktParams);
 327:Generated_Source\PSoC6\pdl\middleware\ble/cy_ble_event_handler.c ****             #endif /* (CY_BLE_MODE_PROFILE) && (!CY_BLE_STACK_MODE_IPC) */
 328:Generated_Source\PSoC6\pdl\middleware\ble/cy_ble_event_handler.c **** 
 329:Generated_Source\PSoC6\pdl\middleware\ble/cy_ble_event_handler.c ****             /* Clear the CY_BLE_CALLBACK flag not to provide a handled event to the application */
 330:Generated_Source\PSoC6\pdl\middleware\ble/cy_ble_event_handler.c ****             cy_ble_eventHandlerFlag &= (uint8_t) ~CY_BLE_CALLBACK;
 331:Generated_Source\PSoC6\pdl\middleware\ble/cy_ble_event_handler.c ****         }
 332:Generated_Source\PSoC6\pdl\middleware\ble/cy_ble_event_handler.c ****         break;
 333:Generated_Source\PSoC6\pdl\middleware\ble/cy_ble_event_handler.c ****         
 334:Generated_Source\PSoC6\pdl\middleware\ble/cy_ble_event_handler.c ****         case CY_BLE_EVT_STACK_ON:
 335:Generated_Source\PSoC6\pdl\middleware\ble/cy_ble_event_handler.c **** 
 336:Generated_Source\PSoC6\pdl\middleware\ble/cy_ble_event_handler.c ****             /* Set a device address  */
 337:Generated_Source\PSoC6\pdl\middleware\ble/cy_ble_event_handler.c ****             if(Cy_BLE_IsDeviceAddressValid(cy_ble_sflashDeviceAddress) != 0u)
 338:Generated_Source\PSoC6\pdl\middleware\ble/cy_ble_event_handler.c ****             {
 339:Generated_Source\PSoC6\pdl\middleware\ble/cy_ble_event_handler.c ****                 (void)Cy_BLE_GAP_SetBdAddress(cy_ble_sflashDeviceAddress);
 340:Generated_Source\PSoC6\pdl\middleware\ble/cy_ble_event_handler.c ****                 
 341:Generated_Source\PSoC6\pdl\middleware\ble/cy_ble_event_handler.c ****                 #if (CY_BLE_GAP_ROLE_PERIPHERAL || CY_BLE_GAP_ROLE_BROADCASTER)
 342:Generated_Source\PSoC6\pdl\middleware\ble/cy_ble_event_handler.c ****                 Cy_BLE_ChangeAdDeviceAddress(cy_ble_sflashDeviceAddress, 0u);
 343:Generated_Source\PSoC6\pdl\middleware\ble/cy_ble_event_handler.c ****                 Cy_BLE_ChangeAdDeviceAddress(cy_ble_sflashDeviceAddress, 1u);
 344:Generated_Source\PSoC6\pdl\middleware\ble/cy_ble_event_handler.c ****                 #endif /* CY_BLE_GAP_ROLE_PERIPHERAL || CY_BLE_GAP_ROLE_BROADCASTER */
 345:Generated_Source\PSoC6\pdl\middleware\ble/cy_ble_event_handler.c ****             }
 346:Generated_Source\PSoC6\pdl\middleware\ble/cy_ble_event_handler.c ****             else
 347:Generated_Source\PSoC6\pdl\middleware\ble/cy_ble_event_handler.c ****             {
 348:Generated_Source\PSoC6\pdl\middleware\ble/cy_ble_event_handler.c ****                 if(cy_ble_configPtr->params->siliconDeviceAddressEnabled != 0u)
 349:Generated_Source\PSoC6\pdl\middleware\ble/cy_ble_event_handler.c ****                 {
 350:Generated_Source\PSoC6\pdl\middleware\ble/cy_ble_event_handler.c ****                     uint32_t bdAddrLoc;
 351:Generated_Source\PSoC6\pdl\middleware\ble/cy_ble_event_handler.c ****                     bdAddrLoc = ((uint32_t)SFLASH->DIE_X & (uint32_t)CY_BLE_SFLASH_DIE_X_MASK) |
 352:Generated_Source\PSoC6\pdl\middleware\ble/cy_ble_event_handler.c ****                                 ((uint32_t)(((uint32_t)SFLASH->DIE_Y) & ((uint32_t)CY_BLE_SFLASH_DI
 353:Generated_Source\PSoC6\pdl\middleware\ble/cy_ble_event_handler.c ****                                  CY_BLE_SFLASH_DIE_X_BITS) |
 354:Generated_Source\PSoC6\pdl\middleware\ble/cy_ble_event_handler.c ****                                 ((uint32_t)(((uint32_t)SFLASH->DIE_WAFER) & ((uint32_t)CY_BLE_SFLAS
 355:Generated_Source\PSoC6\pdl\middleware\ble/cy_ble_event_handler.c ****                                  CY_BLE_SFLASH_DIE_XY_BITS) |
 356:Generated_Source\PSoC6\pdl\middleware\ble/cy_ble_event_handler.c ****                                 ((uint32_t)(((uint32_t)SFLASH->DIE_LOT[0]) & ((uint32_t)CY_BLE_SFLA
 357:Generated_Source\PSoC6\pdl\middleware\ble/cy_ble_event_handler.c ****                                  CY_BLE_SFLASH_DIE_XYWAFER_BITS);
 358:Generated_Source\PSoC6\pdl\middleware\ble/cy_ble_event_handler.c **** 
 359:Generated_Source\PSoC6\pdl\middleware\ble/cy_ble_event_handler.c ****                     cy_ble_configPtr->deviceAddress->bdAddr[0] = (uint8_t)bdAddrLoc;
 360:Generated_Source\PSoC6\pdl\middleware\ble/cy_ble_event_handler.c ****                     cy_ble_configPtr->deviceAddress->bdAddr[1] = (uint8_t)(bdAddrLoc >> 8u);
 361:Generated_Source\PSoC6\pdl\middleware\ble/cy_ble_event_handler.c ****                     cy_ble_configPtr->deviceAddress->bdAddr[2] = (uint8_t)(bdAddrLoc >> 16u);
 362:Generated_Source\PSoC6\pdl\middleware\ble/cy_ble_event_handler.c ****                 }
 363:Generated_Source\PSoC6\pdl\middleware\ble/cy_ble_event_handler.c ****                 (void)Cy_BLE_GAP_SetBdAddress(cy_ble_configPtr->deviceAddress);
 364:Generated_Source\PSoC6\pdl\middleware\ble/cy_ble_event_handler.c **** 
 365:Generated_Source\PSoC6\pdl\middleware\ble/cy_ble_event_handler.c ****                 #if (CY_BLE_GAP_ROLE_PERIPHERAL || CY_BLE_GAP_ROLE_BROADCASTER)
 366:Generated_Source\PSoC6\pdl\middleware\ble/cy_ble_event_handler.c ****                 Cy_BLE_ChangeAdDeviceAddress(cy_ble_configPtr->deviceAddress, 0u);
 367:Generated_Source\PSoC6\pdl\middleware\ble/cy_ble_event_handler.c ****                 Cy_BLE_ChangeAdDeviceAddress(cy_ble_configPtr->deviceAddress, 1u);
 368:Generated_Source\PSoC6\pdl\middleware\ble/cy_ble_event_handler.c ****                 #endif /* CY_BLE_GAP_ROLE_PERIPHERAL || CY_BLE_GAP_ROLE_BROADCASTER */
 369:Generated_Source\PSoC6\pdl\middleware\ble/cy_ble_event_handler.c ****             }
 370:Generated_Source\PSoC6\pdl\middleware\ble/cy_ble_event_handler.c ****             
 371:Generated_Source\PSoC6\pdl\middleware\ble/cy_ble_event_handler.c ****             /* Set the device IO Capability  */
 372:Generated_Source\PSoC6\pdl\middleware\ble/cy_ble_event_handler.c ****             (void)Cy_BLE_GAP_SetIoCap((cy_en_ble_gap_iocap_t*)&cy_ble_configPtr->params->securityIo
 373:Generated_Source\PSoC6\pdl\middleware\ble/cy_ble_event_handler.c ****             
 374:Generated_Source\PSoC6\pdl\middleware\ble/cy_ble_event_handler.c ****             /* Enable all 4.1 events and configured 4.2 events */  
 375:Generated_Source\PSoC6\pdl\middleware\ble/cy_ble_event_handler.c ****             {
ARM GAS  C:\Users\JC\AppData\Local\Temp\ccavrowa.s 			page 39


 376:Generated_Source\PSoC6\pdl\middleware\ble/cy_ble_event_handler.c ****                 uint8_t leMask[CY_BLE_LE_MASK_LENGTH] = { CY_LO8(CY_BLE_LE_MASK),
 377:Generated_Source\PSoC6\pdl\middleware\ble/cy_ble_event_handler.c ****                                                           CY_HI8(CY_BLE_LE_MASK),0u,  0u, 0u, 0u, 0
 378:Generated_Source\PSoC6\pdl\middleware\ble/cy_ble_event_handler.c ****                 (void)Cy_BLE_SetLeEventMask(leMask);
 379:Generated_Source\PSoC6\pdl\middleware\ble/cy_ble_event_handler.c ****             }
 380:Generated_Source\PSoC6\pdl\middleware\ble/cy_ble_event_handler.c ****         
 381:Generated_Source\PSoC6\pdl\middleware\ble/cy_ble_event_handler.c ****             /* Update BLE state  */
 382:Generated_Source\PSoC6\pdl\middleware\ble/cy_ble_event_handler.c ****             Cy_BLE_SetState(CY_BLE_STATE_ON);
 383:Generated_Source\PSoC6\pdl\middleware\ble/cy_ble_event_handler.c ****             break;
 384:Generated_Source\PSoC6\pdl\middleware\ble/cy_ble_event_handler.c **** 
 385:Generated_Source\PSoC6\pdl\middleware\ble/cy_ble_event_handler.c **** 
 386:Generated_Source\PSoC6\pdl\middleware\ble/cy_ble_event_handler.c ****         case CY_BLE_EVT_SOFT_RESET_COMPLETE:
 387:Generated_Source\PSoC6\pdl\middleware\ble/cy_ble_event_handler.c ****         case CY_BLE_EVT_STACK_SHUTDOWN_COMPLETE:
 388:Generated_Source\PSoC6\pdl\middleware\ble/cy_ble_event_handler.c ****             
 389:Generated_Source\PSoC6\pdl\middleware\ble/cy_ble_event_handler.c ****             /* Update BLE / Adv. / Scan states  */
 390:Generated_Source\PSoC6\pdl\middleware\ble/cy_ble_event_handler.c ****             Cy_BLE_SetState(CY_BLE_STATE_STOPPED);
 391:Generated_Source\PSoC6\pdl\middleware\ble/cy_ble_event_handler.c **** 
 392:Generated_Source\PSoC6\pdl\middleware\ble/cy_ble_event_handler.c ****             #if (CY_BLE_GAP_ROLE_PERIPHERAL || CY_BLE_GAP_ROLE_BROADCASTER)
 393:Generated_Source\PSoC6\pdl\middleware\ble/cy_ble_event_handler.c ****             Cy_BLE_SetAdvertisementState(CY_BLE_ADV_STATE_STOPPED);
 394:Generated_Source\PSoC6\pdl\middleware\ble/cy_ble_event_handler.c ****             #endif  /* (CY_BLE_GAP_ROLE_PERIPHERAL || CY_BLE_GAP_ROLE_BROADCASTER) */
 395:Generated_Source\PSoC6\pdl\middleware\ble/cy_ble_event_handler.c **** 
 396:Generated_Source\PSoC6\pdl\middleware\ble/cy_ble_event_handler.c ****             #if (CY_BLE_GAP_ROLE_CENTRAL || CY_BLE_GAP_ROLE_OBSERVER)
 397:Generated_Source\PSoC6\pdl\middleware\ble/cy_ble_event_handler.c ****             Cy_BLE_SetScanState(CY_BLE_SCAN_STATE_STOPPED);
 398:Generated_Source\PSoC6\pdl\middleware\ble/cy_ble_event_handler.c ****             #endif /* (CY_BLE_GAP_ROLE_CENTRAL || CY_BLE_GAP_ROLE_OBSERVER) */
 399:Generated_Source\PSoC6\pdl\middleware\ble/cy_ble_event_handler.c ****             
 400:Generated_Source\PSoC6\pdl\middleware\ble/cy_ble_event_handler.c ****             /* Clean pair status */
 401:Generated_Source\PSoC6\pdl\middleware\ble/cy_ble_event_handler.c ****             #if ((CY_BLE_GAP_ROLE_PERIPHERAL || CY_BLE_GAP_ROLE_CENTRAL))
 402:Generated_Source\PSoC6\pdl\middleware\ble/cy_ble_event_handler.c ****             (void)memset((uint8_t*)cy_ble_pairStatus, 0, sizeof(cy_ble_pairStatus));
 403:Generated_Source\PSoC6\pdl\middleware\ble/cy_ble_event_handler.c ****             #endif /*((CY_BLE_GAP_ROLE_PERIPHERAL || CY_BLE_GAP_ROLE_CENTRAL))*/
 404:Generated_Source\PSoC6\pdl\middleware\ble/cy_ble_event_handler.c **** 
 405:Generated_Source\PSoC6\pdl\middleware\ble/cy_ble_event_handler.c ****             /* Adding a delay of 10ms to ensure that the controller is completely 
 406:Generated_Source\PSoC6\pdl\middleware\ble/cy_ble_event_handler.c ****              * shut-down before generating the event to the application.
 407:Generated_Source\PSoC6\pdl\middleware\ble/cy_ble_event_handler.c ****              * Refer to CY_BLE_EVT_STACK_SHUTDOWN_COMPLETE event documentation. */
 408:Generated_Source\PSoC6\pdl\middleware\ble/cy_ble_event_handler.c ****             #if(CY_BLE_STACK_MODE_HOST_IPC)
 409:Generated_Source\PSoC6\pdl\middleware\ble/cy_ble_event_handler.c ****                 Cy_SysLib_Delay(10u);
 410:Generated_Source\PSoC6\pdl\middleware\ble/cy_ble_event_handler.c ****             #endif /* CY_BLE_STACK_MODE_HOST_IPC */  
 411:Generated_Source\PSoC6\pdl\middleware\ble/cy_ble_event_handler.c **** 
 412:Generated_Source\PSoC6\pdl\middleware\ble/cy_ble_event_handler.c ****             if ( event == CY_BLE_EVT_STACK_SHUTDOWN_COMPLETE)
 413:Generated_Source\PSoC6\pdl\middleware\ble/cy_ble_event_handler.c ****             {
 414:Generated_Source\PSoC6\pdl\middleware\ble/cy_ble_event_handler.c ****                 /* Unregister BLE callback for Deepsleep/Sleep */
 415:Generated_Source\PSoC6\pdl\middleware\ble/cy_ble_event_handler.c ****                 Cy_BLE_UnregisterHostPMCallbacks();
 416:Generated_Source\PSoC6\pdl\middleware\ble/cy_ble_event_handler.c ****             }
 417:Generated_Source\PSoC6\pdl\middleware\ble/cy_ble_event_handler.c ****             break;
 418:Generated_Source\PSoC6\pdl\middleware\ble/cy_ble_event_handler.c **** 
 419:Generated_Source\PSoC6\pdl\middleware\ble/cy_ble_event_handler.c ****         case CY_BLE_EVT_LE_SET_EVENT_MASK_COMPLETE:
 420:Generated_Source\PSoC6\pdl\middleware\ble/cy_ble_event_handler.c ****         #if (CY_BLE_MODE_PROFILE)
 421:Generated_Source\PSoC6\pdl\middleware\ble/cy_ble_event_handler.c ****             {
 422:Generated_Source\PSoC6\pdl\middleware\ble/cy_ble_event_handler.c ****                 if((cy_ble_cmdStatus & CY_BLE_STATUS_SET_TX_PWR_LVL) == 0u)
 423:Generated_Source\PSoC6\pdl\middleware\ble/cy_ble_event_handler.c ****                 {
 424:Generated_Source\PSoC6\pdl\middleware\ble/cy_ble_event_handler.c ****                     cy_stc_ble_tx_pwr_lvl_info_t bleSsPowerLevel = { .pwrConfigParam.bdHandle = 0x0
 425:Generated_Source\PSoC6\pdl\middleware\ble/cy_ble_event_handler.c **** 
 426:Generated_Source\PSoC6\pdl\middleware\ble/cy_ble_event_handler.c ****                     /* Set the Tx Power Level for advertising and connection channels */
 427:Generated_Source\PSoC6\pdl\middleware\ble/cy_ble_event_handler.c ****                     bleSsPowerLevel.blePwrLevel = cy_ble_configPtr->params->txPowerLevelAdv;
 428:Generated_Source\PSoC6\pdl\middleware\ble/cy_ble_event_handler.c ****                     bleSsPowerLevel.pwrConfigParam.bleSsChId = CY_BLE_LL_ADV_CH_TYPE;
 429:Generated_Source\PSoC6\pdl\middleware\ble/cy_ble_event_handler.c ****                     (void)Cy_BLE_SetTxPowerLevel(&bleSsPowerLevel);
 430:Generated_Source\PSoC6\pdl\middleware\ble/cy_ble_event_handler.c **** 
 431:Generated_Source\PSoC6\pdl\middleware\ble/cy_ble_event_handler.c ****                     bleSsPowerLevel.blePwrLevel = cy_ble_configPtr->params->txPowerLevelConn;
 432:Generated_Source\PSoC6\pdl\middleware\ble/cy_ble_event_handler.c ****                     bleSsPowerLevel.pwrConfigParam.bleSsChId = CY_BLE_LL_CONN_CH_TYPE;
ARM GAS  C:\Users\JC\AppData\Local\Temp\ccavrowa.s 			page 40


 433:Generated_Source\PSoC6\pdl\middleware\ble/cy_ble_event_handler.c ****                     bleSsPowerLevel.pwrConfigParam.bdHandle = 0xFFu; /* Set the tx power level valu
 434:Generated_Source\PSoC6\pdl\middleware\ble/cy_ble_event_handler.c ****                     (void)Cy_BLE_SetTxPowerLevel(&bleSsPowerLevel);
 435:Generated_Source\PSoC6\pdl\middleware\ble/cy_ble_event_handler.c ****                     
 436:Generated_Source\PSoC6\pdl\middleware\ble/cy_ble_event_handler.c ****                     /* Set flag that executed Cy_BLE_SetTxPowerLevel during BLE start-up  */
 437:Generated_Source\PSoC6\pdl\middleware\ble/cy_ble_event_handler.c ****                     cy_ble_cmdStatus |= CY_BLE_STATUS_SET_TX_PWR_LVL;
 438:Generated_Source\PSoC6\pdl\middleware\ble/cy_ble_event_handler.c ****                 }
 439:Generated_Source\PSoC6\pdl\middleware\ble/cy_ble_event_handler.c ****             }
 440:Generated_Source\PSoC6\pdl\middleware\ble/cy_ble_event_handler.c ****         #endif /* CY_BLE_MODE_PROFILE */
 441:Generated_Source\PSoC6\pdl\middleware\ble/cy_ble_event_handler.c ****             break;
 442:Generated_Source\PSoC6\pdl\middleware\ble/cy_ble_event_handler.c ****             
 443:Generated_Source\PSoC6\pdl\middleware\ble/cy_ble_event_handler.c ****         case CY_BLE_EVT_TIMEOUT:
 444:Generated_Source\PSoC6\pdl\middleware\ble/cy_ble_event_handler.c ****             Cy_BLE_TimeOutEventHandler((cy_stc_ble_timeout_param_t*)evParam);
 445:Generated_Source\PSoC6\pdl\middleware\ble/cy_ble_event_handler.c ****         #if (CY_BLE_GAP_ROLE_PERIPHERAL || CY_BLE_GAP_ROLE_CENTRAL)
 446:Generated_Source\PSoC6\pdl\middleware\ble/cy_ble_event_handler.c ****             (void)Cy_BLE_InvokeServiceEventHandler((uint32_t)event, (void*)evParam);
 447:Generated_Source\PSoC6\pdl\middleware\ble/cy_ble_event_handler.c ****         #endif /*(CY_BLE_GAP_ROLE_PERIPHERAL || CY_BLE_GAP_ROLE_CENTRAL)*/
 448:Generated_Source\PSoC6\pdl\middleware\ble/cy_ble_event_handler.c ****             break;
 449:Generated_Source\PSoC6\pdl\middleware\ble/cy_ble_event_handler.c **** 
 450:Generated_Source\PSoC6\pdl\middleware\ble/cy_ble_event_handler.c ****         case CY_BLE_EVT_STACK_BUSY_STATUS:
 451:Generated_Source\PSoC6\pdl\middleware\ble/cy_ble_event_handler.c ****         #if (CY_BLE_GAP_ROLE_PERIPHERAL || CY_BLE_GAP_ROLE_CENTRAL)
 452:Generated_Source\PSoC6\pdl\middleware\ble/cy_ble_event_handler.c ****             cy_ble_busyStatus[Cy_BLE_GetConnHandleByBdHandle(((cy_stc_ble_l2cap_state_info_t*)evPar
 453:Generated_Source\PSoC6\pdl\middleware\ble/cy_ble_event_handler.c ****                 ((cy_stc_ble_l2cap_state_info_t*)evParam)->flowState;
 454:Generated_Source\PSoC6\pdl\middleware\ble/cy_ble_event_handler.c ****         #endif /*(CY_BLE_GAP_ROLE_PERIPHERAL || CY_BLE_GAP_ROLE_CENTRAL)*/
 455:Generated_Source\PSoC6\pdl\middleware\ble/cy_ble_event_handler.c ****             break;
 456:Generated_Source\PSoC6\pdl\middleware\ble/cy_ble_event_handler.c **** 
 457:Generated_Source\PSoC6\pdl\middleware\ble/cy_ble_event_handler.c ****         case CY_BLE_EVT_MEMORY_REQUEST:
 458:Generated_Source\PSoC6\pdl\middleware\ble/cy_ble_event_handler.c ****         #if (CY_BLE_MODE_PROFILE)
 459:Generated_Source\PSoC6\pdl\middleware\ble/cy_ble_event_handler.c ****             {
 460:Generated_Source\PSoC6\pdl\middleware\ble/cy_ble_event_handler.c ****                 cy_stc_ble_memory_request_t *memReq = (cy_stc_ble_memory_request_t*)evParam;
 461:Generated_Source\PSoC6\pdl\middleware\ble/cy_ble_event_handler.c ****                 if(memReq->request == CY_BLE_PREPARED_WRITE_REQUEST)
 462:Generated_Source\PSoC6\pdl\middleware\ble/cy_ble_event_handler.c ****                 {
 463:Generated_Source\PSoC6\pdl\middleware\ble/cy_ble_event_handler.c ****             #if (CY_BLE_GATT_ENABLE_EXTERNAL_PREP_WRITE_BUFF == 0u)
 464:Generated_Source\PSoC6\pdl\middleware\ble/cy_ble_event_handler.c ****                     /* Stack requests to provide memory to process a remote request */
 465:Generated_Source\PSoC6\pdl\middleware\ble/cy_ble_event_handler.c ****                     if(memReq->allocFree == CY_BLE_ALLOC_MEMORY)
 466:Generated_Source\PSoC6\pdl\middleware\ble/cy_ble_event_handler.c ****                     {
 467:Generated_Source\PSoC6\pdl\middleware\ble/cy_ble_event_handler.c ****                         static cy_stc_ble_prepare_write_request_memory_t gPrepWriteReqMem;
 468:Generated_Source\PSoC6\pdl\middleware\ble/cy_ble_event_handler.c **** 
 469:Generated_Source\PSoC6\pdl\middleware\ble/cy_ble_event_handler.c ****                         /* Configure and return a statically allocated buffer at the end of the cy_
 470:Generated_Source\PSoC6\pdl\middleware\ble/cy_ble_event_handler.c ****                         gPrepWriteReqMem.prepareWriteQueueSize = CY_BLE_GATT_MAX_PREPARE_BUFF_COUNT
 471:Generated_Source\PSoC6\pdl\middleware\ble/cy_ble_event_handler.c ****                         gPrepWriteReqMem.totalAttrValueLength = CY_BLE_GATT_PREPARE_LENGTH_ALIGN;
 472:Generated_Source\PSoC6\pdl\middleware\ble/cy_ble_event_handler.c ****                         gPrepWriteReqMem.queueBuffer = &cy_ble_stackMemoryRam[(CY_BLE_STACK_RAM_SIZ
 473:Generated_Source\PSoC6\pdl\middleware\ble/cy_ble_event_handler.c ****                                                                               CY_BLE_GATT_PREPARE_W
 474:Generated_Source\PSoC6\pdl\middleware\ble/cy_ble_event_handler.c ****                         memReq->configMemory = &gPrepWriteReqMem;
 475:Generated_Source\PSoC6\pdl\middleware\ble/cy_ble_event_handler.c ****                     }
 476:Generated_Source\PSoC6\pdl\middleware\ble/cy_ble_event_handler.c ****                     /* Clear the CY_BLE_CALLBACK flag not to provide a handled event to the applica
 477:Generated_Source\PSoC6\pdl\middleware\ble/cy_ble_event_handler.c ****                     cy_ble_eventHandlerFlag &= (uint8_t) ~CY_BLE_CALLBACK;
 478:Generated_Source\PSoC6\pdl\middleware\ble/cy_ble_event_handler.c ****             #endif  /* CY_BLE_GATT_ENABLE_EXTERNAL_PREP_WRITE_BUFF == 0u */
 479:Generated_Source\PSoC6\pdl\middleware\ble/cy_ble_event_handler.c ****                 }
 480:Generated_Source\PSoC6\pdl\middleware\ble/cy_ble_event_handler.c ****             }
 481:Generated_Source\PSoC6\pdl\middleware\ble/cy_ble_event_handler.c ****         #endif /* CY_BLE_MODE_PROFILE */
 482:Generated_Source\PSoC6\pdl\middleware\ble/cy_ble_event_handler.c ****             break;
 483:Generated_Source\PSoC6\pdl\middleware\ble/cy_ble_event_handler.c **** 
 484:Generated_Source\PSoC6\pdl\middleware\ble/cy_ble_event_handler.c ****         /**********************************************************
 485:Generated_Source\PSoC6\pdl\middleware\ble/cy_ble_event_handler.c ****          * GAP events
 486:Generated_Source\PSoC6\pdl\middleware\ble/cy_ble_event_handler.c ****          ************************************************************/
 487:Generated_Source\PSoC6\pdl\middleware\ble/cy_ble_event_handler.c ****         case CY_BLE_EVT_GAP_AUTH_REQ:
 488:Generated_Source\PSoC6\pdl\middleware\ble/cy_ble_event_handler.c ****             break;
 489:Generated_Source\PSoC6\pdl\middleware\ble/cy_ble_event_handler.c **** 
ARM GAS  C:\Users\JC\AppData\Local\Temp\ccavrowa.s 			page 41


 490:Generated_Source\PSoC6\pdl\middleware\ble/cy_ble_event_handler.c ****         case CY_BLE_EVT_GAP_AUTH_COMPLETE:
 491:Generated_Source\PSoC6\pdl\middleware\ble/cy_ble_event_handler.c ****         #if ((CY_BLE_GAP_ROLE_PERIPHERAL || CY_BLE_GAP_ROLE_CENTRAL) && (CY_BLE_BONDING_REQUIREMENT
 492:Generated_Source\PSoC6\pdl\middleware\ble/cy_ble_event_handler.c ****             {
 493:Generated_Source\PSoC6\pdl\middleware\ble/cy_ble_event_handler.c ****                 cy_stc_ble_conn_handle_t connectedHandle;
 494:Generated_Source\PSoC6\pdl\middleware\ble/cy_ble_event_handler.c ****                 connectedHandle = Cy_BLE_GetConnHandleByBdHandle(((cy_stc_ble_gap_auth_info_t*)evPa
 495:Generated_Source\PSoC6\pdl\middleware\ble/cy_ble_event_handler.c ****                 cy_ble_peerBonding[connectedHandle.attId] = ((cy_stc_ble_gap_auth_info_t*)evParam)-
 496:Generated_Source\PSoC6\pdl\middleware\ble/cy_ble_event_handler.c ****             }
 497:Generated_Source\PSoC6\pdl\middleware\ble/cy_ble_event_handler.c ****         #endif  /* CY_BLE_BONDING_REQUIREMENT == CY_BLE_BONDING_YES */
 498:Generated_Source\PSoC6\pdl\middleware\ble/cy_ble_event_handler.c ****         
 499:Generated_Source\PSoC6\pdl\middleware\ble/cy_ble_event_handler.c ****         #if ((CY_BLE_GAP_ROLE_PERIPHERAL || CY_BLE_GAP_ROLE_CENTRAL))
 500:Generated_Source\PSoC6\pdl\middleware\ble/cy_ble_event_handler.c ****             if(((cy_stc_ble_gap_auth_info_t *)evParam)->authErr == CY_BLE_GAP_AUTH_ERROR_NONE)
 501:Generated_Source\PSoC6\pdl\middleware\ble/cy_ble_event_handler.c ****             {
 502:Generated_Source\PSoC6\pdl\middleware\ble/cy_ble_event_handler.c ****                 cy_stc_ble_conn_handle_t connectedHandle;
 503:Generated_Source\PSoC6\pdl\middleware\ble/cy_ble_event_handler.c ****                 connectedHandle = Cy_BLE_GetConnHandleByBdHandle(((cy_stc_ble_gap_auth_info_t *)evP
 504:Generated_Source\PSoC6\pdl\middleware\ble/cy_ble_event_handler.c ****                 cy_ble_pairStatus[connectedHandle.attId] = true;
 505:Generated_Source\PSoC6\pdl\middleware\ble/cy_ble_event_handler.c ****             }
 506:Generated_Source\PSoC6\pdl\middleware\ble/cy_ble_event_handler.c ****         #endif /* ((CY_BLE_GAP_ROLE_PERIPHERAL || CY_BLE_GAP_ROLE_CENTRAL)) */ 
 507:Generated_Source\PSoC6\pdl\middleware\ble/cy_ble_event_handler.c ****             break;
 508:Generated_Source\PSoC6\pdl\middleware\ble/cy_ble_event_handler.c **** 
 509:Generated_Source\PSoC6\pdl\middleware\ble/cy_ble_event_handler.c ****         case CY_BLE_EVT_GAP_CONNECTION_UPDATE_COMPLETE:
 510:Generated_Source\PSoC6\pdl\middleware\ble/cy_ble_event_handler.c ****         #if (CY_BLE_GAP_ROLE_PERIPHERAL || CY_BLE_GAP_ROLE_CENTRAL)
 511:Generated_Source\PSoC6\pdl\middleware\ble/cy_ble_event_handler.c ****             (void)Cy_BLE_InvokeServiceEventHandler((uint32_t)event, (void*)evParam);
 512:Generated_Source\PSoC6\pdl\middleware\ble/cy_ble_event_handler.c ****         #endif /*(CY_BLE_GAP_ROLE_PERIPHERAL || CY_BLE_GAP_ROLE_CENTRAL) */
 513:Generated_Source\PSoC6\pdl\middleware\ble/cy_ble_event_handler.c ****             break;
 514:Generated_Source\PSoC6\pdl\middleware\ble/cy_ble_event_handler.c ****     
 515:Generated_Source\PSoC6\pdl\middleware\ble/cy_ble_event_handler.c ****         case CY_BLE_EVT_GAP_ENHANCE_CONN_COMPLETE:
 516:Generated_Source\PSoC6\pdl\middleware\ble/cy_ble_event_handler.c ****         case CY_BLE_EVT_GAP_DEVICE_CONNECTED:
 517:Generated_Source\PSoC6\pdl\middleware\ble/cy_ble_event_handler.c ****             {           
 518:Generated_Source\PSoC6\pdl\middleware\ble/cy_ble_event_handler.c ****             #if (CY_BLE_LL_PRIVACY_FEATURE != 0u)
 519:Generated_Source\PSoC6\pdl\middleware\ble/cy_ble_event_handler.c ****                 cy_stc_ble_gap_enhance_conn_complete_param_t *tEvParam = 
 520:Generated_Source\PSoC6\pdl\middleware\ble/cy_ble_event_handler.c ****                     (cy_stc_ble_gap_enhance_conn_complete_param_t *)evParam;
 521:Generated_Source\PSoC6\pdl\middleware\ble/cy_ble_event_handler.c ****             #else
 522:Generated_Source\PSoC6\pdl\middleware\ble/cy_ble_event_handler.c ****                 cy_stc_ble_gap_connected_param_t *tEvParam = (cy_stc_ble_gap_connected_param_t *)ev
 523:Generated_Source\PSoC6\pdl\middleware\ble/cy_ble_event_handler.c ****             #endif /* (CY_BLE_LL_PRIVACY_FEATURE != 0u) */    
 524:Generated_Source\PSoC6\pdl\middleware\ble/cy_ble_event_handler.c ****                 if(tEvParam->status == CY_BLE_HCI_SUCCESS)
 525:Generated_Source\PSoC6\pdl\middleware\ble/cy_ble_event_handler.c ****                 {
 526:Generated_Source\PSoC6\pdl\middleware\ble/cy_ble_event_handler.c ****                     /* Advertising is automatically stopped if a Slave is connected,
 527:Generated_Source\PSoC6\pdl\middleware\ble/cy_ble_event_handler.c ****                        so update the adv state to CY_BLE_ADV_STATE_STOPPED  */
 528:Generated_Source\PSoC6\pdl\middleware\ble/cy_ble_event_handler.c ****                     #if (CY_BLE_GAP_ROLE_PERIPHERAL || CY_BLE_GAP_ROLE_BROADCASTER)
 529:Generated_Source\PSoC6\pdl\middleware\ble/cy_ble_event_handler.c ****                         if(tEvParam->role == CY_BLE_GAP_LL_ROLE_SLAVE)
 530:Generated_Source\PSoC6\pdl\middleware\ble/cy_ble_event_handler.c ****                         {
 531:Generated_Source\PSoC6\pdl\middleware\ble/cy_ble_event_handler.c ****                             Cy_BLE_SetAdvertisementState(CY_BLE_ADV_STATE_STOPPED);
 532:Generated_Source\PSoC6\pdl\middleware\ble/cy_ble_event_handler.c ****                         }
 533:Generated_Source\PSoC6\pdl\middleware\ble/cy_ble_event_handler.c ****                     #endif /* (CY_BLE_GAP_ROLE_PERIPHERAL || CY_BLE_GAP_ROLE_BROADCASTER) */
 534:Generated_Source\PSoC6\pdl\middleware\ble/cy_ble_event_handler.c ****                     
 535:Generated_Source\PSoC6\pdl\middleware\ble/cy_ble_event_handler.c ****                     /* Stop Timer in central mode (if timer was started) */
 536:Generated_Source\PSoC6\pdl\middleware\ble/cy_ble_event_handler.c ****                     #if (CY_BLE_GAP_ROLE_CENTRAL)
 537:Generated_Source\PSoC6\pdl\middleware\ble/cy_ble_event_handler.c ****                         if(cy_ble_connectingTimeout.timeout != 0u)
 538:Generated_Source\PSoC6\pdl\middleware\ble/cy_ble_event_handler.c ****                         {
 539:Generated_Source\PSoC6\pdl\middleware\ble/cy_ble_event_handler.c ****                             (void)Cy_BLE_StopTimer(&cy_ble_connectingTimeout);
 540:Generated_Source\PSoC6\pdl\middleware\ble/cy_ble_event_handler.c ****                         }
 541:Generated_Source\PSoC6\pdl\middleware\ble/cy_ble_event_handler.c ****                     #endif /* CY_BLE_GAP_ROLE_CENTRAL */
 542:Generated_Source\PSoC6\pdl\middleware\ble/cy_ble_event_handler.c ****                     
 543:Generated_Source\PSoC6\pdl\middleware\ble/cy_ble_event_handler.c ****                     /* Store information about role of device connected (Master/Slave)*/
 544:Generated_Source\PSoC6\pdl\middleware\ble/cy_ble_event_handler.c ****                     #if ((CY_BLE_GAP_ROLE_PERIPHERAL || CY_BLE_GAP_ROLE_CENTRAL))
 545:Generated_Source\PSoC6\pdl\middleware\ble/cy_ble_event_handler.c ****                     {   
 546:Generated_Source\PSoC6\pdl\middleware\ble/cy_ble_event_handler.c ****                         cy_stc_ble_conn_handle_t tconnHandle = Cy_BLE_GetConnHandleByBdHandle(tEvPa
ARM GAS  C:\Users\JC\AppData\Local\Temp\ccavrowa.s 			page 42


 547:Generated_Source\PSoC6\pdl\middleware\ble/cy_ble_event_handler.c ****                         if( tconnHandle.attId != CY_BLE_INVALID_CONN_HANDLE_VALUE)   
 548:Generated_Source\PSoC6\pdl\middleware\ble/cy_ble_event_handler.c ****                         {
 549:Generated_Source\PSoC6\pdl\middleware\ble/cy_ble_event_handler.c ****                             cy_ble_devConnRole[tconnHandle.attId] = tEvParam->role;
 550:Generated_Source\PSoC6\pdl\middleware\ble/cy_ble_event_handler.c ****                         }
 551:Generated_Source\PSoC6\pdl\middleware\ble/cy_ble_event_handler.c ****                     }
 552:Generated_Source\PSoC6\pdl\middleware\ble/cy_ble_event_handler.c ****                     #endif /*((CY_BLE_GAP_ROLE_PERIPHERAL || CY_BLE_GAP_ROLE_CENTRAL))*/
 553:Generated_Source\PSoC6\pdl\middleware\ble/cy_ble_event_handler.c ****                 }
 554:Generated_Source\PSoC6\pdl\middleware\ble/cy_ble_event_handler.c ****                 Cy_BLE_SetState(CY_BLE_STATE_ON);
 555:Generated_Source\PSoC6\pdl\middleware\ble/cy_ble_event_handler.c ****             }
 556:Generated_Source\PSoC6\pdl\middleware\ble/cy_ble_event_handler.c ****             break;
 557:Generated_Source\PSoC6\pdl\middleware\ble/cy_ble_event_handler.c **** 
 558:Generated_Source\PSoC6\pdl\middleware\ble/cy_ble_event_handler.c ****         case CY_BLE_EVT_GAP_DEVICE_DISCONNECTED:
 559:Generated_Source\PSoC6\pdl\middleware\ble/cy_ble_event_handler.c ****             Cy_BLE_SetState(CY_BLE_STATE_ON);
 560:Generated_Source\PSoC6\pdl\middleware\ble/cy_ble_event_handler.c ****             break;
 561:Generated_Source\PSoC6\pdl\middleware\ble/cy_ble_event_handler.c ****         
 562:Generated_Source\PSoC6\pdl\middleware\ble/cy_ble_event_handler.c ****         #if (CY_BLE_GAP_ROLE_PERIPHERAL || CY_BLE_GAP_ROLE_BROADCASTER)
 563:Generated_Source\PSoC6\pdl\middleware\ble/cy_ble_event_handler.c ****         case CY_BLE_EVT_GAPP_ADVERTISEMENT_START_STOP:
 564:Generated_Source\PSoC6\pdl\middleware\ble/cy_ble_event_handler.c ****         #if (CY_BLE_GAP_ROLE_PERIPHERAL || CY_BLE_GAP_ROLE_CENTRAL)
 565:Generated_Source\PSoC6\pdl\middleware\ble/cy_ble_event_handler.c ****             (void)Cy_BLE_InvokeServiceEventHandler((uint32_t)event, (void*)evParam);
 566:Generated_Source\PSoC6\pdl\middleware\ble/cy_ble_event_handler.c ****         #endif /* (CY_BLE_GAP_ROLE_PERIPHERAL || CY_BLE_GAP_ROLE_CENTRAL) */
 567:Generated_Source\PSoC6\pdl\middleware\ble/cy_ble_event_handler.c **** 
 568:Generated_Source\PSoC6\pdl\middleware\ble/cy_ble_event_handler.c ****             if((cy_ble_eventHandlerFlag & CY_BLE_CALLBACK) != 0u)
 569:Generated_Source\PSoC6\pdl\middleware\ble/cy_ble_event_handler.c ****             {
 570:Generated_Source\PSoC6\pdl\middleware\ble/cy_ble_event_handler.c ****                 /* After Cy_BLE_GAPP_StartAdvertisement, the first event indicates that advertising
 571:Generated_Source\PSoC6\pdl\middleware\ble/cy_ble_event_handler.c ****                 if(Cy_BLE_GetAdvertisementState() == CY_BLE_ADV_STATE_ADV_INITIATED)
 572:Generated_Source\PSoC6\pdl\middleware\ble/cy_ble_event_handler.c ****                 {
 573:Generated_Source\PSoC6\pdl\middleware\ble/cy_ble_event_handler.c ****                     Cy_BLE_SetAdvertisementState(CY_BLE_ADV_STATE_ADVERTISING);
 574:Generated_Source\PSoC6\pdl\middleware\ble/cy_ble_event_handler.c ****                 }
 575:Generated_Source\PSoC6\pdl\middleware\ble/cy_ble_event_handler.c ****                 /* When the application initiated a stop advertisement */
 576:Generated_Source\PSoC6\pdl\middleware\ble/cy_ble_event_handler.c ****                 else if(Cy_BLE_GetAdvertisementState() == CY_BLE_ADV_STATE_STOP_INITIATED)
 577:Generated_Source\PSoC6\pdl\middleware\ble/cy_ble_event_handler.c ****                 {
 578:Generated_Source\PSoC6\pdl\middleware\ble/cy_ble_event_handler.c ****                     Cy_BLE_SetAdvertisementState(CY_BLE_ADV_STATE_STOPPED);
 579:Generated_Source\PSoC6\pdl\middleware\ble/cy_ble_event_handler.c ****                 }
 580:Generated_Source\PSoC6\pdl\middleware\ble/cy_ble_event_handler.c ****                 else /* The following event indicates that advertising has been stopped */
 581:Generated_Source\PSoC6\pdl\middleware\ble/cy_ble_event_handler.c ****                 {
 582:Generated_Source\PSoC6\pdl\middleware\ble/cy_ble_event_handler.c ****                     if(Cy_BLE_GetAdvertisementState() == CY_BLE_ADV_STATE_ADVERTISING)
 583:Generated_Source\PSoC6\pdl\middleware\ble/cy_ble_event_handler.c ****                     {
 584:Generated_Source\PSoC6\pdl\middleware\ble/cy_ble_event_handler.c ****                         Cy_BLE_SetAdvertisementState(CY_BLE_ADV_STATE_STOPPED);
 585:Generated_Source\PSoC6\pdl\middleware\ble/cy_ble_event_handler.c ****                         if((cy_ble_configPtr->gappAdvParams[cy_ble_advIndex].slowAdvEnable != 0u) &
 586:Generated_Source\PSoC6\pdl\middleware\ble/cy_ble_event_handler.c ****                            (cy_ble_configPtr->gappAdvParams[cy_ble_advIndex].fastAdvTimeOut != 0u))
 587:Generated_Source\PSoC6\pdl\middleware\ble/cy_ble_event_handler.c ****                         {
 588:Generated_Source\PSoC6\pdl\middleware\ble/cy_ble_event_handler.c ****                             if(cy_ble_advertisingIntervalType == CY_BLE_ADVERTISING_FAST)
 589:Generated_Source\PSoC6\pdl\middleware\ble/cy_ble_event_handler.c ****                             {
 590:Generated_Source\PSoC6\pdl\middleware\ble/cy_ble_event_handler.c ****                                 /* When fast advertising time out occur: Start slow advertising */
 591:Generated_Source\PSoC6\pdl\middleware\ble/cy_ble_event_handler.c ****                                 if(Cy_BLE_GAPP_StartAdvertisement(CY_BLE_ADVERTISING_SLOW, cy_ble_a
 592:Generated_Source\PSoC6\pdl\middleware\ble/cy_ble_event_handler.c ****                                    CY_BLE_SUCCESS)
 593:Generated_Source\PSoC6\pdl\middleware\ble/cy_ble_event_handler.c ****                                 {
 594:Generated_Source\PSoC6\pdl\middleware\ble/cy_ble_event_handler.c ****                                     Cy_BLE_SetAdvertisementState(CY_BLE_ADV_STATE_ADV_INITIATED);
 595:Generated_Source\PSoC6\pdl\middleware\ble/cy_ble_event_handler.c ****                                 }
 596:Generated_Source\PSoC6\pdl\middleware\ble/cy_ble_event_handler.c ****                             }
 597:Generated_Source\PSoC6\pdl\middleware\ble/cy_ble_event_handler.c ****                         }
 598:Generated_Source\PSoC6\pdl\middleware\ble/cy_ble_event_handler.c ****                     }
 599:Generated_Source\PSoC6\pdl\middleware\ble/cy_ble_event_handler.c ****                 }
 600:Generated_Source\PSoC6\pdl\middleware\ble/cy_ble_event_handler.c ****             }
 601:Generated_Source\PSoC6\pdl\middleware\ble/cy_ble_event_handler.c ****             break;
 602:Generated_Source\PSoC6\pdl\middleware\ble/cy_ble_event_handler.c ****         #endif /* CY_BLE_GAP_ROLE_PERIPHERAL || CY_BLE_GAP_ROLE_BROADCASTER */
 603:Generated_Source\PSoC6\pdl\middleware\ble/cy_ble_event_handler.c **** 
ARM GAS  C:\Users\JC\AppData\Local\Temp\ccavrowa.s 			page 43


 604:Generated_Source\PSoC6\pdl\middleware\ble/cy_ble_event_handler.c ****         #if (CY_BLE_GAP_ROLE_CENTRAL || CY_BLE_GAP_ROLE_OBSERVER)
 605:Generated_Source\PSoC6\pdl\middleware\ble/cy_ble_event_handler.c ****         case CY_BLE_EVT_GAPC_SCAN_START_STOP:
 606:Generated_Source\PSoC6\pdl\middleware\ble/cy_ble_event_handler.c ****         #if (CY_BLE_GAP_ROLE_CENTRAL)
 607:Generated_Source\PSoC6\pdl\middleware\ble/cy_ble_event_handler.c ****             (void)Cy_BLE_InvokeServiceEventHandler((uint32_t)event, (void*)evParam);
 608:Generated_Source\PSoC6\pdl\middleware\ble/cy_ble_event_handler.c ****         #endif /* (CY_BLE_GAP_ROLE_CENTRAL) */
 609:Generated_Source\PSoC6\pdl\middleware\ble/cy_ble_event_handler.c **** 
 610:Generated_Source\PSoC6\pdl\middleware\ble/cy_ble_event_handler.c ****             if((cy_ble_eventHandlerFlag & CY_BLE_CALLBACK) != 0u)
 611:Generated_Source\PSoC6\pdl\middleware\ble/cy_ble_event_handler.c ****             {
 612:Generated_Source\PSoC6\pdl\middleware\ble/cy_ble_event_handler.c ****                 /* After Cy_BLE_GAPC_StartScan, the first event indicates that scanning has been st
 613:Generated_Source\PSoC6\pdl\middleware\ble/cy_ble_event_handler.c ****                 if(Cy_BLE_GetScanState() == CY_BLE_SCAN_STATE_SCAN_INITIATED)
 614:Generated_Source\PSoC6\pdl\middleware\ble/cy_ble_event_handler.c ****                 {
 615:Generated_Source\PSoC6\pdl\middleware\ble/cy_ble_event_handler.c ****                     Cy_BLE_SetScanState(CY_BLE_SCAN_STATE_SCANNING);
 616:Generated_Source\PSoC6\pdl\middleware\ble/cy_ble_event_handler.c ****                 }
 617:Generated_Source\PSoC6\pdl\middleware\ble/cy_ble_event_handler.c ****                 /* When the application initiated stop scanning */
 618:Generated_Source\PSoC6\pdl\middleware\ble/cy_ble_event_handler.c ****                 else if(Cy_BLE_GetScanState() == CY_BLE_SCAN_STATE_STOP_INITIATED)
 619:Generated_Source\PSoC6\pdl\middleware\ble/cy_ble_event_handler.c ****                 {
 620:Generated_Source\PSoC6\pdl\middleware\ble/cy_ble_event_handler.c ****                     Cy_BLE_SetScanState(CY_BLE_SCAN_STATE_STOPPED);
 621:Generated_Source\PSoC6\pdl\middleware\ble/cy_ble_event_handler.c ****                 }
 622:Generated_Source\PSoC6\pdl\middleware\ble/cy_ble_event_handler.c ****                 else /* The following event indicates that scanning has been stopped by BLE Stack *
 623:Generated_Source\PSoC6\pdl\middleware\ble/cy_ble_event_handler.c ****                 {
 624:Generated_Source\PSoC6\pdl\middleware\ble/cy_ble_event_handler.c ****                     if(Cy_BLE_GetScanState() == CY_BLE_SCAN_STATE_SCANNING)
 625:Generated_Source\PSoC6\pdl\middleware\ble/cy_ble_event_handler.c ****                     {
 626:Generated_Source\PSoC6\pdl\middleware\ble/cy_ble_event_handler.c ****                         Cy_BLE_SetScanState(CY_BLE_SCAN_STATE_STOPPED);
 627:Generated_Source\PSoC6\pdl\middleware\ble/cy_ble_event_handler.c ****                         if((cy_ble_configPtr->gapcScanParams[cy_ble_scanIndex].slowScanEnabled != 0
 628:Generated_Source\PSoC6\pdl\middleware\ble/cy_ble_event_handler.c ****                            (cy_ble_configPtr->gapcScanParams[cy_ble_scanIndex].fastScanTimeOut != 0
 629:Generated_Source\PSoC6\pdl\middleware\ble/cy_ble_event_handler.c ****                         {
 630:Generated_Source\PSoC6\pdl\middleware\ble/cy_ble_event_handler.c ****                             if(cy_ble_scanningIntervalType == CY_BLE_SCANNING_FAST)
 631:Generated_Source\PSoC6\pdl\middleware\ble/cy_ble_event_handler.c ****                             {
 632:Generated_Source\PSoC6\pdl\middleware\ble/cy_ble_event_handler.c ****                                 /* When a fast scanning timeout occurs: Start slow scanning */
 633:Generated_Source\PSoC6\pdl\middleware\ble/cy_ble_event_handler.c ****                                 if(Cy_BLE_GAPC_StartScan(CY_BLE_SCANNING_SLOW, cy_ble_scanIndex) ==
 634:Generated_Source\PSoC6\pdl\middleware\ble/cy_ble_event_handler.c ****                                 {
 635:Generated_Source\PSoC6\pdl\middleware\ble/cy_ble_event_handler.c ****                                     Cy_BLE_SetScanState(CY_BLE_SCAN_STATE_SCAN_INITIATED);
 636:Generated_Source\PSoC6\pdl\middleware\ble/cy_ble_event_handler.c ****                                 }
 637:Generated_Source\PSoC6\pdl\middleware\ble/cy_ble_event_handler.c ****                             }
 638:Generated_Source\PSoC6\pdl\middleware\ble/cy_ble_event_handler.c ****                         }
 639:Generated_Source\PSoC6\pdl\middleware\ble/cy_ble_event_handler.c ****                     }
 640:Generated_Source\PSoC6\pdl\middleware\ble/cy_ble_event_handler.c ****                 }
 641:Generated_Source\PSoC6\pdl\middleware\ble/cy_ble_event_handler.c ****             }
 642:Generated_Source\PSoC6\pdl\middleware\ble/cy_ble_event_handler.c ****             break;
 643:Generated_Source\PSoC6\pdl\middleware\ble/cy_ble_event_handler.c ****         #endif /* CY_BLE_GAP_ROLE_CENTRAL || CY_BLE_GAP_ROLE_OBSERVER */
 644:Generated_Source\PSoC6\pdl\middleware\ble/cy_ble_event_handler.c **** 
 645:Generated_Source\PSoC6\pdl\middleware\ble/cy_ble_event_handler.c ****         /**********************************************************
 646:Generated_Source\PSoC6\pdl\middleware\ble/cy_ble_event_handler.c ****          * L2AP events
 647:Generated_Source\PSoC6\pdl\middleware\ble/cy_ble_event_handler.c ****          ************************************************************/
 648:Generated_Source\PSoC6\pdl\middleware\ble/cy_ble_event_handler.c ****         case CY_BLE_EVT_L2CAP_CONN_PARAM_UPDATE_RSP:
 649:Generated_Source\PSoC6\pdl\middleware\ble/cy_ble_event_handler.c ****         #if (CY_BLE_GAP_ROLE_PERIPHERAL || CY_BLE_GAP_ROLE_CENTRAL)
 650:Generated_Source\PSoC6\pdl\middleware\ble/cy_ble_event_handler.c ****             (void)Cy_BLE_InvokeServiceEventHandler((uint32_t)event, (void*)evParam);
 651:Generated_Source\PSoC6\pdl\middleware\ble/cy_ble_event_handler.c ****         #endif /* (CY_BLE_GAP_ROLE_PERIPHERAL || CY_BLE_GAP_ROLE_CENTRAL) */
 652:Generated_Source\PSoC6\pdl\middleware\ble/cy_ble_event_handler.c ****             break;
 653:Generated_Source\PSoC6\pdl\middleware\ble/cy_ble_event_handler.c **** 
 654:Generated_Source\PSoC6\pdl\middleware\ble/cy_ble_event_handler.c ****             /**********************************************************
 655:Generated_Source\PSoC6\pdl\middleware\ble/cy_ble_event_handler.c ****              * GATT events
 656:Generated_Source\PSoC6\pdl\middleware\ble/cy_ble_event_handler.c ****              ************************************************************/
 657:Generated_Source\PSoC6\pdl\middleware\ble/cy_ble_event_handler.c ****         #if ((CY_BLE_GATT_ROLE_SERVER) || (CY_BLE_GATT_ROLE_CLIENT))
 658:Generated_Source\PSoC6\pdl\middleware\ble/cy_ble_event_handler.c ****         case CY_BLE_EVT_GATT_CONNECT_IND:
 659:Generated_Source\PSoC6\pdl\middleware\ble/cy_ble_event_handler.c ****         #if (CY_BLE_GATT_ROLE_CLIENT)
 660:Generated_Source\PSoC6\pdl\middleware\ble/cy_ble_event_handler.c ****             /* If connected to the same device which is already discovered */
ARM GAS  C:\Users\JC\AppData\Local\Temp\ccavrowa.s 			page 44


 661:Generated_Source\PSoC6\pdl\middleware\ble/cy_ble_event_handler.c ****             if((Cy_BLE_GetConnectionState(*(cy_stc_ble_conn_handle_t*)evParam) ==
 662:Generated_Source\PSoC6\pdl\middleware\ble/cy_ble_event_handler.c ****                 CY_BLE_CONN_STATE_CLIENT_DISCONNECTED_DISCOVERED) &&
 663:Generated_Source\PSoC6\pdl\middleware\ble/cy_ble_event_handler.c ****                (((cy_stc_ble_conn_handle_t*)evParam)->bdHandle ==
 664:Generated_Source\PSoC6\pdl\middleware\ble/cy_ble_event_handler.c ****                 cy_ble_connHandle[((cy_stc_ble_conn_handle_t*)evParam)->attId].bdHandle))
 665:Generated_Source\PSoC6\pdl\middleware\ble/cy_ble_event_handler.c ****             {   /* Set a discovered state */
 666:Generated_Source\PSoC6\pdl\middleware\ble/cy_ble_event_handler.c ****                 Cy_BLE_SetConnectionState(*(cy_stc_ble_conn_handle_t*)evParam, CY_BLE_CONN_STATE_CL
 667:Generated_Source\PSoC6\pdl\middleware\ble/cy_ble_event_handler.c ****             }
 668:Generated_Source\PSoC6\pdl\middleware\ble/cy_ble_event_handler.c ****             else    /* Connected to a new device */
 669:Generated_Source\PSoC6\pdl\middleware\ble/cy_ble_event_handler.c ****         #endif /* CY_BLE_GATT_ROLE_CLIENT */
 670:Generated_Source\PSoC6\pdl\middleware\ble/cy_ble_event_handler.c ****             {
 671:Generated_Source\PSoC6\pdl\middleware\ble/cy_ble_event_handler.c ****                 /* Clear the discovery index for the Client role */
 672:Generated_Source\PSoC6\pdl\middleware\ble/cy_ble_event_handler.c ****             #if (CY_BLE_GATT_ROLE_CLIENT)
 673:Generated_Source\PSoC6\pdl\middleware\ble/cy_ble_event_handler.c ****                 (void)Cy_BLE_GATTC_RemoveConnHandle(*(cy_stc_ble_conn_handle_t*)evParam);
 674:Generated_Source\PSoC6\pdl\middleware\ble/cy_ble_event_handler.c ****             #endif /* CY_BLE_GATT_ROLE_CLIENT */
 675:Generated_Source\PSoC6\pdl\middleware\ble/cy_ble_event_handler.c ****                 Cy_BLE_SetConnectionState(*(cy_stc_ble_conn_handle_t*)evParam, CY_BLE_CONN_STATE_CO
 676:Generated_Source\PSoC6\pdl\middleware\ble/cy_ble_event_handler.c ****                 cy_ble_connHandle[((cy_stc_ble_conn_handle_t*)evParam)->attId] = *(cy_stc_ble_conn_
 677:Generated_Source\PSoC6\pdl\middleware\ble/cy_ble_event_handler.c ****             }
 678:Generated_Source\PSoC6\pdl\middleware\ble/cy_ble_event_handler.c **** 
 679:Generated_Source\PSoC6\pdl\middleware\ble/cy_ble_event_handler.c ****             cy_ble_busyStatus[((cy_stc_ble_conn_handle_t*)evParam)->attId] = CY_BLE_STACK_STATE_FRE
 680:Generated_Source\PSoC6\pdl\middleware\ble/cy_ble_event_handler.c **** 
 681:Generated_Source\PSoC6\pdl\middleware\ble/cy_ble_event_handler.c ****         #if ((CY_BLE_GATT_ROLE_SERVER) && (CY_BLE_GATT_DB_CCCD_COUNT != 0u) && \
 682:Generated_Source\PSoC6\pdl\middleware\ble/cy_ble_event_handler.c ****             (CY_BLE_BONDING_REQUIREMENT == CY_BLE_BONDING_YES))
 683:Generated_Source\PSoC6\pdl\middleware\ble/cy_ble_event_handler.c ****             
 684:Generated_Source\PSoC6\pdl\middleware\ble/cy_ble_event_handler.c ****             /* Initialize the CCCD values in the RAM when bonding is enabled */
 685:Generated_Source\PSoC6\pdl\middleware\ble/cy_ble_event_handler.c ****             (void)memcpy((uint8_t*)cy_ble_attValuesCccdMultiple[((cy_stc_ble_conn_handle_t*)evParam
 686:Generated_Source\PSoC6\pdl\middleware\ble/cy_ble_event_handler.c ****                          cy_ble_configPtr->flashStorage->attValuesCCCDFlashMemory[((cy_stc_ble_conn
 687:Generated_Source\PSoC6\pdl\middleware\ble/cy_ble_event_handler.c ****                                                                                    bdHandle],
 688:Generated_Source\PSoC6\pdl\middleware\ble/cy_ble_event_handler.c ****                          CY_BLE_GATT_DB_CCCD_COUNT + CY_BLE_CCCD_CRC_BYTE);
 689:Generated_Source\PSoC6\pdl\middleware\ble/cy_ble_event_handler.c **** 
 690:Generated_Source\PSoC6\pdl\middleware\ble/cy_ble_event_handler.c ****             /* Check CRC for CCCD data */
 691:Generated_Source\PSoC6\pdl\middleware\ble/cy_ble_event_handler.c ****             {
 692:Generated_Source\PSoC6\pdl\middleware\ble/cy_ble_event_handler.c ****                 uint8_t cccdCrc = Cy_BLE_HAL_CalcCRC8(cy_ble_attValuesCccdMultiple[((cy_stc_ble_con
 693:Generated_Source\PSoC6\pdl\middleware\ble/cy_ble_event_handler.c ****                                                       CY_BLE_GATT_DB_CCCD_COUNT);
 694:Generated_Source\PSoC6\pdl\middleware\ble/cy_ble_event_handler.c **** 
 695:Generated_Source\PSoC6\pdl\middleware\ble/cy_ble_event_handler.c ****                 if(cy_ble_attValuesCccdMultiple[((cy_stc_ble_conn_handle_t*)evParam)->attId][CY_BLE
 696:Generated_Source\PSoC6\pdl\middleware\ble/cy_ble_event_handler.c ****                 {
 697:Generated_Source\PSoC6\pdl\middleware\ble/cy_ble_event_handler.c ****                     /* Inform that the CRC for CCCD is wrong */
 698:Generated_Source\PSoC6\pdl\middleware\ble/cy_ble_event_handler.c ****                     Cy_BLE_ApplCallback((uint32_t)CY_BLE_EVT_GATTS_EVT_CCCD_CORRUPT, NULL);
 699:Generated_Source\PSoC6\pdl\middleware\ble/cy_ble_event_handler.c ****                     
 700:Generated_Source\PSoC6\pdl\middleware\ble/cy_ble_event_handler.c ****                     /* Clean the CCCD buffer in the RAM */
 701:Generated_Source\PSoC6\pdl\middleware\ble/cy_ble_event_handler.c ****                     (void)memset((uint8_t*)cy_ble_attValuesCccdMultiple[((cy_stc_ble_conn_handle_t*
 702:Generated_Source\PSoC6\pdl\middleware\ble/cy_ble_event_handler.c ****                                   0, CY_BLE_GATT_DB_CCCD_COUNT + CY_BLE_CCCD_CRC_BYTE);
 703:Generated_Source\PSoC6\pdl\middleware\ble/cy_ble_event_handler.c ****                 }            
 704:Generated_Source\PSoC6\pdl\middleware\ble/cy_ble_event_handler.c ****             }        
 705:Generated_Source\PSoC6\pdl\middleware\ble/cy_ble_event_handler.c ****         #endif /* CY_BLE_GATT_ROLE_SERVER && (CY_BLE_BONDING_REQUIREMENT == CY_BLE_BONDING_YES) */
 706:Generated_Source\PSoC6\pdl\middleware\ble/cy_ble_event_handler.c **** 
 707:Generated_Source\PSoC6\pdl\middleware\ble/cy_ble_event_handler.c ****             (void)Cy_BLE_InvokeServiceEventHandler((uint32_t)event, (void*)evParam);
 708:Generated_Source\PSoC6\pdl\middleware\ble/cy_ble_event_handler.c ****             break;
 709:Generated_Source\PSoC6\pdl\middleware\ble/cy_ble_event_handler.c **** 
 710:Generated_Source\PSoC6\pdl\middleware\ble/cy_ble_event_handler.c ****         case CY_BLE_EVT_GATT_DISCONNECT_IND:
 711:Generated_Source\PSoC6\pdl\middleware\ble/cy_ble_event_handler.c ****         #if (CY_BLE_GATT_ROLE_CLIENT)
 712:Generated_Source\PSoC6\pdl\middleware\ble/cy_ble_event_handler.c ****             if((Cy_BLE_GetConnectionState(*(cy_stc_ble_conn_handle_t*)evParam) == CY_BLE_CONN_STATE
 713:Generated_Source\PSoC6\pdl\middleware\ble/cy_ble_event_handler.c ****                (CY_BLE_BONDING_REQUIREMENT == CY_BLE_BONDING_YES))
 714:Generated_Source\PSoC6\pdl\middleware\ble/cy_ble_event_handler.c ****             {
 715:Generated_Source\PSoC6\pdl\middleware\ble/cy_ble_event_handler.c ****                 Cy_BLE_SetConnectionState(*(cy_stc_ble_conn_handle_t*)evParam,
 716:Generated_Source\PSoC6\pdl\middleware\ble/cy_ble_event_handler.c ****                                           CY_BLE_CONN_STATE_CLIENT_DISCONNECTED_DISCOVERED);
 717:Generated_Source\PSoC6\pdl\middleware\ble/cy_ble_event_handler.c ****             }
ARM GAS  C:\Users\JC\AppData\Local\Temp\ccavrowa.s 			page 45


 718:Generated_Source\PSoC6\pdl\middleware\ble/cy_ble_event_handler.c ****             else
 719:Generated_Source\PSoC6\pdl\middleware\ble/cy_ble_event_handler.c ****         #endif /* CY_BLE_GATT_ROLE_CLIENT */
 720:Generated_Source\PSoC6\pdl\middleware\ble/cy_ble_event_handler.c ****             {
 721:Generated_Source\PSoC6\pdl\middleware\ble/cy_ble_event_handler.c ****                 Cy_BLE_SetConnectionState(*(cy_stc_ble_conn_handle_t*)evParam, CY_BLE_CONN_STATE_DI
 722:Generated_Source\PSoC6\pdl\middleware\ble/cy_ble_event_handler.c ****             #if (CY_BLE_GATT_ROLE_CLIENT)
 723:Generated_Source\PSoC6\pdl\middleware\ble/cy_ble_event_handler.c ****                 (void)Cy_BLE_GATTC_RemoveConnHandle(*(cy_stc_ble_conn_handle_t*)evParam);
 724:Generated_Source\PSoC6\pdl\middleware\ble/cy_ble_event_handler.c ****             #endif /* CY_BLE_GATT_ROLE_CLIENT */
 725:Generated_Source\PSoC6\pdl\middleware\ble/cy_ble_event_handler.c ****             }
 726:Generated_Source\PSoC6\pdl\middleware\ble/cy_ble_event_handler.c **** 
 727:Generated_Source\PSoC6\pdl\middleware\ble/cy_ble_event_handler.c ****             #if ((CY_BLE_GAP_ROLE_PERIPHERAL || CY_BLE_GAP_ROLE_CENTRAL))
 728:Generated_Source\PSoC6\pdl\middleware\ble/cy_ble_event_handler.c ****                 cy_ble_pairStatus[(*(cy_stc_ble_conn_handle_t *)evParam).attId] = false;
 729:Generated_Source\PSoC6\pdl\middleware\ble/cy_ble_event_handler.c ****             #endif /*((CY_BLE_GAP_ROLE_PERIPHERAL || CY_BLE_GAP_ROLE_CENTRAL))*/
 730:Generated_Source\PSoC6\pdl\middleware\ble/cy_ble_event_handler.c ****         
 731:Generated_Source\PSoC6\pdl\middleware\ble/cy_ble_event_handler.c ****             (void)Cy_BLE_InvokeServiceEventHandler((uint32_t)event, (void*)evParam);
 732:Generated_Source\PSoC6\pdl\middleware\ble/cy_ble_event_handler.c ****             break;
 733:Generated_Source\PSoC6\pdl\middleware\ble/cy_ble_event_handler.c **** 
 734:Generated_Source\PSoC6\pdl\middleware\ble/cy_ble_event_handler.c ****         case CY_BLE_EVT_GATTS_XCNHG_MTU_REQ:
 735:Generated_Source\PSoC6\pdl\middleware\ble/cy_ble_event_handler.c ****         {
 736:Generated_Source\PSoC6\pdl\middleware\ble/cy_ble_event_handler.c ****             cy_stc_ble_gatt_xchg_mtu_param_t mtuParam;
 737:Generated_Source\PSoC6\pdl\middleware\ble/cy_ble_event_handler.c ****             mtuParam.connHandle = ((cy_stc_ble_gatt_xchg_mtu_param_t*)evParam)->connHandle;
 738:Generated_Source\PSoC6\pdl\middleware\ble/cy_ble_event_handler.c ****             mtuParam.mtu = CY_BLE_GATT_MTU;
 739:Generated_Source\PSoC6\pdl\middleware\ble/cy_ble_event_handler.c ****             
 740:Generated_Source\PSoC6\pdl\middleware\ble/cy_ble_event_handler.c ****             (void)Cy_BLE_GATTS_ExchangeMtuRsp(&mtuParam);
 741:Generated_Source\PSoC6\pdl\middleware\ble/cy_ble_event_handler.c ****         }
 742:Generated_Source\PSoC6\pdl\middleware\ble/cy_ble_event_handler.c ****         break;
 743:Generated_Source\PSoC6\pdl\middleware\ble/cy_ble_event_handler.c ****     #endif /* CY_BLE_GATT_ROLE_SERVER || CY_BLE_GATT_ROLE_CLIENT */
 744:Generated_Source\PSoC6\pdl\middleware\ble/cy_ble_event_handler.c **** 
 745:Generated_Source\PSoC6\pdl\middleware\ble/cy_ble_event_handler.c ****     #if (CY_BLE_GATT_ROLE_CLIENT)
 746:Generated_Source\PSoC6\pdl\middleware\ble/cy_ble_event_handler.c ****         case CY_BLE_EVT_GAPC_SCAN_PROGRESS_RESULT:
 747:Generated_Source\PSoC6\pdl\middleware\ble/cy_ble_event_handler.c ****             (void)Cy_BLE_InvokeServiceEventHandler((uint32_t)event, (void*)evParam);
 748:Generated_Source\PSoC6\pdl\middleware\ble/cy_ble_event_handler.c ****             break;
 749:Generated_Source\PSoC6\pdl\middleware\ble/cy_ble_event_handler.c ****     #endif /* CY_BLE_GATT_ROLE_CLIENT */
 750:Generated_Source\PSoC6\pdl\middleware\ble/cy_ble_event_handler.c **** 
 751:Generated_Source\PSoC6\pdl\middleware\ble/cy_ble_event_handler.c ****     #if (CY_BLE_GATT_ROLE_SERVER)
 752:Generated_Source\PSoC6\pdl\middleware\ble/cy_ble_event_handler.c ****         case CY_BLE_EVT_GATTS_WRITE_REQ:
 753:Generated_Source\PSoC6\pdl\middleware\ble/cy_ble_event_handler.c ****         {
 754:Generated_Source\PSoC6\pdl\middleware\ble/cy_ble_event_handler.c ****             cy_en_ble_gatt_err_code_t gattErr;
 755:Generated_Source\PSoC6\pdl\middleware\ble/cy_ble_event_handler.c ****             cy_ble_gatt_db_attr_handle_t attrHandle;
 756:Generated_Source\PSoC6\pdl\middleware\ble/cy_ble_event_handler.c **** 
 757:Generated_Source\PSoC6\pdl\middleware\ble/cy_ble_event_handler.c ****             /* Process GATT service */
 758:Generated_Source\PSoC6\pdl\middleware\ble/cy_ble_event_handler.c ****             gattErr = Cy_BLE_GATTS_WriteEventHandler((cy_stc_ble_gatts_write_cmd_req_param_t*)evPar
 759:Generated_Source\PSoC6\pdl\middleware\ble/cy_ble_event_handler.c ****             
 760:Generated_Source\PSoC6\pdl\middleware\ble/cy_ble_event_handler.c ****             /* Process all registered service */
 761:Generated_Source\PSoC6\pdl\middleware\ble/cy_ble_event_handler.c ****             if(gattErr == CY_BLE_GATT_ERR_NONE)
 762:Generated_Source\PSoC6\pdl\middleware\ble/cy_ble_event_handler.c ****             {
 763:Generated_Source\PSoC6\pdl\middleware\ble/cy_ble_event_handler.c ****                 gattErr = Cy_BLE_InvokeServiceEventHandler((uint32_t)event, (void*)evParam);
 764:Generated_Source\PSoC6\pdl\middleware\ble/cy_ble_event_handler.c ****             }
 765:Generated_Source\PSoC6\pdl\middleware\ble/cy_ble_event_handler.c ****             /* Send response if event was handled by the service */
 766:Generated_Source\PSoC6\pdl\middleware\ble/cy_ble_event_handler.c ****             Cy_BLE_SendWriteResponse((cy_stc_ble_gatts_write_cmd_req_param_t*)evParam, gattErr);
 767:Generated_Source\PSoC6\pdl\middleware\ble/cy_ble_event_handler.c **** 
 768:Generated_Source\PSoC6\pdl\middleware\ble/cy_ble_event_handler.c ****             /* Call Cy_BLE_ApplCallback if event was not processed */
 769:Generated_Source\PSoC6\pdl\middleware\ble/cy_ble_event_handler.c ****             if((cy_ble_eventHandlerFlag & (CY_BLE_CALLBACK | CY_BLE_ENABLE_ALL_EVENTS)) != 0u)
 770:Generated_Source\PSoC6\pdl\middleware\ble/cy_ble_event_handler.c ****             {
 771:Generated_Source\PSoC6\pdl\middleware\ble/cy_ble_event_handler.c ****                 Cy_BLE_ApplCallback((uint32_t)event, evParam);
 772:Generated_Source\PSoC6\pdl\middleware\ble/cy_ble_event_handler.c ****             }
 773:Generated_Source\PSoC6\pdl\middleware\ble/cy_ble_event_handler.c **** 
 774:Generated_Source\PSoC6\pdl\middleware\ble/cy_ble_event_handler.c ****             /* Send Error response if unknown attr handle */
ARM GAS  C:\Users\JC\AppData\Local\Temp\ccavrowa.s 			page 46


 775:Generated_Source\PSoC6\pdl\middleware\ble/cy_ble_event_handler.c ****             attrHandle = ((cy_stc_ble_gatts_write_cmd_req_param_t*)evParam)->handleValPair.attrHand
 776:Generated_Source\PSoC6\pdl\middleware\ble/cy_ble_event_handler.c ****             if( ((cy_ble_eventHandlerFlag & CY_BLE_CALLBACK) != 0u) && 
 777:Generated_Source\PSoC6\pdl\middleware\ble/cy_ble_event_handler.c ****                 ((attrHandle > CY_BLE_GATT_DB_INDEX_COUNT) || (attrHandle == 0u)))
 778:Generated_Source\PSoC6\pdl\middleware\ble/cy_ble_event_handler.c ****             {
 779:Generated_Source\PSoC6\pdl\middleware\ble/cy_ble_event_handler.c ****                 /* Processing unknown attr handle (send an Error Response) */
 780:Generated_Source\PSoC6\pdl\middleware\ble/cy_ble_event_handler.c ****                 cy_stc_ble_gatt_err_param_t err_param;
 781:Generated_Source\PSoC6\pdl\middleware\ble/cy_ble_event_handler.c ****                 err_param.errInfo.opCode     = CY_BLE_GATT_WRITE_REQ;
 782:Generated_Source\PSoC6\pdl\middleware\ble/cy_ble_event_handler.c ****                 err_param.errInfo.attrHandle = ((cy_stc_ble_gatts_write_cmd_req_param_t*)evParam)->
 783:Generated_Source\PSoC6\pdl\middleware\ble/cy_ble_event_handler.c ****                 err_param.connHandle         = ((cy_stc_ble_gatts_write_cmd_req_param_t*)evParam)->
 784:Generated_Source\PSoC6\pdl\middleware\ble/cy_ble_event_handler.c ****                 err_param.errInfo.errorCode  = CY_BLE_GATT_ERR_INVALID_HANDLE;
 785:Generated_Source\PSoC6\pdl\middleware\ble/cy_ble_event_handler.c **** 
 786:Generated_Source\PSoC6\pdl\middleware\ble/cy_ble_event_handler.c ****                 (void)Cy_BLE_GATTS_ErrorRsp(&err_param);
 787:Generated_Source\PSoC6\pdl\middleware\ble/cy_ble_event_handler.c ****             }
 788:Generated_Source\PSoC6\pdl\middleware\ble/cy_ble_event_handler.c ****             
 789:Generated_Source\PSoC6\pdl\middleware\ble/cy_ble_event_handler.c ****             /* Indicate that request was handled */
 790:Generated_Source\PSoC6\pdl\middleware\ble/cy_ble_event_handler.c ****             cy_ble_eventHandlerFlag &= (uint8_t) ~CY_BLE_CALLBACK;
 791:Generated_Source\PSoC6\pdl\middleware\ble/cy_ble_event_handler.c ****         }
 792:Generated_Source\PSoC6\pdl\middleware\ble/cy_ble_event_handler.c ****         break;
 793:Generated_Source\PSoC6\pdl\middleware\ble/cy_ble_event_handler.c **** 
 794:Generated_Source\PSoC6\pdl\middleware\ble/cy_ble_event_handler.c ****         case CY_BLE_EVT_GATTS_WRITE_CMD_REQ:
 795:Generated_Source\PSoC6\pdl\middleware\ble/cy_ble_event_handler.c ****             (void)Cy_BLE_InvokeServiceEventHandler((uint32_t)event, (void*)evParam);
 796:Generated_Source\PSoC6\pdl\middleware\ble/cy_ble_event_handler.c ****             break;
 797:Generated_Source\PSoC6\pdl\middleware\ble/cy_ble_event_handler.c **** 
 798:Generated_Source\PSoC6\pdl\middleware\ble/cy_ble_event_handler.c ****         case CY_BLE_EVT_GATTS_PREP_WRITE_REQ:
 799:Generated_Source\PSoC6\pdl\middleware\ble/cy_ble_event_handler.c ****             (void)Cy_BLE_InvokeServiceEventHandler((uint32_t)event, (void*)evParam);
 800:Generated_Source\PSoC6\pdl\middleware\ble/cy_ble_event_handler.c ****             break;
 801:Generated_Source\PSoC6\pdl\middleware\ble/cy_ble_event_handler.c **** 
 802:Generated_Source\PSoC6\pdl\middleware\ble/cy_ble_event_handler.c ****         case CY_BLE_EVT_GATTS_EXEC_WRITE_REQ:
 803:Generated_Source\PSoC6\pdl\middleware\ble/cy_ble_event_handler.c ****             (void)Cy_BLE_InvokeServiceEventHandler((uint32_t)event, (void*)evParam);
 804:Generated_Source\PSoC6\pdl\middleware\ble/cy_ble_event_handler.c ****             break;
 805:Generated_Source\PSoC6\pdl\middleware\ble/cy_ble_event_handler.c **** 
 806:Generated_Source\PSoC6\pdl\middleware\ble/cy_ble_event_handler.c ****         case CY_BLE_EVT_GATTS_HANDLE_VALUE_CNF:
 807:Generated_Source\PSoC6\pdl\middleware\ble/cy_ble_event_handler.c ****             (void)Cy_BLE_InvokeServiceEventHandler((uint32_t)event, (void*)evParam);
 808:Generated_Source\PSoC6\pdl\middleware\ble/cy_ble_event_handler.c ****             break;
 809:Generated_Source\PSoC6\pdl\middleware\ble/cy_ble_event_handler.c **** 
 810:Generated_Source\PSoC6\pdl\middleware\ble/cy_ble_event_handler.c ****         case CY_BLE_EVT_GATTS_READ_CHAR_VAL_ACCESS_REQ:
 811:Generated_Source\PSoC6\pdl\middleware\ble/cy_ble_event_handler.c ****         #if (CY_BLE_GATT_DB_CCCD_COUNT != 0u)
 812:Generated_Source\PSoC6\pdl\middleware\ble/cy_ble_event_handler.c ****             (void)Cy_BLE_GATTS_ReadAttributeValueCCCDReqHandler((cy_stc_ble_gatts_char_val_read_req
 813:Generated_Source\PSoC6\pdl\middleware\ble/cy_ble_event_handler.c ****         #endif  /* (CY_BLE_GATT_DB_CCCD_COUNT != 0u) */
 814:Generated_Source\PSoC6\pdl\middleware\ble/cy_ble_event_handler.c ****             (void)Cy_BLE_InvokeServiceEventHandler((uint32_t)event, (void*)evParam);
 815:Generated_Source\PSoC6\pdl\middleware\ble/cy_ble_event_handler.c ****             break;
 816:Generated_Source\PSoC6\pdl\middleware\ble/cy_ble_event_handler.c ****     #endif /* CY_BLE_GATT_ROLE_SERVER */
 817:Generated_Source\PSoC6\pdl\middleware\ble/cy_ble_event_handler.c **** 
 818:Generated_Source\PSoC6\pdl\middleware\ble/cy_ble_event_handler.c ****     #if (CY_BLE_GATT_ROLE_CLIENT)
 819:Generated_Source\PSoC6\pdl\middleware\ble/cy_ble_event_handler.c ****         case CY_BLE_EVT_GATTC_READ_BY_GROUP_TYPE_RSP:
 820:Generated_Source\PSoC6\pdl\middleware\ble/cy_ble_event_handler.c ****             Cy_BLE_ReadByGroupEventHandler((cy_stc_ble_gattc_read_by_grp_rsp_param_t*)evParam);
 821:Generated_Source\PSoC6\pdl\middleware\ble/cy_ble_event_handler.c ****             break;
 822:Generated_Source\PSoC6\pdl\middleware\ble/cy_ble_event_handler.c **** 
 823:Generated_Source\PSoC6\pdl\middleware\ble/cy_ble_event_handler.c ****         case CY_BLE_EVT_GATTC_READ_BY_TYPE_RSP:
 824:Generated_Source\PSoC6\pdl\middleware\ble/cy_ble_event_handler.c ****             Cy_BLE_ReadByTypeEventHandler((cy_stc_ble_gattc_read_by_type_rsp_param_t*)evParam);
 825:Generated_Source\PSoC6\pdl\middleware\ble/cy_ble_event_handler.c ****             break;
 826:Generated_Source\PSoC6\pdl\middleware\ble/cy_ble_event_handler.c **** 
 827:Generated_Source\PSoC6\pdl\middleware\ble/cy_ble_event_handler.c ****         case CY_BLE_EVT_GATTC_READ_BLOB_RSP:
 828:Generated_Source\PSoC6\pdl\middleware\ble/cy_ble_event_handler.c ****             (void)Cy_BLE_InvokeServiceEventHandler((uint32_t)event, (void*)evParam);
 829:Generated_Source\PSoC6\pdl\middleware\ble/cy_ble_event_handler.c ****             break;
 830:Generated_Source\PSoC6\pdl\middleware\ble/cy_ble_event_handler.c **** 
 831:Generated_Source\PSoC6\pdl\middleware\ble/cy_ble_event_handler.c ****         case CY_BLE_EVT_GATTC_LONG_PROCEDURE_END:
ARM GAS  C:\Users\JC\AppData\Local\Temp\ccavrowa.s 			page 47


 832:Generated_Source\PSoC6\pdl\middleware\ble/cy_ble_event_handler.c ****             Cy_BLE_LongProcedureEndEventHandler(((cy_stc_ble_gattc_long_procedure_end_param_t*)evPa
 833:Generated_Source\PSoC6\pdl\middleware\ble/cy_ble_event_handler.c ****             break;
 834:Generated_Source\PSoC6\pdl\middleware\ble/cy_ble_event_handler.c **** 
 835:Generated_Source\PSoC6\pdl\middleware\ble/cy_ble_event_handler.c ****         case CY_BLE_EVT_GATTC_FIND_INFO_RSP:
 836:Generated_Source\PSoC6\pdl\middleware\ble/cy_ble_event_handler.c ****             Cy_BLE_FindInfoEventHandler((cy_stc_ble_gattc_find_info_rsp_param_t*)evParam);
 837:Generated_Source\PSoC6\pdl\middleware\ble/cy_ble_event_handler.c ****             break;
 838:Generated_Source\PSoC6\pdl\middleware\ble/cy_ble_event_handler.c **** 
 839:Generated_Source\PSoC6\pdl\middleware\ble/cy_ble_event_handler.c ****         case CY_BLE_EVT_GATTC_ERROR_RSP:
 840:Generated_Source\PSoC6\pdl\middleware\ble/cy_ble_event_handler.c ****             Cy_BLE_ErrorResponseEventHandler((cy_stc_ble_gatt_err_param_t*)evParam);
 841:Generated_Source\PSoC6\pdl\middleware\ble/cy_ble_event_handler.c ****             (void)Cy_BLE_InvokeServiceEventHandler((uint32_t)event, (void*)evParam);
 842:Generated_Source\PSoC6\pdl\middleware\ble/cy_ble_event_handler.c ****             break;
 843:Generated_Source\PSoC6\pdl\middleware\ble/cy_ble_event_handler.c **** 
 844:Generated_Source\PSoC6\pdl\middleware\ble/cy_ble_event_handler.c ****         case CY_BLE_EVT_GATTC_HANDLE_VALUE_NTF:
 845:Generated_Source\PSoC6\pdl\middleware\ble/cy_ble_event_handler.c ****             (void)Cy_BLE_InvokeServiceEventHandler((uint32_t)event, (void*)evParam);
 846:Generated_Source\PSoC6\pdl\middleware\ble/cy_ble_event_handler.c ****             break;
 847:Generated_Source\PSoC6\pdl\middleware\ble/cy_ble_event_handler.c **** 
 848:Generated_Source\PSoC6\pdl\middleware\ble/cy_ble_event_handler.c ****         case CY_BLE_EVT_GATTC_HANDLE_VALUE_IND:
 849:Generated_Source\PSoC6\pdl\middleware\ble/cy_ble_event_handler.c ****             Cy_BLE_GATTC_IndicationEventHandler((cy_stc_ble_gattc_handle_value_ind_param_t*)evParam
 850:Generated_Source\PSoC6\pdl\middleware\ble/cy_ble_event_handler.c ****             (void)Cy_BLE_InvokeServiceEventHandler((uint32_t)event, (void*)evParam);
 851:Generated_Source\PSoC6\pdl\middleware\ble/cy_ble_event_handler.c **** 
 852:Generated_Source\PSoC6\pdl\middleware\ble/cy_ble_event_handler.c ****             /* Respond with a Handle Value Confirmation when request handled */
 853:Generated_Source\PSoC6\pdl\middleware\ble/cy_ble_event_handler.c ****             if((cy_ble_eventHandlerFlag & CY_BLE_CALLBACK) == 0u)
 854:Generated_Source\PSoC6\pdl\middleware\ble/cy_ble_event_handler.c ****             {
 855:Generated_Source\PSoC6\pdl\middleware\ble/cy_ble_event_handler.c ****                 cy_stc_ble_gattc_confirmation_req_t confirmationParam;
 856:Generated_Source\PSoC6\pdl\middleware\ble/cy_ble_event_handler.c ****                 confirmationParam.connHandle = ((cy_stc_ble_gattc_handle_value_ind_param_t*)evParam
 857:Generated_Source\PSoC6\pdl\middleware\ble/cy_ble_event_handler.c **** 
 858:Generated_Source\PSoC6\pdl\middleware\ble/cy_ble_event_handler.c ****                 (void)Cy_BLE_GATTC_Confirmation(&confirmationParam);
 859:Generated_Source\PSoC6\pdl\middleware\ble/cy_ble_event_handler.c ****             }
 860:Generated_Source\PSoC6\pdl\middleware\ble/cy_ble_event_handler.c ****             break;
 861:Generated_Source\PSoC6\pdl\middleware\ble/cy_ble_event_handler.c **** 
 862:Generated_Source\PSoC6\pdl\middleware\ble/cy_ble_event_handler.c ****         case CY_BLE_EVT_GATTC_READ_RSP:
 863:Generated_Source\PSoC6\pdl\middleware\ble/cy_ble_event_handler.c ****             (void)Cy_BLE_InvokeServiceEventHandler((uint32_t)event, (void*)evParam);
 864:Generated_Source\PSoC6\pdl\middleware\ble/cy_ble_event_handler.c ****             break;
 865:Generated_Source\PSoC6\pdl\middleware\ble/cy_ble_event_handler.c **** 
 866:Generated_Source\PSoC6\pdl\middleware\ble/cy_ble_event_handler.c ****         case CY_BLE_EVT_GATTC_READ_MULTI_RSP:
 867:Generated_Source\PSoC6\pdl\middleware\ble/cy_ble_event_handler.c ****             (void)Cy_BLE_InvokeServiceEventHandler((uint32_t)event, (void*)evParam);
 868:Generated_Source\PSoC6\pdl\middleware\ble/cy_ble_event_handler.c ****             break;
 869:Generated_Source\PSoC6\pdl\middleware\ble/cy_ble_event_handler.c **** 
 870:Generated_Source\PSoC6\pdl\middleware\ble/cy_ble_event_handler.c ****         case CY_BLE_EVT_GATTC_WRITE_RSP:
 871:Generated_Source\PSoC6\pdl\middleware\ble/cy_ble_event_handler.c ****             (void)Cy_BLE_InvokeServiceEventHandler((uint32_t)event, (void*)evParam);
 872:Generated_Source\PSoC6\pdl\middleware\ble/cy_ble_event_handler.c ****             break;
 873:Generated_Source\PSoC6\pdl\middleware\ble/cy_ble_event_handler.c **** 
 874:Generated_Source\PSoC6\pdl\middleware\ble/cy_ble_event_handler.c ****         case CY_BLE_EVT_GATTC_EXEC_WRITE_RSP:
 875:Generated_Source\PSoC6\pdl\middleware\ble/cy_ble_event_handler.c ****             (void)Cy_BLE_InvokeServiceEventHandler((uint32_t)event, (void*)evParam);
 876:Generated_Source\PSoC6\pdl\middleware\ble/cy_ble_event_handler.c ****             break;
 877:Generated_Source\PSoC6\pdl\middleware\ble/cy_ble_event_handler.c ****             
 878:Generated_Source\PSoC6\pdl\middleware\ble/cy_ble_event_handler.c ****         case CY_BLE_EVT_GATTC_STOP_CMD_COMPLETE:
 879:Generated_Source\PSoC6\pdl\middleware\ble/cy_ble_event_handler.c ****             {
 880:Generated_Source\PSoC6\pdl\middleware\ble/cy_ble_event_handler.c ****                 uint32_t discIdx = Cy_BLE_GetDiscoveryIdx(*(cy_stc_ble_conn_handle_t *)evParam);
 881:Generated_Source\PSoC6\pdl\middleware\ble/cy_ble_event_handler.c ****                 if( (Cy_BLE_GetConnectionState(*(cy_stc_ble_conn_handle_t *)evParam) == CY_BLE_CONN
 882:Generated_Source\PSoC6\pdl\middleware\ble/cy_ble_event_handler.c ****                     (discIdx < CY_BLE_GATTC_COUNT) && (cy_ble_discovery[discIdx].autoDiscoveryFlag 
 883:Generated_Source\PSoC6\pdl\middleware\ble/cy_ble_event_handler.c ****                 {    
 884:Generated_Source\PSoC6\pdl\middleware\ble/cy_ble_event_handler.c ****                     
 885:Generated_Source\PSoC6\pdl\middleware\ble/cy_ble_event_handler.c ****                     cy_stc_ble_gattc_read_req_t readReqParam =
 886:Generated_Source\PSoC6\pdl\middleware\ble/cy_ble_event_handler.c ****                     {
 887:Generated_Source\PSoC6\pdl\middleware\ble/cy_ble_event_handler.c ****                         .attrHandle = cy_ble_discovery[discIdx].inclInfo.inclHandleRange.startHandl
 888:Generated_Source\PSoC6\pdl\middleware\ble/cy_ble_event_handler.c ****                         .connHandle = *(cy_stc_ble_conn_handle_t *)evParam
ARM GAS  C:\Users\JC\AppData\Local\Temp\ccavrowa.s 			page 48


 889:Generated_Source\PSoC6\pdl\middleware\ble/cy_ble_event_handler.c ****                     };
 890:Generated_Source\PSoC6\pdl\middleware\ble/cy_ble_event_handler.c ****                     
 891:Generated_Source\PSoC6\pdl\middleware\ble/cy_ble_event_handler.c ****                     /* Get the included service UUID when the included service uses a 128-bit
 892:Generated_Source\PSoC6\pdl\middleware\ble/cy_ble_event_handler.c ****                      * UUID, a Read Request is used. The Attribute Handle for the Read Request is
 893:Generated_Source\PSoC6\pdl\middleware\ble/cy_ble_event_handler.c ****                      * the Attribute Handle of the included service.
 894:Generated_Source\PSoC6\pdl\middleware\ble/cy_ble_event_handler.c ****                      */
 895:Generated_Source\PSoC6\pdl\middleware\ble/cy_ble_event_handler.c **** 
 896:Generated_Source\PSoC6\pdl\middleware\ble/cy_ble_event_handler.c ****                     if(Cy_BLE_GATTC_ReadCharacteristicValue(&readReqParam) != CY_BLE_SUCCESS)
 897:Generated_Source\PSoC6\pdl\middleware\ble/cy_ble_event_handler.c ****                     {
 898:Generated_Source\PSoC6\pdl\middleware\ble/cy_ble_event_handler.c ****                         Cy_BLE_ApplCallback((uint32_t)CY_BLE_EVT_GATTC_INCL_DISCOVERY_FAILED, (cy_s
 899:Generated_Source\PSoC6\pdl\middleware\ble/cy_ble_event_handler.c ****                         cy_ble_discovery[discIdx].autoDiscoveryFlag = 0u;
 900:Generated_Source\PSoC6\pdl\middleware\ble/cy_ble_event_handler.c ****                     }
 901:Generated_Source\PSoC6\pdl\middleware\ble/cy_ble_event_handler.c ****                     
 902:Generated_Source\PSoC6\pdl\middleware\ble/cy_ble_event_handler.c ****                     cy_ble_eventHandlerFlag &= (uint8_t) ~CY_BLE_CALLBACK;
 903:Generated_Source\PSoC6\pdl\middleware\ble/cy_ble_event_handler.c ****                 }
 904:Generated_Source\PSoC6\pdl\middleware\ble/cy_ble_event_handler.c ****             }     
 905:Generated_Source\PSoC6\pdl\middleware\ble/cy_ble_event_handler.c ****             break;
 906:Generated_Source\PSoC6\pdl\middleware\ble/cy_ble_event_handler.c ****     #endif /* CY_BLE_GATT_ROLE_CLIENT */
 907:Generated_Source\PSoC6\pdl\middleware\ble/cy_ble_event_handler.c **** 
 908:Generated_Source\PSoC6\pdl\middleware\ble/cy_ble_event_handler.c ****     #if ((CY_BLE_GAP_ROLE_PERIPHERAL || CY_BLE_GAP_ROLE_CENTRAL) && (CY_BLE_BONDING_REQUIREMENT == 
 909:Generated_Source\PSoC6\pdl\middleware\ble/cy_ble_event_handler.c ****         case CY_BLE_EVT_PENDING_FLASH_WRITE:
 910:Generated_Source\PSoC6\pdl\middleware\ble/cy_ble_event_handler.c ****             cy_ble_pendingFlashWrite |= CY_BLE_PENDING_STACK_FLASH_WRITE_BIT;
 911:Generated_Source\PSoC6\pdl\middleware\ble/cy_ble_event_handler.c ****             break;
 912:Generated_Source\PSoC6\pdl\middleware\ble/cy_ble_event_handler.c ****     #endif  /* (CY_BLE_BONDING_REQUIREMENT == CY_BLE_BONDING_YES) */
 913:Generated_Source\PSoC6\pdl\middleware\ble/cy_ble_event_handler.c **** 
 914:Generated_Source\PSoC6\pdl\middleware\ble/cy_ble_event_handler.c ****         default:
 915:Generated_Source\PSoC6\pdl\middleware\ble/cy_ble_event_handler.c ****             break;
 797              		.loc 2 915 0
 798 0066 74E3     		b	.L93
 799              	.L67:
 316:Generated_Source\PSoC6\pdl\middleware\ble/cy_ble_event_handler.c ****     {
 800              		.loc 2 316 0
 801 0068 41F20302 		movw	r2, #4099
 802 006c 9342     		cmp	r3, r2
 803 006e 00F07A81 		beq	.L70
 804 0072 41F20402 		movw	r2, #4100
 805 0076 9342     		cmp	r3, r2
 806 0078 00F05883 		beq	.L71
 807              		.loc 2 915 0
 808 007c 69E3     		b	.L93
 809              	.L65:
 316:Generated_Source\PSoC6\pdl\middleware\ble/cy_ble_event_handler.c ****     {
 810              		.loc 2 316 0
 811 007e 43F21902 		movw	r2, #12313
 812 0082 9342     		cmp	r3, r2
 813 0084 6FD0     		beq	.L72
 814 0086 43F21902 		movw	r2, #12313
 815 008a 9342     		cmp	r3, r2
 816 008c 0ADC     		bgt	.L73
 817 008e 43F20102 		movw	r2, #12289
 818 0092 9342     		cmp	r3, r2
 819 0094 00F0F680 		beq	.L74
 820 0098 43F21202 		movw	r2, #12306
 821 009c 9342     		cmp	r3, r2
 822 009e 00F0F180 		beq	.L74
 823              		.loc 2 915 0
 824 00a2 56E3     		b	.L93
ARM GAS  C:\Users\JC\AppData\Local\Temp\ccavrowa.s 			page 49


 825              	.L73:
 316:Generated_Source\PSoC6\pdl\middleware\ble/cy_ble_event_handler.c ****     {
 826              		.loc 2 316 0
 827 00a4 44F20402 		movw	r2, #16388
 828 00a8 9342     		cmp	r3, r2
 829 00aa 00F07C81 		beq	.L75
 830 00ae 44F20602 		movw	r2, #16390
 831 00b2 9342     		cmp	r3, r2
 832 00b4 00F0C181 		beq	.L76
 833 00b8 44F20102 		movw	r2, #16385
 834 00bc 9342     		cmp	r3, r2
 835 00be 00F03D83 		beq	.L114
 836              		.loc 2 915 0
 837 00c2 46E3     		b	.L93
 838              	.L63:
 316:Generated_Source\PSoC6\pdl\middleware\ble/cy_ble_event_handler.c ****     {
 839              		.loc 2 316 0
 840 00c4 45F20C02 		movw	r2, #20492
 841 00c8 9342     		cmp	r3, r2
 842 00ca 00F0C182 		beq	.L78
 843 00ce 45F20C02 		movw	r2, #20492
 844 00d2 9342     		cmp	r3, r2
 845 00d4 23DC     		bgt	.L79
 846 00d6 44F21002 		movw	r2, #16400
 847 00da 9342     		cmp	r3, r2
 848 00dc 00F08881 		beq	.L62
 849 00e0 44F21002 		movw	r2, #16400
 850 00e4 9342     		cmp	r3, r2
 851 00e6 0ADC     		bgt	.L80
 852 00e8 44F20802 		movw	r2, #16392
 853 00ec 9342     		cmp	r3, r2
 854 00ee 00F0A081 		beq	.L81
 855 00f2 44F20A02 		movw	r2, #16394
 856 00f6 9342     		cmp	r3, r2
 857 00f8 00F07481 		beq	.L82
 858              		.loc 2 915 0
 859 00fc 29E3     		b	.L93
 860              	.L80:
 316:Generated_Source\PSoC6\pdl\middleware\ble/cy_ble_event_handler.c ****     {
 861              		.loc 2 316 0
 862 00fe 45F20202 		movw	r2, #20482
 863 0102 9342     		cmp	r3, r2
 864 0104 00F06282 		beq	.L83
 865 0108 45F20302 		movw	r2, #20483
 866 010c 9342     		cmp	r3, r2
 867 010e 00F07582 		beq	.L84
 868 0112 45F20102 		movw	r2, #20481
 869 0116 9342     		cmp	r3, r2
 870 0118 00F0EE81 		beq	.L85
 871              		.loc 2 915 0
 872 011c 19E3     		b	.L93
 873              	.L79:
 316:Generated_Source\PSoC6\pdl\middleware\ble/cy_ble_event_handler.c ****     {
 874              		.loc 2 316 0
 875 011e 45F21002 		movw	r2, #20496
 876 0122 9342     		cmp	r3, r2
 877 0124 00F0ED82 		beq	.L86
ARM GAS  C:\Users\JC\AppData\Local\Temp\ccavrowa.s 			page 50


 878 0128 45F21002 		movw	r2, #20496
 879 012c 9342     		cmp	r3, r2
 880 012e 0ADC     		bgt	.L87
 881 0130 45F20E02 		movw	r2, #20494
 882 0134 9342     		cmp	r3, r2
 883 0136 00F0D882 		beq	.L88
 884 013a 45F20F02 		movw	r2, #20495
 885 013e 9342     		cmp	r3, r2
 886 0140 00F0D982 		beq	.L89
 887              		.loc 2 915 0
