ARM GAS  C:\Users\JC\AppData\Local\Temp\ccNOiAvA.s 			page 1


   1              		.syntax unified
   2              		.cpu cortex-m4
   3              		.eabi_attribute 27, 1
   4              		.fpu fpv4-sp-d16
   5              		.eabi_attribute 20, 1
   6              		.eabi_attribute 21, 1
   7              		.eabi_attribute 23, 3
   8              		.eabi_attribute 24, 1
   9              		.eabi_attribute 25, 1
  10              		.eabi_attribute 26, 1
  11              		.eabi_attribute 30, 6
  12              		.eabi_attribute 34, 1
  13              		.eabi_attribute 18, 4
  14              		.thumb
  15              		.syntax unified
  16              		.file	"cy_ble.c"
  17              		.text
  18              	.Ltext0:
  19              		.cfi_sections	.debug_frame
  20              		.section	.text.Cy_BLE_SetAdvertisementState,"ax",%progbits
  21              		.align	2
  22              		.thumb
  23              		.thumb_func
  24              		.type	Cy_BLE_SetAdvertisementState, %function
  25              	Cy_BLE_SetAdvertisementState:
  26              	.LFB171:
  27              		.file 1 "Generated_Source\\PSoC6\\pdl\\middleware\\ble\\cy_ble_gap.h"
   1:Generated_Source\PSoC6\pdl\middleware\ble/cy_ble_gap.h **** /***************************************************************************//**
   2:Generated_Source\PSoC6\pdl\middleware\ble/cy_ble_gap.h **** * \file cy_ble_gap.h
   3:Generated_Source\PSoC6\pdl\middleware\ble/cy_ble_gap.h **** * \version 2.60
   4:Generated_Source\PSoC6\pdl\middleware\ble/cy_ble_gap.h **** *
   5:Generated_Source\PSoC6\pdl\middleware\ble/cy_ble_gap.h **** * \brief
   6:Generated_Source\PSoC6\pdl\middleware\ble/cy_ble_gap.h **** *  Contains the prototypes and constants used in the BLE GAP profile.
   7:Generated_Source\PSoC6\pdl\middleware\ble/cy_ble_gap.h **** *
   8:Generated_Source\PSoC6\pdl\middleware\ble/cy_ble_gap.h **** ********************************************************************************
   9:Generated_Source\PSoC6\pdl\middleware\ble/cy_ble_gap.h **** * \copyright
  10:Generated_Source\PSoC6\pdl\middleware\ble/cy_ble_gap.h **** * Copyright 2017-2020, Cypress Semiconductor Corporation.  All rights reserved.
  11:Generated_Source\PSoC6\pdl\middleware\ble/cy_ble_gap.h **** * You may use this file only in accordance with the license, terms, conditions,
  12:Generated_Source\PSoC6\pdl\middleware\ble/cy_ble_gap.h **** * disclaimers, and limitations in the end user license agreement accompanying
  13:Generated_Source\PSoC6\pdl\middleware\ble/cy_ble_gap.h **** * the software package with which this file was provided.
  14:Generated_Source\PSoC6\pdl\middleware\ble/cy_ble_gap.h **** *******************************************************************************/
  15:Generated_Source\PSoC6\pdl\middleware\ble/cy_ble_gap.h **** 
  16:Generated_Source\PSoC6\pdl\middleware\ble/cy_ble_gap.h **** 
  17:Generated_Source\PSoC6\pdl\middleware\ble/cy_ble_gap.h **** #ifndef CY_BLE_GAP_H
  18:Generated_Source\PSoC6\pdl\middleware\ble/cy_ble_gap.h **** #define CY_BLE_GAP_H
  19:Generated_Source\PSoC6\pdl\middleware\ble/cy_ble_gap.h ****     
  20:Generated_Source\PSoC6\pdl\middleware\ble/cy_ble_gap.h **** #include "cy_ble_config.h"
  21:Generated_Source\PSoC6\pdl\middleware\ble/cy_ble_gap.h **** 
  22:Generated_Source\PSoC6\pdl\middleware\ble/cy_ble_gap.h **** /***************************************
  23:Generated_Source\PSoC6\pdl\middleware\ble/cy_ble_gap.h **** * BLE Stack includes
  24:Generated_Source\PSoC6\pdl\middleware\ble/cy_ble_gap.h **** ***************************************/
  25:Generated_Source\PSoC6\pdl\middleware\ble/cy_ble_gap.h **** #include "cy_ble_stack_gatt.h"    
  26:Generated_Source\PSoC6\pdl\middleware\ble/cy_ble_gap.h **** #include "cy_ble_stack_gap.h"
  27:Generated_Source\PSoC6\pdl\middleware\ble/cy_ble_gap.h **** #include "cy_ble_stack_gap_central.h"
  28:Generated_Source\PSoC6\pdl\middleware\ble/cy_ble_gap.h **** #include "cy_ble_stack_gap_peripheral.h"
  29:Generated_Source\PSoC6\pdl\middleware\ble/cy_ble_gap.h **** 
  30:Generated_Source\PSoC6\pdl\middleware\ble/cy_ble_gap.h **** /* C binding of definitions if building with C++ compiler */
ARM GAS  C:\Users\JC\AppData\Local\Temp\ccNOiAvA.s 			page 2


  31:Generated_Source\PSoC6\pdl\middleware\ble/cy_ble_gap.h **** #ifdef __cplusplus
  32:Generated_Source\PSoC6\pdl\middleware\ble/cy_ble_gap.h **** extern "C" {
  33:Generated_Source\PSoC6\pdl\middleware\ble/cy_ble_gap.h **** #endif /* __cplusplus */
  34:Generated_Source\PSoC6\pdl\middleware\ble/cy_ble_gap.h **** 
  35:Generated_Source\PSoC6\pdl\middleware\ble/cy_ble_gap.h **** /***************************************
  36:Generated_Source\PSoC6\pdl\middleware\ble/cy_ble_gap.h **** * Conditional Compilation Parameters
  37:Generated_Source\PSoC6\pdl\middleware\ble/cy_ble_gap.h **** ***************************************/
  38:Generated_Source\PSoC6\pdl\middleware\ble/cy_ble_gap.h **** /**
  39:Generated_Source\PSoC6\pdl\middleware\ble/cy_ble_gap.h ****  * The BLE operation mode.
  40:Generated_Source\PSoC6\pdl\middleware\ble/cy_ble_gap.h ****  */
  41:Generated_Source\PSoC6\pdl\middleware\ble/cy_ble_gap.h **** #define CY_BLE_MODE                          (CY_BLE_CONFIG_MODE)
  42:Generated_Source\PSoC6\pdl\middleware\ble/cy_ble_gap.h **** 
  43:Generated_Source\PSoC6\pdl\middleware\ble/cy_ble_gap.h **** /** 
  44:Generated_Source\PSoC6\pdl\middleware\ble/cy_ble_gap.h ****  * Maximum number of BLE connections
  45:Generated_Source\PSoC6\pdl\middleware\ble/cy_ble_gap.h ****  * This parameter displays how many BLE connections (both Central and 
  46:Generated_Source\PSoC6\pdl\middleware\ble/cy_ble_gap.h ****  * Peripheral) are allowed. Valid range is from 1 to 4.
  47:Generated_Source\PSoC6\pdl\middleware\ble/cy_ble_gap.h ****  */
  48:Generated_Source\PSoC6\pdl\middleware\ble/cy_ble_gap.h **** #define CY_BLE_CONN_COUNT                    (CY_BLE_CONFIG_CONN_COUNT)
  49:Generated_Source\PSoC6\pdl\middleware\ble/cy_ble_gap.h ****  
  50:Generated_Source\PSoC6\pdl\middleware\ble/cy_ble_gap.h **** /**
  51:Generated_Source\PSoC6\pdl\middleware\ble/cy_ble_gap.h ****  * The GAP Role 
  52:Generated_Source\PSoC6\pdl\middleware\ble/cy_ble_gap.h ****  * The following defined mask can be used:
  53:Generated_Source\PSoC6\pdl\middleware\ble/cy_ble_gap.h ****  * CY_BLE_GAP_PERIPHERAL  (0x01u) - device operates as peripheral.
  54:Generated_Source\PSoC6\pdl\middleware\ble/cy_ble_gap.h ****  * CY_BLE_GAP_CENTRAL     (0x02u) - device operates as central. 
  55:Generated_Source\PSoC6\pdl\middleware\ble/cy_ble_gap.h ****  * CY_BLE_GAP_BROADCASTER (0x04u) - device operates as broadcaster.
  56:Generated_Source\PSoC6\pdl\middleware\ble/cy_ble_gap.h ****  * CY_BLE_GAP_OBSERVER    (0x08u) - device operates as observer.
  57:Generated_Source\PSoC6\pdl\middleware\ble/cy_ble_gap.h ****  * CY_BLE_GAP_HCI         (0x00u) - used when BLE operates in HCI mode.
  58:Generated_Source\PSoC6\pdl\middleware\ble/cy_ble_gap.h ****  */ 
  59:Generated_Source\PSoC6\pdl\middleware\ble/cy_ble_gap.h **** #define CY_BLE_GAP_ROLE                       (CY_BLE_CONFIG_GAP_ROLE)
  60:Generated_Source\PSoC6\pdl\middleware\ble/cy_ble_gap.h **** 
  61:Generated_Source\PSoC6\pdl\middleware\ble/cy_ble_gap.h **** /** The number of GAP Peripheral configurations structures */
  62:Generated_Source\PSoC6\pdl\middleware\ble/cy_ble_gap.h **** #define CY_BLE_GAP_PERIPHERAL_COUNT           (CY_BLE_CONFIG_GAP_PERIPHERAL_COUNT)
  63:Generated_Source\PSoC6\pdl\middleware\ble/cy_ble_gap.h **** 
  64:Generated_Source\PSoC6\pdl\middleware\ble/cy_ble_gap.h **** /** The number of GAP Broadcaster configurations structures */
  65:Generated_Source\PSoC6\pdl\middleware\ble/cy_ble_gap.h **** #define CY_BLE_GAP_BROADCASTER_COUNT          (CY_BLE_CONFIG_GAP_BROADCASTER_COUNT)
  66:Generated_Source\PSoC6\pdl\middleware\ble/cy_ble_gap.h **** 
  67:Generated_Source\PSoC6\pdl\middleware\ble/cy_ble_gap.h **** /** The number of GAP Central configurations structures */
  68:Generated_Source\PSoC6\pdl\middleware\ble/cy_ble_gap.h **** #define CY_BLE_GAP_CENTRAL_COUNT              (CY_BLE_CONFIG_GAP_CENTRAL_COUNT)
  69:Generated_Source\PSoC6\pdl\middleware\ble/cy_ble_gap.h **** 
  70:Generated_Source\PSoC6\pdl\middleware\ble/cy_ble_gap.h **** /** The number of GAP Observer configurations structures */
  71:Generated_Source\PSoC6\pdl\middleware\ble/cy_ble_gap.h **** #define CY_BLE_GAP_OBSERVER_COUNT             (CY_BLE_CONFIG_GAP_OBSERVER_COUNT)
  72:Generated_Source\PSoC6\pdl\middleware\ble/cy_ble_gap.h **** 
  73:Generated_Source\PSoC6\pdl\middleware\ble/cy_ble_gap.h **** /** The number of Security configurations structures */
  74:Generated_Source\PSoC6\pdl\middleware\ble/cy_ble_gap.h **** #define CY_BLE_AUTH_INFO_COUNT                (CY_BLE_CONFIG_AUTH_INFO_COUNT)
  75:Generated_Source\PSoC6\pdl\middleware\ble/cy_ble_gap.h **** 
  76:Generated_Source\PSoC6\pdl\middleware\ble/cy_ble_gap.h **** /** The Bonding Requirement structures */
  77:Generated_Source\PSoC6\pdl\middleware\ble/cy_ble_gap.h **** #define CY_BLE_BONDING_REQUIREMENT            (CY_BLE_CONFIG_BONDING_REQUIREMENT)
  78:Generated_Source\PSoC6\pdl\middleware\ble/cy_ble_gap.h **** 
  79:Generated_Source\PSoC6\pdl\middleware\ble/cy_ble_gap.h **** /** The GAP Role defines */
  80:Generated_Source\PSoC6\pdl\middleware\ble/cy_ble_gap.h **** #define CY_BLE_GAP_ROLE_PERIPHERAL            (0u != (CY_BLE_GAP_ROLE & CY_BLE_GAP_PERIPHERAL))
  81:Generated_Source\PSoC6\pdl\middleware\ble/cy_ble_gap.h **** #define CY_BLE_GAP_ROLE_CENTRAL               (0u != (CY_BLE_GAP_ROLE & CY_BLE_GAP_CENTRAL))
  82:Generated_Source\PSoC6\pdl\middleware\ble/cy_ble_gap.h **** #define CY_BLE_GAP_ROLE_OBSERVER              (0u != (CY_BLE_GAP_ROLE & CY_BLE_GAP_OBSERVER))
  83:Generated_Source\PSoC6\pdl\middleware\ble/cy_ble_gap.h **** #define CY_BLE_GAP_ROLE_BROADCASTER           (0u != (CY_BLE_GAP_ROLE & CY_BLE_GAP_BROADCASTER))
  84:Generated_Source\PSoC6\pdl\middleware\ble/cy_ble_gap.h **** 
  85:Generated_Source\PSoC6\pdl\middleware\ble/cy_ble_gap.h **** #define CY_BLE_GAPP_CONF_COUNT                (CY_BLE_GAP_PERIPHERAL_COUNT + CY_BLE_GAP_BROADCASTER
  86:Generated_Source\PSoC6\pdl\middleware\ble/cy_ble_gap.h **** #define CY_BLE_GAPC_CONF_COUNT                (CY_BLE_GAP_CENTRAL_COUNT + CY_BLE_GAP_OBSERVER_COUNT
  87:Generated_Source\PSoC6\pdl\middleware\ble/cy_ble_gap.h **** 
ARM GAS  C:\Users\JC\AppData\Local\Temp\ccNOiAvA.s 			page 3


  88:Generated_Source\PSoC6\pdl\middleware\ble/cy_ble_gap.h **** /***************************************
  89:Generated_Source\PSoC6\pdl\middleware\ble/cy_ble_gap.h **** * Type Definitions
  90:Generated_Source\PSoC6\pdl\middleware\ble/cy_ble_gap.h **** ***************************************/
  91:Generated_Source\PSoC6\pdl\middleware\ble/cy_ble_gap.h **** 
  92:Generated_Source\PSoC6\pdl\middleware\ble/cy_ble_gap.h **** #if (CY_BLE_MODE_PROFILE)
  93:Generated_Source\PSoC6\pdl\middleware\ble/cy_ble_gap.h **** 
  94:Generated_Source\PSoC6\pdl\middleware\ble/cy_ble_gap.h **** /***************************************
  95:Generated_Source\PSoC6\pdl\middleware\ble/cy_ble_gap.h **** * Enumerated Types and Structures
  96:Generated_Source\PSoC6\pdl\middleware\ble/cy_ble_gap.h **** ***************************************/
  97:Generated_Source\PSoC6\pdl\middleware\ble/cy_ble_gap.h **** 
  98:Generated_Source\PSoC6\pdl\middleware\ble/cy_ble_gap.h **** /**
  99:Generated_Source\PSoC6\pdl\middleware\ble/cy_ble_gap.h ****  * \addtogroup group_ble_common_api_gap_definitions
 100:Generated_Source\PSoC6\pdl\middleware\ble/cy_ble_gap.h ****  * @{
 101:Generated_Source\PSoC6\pdl\middleware\ble/cy_ble_gap.h ****  */
 102:Generated_Source\PSoC6\pdl\middleware\ble/cy_ble_gap.h **** 
 103:Generated_Source\PSoC6\pdl\middleware\ble/cy_ble_gap.h **** /** BLE state machine type */
 104:Generated_Source\PSoC6\pdl\middleware\ble/cy_ble_gap.h **** typedef enum
 105:Generated_Source\PSoC6\pdl\middleware\ble/cy_ble_gap.h **** {
 106:Generated_Source\PSoC6\pdl\middleware\ble/cy_ble_gap.h ****     CY_BLE_STATE_STOPPED,                             /**< BLE is turned off */
 107:Generated_Source\PSoC6\pdl\middleware\ble/cy_ble_gap.h ****     CY_BLE_STATE_INITIALIZING,                        /**< Initializing state */
 108:Generated_Source\PSoC6\pdl\middleware\ble/cy_ble_gap.h ****     CY_BLE_STATE_ON,                                  /**< BLE is turned on */
 109:Generated_Source\PSoC6\pdl\middleware\ble/cy_ble_gap.h **** #if (CY_BLE_GAP_ROLE_CENTRAL)
 110:Generated_Source\PSoC6\pdl\middleware\ble/cy_ble_gap.h ****     CY_BLE_STATE_CONNECTING,                          /**< Connecting */
 111:Generated_Source\PSoC6\pdl\middleware\ble/cy_ble_gap.h **** #endif /* CY_BLE_GAP_ROLE_CENTRAL */
 112:Generated_Source\PSoC6\pdl\middleware\ble/cy_ble_gap.h **** } cy_en_ble_state_t;
 113:Generated_Source\PSoC6\pdl\middleware\ble/cy_ble_gap.h **** 
 114:Generated_Source\PSoC6\pdl\middleware\ble/cy_ble_gap.h **** 
 115:Generated_Source\PSoC6\pdl\middleware\ble/cy_ble_gap.h **** /** Scanning state machine type */
 116:Generated_Source\PSoC6\pdl\middleware\ble/cy_ble_gap.h **** typedef enum
 117:Generated_Source\PSoC6\pdl\middleware\ble/cy_ble_gap.h **** {
 118:Generated_Source\PSoC6\pdl\middleware\ble/cy_ble_gap.h ****     CY_BLE_SCAN_STATE_STOPPED,                        /**< Scanning is stopped */
 119:Generated_Source\PSoC6\pdl\middleware\ble/cy_ble_gap.h ****     CY_BLE_SCAN_STATE_SCAN_INITIATED,                 /**< Scanning is initiated */
 120:Generated_Source\PSoC6\pdl\middleware\ble/cy_ble_gap.h ****     CY_BLE_SCAN_STATE_SCANNING,                       /**< Scanning process */
 121:Generated_Source\PSoC6\pdl\middleware\ble/cy_ble_gap.h ****     CY_BLE_SCAN_STATE_STOP_INITIATED                  /**< Stop scanning is initiated */
 122:Generated_Source\PSoC6\pdl\middleware\ble/cy_ble_gap.h **** } cy_en_ble_scan_state_t;
 123:Generated_Source\PSoC6\pdl\middleware\ble/cy_ble_gap.h **** 
 124:Generated_Source\PSoC6\pdl\middleware\ble/cy_ble_gap.h **** /** Advertising state machine type */
 125:Generated_Source\PSoC6\pdl\middleware\ble/cy_ble_gap.h **** typedef enum
 126:Generated_Source\PSoC6\pdl\middleware\ble/cy_ble_gap.h **** {
 127:Generated_Source\PSoC6\pdl\middleware\ble/cy_ble_gap.h ****     CY_BLE_ADV_STATE_STOPPED,                         /**< Advertising is stopped */
 128:Generated_Source\PSoC6\pdl\middleware\ble/cy_ble_gap.h ****     CY_BLE_ADV_STATE_ADV_INITIATED,                   /**< Advertising is initiated */
 129:Generated_Source\PSoC6\pdl\middleware\ble/cy_ble_gap.h ****     CY_BLE_ADV_STATE_ADVERTISING,                     /**< Advertising process */
 130:Generated_Source\PSoC6\pdl\middleware\ble/cy_ble_gap.h ****     CY_BLE_ADV_STATE_STOP_INITIATED                   /**< Stop advertising is initiated */
 131:Generated_Source\PSoC6\pdl\middleware\ble/cy_ble_gap.h **** } cy_en_ble_adv_state_t;
 132:Generated_Source\PSoC6\pdl\middleware\ble/cy_ble_gap.h **** 
 133:Generated_Source\PSoC6\pdl\middleware\ble/cy_ble_gap.h **** /** Connection state machine type */
 134:Generated_Source\PSoC6\pdl\middleware\ble/cy_ble_gap.h **** typedef enum
 135:Generated_Source\PSoC6\pdl\middleware\ble/cy_ble_gap.h **** {
 136:Generated_Source\PSoC6\pdl\middleware\ble/cy_ble_gap.h ****     CY_BLE_CONN_STATE_DISCONNECTED,                   /**< Essentially idle state */
 137:Generated_Source\PSoC6\pdl\middleware\ble/cy_ble_gap.h ****     CY_BLE_CONN_STATE_CLIENT_DISCONNECTED_DISCOVERED, /**< Server is disconnected but discovered */
 138:Generated_Source\PSoC6\pdl\middleware\ble/cy_ble_gap.h ****     CY_BLE_CONN_STATE_CONNECTED,                      /**< Peer device is connected for this and fo
 139:Generated_Source\PSoC6\pdl\middleware\ble/cy_ble_gap.h ****     CY_BLE_CONN_STATE_CLIENT_SRVC_DISCOVERING,        /**< Server services are being discovered */
 140:Generated_Source\PSoC6\pdl\middleware\ble/cy_ble_gap.h ****     CY_BLE_CONN_STATE_CLIENT_INCL_DISCOVERING,        /**< Server included services are being disco
 141:Generated_Source\PSoC6\pdl\middleware\ble/cy_ble_gap.h ****     CY_BLE_CONN_STATE_CLIENT_CHAR_DISCOVERING,        /**< Server characteristics are being discove
 142:Generated_Source\PSoC6\pdl\middleware\ble/cy_ble_gap.h ****     CY_BLE_CONN_STATE_CLIENT_DESCR_DISCOVERING,       /**< Server char. descriptors are being disco
 143:Generated_Source\PSoC6\pdl\middleware\ble/cy_ble_gap.h ****     CY_BLE_CONN_STATE_CLIENT_DISCOVERED               /**< Server is discovered */
 144:Generated_Source\PSoC6\pdl\middleware\ble/cy_ble_gap.h **** } cy_en_ble_conn_state_t;
ARM GAS  C:\Users\JC\AppData\Local\Temp\ccNOiAvA.s 			page 4


 145:Generated_Source\PSoC6\pdl\middleware\ble/cy_ble_gap.h **** 
 146:Generated_Source\PSoC6\pdl\middleware\ble/cy_ble_gap.h **** /** Structure with Generic Access Profile Service (GAPS) attribute handles */
 147:Generated_Source\PSoC6\pdl\middleware\ble/cy_ble_gap.h **** typedef struct
 148:Generated_Source\PSoC6\pdl\middleware\ble/cy_ble_gap.h **** {
 149:Generated_Source\PSoC6\pdl\middleware\ble/cy_ble_gap.h ****     /** Service handle*/
 150:Generated_Source\PSoC6\pdl\middleware\ble/cy_ble_gap.h ****     cy_ble_gatt_db_attr_handle_t serviceHandle;
 151:Generated_Source\PSoC6\pdl\middleware\ble/cy_ble_gap.h **** 
 152:Generated_Source\PSoC6\pdl\middleware\ble/cy_ble_gap.h ****     /** Handle of the GAPS Device Name Characteristic */
 153:Generated_Source\PSoC6\pdl\middleware\ble/cy_ble_gap.h ****     cy_ble_gatt_db_attr_handle_t deviceNameCharHandle;
 154:Generated_Source\PSoC6\pdl\middleware\ble/cy_ble_gap.h **** 
 155:Generated_Source\PSoC6\pdl\middleware\ble/cy_ble_gap.h ****     /** Handle of the GAPS Appearance Characteristic */
 156:Generated_Source\PSoC6\pdl\middleware\ble/cy_ble_gap.h ****     cy_ble_gatt_db_attr_handle_t appearanceCharHandle;
 157:Generated_Source\PSoC6\pdl\middleware\ble/cy_ble_gap.h **** 
 158:Generated_Source\PSoC6\pdl\middleware\ble/cy_ble_gap.h ****     /** Handle of the GAPS Peripheral Preferred Connection Parameters Characteristic */
 159:Generated_Source\PSoC6\pdl\middleware\ble/cy_ble_gap.h ****     cy_ble_gatt_db_attr_handle_t prefConnParamCharHandle;
 160:Generated_Source\PSoC6\pdl\middleware\ble/cy_ble_gap.h **** 
 161:Generated_Source\PSoC6\pdl\middleware\ble/cy_ble_gap.h ****     /** Handle of the GAPS Central Address Resolution characteristic */
 162:Generated_Source\PSoC6\pdl\middleware\ble/cy_ble_gap.h ****     cy_ble_gatt_db_attr_handle_t centralAddrResolutionCharHandle;
 163:Generated_Source\PSoC6\pdl\middleware\ble/cy_ble_gap.h **** 
 164:Generated_Source\PSoC6\pdl\middleware\ble/cy_ble_gap.h ****     /** Handle of the GAPS Resolvable Private Address Only characteristic */
 165:Generated_Source\PSoC6\pdl\middleware\ble/cy_ble_gap.h ****     cy_ble_gatt_db_attr_handle_t resolvablePrivateAddressOnly;
 166:Generated_Source\PSoC6\pdl\middleware\ble/cy_ble_gap.h **** } cy_stc_ble_gaps_t;
 167:Generated_Source\PSoC6\pdl\middleware\ble/cy_ble_gap.h **** 
 168:Generated_Source\PSoC6\pdl\middleware\ble/cy_ble_gap.h **** /** GAP Service characteristics server's GATT DB handles structure type */
 169:Generated_Source\PSoC6\pdl\middleware\ble/cy_ble_gap.h **** typedef struct
 170:Generated_Source\PSoC6\pdl\middleware\ble/cy_ble_gap.h **** {
 171:Generated_Source\PSoC6\pdl\middleware\ble/cy_ble_gap.h ****     /** Handle of the GAPS Device Name Characteristic */
 172:Generated_Source\PSoC6\pdl\middleware\ble/cy_ble_gap.h ****     cy_ble_gatt_db_attr_handle_t deviceNameCharHandle;
 173:Generated_Source\PSoC6\pdl\middleware\ble/cy_ble_gap.h **** 
 174:Generated_Source\PSoC6\pdl\middleware\ble/cy_ble_gap.h ****     /** Handle of the GAPS Appearance Characteristic */
 175:Generated_Source\PSoC6\pdl\middleware\ble/cy_ble_gap.h ****     cy_ble_gatt_db_attr_handle_t appearanceCharHandle;
 176:Generated_Source\PSoC6\pdl\middleware\ble/cy_ble_gap.h **** 
 177:Generated_Source\PSoC6\pdl\middleware\ble/cy_ble_gap.h ****     /** Handle of the GAPS Peripheral Privacy Flag Parameters Characteristic */
 178:Generated_Source\PSoC6\pdl\middleware\ble/cy_ble_gap.h ****     cy_ble_gatt_db_attr_handle_t periphPrivacyCharHandle;
 179:Generated_Source\PSoC6\pdl\middleware\ble/cy_ble_gap.h **** 
 180:Generated_Source\PSoC6\pdl\middleware\ble/cy_ble_gap.h ****     /** Handle of the GAPS Reconnection Address Characteristic */
 181:Generated_Source\PSoC6\pdl\middleware\ble/cy_ble_gap.h ****     cy_ble_gatt_db_attr_handle_t reconnAddrCharHandle;
 182:Generated_Source\PSoC6\pdl\middleware\ble/cy_ble_gap.h **** 
 183:Generated_Source\PSoC6\pdl\middleware\ble/cy_ble_gap.h ****     /** Handle of the GAPS Peripheral Preferred Connection Parameters Characteristic */
 184:Generated_Source\PSoC6\pdl\middleware\ble/cy_ble_gap.h ****     cy_ble_gatt_db_attr_handle_t prefConnParamCharHandle;
 185:Generated_Source\PSoC6\pdl\middleware\ble/cy_ble_gap.h **** 
 186:Generated_Source\PSoC6\pdl\middleware\ble/cy_ble_gap.h ****     /** Handle of the GAPS Central Address Resolution characteristic */
 187:Generated_Source\PSoC6\pdl\middleware\ble/cy_ble_gap.h ****     cy_ble_gatt_db_attr_handle_t centralAddrResolutionCharHandle;
 188:Generated_Source\PSoC6\pdl\middleware\ble/cy_ble_gap.h **** 
 189:Generated_Source\PSoC6\pdl\middleware\ble/cy_ble_gap.h ****     /** Handle of the GAPS Resolvable Private Address Only characteristic */
 190:Generated_Source\PSoC6\pdl\middleware\ble/cy_ble_gap.h ****     cy_ble_gatt_db_attr_handle_t resolvablePrivateAddressOnly;
 191:Generated_Source\PSoC6\pdl\middleware\ble/cy_ble_gap.h **** }cy_stc_ble_gapc_t;
 192:Generated_Source\PSoC6\pdl\middleware\ble/cy_ble_gap.h **** 
 193:Generated_Source\PSoC6\pdl\middleware\ble/cy_ble_gap.h **** /* Stack mode defines */
 194:Generated_Source\PSoC6\pdl\middleware\ble/cy_ble_gap.h **** 
 195:Generated_Source\PSoC6\pdl\middleware\ble/cy_ble_gap.h **** /** Advertisement SIG assigned numbers */
 196:Generated_Source\PSoC6\pdl\middleware\ble/cy_ble_gap.h **** typedef enum
 197:Generated_Source\PSoC6\pdl\middleware\ble/cy_ble_gap.h **** {
 198:Generated_Source\PSoC6\pdl\middleware\ble/cy_ble_gap.h ****     /** Flags */
 199:Generated_Source\PSoC6\pdl\middleware\ble/cy_ble_gap.h ****     CY_BLE_GAP_ADV_FLAGS = 0x01u,
 200:Generated_Source\PSoC6\pdl\middleware\ble/cy_ble_gap.h **** 
 201:Generated_Source\PSoC6\pdl\middleware\ble/cy_ble_gap.h ****     /** Incomplete List of 16-bit Service Class UUIDs */
ARM GAS  C:\Users\JC\AppData\Local\Temp\ccNOiAvA.s 			page 5


 202:Generated_Source\PSoC6\pdl\middleware\ble/cy_ble_gap.h ****     CY_BLE_GAP_ADV_INCOMPL_16UUID,
 203:Generated_Source\PSoC6\pdl\middleware\ble/cy_ble_gap.h **** 
 204:Generated_Source\PSoC6\pdl\middleware\ble/cy_ble_gap.h ****     /** Complete List of 16-bit Service Class UUIDs */
 205:Generated_Source\PSoC6\pdl\middleware\ble/cy_ble_gap.h ****     CY_BLE_GAP_ADV_COMPL_16UUID,
 206:Generated_Source\PSoC6\pdl\middleware\ble/cy_ble_gap.h **** 
 207:Generated_Source\PSoC6\pdl\middleware\ble/cy_ble_gap.h ****     /** Incomplete List of 32-bit Service Class UUIDs */
 208:Generated_Source\PSoC6\pdl\middleware\ble/cy_ble_gap.h ****     CY_BLE_GAP_ADV_INCOMPL_32_UUID,
 209:Generated_Source\PSoC6\pdl\middleware\ble/cy_ble_gap.h **** 
 210:Generated_Source\PSoC6\pdl\middleware\ble/cy_ble_gap.h ****     /** Complete List of 32-bit Service Class UUIDs */
 211:Generated_Source\PSoC6\pdl\middleware\ble/cy_ble_gap.h ****     CY_BLE_GAP_ADV_COMPL_32_UUID,
 212:Generated_Source\PSoC6\pdl\middleware\ble/cy_ble_gap.h **** 
 213:Generated_Source\PSoC6\pdl\middleware\ble/cy_ble_gap.h ****     /** Incomplete List of 128-bit Service Class UUIDs */
 214:Generated_Source\PSoC6\pdl\middleware\ble/cy_ble_gap.h ****     CY_BLE_GAP_ADV_INCOMPL_128_UUID,
 215:Generated_Source\PSoC6\pdl\middleware\ble/cy_ble_gap.h **** 
 216:Generated_Source\PSoC6\pdl\middleware\ble/cy_ble_gap.h ****     /** Complete List of 128-bit Service Class UUIDs */
 217:Generated_Source\PSoC6\pdl\middleware\ble/cy_ble_gap.h ****     CY_BLE_GAP_ADV_COMPL_128_UUID,
 218:Generated_Source\PSoC6\pdl\middleware\ble/cy_ble_gap.h **** 
 219:Generated_Source\PSoC6\pdl\middleware\ble/cy_ble_gap.h ****     /** Shortened Local Name */
 220:Generated_Source\PSoC6\pdl\middleware\ble/cy_ble_gap.h ****     CY_BLE_GAP_ADV_SHORT_NAME,
 221:Generated_Source\PSoC6\pdl\middleware\ble/cy_ble_gap.h **** 
 222:Generated_Source\PSoC6\pdl\middleware\ble/cy_ble_gap.h ****     /** Complete Local Name */
 223:Generated_Source\PSoC6\pdl\middleware\ble/cy_ble_gap.h ****     CY_BLE_GAP_ADV_COMPL_NAME,
 224:Generated_Source\PSoC6\pdl\middleware\ble/cy_ble_gap.h **** 
 225:Generated_Source\PSoC6\pdl\middleware\ble/cy_ble_gap.h ****     /** Tx Power Level */
 226:Generated_Source\PSoC6\pdl\middleware\ble/cy_ble_gap.h ****     CY_BLE_GAP_ADV_TX_PWR_LVL,
 227:Generated_Source\PSoC6\pdl\middleware\ble/cy_ble_gap.h **** 
 228:Generated_Source\PSoC6\pdl\middleware\ble/cy_ble_gap.h ****     /** Class of Device */
 229:Generated_Source\PSoC6\pdl\middleware\ble/cy_ble_gap.h ****     CY_BLE_GAP_ADV_CLASS_OF_DEVICE = 0x0Du,
 230:Generated_Source\PSoC6\pdl\middleware\ble/cy_ble_gap.h **** 
 231:Generated_Source\PSoC6\pdl\middleware\ble/cy_ble_gap.h ****     /** Simple Pairing Hash C */
 232:Generated_Source\PSoC6\pdl\middleware\ble/cy_ble_gap.h ****     CY_BLE_GAP_ADV_SMPL_PAIR_HASH_C,
 233:Generated_Source\PSoC6\pdl\middleware\ble/cy_ble_gap.h **** 
 234:Generated_Source\PSoC6\pdl\middleware\ble/cy_ble_gap.h ****     /** Simple Pairing Randomizer R */
 235:Generated_Source\PSoC6\pdl\middleware\ble/cy_ble_gap.h ****     CY_BLE_GAP_ADV_SMPL_PAIR_RANDOM_R,
 236:Generated_Source\PSoC6\pdl\middleware\ble/cy_ble_gap.h **** 
 237:Generated_Source\PSoC6\pdl\middleware\ble/cy_ble_gap.h ****     /** Device ID*/
 238:Generated_Source\PSoC6\pdl\middleware\ble/cy_ble_gap.h ****     CY_BLE_GAP_ADV_DEVICE_ID,
 239:Generated_Source\PSoC6\pdl\middleware\ble/cy_ble_gap.h **** 
 240:Generated_Source\PSoC6\pdl\middleware\ble/cy_ble_gap.h ****     /** Security Manager TK Value */
 241:Generated_Source\PSoC6\pdl\middleware\ble/cy_ble_gap.h ****     CY_BLE_GAP_ADV_SCRT_MNGR_TK_VAL = 0x10u,
 242:Generated_Source\PSoC6\pdl\middleware\ble/cy_ble_gap.h **** 
 243:Generated_Source\PSoC6\pdl\middleware\ble/cy_ble_gap.h ****     /** Security Manager Out of Band Flags */
 244:Generated_Source\PSoC6\pdl\middleware\ble/cy_ble_gap.h ****     CY_BLE_GAP_ADV_SCRT_MNGR_OOB_FLAGS,
 245:Generated_Source\PSoC6\pdl\middleware\ble/cy_ble_gap.h **** 
 246:Generated_Source\PSoC6\pdl\middleware\ble/cy_ble_gap.h ****     /** Slave Connection Interval Range */
 247:Generated_Source\PSoC6\pdl\middleware\ble/cy_ble_gap.h ****     CY_BLE_GAP_ADV_SLAVE_CONN_INTRV_RANGE,
 248:Generated_Source\PSoC6\pdl\middleware\ble/cy_ble_gap.h **** 
 249:Generated_Source\PSoC6\pdl\middleware\ble/cy_ble_gap.h ****     /** List of 16-bit Service Solicitation UUIDs */
 250:Generated_Source\PSoC6\pdl\middleware\ble/cy_ble_gap.h ****     CY_BLE_GAP_ADV_SOLICIT_16UUID = 0x14u,
 251:Generated_Source\PSoC6\pdl\middleware\ble/cy_ble_gap.h **** 
 252:Generated_Source\PSoC6\pdl\middleware\ble/cy_ble_gap.h ****     /** List of 128-bit Service Solicitation UUIDs */
 253:Generated_Source\PSoC6\pdl\middleware\ble/cy_ble_gap.h ****     CY_BLE_GAP_ADV_SOLICIT_128UUID,
 254:Generated_Source\PSoC6\pdl\middleware\ble/cy_ble_gap.h **** 
 255:Generated_Source\PSoC6\pdl\middleware\ble/cy_ble_gap.h ****     /** Service Data - 16-bit UUID */
 256:Generated_Source\PSoC6\pdl\middleware\ble/cy_ble_gap.h ****     CY_BLE_GAP_ADV_SRVC_DATA_16UUID,
 257:Generated_Source\PSoC6\pdl\middleware\ble/cy_ble_gap.h **** 
 258:Generated_Source\PSoC6\pdl\middleware\ble/cy_ble_gap.h ****     /** Public Target Address */
ARM GAS  C:\Users\JC\AppData\Local\Temp\ccNOiAvA.s 			page 6


 259:Generated_Source\PSoC6\pdl\middleware\ble/cy_ble_gap.h ****     CY_BLE_GAP_ADV_PUBLIC_TARGET_ADDR,
 260:Generated_Source\PSoC6\pdl\middleware\ble/cy_ble_gap.h **** 
 261:Generated_Source\PSoC6\pdl\middleware\ble/cy_ble_gap.h ****     /** Random Target Address */
 262:Generated_Source\PSoC6\pdl\middleware\ble/cy_ble_gap.h ****     CY_BLE_GAP_ADV_RANDOM_TARGET_ADDR,
 263:Generated_Source\PSoC6\pdl\middleware\ble/cy_ble_gap.h **** 
 264:Generated_Source\PSoC6\pdl\middleware\ble/cy_ble_gap.h ****     /** Appearance */
 265:Generated_Source\PSoC6\pdl\middleware\ble/cy_ble_gap.h ****     CY_BLE_GAP_ADV_APPEARANCE,
 266:Generated_Source\PSoC6\pdl\middleware\ble/cy_ble_gap.h **** 
 267:Generated_Source\PSoC6\pdl\middleware\ble/cy_ble_gap.h ****     /** Advertising Interval */
 268:Generated_Source\PSoC6\pdl\middleware\ble/cy_ble_gap.h ****     CY_BLE_GAP_ADV_ADVERT_INTERVAL,
 269:Generated_Source\PSoC6\pdl\middleware\ble/cy_ble_gap.h **** 
 270:Generated_Source\PSoC6\pdl\middleware\ble/cy_ble_gap.h ****     /** LE Bluetooth Device Address */
 271:Generated_Source\PSoC6\pdl\middleware\ble/cy_ble_gap.h ****     CY_BLE_GAP_ADV_LE_BT_DEVICE_ADDR,
 272:Generated_Source\PSoC6\pdl\middleware\ble/cy_ble_gap.h **** 
 273:Generated_Source\PSoC6\pdl\middleware\ble/cy_ble_gap.h ****     /** LE Role */
 274:Generated_Source\PSoC6\pdl\middleware\ble/cy_ble_gap.h ****     CY_BLE_GAP_ADV_LE_ROLE,
 275:Generated_Source\PSoC6\pdl\middleware\ble/cy_ble_gap.h **** 
 276:Generated_Source\PSoC6\pdl\middleware\ble/cy_ble_gap.h ****     /** Simple Pairing Hash C-256 */
 277:Generated_Source\PSoC6\pdl\middleware\ble/cy_ble_gap.h ****     CY_BLE_GAP_ADV_SMPL_PAIR_HASH_C256,
 278:Generated_Source\PSoC6\pdl\middleware\ble/cy_ble_gap.h **** 
 279:Generated_Source\PSoC6\pdl\middleware\ble/cy_ble_gap.h ****     /** Simple Pairing Randomizer R-256 */
 280:Generated_Source\PSoC6\pdl\middleware\ble/cy_ble_gap.h ****     CY_BLE_GAP_ADV_SMPL_PAIR_RANDOM_R256,
 281:Generated_Source\PSoC6\pdl\middleware\ble/cy_ble_gap.h **** 
 282:Generated_Source\PSoC6\pdl\middleware\ble/cy_ble_gap.h ****     /** List of 32-bit Service Solicitation UUIDs */
 283:Generated_Source\PSoC6\pdl\middleware\ble/cy_ble_gap.h ****     CY_BLE_GAP_ADV_SOLICIT_32UUID,
 284:Generated_Source\PSoC6\pdl\middleware\ble/cy_ble_gap.h **** 
 285:Generated_Source\PSoC6\pdl\middleware\ble/cy_ble_gap.h ****     /** Service Data - 32-bit UUID */
 286:Generated_Source\PSoC6\pdl\middleware\ble/cy_ble_gap.h ****     CY_BLE_GAP_ADV_SRVC_DATA_32UUID,
 287:Generated_Source\PSoC6\pdl\middleware\ble/cy_ble_gap.h **** 
 288:Generated_Source\PSoC6\pdl\middleware\ble/cy_ble_gap.h ****     /** Service Data - 128-bit UUID */
 289:Generated_Source\PSoC6\pdl\middleware\ble/cy_ble_gap.h ****     CY_BLE_GAP_ADV_SRVC_DATA_128UUID,
 290:Generated_Source\PSoC6\pdl\middleware\ble/cy_ble_gap.h **** 
 291:Generated_Source\PSoC6\pdl\middleware\ble/cy_ble_gap.h ****     /** 3D Information Data */
 292:Generated_Source\PSoC6\pdl\middleware\ble/cy_ble_gap.h ****     CY_BLE_GAP_ADV_3D_INFO_DATA = 0x3D,
 293:Generated_Source\PSoC6\pdl\middleware\ble/cy_ble_gap.h **** 
 294:Generated_Source\PSoC6\pdl\middleware\ble/cy_ble_gap.h ****     /** Manufacturer Specific Data */
 295:Generated_Source\PSoC6\pdl\middleware\ble/cy_ble_gap.h ****     CY_BLE_GAP_ADV_MANUFACTURER_SPECIFIC_DATA = 0xFF
 296:Generated_Source\PSoC6\pdl\middleware\ble/cy_ble_gap.h **** }cy_en_ble_gap_adv_assign_numbers_t;
 297:Generated_Source\PSoC6\pdl\middleware\ble/cy_ble_gap.h **** 
 298:Generated_Source\PSoC6\pdl\middleware\ble/cy_ble_gap.h **** /** GAPP advertising configuration parameters structure */
 299:Generated_Source\PSoC6\pdl\middleware\ble/cy_ble_gap.h **** typedef struct
 300:Generated_Source\PSoC6\pdl\middleware\ble/cy_ble_gap.h **** {
 301:Generated_Source\PSoC6\pdl\middleware\ble/cy_ble_gap.h ****     /** The minimum interval for fast advertising the data and establishing the LE Connection */
 302:Generated_Source\PSoC6\pdl\middleware\ble/cy_ble_gap.h ****     uint16_t fastAdvIntervalMin;
 303:Generated_Source\PSoC6\pdl\middleware\ble/cy_ble_gap.h **** 
 304:Generated_Source\PSoC6\pdl\middleware\ble/cy_ble_gap.h ****     /** The maximum interval for fast advertising the data and establishing the LE Connection */
 305:Generated_Source\PSoC6\pdl\middleware\ble/cy_ble_gap.h ****     uint16_t fastAdvIntervalMax;
 306:Generated_Source\PSoC6\pdl\middleware\ble/cy_ble_gap.h **** 
 307:Generated_Source\PSoC6\pdl\middleware\ble/cy_ble_gap.h ****     /** The timeout value of  fast advertising with fast advertising interval parameters */
 308:Generated_Source\PSoC6\pdl\middleware\ble/cy_ble_gap.h ****     uint16_t fastAdvTimeOut;
 309:Generated_Source\PSoC6\pdl\middleware\ble/cy_ble_gap.h **** 
 310:Generated_Source\PSoC6\pdl\middleware\ble/cy_ble_gap.h ****     /** Slow advertising enable */
 311:Generated_Source\PSoC6\pdl\middleware\ble/cy_ble_gap.h ****     uint8_t  slowAdvEnable;
 312:Generated_Source\PSoC6\pdl\middleware\ble/cy_ble_gap.h **** 
 313:Generated_Source\PSoC6\pdl\middleware\ble/cy_ble_gap.h ****     /** The minimum interval for slow advertising the data and establishing the LE Connection */
 314:Generated_Source\PSoC6\pdl\middleware\ble/cy_ble_gap.h ****     uint16_t slowAdvIntervalMin;
 315:Generated_Source\PSoC6\pdl\middleware\ble/cy_ble_gap.h **** 
ARM GAS  C:\Users\JC\AppData\Local\Temp\ccNOiAvA.s 			page 7


 316:Generated_Source\PSoC6\pdl\middleware\ble/cy_ble_gap.h ****     /** The maximum interval for slow  advertising the data and establishing the LE Connection */
 317:Generated_Source\PSoC6\pdl\middleware\ble/cy_ble_gap.h ****     uint16_t slowAdvIntervalMax;
 318:Generated_Source\PSoC6\pdl\middleware\ble/cy_ble_gap.h **** 
 319:Generated_Source\PSoC6\pdl\middleware\ble/cy_ble_gap.h ****     /** The timeout value of slow advertising with slow advertising interval parameters */
 320:Generated_Source\PSoC6\pdl\middleware\ble/cy_ble_gap.h ****     uint16_t slowAdvTimeOut;
 321:Generated_Source\PSoC6\pdl\middleware\ble/cy_ble_gap.h **** }cy_stc_ble_gapp_adv_params_t;
 322:Generated_Source\PSoC6\pdl\middleware\ble/cy_ble_gap.h **** 
 323:Generated_Source\PSoC6\pdl\middleware\ble/cy_ble_gap.h **** /** GAPC advertising configuration parameters structure */
 324:Generated_Source\PSoC6\pdl\middleware\ble/cy_ble_gap.h **** typedef struct
 325:Generated_Source\PSoC6\pdl\middleware\ble/cy_ble_gap.h **** {
 326:Generated_Source\PSoC6\pdl\middleware\ble/cy_ble_gap.h ****     /** The scan interval when operating in Fast connection */
 327:Generated_Source\PSoC6\pdl\middleware\ble/cy_ble_gap.h ****     uint16_t fastScanInterval;
 328:Generated_Source\PSoC6\pdl\middleware\ble/cy_ble_gap.h **** 
 329:Generated_Source\PSoC6\pdl\middleware\ble/cy_ble_gap.h ****     /** Defines the scan window when operating in Fast connection */
 330:Generated_Source\PSoC6\pdl\middleware\ble/cy_ble_gap.h ****     uint16_t fastScanWindow;
 331:Generated_Source\PSoC6\pdl\middleware\ble/cy_ble_gap.h **** 
 332:Generated_Source\PSoC6\pdl\middleware\ble/cy_ble_gap.h ****     /** The timeout value of scanning with fast scan parameters */
 333:Generated_Source\PSoC6\pdl\middleware\ble/cy_ble_gap.h ****     uint16_t fastScanTimeOut;
 334:Generated_Source\PSoC6\pdl\middleware\ble/cy_ble_gap.h **** 
 335:Generated_Source\PSoC6\pdl\middleware\ble/cy_ble_gap.h ****     /** Slow scan enable/disable */
 336:Generated_Source\PSoC6\pdl\middleware\ble/cy_ble_gap.h ****     uint8_t  slowScanEnabled;
 337:Generated_Source\PSoC6\pdl\middleware\ble/cy_ble_gap.h **** 
 338:Generated_Source\PSoC6\pdl\middleware\ble/cy_ble_gap.h ****     /** The scan interval when operating in Slow connection */
 339:Generated_Source\PSoC6\pdl\middleware\ble/cy_ble_gap.h ****     uint16_t slowScanInterval;
 340:Generated_Source\PSoC6\pdl\middleware\ble/cy_ble_gap.h **** 
 341:Generated_Source\PSoC6\pdl\middleware\ble/cy_ble_gap.h ****     /** Defines the scan window when operating in Slow connection */
 342:Generated_Source\PSoC6\pdl\middleware\ble/cy_ble_gap.h ****     uint16_t slowScanWindow;
 343:Generated_Source\PSoC6\pdl\middleware\ble/cy_ble_gap.h **** 
 344:Generated_Source\PSoC6\pdl\middleware\ble/cy_ble_gap.h ****     /** The timeout value of scanning with Slow scan parameters */
 345:Generated_Source\PSoC6\pdl\middleware\ble/cy_ble_gap.h ****     uint16_t slowScanTimeOut;
 346:Generated_Source\PSoC6\pdl\middleware\ble/cy_ble_gap.h **** 
 347:Generated_Source\PSoC6\pdl\middleware\ble/cy_ble_gap.h ****     /** The minimum permissible connection time value to be used during a connection event */
 348:Generated_Source\PSoC6\pdl\middleware\ble/cy_ble_gap.h ****     uint16_t gapcConnectionIntervalMin;
 349:Generated_Source\PSoC6\pdl\middleware\ble/cy_ble_gap.h **** 
 350:Generated_Source\PSoC6\pdl\middleware\ble/cy_ble_gap.h ****     /** The maximum permissible connection time value to be used during a connection event */
 351:Generated_Source\PSoC6\pdl\middleware\ble/cy_ble_gap.h ****     uint16_t gapcConnectionIntervalMax;
 352:Generated_Source\PSoC6\pdl\middleware\ble/cy_ble_gap.h **** 
 353:Generated_Source\PSoC6\pdl\middleware\ble/cy_ble_gap.h ****     /** Defines the maximum time between two received Data Packet PDUs before
 354:Generated_Source\PSoC6\pdl\middleware\ble/cy_ble_gap.h ****      *  the connection is considered lost */
 355:Generated_Source\PSoC6\pdl\middleware\ble/cy_ble_gap.h ****     uint16_t gapcConnectionSlaveLatency;
 356:Generated_Source\PSoC6\pdl\middleware\ble/cy_ble_gap.h **** 
 357:Generated_Source\PSoC6\pdl\middleware\ble/cy_ble_gap.h ****     /** Defines the LE link supervision timeout interval */
 358:Generated_Source\PSoC6\pdl\middleware\ble/cy_ble_gap.h ****     uint16_t gapcConnectionTimeOut;
 359:Generated_Source\PSoC6\pdl\middleware\ble/cy_ble_gap.h **** }cy_stc_ble_gapc_scan_params_t;
 360:Generated_Source\PSoC6\pdl\middleware\ble/cy_ble_gap.h **** 
 361:Generated_Source\PSoC6\pdl\middleware\ble/cy_ble_gap.h **** /** Store BLE Application Data parameter into flash */
 362:Generated_Source\PSoC6\pdl\middleware\ble/cy_ble_gap.h **** typedef struct
 363:Generated_Source\PSoC6\pdl\middleware\ble/cy_ble_gap.h **** {
 364:Generated_Source\PSoC6\pdl\middleware\ble/cy_ble_gap.h ****     /** Source buffer */
 365:Generated_Source\PSoC6\pdl\middleware\ble/cy_ble_gap.h ****     const uint8_t *srcBuff;
 366:Generated_Source\PSoC6\pdl\middleware\ble/cy_ble_gap.h **** 
 367:Generated_Source\PSoC6\pdl\middleware\ble/cy_ble_gap.h ****     /** Destination buffer */
 368:Generated_Source\PSoC6\pdl\middleware\ble/cy_ble_gap.h ****     const uint8_t *destAddr;
 369:Generated_Source\PSoC6\pdl\middleware\ble/cy_ble_gap.h **** 
 370:Generated_Source\PSoC6\pdl\middleware\ble/cy_ble_gap.h ****     /** Source buffer length */
 371:Generated_Source\PSoC6\pdl\middleware\ble/cy_ble_gap.h ****     uint32_t      buffLen;
 372:Generated_Source\PSoC6\pdl\middleware\ble/cy_ble_gap.h ****     
ARM GAS  C:\Users\JC\AppData\Local\Temp\ccNOiAvA.s 			page 8


 373:Generated_Source\PSoC6\pdl\middleware\ble/cy_ble_gap.h ****     /** Write mode: blocking (default) / non-blocking */
 374:Generated_Source\PSoC6\pdl\middleware\ble/cy_ble_gap.h ****     uint32_t      writeMode;
 375:Generated_Source\PSoC6\pdl\middleware\ble/cy_ble_gap.h ****     
 376:Generated_Source\PSoC6\pdl\middleware\ble/cy_ble_gap.h **** } cy_stc_ble_app_flash_param_t;
 377:Generated_Source\PSoC6\pdl\middleware\ble/cy_ble_gap.h **** 
 378:Generated_Source\PSoC6\pdl\middleware\ble/cy_ble_gap.h **** /** @} group_ble_common_api_gap_definitions */
 379:Generated_Source\PSoC6\pdl\middleware\ble/cy_ble_gap.h ****  
 380:Generated_Source\PSoC6\pdl\middleware\ble/cy_ble_gap.h **** /***************************************
 381:Generated_Source\PSoC6\pdl\middleware\ble/cy_ble_gap.h **** * API Constants
 382:Generated_Source\PSoC6\pdl\middleware\ble/cy_ble_gap.h **** ***************************************/
 383:Generated_Source\PSoC6\pdl\middleware\ble/cy_ble_gap.h **** #define CY_BLE_AD_TYPE_MORE16UUID                  (0x02u)
 384:Generated_Source\PSoC6\pdl\middleware\ble/cy_ble_gap.h **** #define CY_BLE_AD_TYPE_CMPL16UUID                  (0x03u)
 385:Generated_Source\PSoC6\pdl\middleware\ble/cy_ble_gap.h **** #define CY_BLE_AD_TYPE_MORE32UUID                  (0x04u)
 386:Generated_Source\PSoC6\pdl\middleware\ble/cy_ble_gap.h **** #define CY_BLE_AD_TYPE_CMPL32UUID                  (0x05u)
 387:Generated_Source\PSoC6\pdl\middleware\ble/cy_ble_gap.h **** #define CY_BLE_AD_TYPE_MORE128UUID                 (0x06u)
 388:Generated_Source\PSoC6\pdl\middleware\ble/cy_ble_gap.h **** #define CY_BLE_AD_TYPE_CMPL128UUID                 (0x07u)
 389:Generated_Source\PSoC6\pdl\middleware\ble/cy_ble_gap.h **** 
 390:Generated_Source\PSoC6\pdl\middleware\ble/cy_ble_gap.h **** #define CY_BLE_AD_TYPE_SERVICE_DATA                (0x16u)
 391:Generated_Source\PSoC6\pdl\middleware\ble/cy_ble_gap.h **** #define CY_BLE_AD_SERVICE_DATA_OVERHEAD            (0x03u)
 392:Generated_Source\PSoC6\pdl\middleware\ble/cy_ble_gap.h **** 
 393:Generated_Source\PSoC6\pdl\middleware\ble/cy_ble_gap.h **** #define CY_BLE_DISCOVERY_IDLE                      (0x00u)
 394:Generated_Source\PSoC6\pdl\middleware\ble/cy_ble_gap.h **** #define CY_BLE_DISCOVERY_SERVICE                   (0x01u)
 395:Generated_Source\PSoC6\pdl\middleware\ble/cy_ble_gap.h **** #define CY_BLE_DISCOVERY_CHAR                      (0x02u)
 396:Generated_Source\PSoC6\pdl\middleware\ble/cy_ble_gap.h **** #define CY_BLE_DISCOVERY_DESCR                     (0x03u)
 397:Generated_Source\PSoC6\pdl\middleware\ble/cy_ble_gap.h **** #define CY_BLE_DISCOVERY_DONE                      (0x04u)
 398:Generated_Source\PSoC6\pdl\middleware\ble/cy_ble_gap.h **** 
 399:Generated_Source\PSoC6\pdl\middleware\ble/cy_ble_gap.h **** /* Cy_BLE_NextCharDscrDiscovery parameters */
 400:Generated_Source\PSoC6\pdl\middleware\ble/cy_ble_gap.h **** #define CY_BLE_DISCOVERY_INIT                      (0x00u)
 401:Generated_Source\PSoC6\pdl\middleware\ble/cy_ble_gap.h **** #define CY_BLE_DISCOVERY_CONTINUE                  (0x01u)
 402:Generated_Source\PSoC6\pdl\middleware\ble/cy_ble_gap.h **** 
 403:Generated_Source\PSoC6\pdl\middleware\ble/cy_ble_gap.h **** #define CY_BLE_SFLASH_DIE_X_MASK                   (0x3Fu)
 404:Generated_Source\PSoC6\pdl\middleware\ble/cy_ble_gap.h **** #define CY_BLE_SFLASH_DIE_X_BITS                   (6u)
 405:Generated_Source\PSoC6\pdl\middleware\ble/cy_ble_gap.h **** #define CY_BLE_SFLASH_DIE_Y_MASK                   (0x3Fu)
 406:Generated_Source\PSoC6\pdl\middleware\ble/cy_ble_gap.h **** #define CY_BLE_SFLASH_DIE_Y_BITS                   (6u)
 407:Generated_Source\PSoC6\pdl\middleware\ble/cy_ble_gap.h **** #define CY_BLE_SFLASH_DIE_XY_BITS                  (CY_BLE_SFLASH_DIE_X_BITS + CY_BLE_SFLASH_DIE_Y_
 408:Generated_Source\PSoC6\pdl\middleware\ble/cy_ble_gap.h **** #define CY_BLE_SFLASH_DIE_WAFER_MASK               (0x1Fu)
 409:Generated_Source\PSoC6\pdl\middleware\ble/cy_ble_gap.h **** #define CY_BLE_SFLASH_DIE_WAFER_BITS               (5u)
 410:Generated_Source\PSoC6\pdl\middleware\ble/cy_ble_gap.h **** #define CY_BLE_SFLASH_DIE_XYWAFER_BITS             (CY_BLE_SFLASH_DIE_XY_BITS + CY_BLE_SFLASH_DIE_W
 411:Generated_Source\PSoC6\pdl\middleware\ble/cy_ble_gap.h **** #define CY_BLE_SFLASH_DIE_LOT_MASK                 (0x7Fu)
 412:Generated_Source\PSoC6\pdl\middleware\ble/cy_ble_gap.h **** #define CY_BLE_SFLASH_DIE_LOT_BITS                 (7u)
 413:Generated_Source\PSoC6\pdl\middleware\ble/cy_ble_gap.h **** 
 414:Generated_Source\PSoC6\pdl\middleware\ble/cy_ble_gap.h **** /* Device address stored by user in ROW4 of the SFLASH */
 415:Generated_Source\PSoC6\pdl\middleware\ble/cy_ble_gap.h **** #define CY_BLE_SFLASH_DEVICE_ADDRESS_PTR           ((cy_stc_ble_gap_bd_addr_t*)(SFLASH->BLE_DEVICE_
 416:Generated_Source\PSoC6\pdl\middleware\ble/cy_ble_gap.h **** #define CY_BLE_AD_STRUCTURE_MAX_LENGTH             (31u)
 417:Generated_Source\PSoC6\pdl\middleware\ble/cy_ble_gap.h **** 
 418:Generated_Source\PSoC6\pdl\middleware\ble/cy_ble_gap.h **** /* AD types for complete, shortened local name and device address */
 419:Generated_Source\PSoC6\pdl\middleware\ble/cy_ble_gap.h **** #define CY_BLE_SHORT_LOCAL_NAME                    (0x08u)  /**< Shortened Local Name */
 420:Generated_Source\PSoC6\pdl\middleware\ble/cy_ble_gap.h **** #define CY_BLE_COMPLETE_LOCAL_NAME                 (0x09u)  /**< Complete Local Name */
 421:Generated_Source\PSoC6\pdl\middleware\ble/cy_ble_gap.h **** #define CY_BLE_ADV_DEVICE_ADDR                     (0x1Bu)  /**< LE Bluetooth Device Address */
 422:Generated_Source\PSoC6\pdl\middleware\ble/cy_ble_gap.h **** 
 423:Generated_Source\PSoC6\pdl\middleware\ble/cy_ble_gap.h **** #define CY_BLE_ADVERTISING_FAST                    (0x00u)
 424:Generated_Source\PSoC6\pdl\middleware\ble/cy_ble_gap.h **** #define CY_BLE_ADVERTISING_SLOW                    (0x01u)
 425:Generated_Source\PSoC6\pdl\middleware\ble/cy_ble_gap.h **** #define CY_BLE_ADVERTISING_CUSTOM                  (0x02u)
 426:Generated_Source\PSoC6\pdl\middleware\ble/cy_ble_gap.h **** 
 427:Generated_Source\PSoC6\pdl\middleware\ble/cy_ble_gap.h **** #define CY_BLE_SCANNING_FAST                       (0x00u)
 428:Generated_Source\PSoC6\pdl\middleware\ble/cy_ble_gap.h **** #define CY_BLE_SCANNING_SLOW                       (0x01u)
 429:Generated_Source\PSoC6\pdl\middleware\ble/cy_ble_gap.h **** #define CY_BLE_SCANNING_CUSTOM                     (0x02u)
ARM GAS  C:\Users\JC\AppData\Local\Temp\ccNOiAvA.s 			page 9


 430:Generated_Source\PSoC6\pdl\middleware\ble/cy_ble_gap.h **** 
 431:Generated_Source\PSoC6\pdl\middleware\ble/cy_ble_gap.h **** #define CY_BLE_PENDING_STACK_FLASH_WRITE_BIT       (0x01u)
 432:Generated_Source\PSoC6\pdl\middleware\ble/cy_ble_gap.h **** #define CY_BLE_PENDING_CCCD_FLASH_WRITE_BIT        (0x02u)
 433:Generated_Source\PSoC6\pdl\middleware\ble/cy_ble_gap.h **** #define CY_BLE_PENDING_CCCD_FLASH_CLEAR_BIT        (0x04u)
 434:Generated_Source\PSoC6\pdl\middleware\ble/cy_ble_gap.h **** #define CY_BLE_PENDING_CCCD_FLASH_CLEAR_ALL_BIT    (0x08u)
 435:Generated_Source\PSoC6\pdl\middleware\ble/cy_ble_gap.h **** #define CY_BLE_PENDING_CCCD_FLASH_CLEAR_MASK \
 436:Generated_Source\PSoC6\pdl\middleware\ble/cy_ble_gap.h ****     (CY_BLE_PENDING_CCCD_FLASH_CLEAR_BIT | CY_BLE_PENDING_CCCD_FLASH_CLEAR_ALL_BIT)
 437:Generated_Source\PSoC6\pdl\middleware\ble/cy_ble_gap.h ****   
 438:Generated_Source\PSoC6\pdl\middleware\ble/cy_ble_gap.h **** /**
 439:Generated_Source\PSoC6\pdl\middleware\ble/cy_ble_gap.h ****  * \addtogroup group_ble_common_api_macros
 440:Generated_Source\PSoC6\pdl\middleware\ble/cy_ble_gap.h ****  * @{
 441:Generated_Source\PSoC6\pdl\middleware\ble/cy_ble_gap.h ****  */
 442:Generated_Source\PSoC6\pdl\middleware\ble/cy_ble_gap.h ****  
 443:Generated_Source\PSoC6\pdl\middleware\ble/cy_ble_gap.h **** /* GAP Advertisement Flags */
 444:Generated_Source\PSoC6\pdl\middleware\ble/cy_ble_gap.h **** #define CY_BLE_GAP_ADV_FLAG_LE_LIMITED_DISC_MODE        (0x01u)     /**< LE Limited Discoverable Mo
 445:Generated_Source\PSoC6\pdl\middleware\ble/cy_ble_gap.h **** #define CY_BLE_GAP_ADV_FLAG_LE_GENERAL_DISC_MODE        (0x02u)     /**< LE General Discoverable Mo
 446:Generated_Source\PSoC6\pdl\middleware\ble/cy_ble_gap.h **** #define CY_BLE_GAP_ADV_FLAG_BR_EDR_NOT_SUPPORTED        (0x04u)     /**< BR/EDR not supported. */
 447:Generated_Source\PSoC6\pdl\middleware\ble/cy_ble_gap.h **** #define CY_BLE_GAP_ADV_FLAG_LE_BR_EDR_CONTROLLER        (0x08u)     /**< Simultaneous LE and BR/EDR
 448:Generated_Source\PSoC6\pdl\middleware\ble/cy_ble_gap.h **** #define CY_BLE_GAP_ADV_FLAG_LE_BR_EDR_HOST              (0x10u)     /**< Simultaneous LE and BR/EDR
 449:Generated_Source\PSoC6\pdl\middleware\ble/cy_ble_gap.h **** #define CY_BLE_GAP_ADV_FLAGS_PACKET_LENGTH              (0x02u)     /**< Length of flags in an adve
 450:Generated_Source\PSoC6\pdl\middleware\ble/cy_ble_gap.h **** 
 451:Generated_Source\PSoC6\pdl\middleware\ble/cy_ble_gap.h **** /* GAP Advertising interval min and max */
 452:Generated_Source\PSoC6\pdl\middleware\ble/cy_ble_gap.h **** #define CY_BLE_GAP_ADV_ADVERT_INTERVAL_MIN              (0x0020u)   /**< Minimum Advertising interv
 453:Generated_Source\PSoC6\pdl\middleware\ble/cy_ble_gap.h ****                                                                      *   i.e. 20 ms. */
 454:Generated_Source\PSoC6\pdl\middleware\ble/cy_ble_gap.h **** #define CY_BLE_GAP_ADV_ADVERT_INTERVAL_NONCON_MIN       (0x00A0u)   /**< Minimum Advertising interv
 455:Generated_Source\PSoC6\pdl\middleware\ble/cy_ble_gap.h ****                                                                      *   for non connectable mode, 
 456:Generated_Source\PSoC6\pdl\middleware\ble/cy_ble_gap.h **** #define CY_BLE_GAP_ADV_ADVERT_INTERVAL_MAX              (0x4000u)   /**< Maximum Advertising interv
 457:Generated_Source\PSoC6\pdl\middleware\ble/cy_ble_gap.h ****                                                                      *   i.e. 10.24 s. */
 458:Generated_Source\PSoC6\pdl\middleware\ble/cy_ble_gap.h **** #define CY_BLE_GAP_ADV_ADVERT_INTERVAL_PACKET_LENGTH    (0x03u)     /**< Length of the Advertising 
 459:Generated_Source\PSoC6\pdl\middleware\ble/cy_ble_gap.h ****                                                                      *   an advertisement packet */
 460:Generated_Source\PSoC6\pdl\middleware\ble/cy_ble_gap.h **** #define CY_BLE_GAPC_CONNECTING_TIMEOUT                  (30u)       /**< Seconds */
 461:Generated_Source\PSoC6\pdl\middleware\ble/cy_ble_gap.h **** #define CY_BLE_INVALID_CONN_HANDLE_VALUE                (0xFFu)     /**< Invalid Connection Handle 
 462:Generated_Source\PSoC6\pdl\middleware\ble/cy_ble_gap.h **** 
 463:Generated_Source\PSoC6\pdl\middleware\ble/cy_ble_gap.h **** /* Write mode for Cy_BLE_StoreAppData */
 464:Generated_Source\PSoC6\pdl\middleware\ble/cy_ble_gap.h **** #define CY_BLE_STORE_DATA_MODE_BLOCKING                 (0x0u)      /**< Blocking write */
 465:Generated_Source\PSoC6\pdl\middleware\ble/cy_ble_gap.h **** #define CY_BLE_STORE_DATA_MODE_NON_BLOCKING             (0x1u)      /**< Non-blocking write */
 466:Generated_Source\PSoC6\pdl\middleware\ble/cy_ble_gap.h **** 
 467:Generated_Source\PSoC6\pdl\middleware\ble/cy_ble_gap.h **** /** @} group_ble_common_api_macros */
 468:Generated_Source\PSoC6\pdl\middleware\ble/cy_ble_gap.h **** 
 469:Generated_Source\PSoC6\pdl\middleware\ble/cy_ble_gap.h **** /***************************************
 470:Generated_Source\PSoC6\pdl\middleware\ble/cy_ble_gap.h **** * Private Function Prototypes
 471:Generated_Source\PSoC6\pdl\middleware\ble/cy_ble_gap.h **** ***************************************/
 472:Generated_Source\PSoC6\pdl\middleware\ble/cy_ble_gap.h **** void Cy_BLE_ServiceInit(void);
 473:Generated_Source\PSoC6\pdl\middleware\ble/cy_ble_gap.h **** uint32_t Cy_BLE_GetDiscoveryIdx(cy_stc_ble_conn_handle_t connHandle);
 474:Generated_Source\PSoC6\pdl\middleware\ble/cy_ble_gap.h **** 
 475:Generated_Source\PSoC6\pdl\middleware\ble/cy_ble_gap.h **** /***************************************
 476:Generated_Source\PSoC6\pdl\middleware\ble/cy_ble_gap.h **** * Function Prototypes
 477:Generated_Source\PSoC6\pdl\middleware\ble/cy_ble_gap.h **** ***************************************/
 478:Generated_Source\PSoC6\pdl\middleware\ble/cy_ble_gap.h **** /**
 479:Generated_Source\PSoC6\pdl\middleware\ble/cy_ble_gap.h ****  * \addtogroup group_ble_common_api_functions
 480:Generated_Source\PSoC6\pdl\middleware\ble/cy_ble_gap.h ****  * @{
 481:Generated_Source\PSoC6\pdl\middleware\ble/cy_ble_gap.h ****  */
 482:Generated_Source\PSoC6\pdl\middleware\ble/cy_ble_gap.h **** 
 483:Generated_Source\PSoC6\pdl\middleware\ble/cy_ble_gap.h **** cy_en_ble_api_result_t Cy_BLE_StoreAppData(const cy_stc_ble_app_flash_param_t *param);
 484:Generated_Source\PSoC6\pdl\middleware\ble/cy_ble_gap.h **** 
 485:Generated_Source\PSoC6\pdl\middleware\ble/cy_ble_gap.h **** #if ((CY_BLE_GAP_ROLE_PERIPHERAL || CY_BLE_GAP_ROLE_CENTRAL) && (CY_BLE_BONDING_REQUIREMENT == CY_B
 486:Generated_Source\PSoC6\pdl\middleware\ble/cy_ble_gap.h **** cy_en_ble_api_result_t Cy_BLE_StoreBondingData(void);
ARM GAS  C:\Users\JC\AppData\Local\Temp\ccNOiAvA.s 			page 10


 487:Generated_Source\PSoC6\pdl\middleware\ble/cy_ble_gap.h **** cy_en_ble_api_result_t Cy_BLE_GAP_RemoveBondedDevice(cy_stc_ble_gap_bd_addr_t* bdAddr);
 488:Generated_Source\PSoC6\pdl\middleware\ble/cy_ble_gap.h **** #endif /* (CY_BLE_GAP_ROLE_PERIPHERAL || CY_BLE_GAP_ROLE_CENTRAL) && (CY_BLE_BONDING_REQUIREMENT ==
 489:Generated_Source\PSoC6\pdl\middleware\ble/cy_ble_gap.h **** 
 490:Generated_Source\PSoC6\pdl\middleware\ble/cy_ble_gap.h **** #if (CY_BLE_GAP_ROLE_PERIPHERAL || CY_BLE_GAP_ROLE_CENTRAL)
 491:Generated_Source\PSoC6\pdl\middleware\ble/cy_ble_gap.h **** bool Cy_BLE_IsPeerConnected(uint8_t *bdAddr);
 492:Generated_Source\PSoC6\pdl\middleware\ble/cy_ble_gap.h **** bool Cy_BLE_IsDevicePaired(cy_stc_ble_conn_handle_t *connHandle);
 493:Generated_Source\PSoC6\pdl\middleware\ble/cy_ble_gap.h **** uint8_t Cy_BLE_GetDeviceRole(cy_stc_ble_conn_handle_t *connHandle);
 494:Generated_Source\PSoC6\pdl\middleware\ble/cy_ble_gap.h **** 
 495:Generated_Source\PSoC6\pdl\middleware\ble/cy_ble_gap.h **** cy_en_ble_api_result_t Cy_BLE_GetRssiPeer(uint8_t  bdHandle);
 496:Generated_Source\PSoC6\pdl\middleware\ble/cy_ble_gap.h **** #endif /* (CY_BLE_GAP_ROLE_PERIPHERAL || CY_BLE_GAP_ROLE_CENTRAL) */
 497:Generated_Source\PSoC6\pdl\middleware\ble/cy_ble_gap.h **** /** @} group_ble_common_api_functions */
 498:Generated_Source\PSoC6\pdl\middleware\ble/cy_ble_gap.h **** 
 499:Generated_Source\PSoC6\pdl\middleware\ble/cy_ble_gap.h **** /**
 500:Generated_Source\PSoC6\pdl\middleware\ble/cy_ble_gap.h ****  * \addtogroup group_ble_common_api_gap_peripheral_functions
 501:Generated_Source\PSoC6\pdl\middleware\ble/cy_ble_gap.h ****  * @{
 502:Generated_Source\PSoC6\pdl\middleware\ble/cy_ble_gap.h ****  */
 503:Generated_Source\PSoC6\pdl\middleware\ble/cy_ble_gap.h ****  
 504:Generated_Source\PSoC6\pdl\middleware\ble/cy_ble_gap.h **** #if (CY_BLE_GAP_ROLE_PERIPHERAL || CY_BLE_GAP_ROLE_BROADCASTER)
 505:Generated_Source\PSoC6\pdl\middleware\ble/cy_ble_gap.h **** cy_en_ble_api_result_t Cy_BLE_GAPP_StartAdvertisement(uint8_t advertisingIntervalType, uint8_t adve
 506:Generated_Source\PSoC6\pdl\middleware\ble/cy_ble_gap.h **** cy_en_ble_api_result_t Cy_BLE_GAPP_StopAdvertisement(void);
 507:Generated_Source\PSoC6\pdl\middleware\ble/cy_ble_gap.h **** 
 508:Generated_Source\PSoC6\pdl\middleware\ble/cy_ble_gap.h **** /** \cond IGNORE */
 509:Generated_Source\PSoC6\pdl\middleware\ble/cy_ble_gap.h **** void Cy_BLE_ChangeAdDeviceAddress(const cy_stc_ble_gap_bd_addr_t* bdAddr, uint8_t dest);
 510:Generated_Source\PSoC6\pdl\middleware\ble/cy_ble_gap.h **** /** \endcond */
 511:Generated_Source\PSoC6\pdl\middleware\ble/cy_ble_gap.h **** 
 512:Generated_Source\PSoC6\pdl\middleware\ble/cy_ble_gap.h **** #endif /* CY_BLE_GAP_ROLE_PERIPHERAL */
 513:Generated_Source\PSoC6\pdl\middleware\ble/cy_ble_gap.h **** 
 514:Generated_Source\PSoC6\pdl\middleware\ble/cy_ble_gap.h **** /** @} group_ble_common_api_gap_peripheral_functions */
 515:Generated_Source\PSoC6\pdl\middleware\ble/cy_ble_gap.h **** 
 516:Generated_Source\PSoC6\pdl\middleware\ble/cy_ble_gap.h **** /**
 517:Generated_Source\PSoC6\pdl\middleware\ble/cy_ble_gap.h ****  * \addtogroup group_ble_common_api_gap_central_functions
 518:Generated_Source\PSoC6\pdl\middleware\ble/cy_ble_gap.h ****  * @{
 519:Generated_Source\PSoC6\pdl\middleware\ble/cy_ble_gap.h ****  */
 520:Generated_Source\PSoC6\pdl\middleware\ble/cy_ble_gap.h ****  
 521:Generated_Source\PSoC6\pdl\middleware\ble/cy_ble_gap.h **** #if (CY_BLE_GAP_ROLE_CENTRAL || CY_BLE_GAP_ROLE_OBSERVER)
 522:Generated_Source\PSoC6\pdl\middleware\ble/cy_ble_gap.h **** cy_en_ble_api_result_t Cy_BLE_GAPC_StartScan(uint8_t scanningIntervalType, uint8_t scanParamIndex);
 523:Generated_Source\PSoC6\pdl\middleware\ble/cy_ble_gap.h **** cy_en_ble_api_result_t Cy_BLE_GAPC_StopScan(void);
 524:Generated_Source\PSoC6\pdl\middleware\ble/cy_ble_gap.h **** #endif /* CY_BLE_GAP_ROLE_CENTRAL || CY_BLE_GAP_ROLE_OBSERVER */
 525:Generated_Source\PSoC6\pdl\middleware\ble/cy_ble_gap.h **** 
 526:Generated_Source\PSoC6\pdl\middleware\ble/cy_ble_gap.h **** #if (CY_BLE_GAP_ROLE_CENTRAL)
 527:Generated_Source\PSoC6\pdl\middleware\ble/cy_ble_gap.h **** cy_en_ble_api_result_t Cy_BLE_GAPC_ConnectDevice(const cy_stc_ble_gap_bd_addr_t * address, uint8_t 
 528:Generated_Source\PSoC6\pdl\middleware\ble/cy_ble_gap.h **** cy_en_ble_api_result_t Cy_BLE_GAPC_CancelDeviceConnection(void);
 529:Generated_Source\PSoC6\pdl\middleware\ble/cy_ble_gap.h **** #endif /* CY_BLE_GAP_ROLE_CENTRAL */
 530:Generated_Source\PSoC6\pdl\middleware\ble/cy_ble_gap.h **** 
 531:Generated_Source\PSoC6\pdl\middleware\ble/cy_ble_gap.h **** /** @} group_ble_common_api_gap_central_functions */
 532:Generated_Source\PSoC6\pdl\middleware\ble/cy_ble_gap.h **** 
 533:Generated_Source\PSoC6\pdl\middleware\ble/cy_ble_gap.h **** /***************************************
 534:Generated_Source\PSoC6\pdl\middleware\ble/cy_ble_gap.h **** * External data references
 535:Generated_Source\PSoC6\pdl\middleware\ble/cy_ble_gap.h **** ***************************************/
 536:Generated_Source\PSoC6\pdl\middleware\ble/cy_ble_gap.h **** extern volatile uint8_t cy_ble_eventHandlerFlag;
 537:Generated_Source\PSoC6\pdl\middleware\ble/cy_ble_gap.h **** extern cy_stc_ble_gap_bd_addr_t *cy_ble_sflashDeviceAddress;
 538:Generated_Source\PSoC6\pdl\middleware\ble/cy_ble_gap.h **** extern cy_stc_ble_gap_bd_addr_t cy_ble_deviceAddress;
 539:Generated_Source\PSoC6\pdl\middleware\ble/cy_ble_gap.h **** extern cy_en_ble_state_t cy_ble_state;
 540:Generated_Source\PSoC6\pdl\middleware\ble/cy_ble_gap.h **** 
 541:Generated_Source\PSoC6\pdl\middleware\ble/cy_ble_gap.h **** #if ((CY_BLE_GAP_ROLE_PERIPHERAL || CY_BLE_GAP_ROLE_CENTRAL))
 542:Generated_Source\PSoC6\pdl\middleware\ble/cy_ble_gap.h **** extern cy_stc_ble_gap_auth_info_t cy_ble_authInfo[CY_BLE_AUTH_INFO_COUNT];
 543:Generated_Source\PSoC6\pdl\middleware\ble/cy_ble_gap.h **** #endif /* ((CY_BLE_GAP_ROLE_PERIPHERAL || CY_BLE_GAP_ROLE_CENTRAL)) */
ARM GAS  C:\Users\JC\AppData\Local\Temp\ccNOiAvA.s 			page 11


 544:Generated_Source\PSoC6\pdl\middleware\ble/cy_ble_gap.h **** 
 545:Generated_Source\PSoC6\pdl\middleware\ble/cy_ble_gap.h **** #if (CY_BLE_GAP_ROLE_PERIPHERAL || CY_BLE_GAP_ROLE_BROADCASTER)
 546:Generated_Source\PSoC6\pdl\middleware\ble/cy_ble_gap.h **** extern cy_en_ble_adv_state_t cy_ble_advState;
 547:Generated_Source\PSoC6\pdl\middleware\ble/cy_ble_gap.h **** extern uint8_t cy_ble_advIndex;
 548:Generated_Source\PSoC6\pdl\middleware\ble/cy_ble_gap.h **** #endif  /* (CY_BLE_GAP_ROLE_PERIPHERAL || CY_BLE_GAP_ROLE_BROADCASTER) */
 549:Generated_Source\PSoC6\pdl\middleware\ble/cy_ble_gap.h **** 
 550:Generated_Source\PSoC6\pdl\middleware\ble/cy_ble_gap.h **** #if (CY_BLE_GAP_ROLE_CENTRAL || CY_BLE_GAP_ROLE_OBSERVER)
 551:Generated_Source\PSoC6\pdl\middleware\ble/cy_ble_gap.h **** extern cy_en_ble_scan_state_t cy_ble_scanState;
 552:Generated_Source\PSoC6\pdl\middleware\ble/cy_ble_gap.h **** extern uint8_t cy_ble_scanIndex;
 553:Generated_Source\PSoC6\pdl\middleware\ble/cy_ble_gap.h **** #endif /* (CY_BLE_GAP_ROLE_CENTRAL || CY_BLE_GAP_ROLE_OBSERVER) */
 554:Generated_Source\PSoC6\pdl\middleware\ble/cy_ble_gap.h **** 
 555:Generated_Source\PSoC6\pdl\middleware\ble/cy_ble_gap.h **** #if ((CY_BLE_GAP_ROLE_PERIPHERAL || CY_BLE_GAP_ROLE_CENTRAL))
 556:Generated_Source\PSoC6\pdl\middleware\ble/cy_ble_gap.h **** extern cy_stc_ble_conn_handle_t cy_ble_connHandle[CY_BLE_CONN_COUNT];
 557:Generated_Source\PSoC6\pdl\middleware\ble/cy_ble_gap.h **** extern cy_en_ble_conn_state_t cy_ble_connState[CY_BLE_CONN_COUNT];
 558:Generated_Source\PSoC6\pdl\middleware\ble/cy_ble_gap.h **** 
 559:Generated_Source\PSoC6\pdl\middleware\ble/cy_ble_gap.h **** extern volatile uint8_t cy_ble_devConnRole[CY_BLE_CONN_COUNT];                                     
 560:Generated_Source\PSoC6\pdl\middleware\ble/cy_ble_gap.h **** extern volatile bool cy_ble_pairStatus[CY_BLE_CONN_COUNT];
 561:Generated_Source\PSoC6\pdl\middleware\ble/cy_ble_gap.h **** 
 562:Generated_Source\PSoC6\pdl\middleware\ble/cy_ble_gap.h **** #endif /* ((CY_BLE_GAP_ROLE_PERIPHERAL || CY_BLE_GAP_ROLE_CENTRAL)) */
 563:Generated_Source\PSoC6\pdl\middleware\ble/cy_ble_gap.h **** 
 564:Generated_Source\PSoC6\pdl\middleware\ble/cy_ble_gap.h **** #if (CY_BLE_GAP_ROLE_CENTRAL || CY_BLE_GAP_ROLE_OBSERVER)
 565:Generated_Source\PSoC6\pdl\middleware\ble/cy_ble_gap.h **** extern cy_stc_ble_gapc_disc_info_t cy_ble_discoveryInfo[CY_BLE_GAPC_CONF_COUNT];
 566:Generated_Source\PSoC6\pdl\middleware\ble/cy_ble_gap.h **** #endif /* CY_BLE_GAP_ROLE_CENTRAL || CY_BLE_GAP_ROLE_OBSERVER */
 567:Generated_Source\PSoC6\pdl\middleware\ble/cy_ble_gap.h **** 
 568:Generated_Source\PSoC6\pdl\middleware\ble/cy_ble_gap.h **** #if (CY_BLE_GAP_ROLE_CENTRAL)
 569:Generated_Source\PSoC6\pdl\middleware\ble/cy_ble_gap.h **** extern cy_stc_ble_gapc_conn_info_t cy_ble_connectionParameters;
 570:Generated_Source\PSoC6\pdl\middleware\ble/cy_ble_gap.h **** extern cy_stc_ble_timer_info_t cy_ble_connectingTimeout;
 571:Generated_Source\PSoC6\pdl\middleware\ble/cy_ble_gap.h **** #endif /* CY_BLE_GAP_ROLE_CENTRAL */
 572:Generated_Source\PSoC6\pdl\middleware\ble/cy_ble_gap.h **** 
 573:Generated_Source\PSoC6\pdl\middleware\ble/cy_ble_gap.h **** #if (CY_BLE_GAP_ROLE_PERIPHERAL || CY_BLE_GAP_ROLE_BROADCASTER)
 574:Generated_Source\PSoC6\pdl\middleware\ble/cy_ble_gap.h **** extern cy_stc_ble_gapp_disc_mode_info_t cy_ble_discoveryModeInfo[CY_BLE_GAPP_CONF_COUNT];
 575:Generated_Source\PSoC6\pdl\middleware\ble/cy_ble_gap.h **** extern cy_stc_ble_gapp_disc_param_t cy_ble_discoveryParam[CY_BLE_GAPP_CONF_COUNT];
 576:Generated_Source\PSoC6\pdl\middleware\ble/cy_ble_gap.h **** extern cy_stc_ble_gapp_disc_data_t cy_ble_discoveryData[CY_BLE_GAPP_CONF_COUNT];
 577:Generated_Source\PSoC6\pdl\middleware\ble/cy_ble_gap.h **** extern cy_stc_ble_gapp_scan_rsp_data_t cy_ble_scanRspData[CY_BLE_GAPP_CONF_COUNT];
 578:Generated_Source\PSoC6\pdl\middleware\ble/cy_ble_gap.h **** #endif /* CY_BLE_GAP_ROLE_PERIPHERAL || CY_BLE_GAP_ROLE_BROADCASTER */
 579:Generated_Source\PSoC6\pdl\middleware\ble/cy_ble_gap.h **** 
 580:Generated_Source\PSoC6\pdl\middleware\ble/cy_ble_gap.h **** #if ((CY_BLE_GAP_ROLE_PERIPHERAL || CY_BLE_GAP_ROLE_CENTRAL) && (CY_BLE_BONDING_REQUIREMENT == CY_B
 581:Generated_Source\PSoC6\pdl\middleware\ble/cy_ble_gap.h **** 
 582:Generated_Source\PSoC6\pdl\middleware\ble/cy_ble_gap.h **** /**
 583:Generated_Source\PSoC6\pdl\middleware\ble/cy_ble_gap.h ****  * \addtogroup group_ble_common_api_global_variables
 584:Generated_Source\PSoC6\pdl\middleware\ble/cy_ble_gap.h ****  * @{
 585:Generated_Source\PSoC6\pdl\middleware\ble/cy_ble_gap.h ****  */  
 586:Generated_Source\PSoC6\pdl\middleware\ble/cy_ble_gap.h **** /** This is a two-bit variable that contains status of pending write to flash operation.
 587:Generated_Source\PSoC6\pdl\middleware\ble/cy_ble_gap.h ****  * This variable is initialized to zero in Cy_BLE_Init().
 588:Generated_Source\PSoC6\pdl\middleware\ble/cy_ble_gap.h ****  * CY_BLE_PENDING_CCCD_FLASH_WRITE_BIT flag is set after write to CCCD event when a
 589:Generated_Source\PSoC6\pdl\middleware\ble/cy_ble_gap.h ****  * peer device supports bonding (cy_ble_peerBonding[eventParam->connHandle.attId] == CY_BLE_GAP_BON
 590:Generated_Source\PSoC6\pdl\middleware\ble/cy_ble_gap.h ****  * CY_BLE_PENDING_STACK_FLASH_WRITE_BIT flag is set after CY_BLE_EVT_PENDING_FLASH_WRITE event.
 591:Generated_Source\PSoC6\pdl\middleware\ble/cy_ble_gap.h ****  * Cy_BLE_StoreBondingData() should be called to store pending bonding data.
 592:Generated_Source\PSoC6\pdl\middleware\ble/cy_ble_gap.h ****  * This function automatically clears pending bits after write operation is complete.
 593:Generated_Source\PSoC6\pdl\middleware\ble/cy_ble_gap.h ****  */
 594:Generated_Source\PSoC6\pdl\middleware\ble/cy_ble_gap.h **** extern uint8_t cy_ble_pendingFlashWrite;
 595:Generated_Source\PSoC6\pdl\middleware\ble/cy_ble_gap.h **** /** @} group_ble_common_api_global_variables */
 596:Generated_Source\PSoC6\pdl\middleware\ble/cy_ble_gap.h ****     
 597:Generated_Source\PSoC6\pdl\middleware\ble/cy_ble_gap.h **** /** Bonding type setting of peer device, CY_BLE_GAP_BONDING_NONE or CY_BLE_GAP_BONDING.
 598:Generated_Source\PSoC6\pdl\middleware\ble/cy_ble_gap.h ****  * It is initialized after pairing with peer device and used for cy_ble_pendingFlashWrite variable
 599:Generated_Source\PSoC6\pdl\middleware\ble/cy_ble_gap.h ****  * setting.
 600:Generated_Source\PSoC6\pdl\middleware\ble/cy_ble_gap.h ****  */
ARM GAS  C:\Users\JC\AppData\Local\Temp\ccNOiAvA.s 			page 12


 601:Generated_Source\PSoC6\pdl\middleware\ble/cy_ble_gap.h **** extern uint8_t cy_ble_peerBonding[CY_BLE_CONN_COUNT];
 602:Generated_Source\PSoC6\pdl\middleware\ble/cy_ble_gap.h **** 
 603:Generated_Source\PSoC6\pdl\middleware\ble/cy_ble_gap.h **** #endif  /* (CY_BLE_BONDING_REQUIREMENT == CY_BLE_BONDING_YES) */
 604:Generated_Source\PSoC6\pdl\middleware\ble/cy_ble_gap.h **** 
 605:Generated_Source\PSoC6\pdl\middleware\ble/cy_ble_gap.h **** 
 606:Generated_Source\PSoC6\pdl\middleware\ble/cy_ble_gap.h **** /***************************************
 607:Generated_Source\PSoC6\pdl\middleware\ble/cy_ble_gap.h **** * Exported Functions (MACROS)
 608:Generated_Source\PSoC6\pdl\middleware\ble/cy_ble_gap.h **** ***************************************/
 609:Generated_Source\PSoC6\pdl\middleware\ble/cy_ble_gap.h **** #if ((CY_BLE_GAP_ROLE_PERIPHERAL || CY_BLE_GAP_ROLE_CENTRAL))
 610:Generated_Source\PSoC6\pdl\middleware\ble/cy_ble_gap.h ****    
 611:Generated_Source\PSoC6\pdl\middleware\ble/cy_ble_gap.h **** /******************************************************************************
 612:Generated_Source\PSoC6\pdl\middleware\ble/cy_ble_gap.h **** * Function Name: Cy_BLE_GetConnHandleIdx
 613:Generated_Source\PSoC6\pdl\middleware\ble/cy_ble_gap.h **** ***************************************************************************//**
 614:Generated_Source\PSoC6\pdl\middleware\ble/cy_ble_gap.h **** *
 615:Generated_Source\PSoC6\pdl\middleware\ble/cy_ble_gap.h **** *  This function searches the array of connection handles (cy_ble_connHandle[])
 616:Generated_Source\PSoC6\pdl\middleware\ble/cy_ble_gap.h **** *  for the location (index) of a handle that corresponds to the input parameter
 617:Generated_Source\PSoC6\pdl\middleware\ble/cy_ble_gap.h **** *  connHandle. bdHandle.
 618:Generated_Source\PSoC6\pdl\middleware\ble/cy_ble_gap.h **** *
 619:Generated_Source\PSoC6\pdl\middleware\ble/cy_ble_gap.h **** *  This function is designated for internal usage. 
 620:Generated_Source\PSoC6\pdl\middleware\ble/cy_ble_gap.h **** *    
 621:Generated_Source\PSoC6\pdl\middleware\ble/cy_ble_gap.h **** *  \param connHandle: The connection handle.
 622:Generated_Source\PSoC6\pdl\middleware\ble/cy_ble_gap.h **** *
 623:Generated_Source\PSoC6\pdl\middleware\ble/cy_ble_gap.h **** *  \return
 624:Generated_Source\PSoC6\pdl\middleware\ble/cy_ble_gap.h **** *  retValue: the index of connHandle  
 625:Generated_Source\PSoC6\pdl\middleware\ble/cy_ble_gap.h **** *    
 626:Generated_Source\PSoC6\pdl\middleware\ble/cy_ble_gap.h **** ******************************************************************************/
 627:Generated_Source\PSoC6\pdl\middleware\ble/cy_ble_gap.h **** __STATIC_INLINE uint8_t Cy_BLE_GetConnHandleIdx(cy_stc_ble_conn_handle_t connHandle)
 628:Generated_Source\PSoC6\pdl\middleware\ble/cy_ble_gap.h **** {
 629:Generated_Source\PSoC6\pdl\middleware\ble/cy_ble_gap.h ****     uint8_t idx;
 630:Generated_Source\PSoC6\pdl\middleware\ble/cy_ble_gap.h ****     uint8_t retValue = CY_BLE_CONN_COUNT;
 631:Generated_Source\PSoC6\pdl\middleware\ble/cy_ble_gap.h **** 
 632:Generated_Source\PSoC6\pdl\middleware\ble/cy_ble_gap.h ****     for(idx = 0u; idx < CY_BLE_CONN_COUNT; idx++)
 633:Generated_Source\PSoC6\pdl\middleware\ble/cy_ble_gap.h ****     {
 634:Generated_Source\PSoC6\pdl\middleware\ble/cy_ble_gap.h ****         if(cy_ble_connHandle[idx].bdHandle == connHandle.bdHandle)
 635:Generated_Source\PSoC6\pdl\middleware\ble/cy_ble_gap.h ****         {
 636:Generated_Source\PSoC6\pdl\middleware\ble/cy_ble_gap.h ****             retValue = idx;
 637:Generated_Source\PSoC6\pdl\middleware\ble/cy_ble_gap.h ****             break;
 638:Generated_Source\PSoC6\pdl\middleware\ble/cy_ble_gap.h ****         }
 639:Generated_Source\PSoC6\pdl\middleware\ble/cy_ble_gap.h ****     }
 640:Generated_Source\PSoC6\pdl\middleware\ble/cy_ble_gap.h ****     if(retValue == CY_BLE_CONN_COUNT)
 641:Generated_Source\PSoC6\pdl\middleware\ble/cy_ble_gap.h ****     {
 642:Generated_Source\PSoC6\pdl\middleware\ble/cy_ble_gap.h ****         /* HALT in debug mode */
 643:Generated_Source\PSoC6\pdl\middleware\ble/cy_ble_gap.h ****         CY_ASSERT(retValue != CY_BLE_CONN_COUNT);
 644:Generated_Source\PSoC6\pdl\middleware\ble/cy_ble_gap.h ****         retValue = 0u;
 645:Generated_Source\PSoC6\pdl\middleware\ble/cy_ble_gap.h ****     }
 646:Generated_Source\PSoC6\pdl\middleware\ble/cy_ble_gap.h **** 
 647:Generated_Source\PSoC6\pdl\middleware\ble/cy_ble_gap.h ****     return(retValue);
 648:Generated_Source\PSoC6\pdl\middleware\ble/cy_ble_gap.h **** }
 649:Generated_Source\PSoC6\pdl\middleware\ble/cy_ble_gap.h **** #endif  /* ((CY_BLE_GAP_ROLE_PERIPHERAL || CY_BLE_GAP_ROLE_CENTRAL)) */
 650:Generated_Source\PSoC6\pdl\middleware\ble/cy_ble_gap.h **** 
 651:Generated_Source\PSoC6\pdl\middleware\ble/cy_ble_gap.h **** /**
 652:Generated_Source\PSoC6\pdl\middleware\ble/cy_ble_gap.h ****  * \addtogroup group_ble_common_api_functions
 653:Generated_Source\PSoC6\pdl\middleware\ble/cy_ble_gap.h ****  * @{
 654:Generated_Source\PSoC6\pdl\middleware\ble/cy_ble_gap.h **** */
 655:Generated_Source\PSoC6\pdl\middleware\ble/cy_ble_gap.h **** /******************************************************************************
 656:Generated_Source\PSoC6\pdl\middleware\ble/cy_ble_gap.h **** * Function Name: Cy_BLE_GetState
 657:Generated_Source\PSoC6\pdl\middleware\ble/cy_ble_gap.h **** ***************************************************************************//**
ARM GAS  C:\Users\JC\AppData\Local\Temp\ccNOiAvA.s 			page 13


 658:Generated_Source\PSoC6\pdl\middleware\ble/cy_ble_gap.h **** *
 659:Generated_Source\PSoC6\pdl\middleware\ble/cy_ble_gap.h **** *  This function is used to determine the current state of the BLE Middleware
 660:Generated_Source\PSoC6\pdl\middleware\ble/cy_ble_gap.h **** *  state machine :
 661:Generated_Source\PSoC6\pdl\middleware\ble/cy_ble_gap.h **** *
 662:Generated_Source\PSoC6\pdl\middleware\ble/cy_ble_gap.h **** *  \image html ble_middleware_state_machine.png
 663:Generated_Source\PSoC6\pdl\middleware\ble/cy_ble_gap.h **** *
 664:Generated_Source\PSoC6\pdl\middleware\ble/cy_ble_gap.h **** *  The BLE Middleware is in the state #CY_BLE_STATE_INITIALIZING after the 
 665:Generated_Source\PSoC6\pdl\middleware\ble/cy_ble_gap.h **** *  Cy_BLE_Enable() is called and until the #CY_BLE_EVT_STACK_ON event is not 
 666:Generated_Source\PSoC6\pdl\middleware\ble/cy_ble_gap.h **** *  received. After successful initialization the state is changed to 
 667:Generated_Source\PSoC6\pdl\middleware\ble/cy_ble_gap.h **** *  #CY_BLE_STATE_ON.
 668:Generated_Source\PSoC6\pdl\middleware\ble/cy_ble_gap.h **** *
 669:Generated_Source\PSoC6\pdl\middleware\ble/cy_ble_gap.h **** *  The BLE Middleware is in the state #CY_BLE_STATE_STOPPED 
 670:Generated_Source\PSoC6\pdl\middleware\ble/cy_ble_gap.h **** *  when the #CY_BLE_EVT_STACK_SHUTDOWN_COMPLETE event is received (after the 
 671:Generated_Source\PSoC6\pdl\middleware\ble/cy_ble_gap.h **** *  Cy_BLE_Disable() is called).
 672:Generated_Source\PSoC6\pdl\middleware\ble/cy_ble_gap.h **** *  
 673:Generated_Source\PSoC6\pdl\middleware\ble/cy_ble_gap.h **** *  For GAP Central role when the Cy_BLE_GAPC_ConnectDevice() is called, the state
 674:Generated_Source\PSoC6\pdl\middleware\ble/cy_ble_gap.h **** *  is changed to #CY_BLE_STATE_CONNECTING. After successful connection indicated
 675:Generated_Source\PSoC6\pdl\middleware\ble/cy_ble_gap.h **** *  by #CY_BLE_EVT_GAP_DEVICE_CONNECTED or #CY_BLE_EVT_GAP_ENHANCE_CONN_COMPLETE
 676:Generated_Source\PSoC6\pdl\middleware\ble/cy_ble_gap.h **** *  event or the timeout indicated by #CY_BLE_EVT_TIMEOUT event, the state is
 677:Generated_Source\PSoC6\pdl\middleware\ble/cy_ble_gap.h **** *  changed to #CY_BLE_STATE_ON.
 678:Generated_Source\PSoC6\pdl\middleware\ble/cy_ble_gap.h **** *
 679:Generated_Source\PSoC6\pdl\middleware\ble/cy_ble_gap.h **** * \return
 680:Generated_Source\PSoC6\pdl\middleware\ble/cy_ble_gap.h **** * \ref cy_en_ble_state_t : The current BLE Middleware state. The following are 
 681:Generated_Source\PSoC6\pdl\middleware\ble/cy_ble_gap.h **** *                         possible states:
 682:Generated_Source\PSoC6\pdl\middleware\ble/cy_ble_gap.h **** *
 683:Generated_Source\PSoC6\pdl\middleware\ble/cy_ble_gap.h **** *   State                      | Description
 684:Generated_Source\PSoC6\pdl\middleware\ble/cy_ble_gap.h **** *   -------------------------- | -----------
 685:Generated_Source\PSoC6\pdl\middleware\ble/cy_ble_gap.h **** *   CY_BLE_STATE_STOPPED       | BLE is turned off.
 686:Generated_Source\PSoC6\pdl\middleware\ble/cy_ble_gap.h **** *   CY_BLE_STATE_INITIALIZING  | BLE is initializing (waiting for #CY_BLE_EVT_STACK_ON event).
 687:Generated_Source\PSoC6\pdl\middleware\ble/cy_ble_gap.h **** *   CY_BLE_STATE_ON            | BLE is turned on.
 688:Generated_Source\PSoC6\pdl\middleware\ble/cy_ble_gap.h **** *   CY_BLE_STATE_CONNECTING    | BLE is connecting.
 689:Generated_Source\PSoC6\pdl\middleware\ble/cy_ble_gap.h **** 
 690:Generated_Source\PSoC6\pdl\middleware\ble/cy_ble_gap.h **** ******************************************************************************/
 691:Generated_Source\PSoC6\pdl\middleware\ble/cy_ble_gap.h **** #define Cy_BLE_GetState()    (cy_ble_state)
 692:Generated_Source\PSoC6\pdl\middleware\ble/cy_ble_gap.h **** 
 693:Generated_Source\PSoC6\pdl\middleware\ble/cy_ble_gap.h **** /** \cond IGNORE */
 694:Generated_Source\PSoC6\pdl\middleware\ble/cy_ble_gap.h **** /******************************************************************************
 695:Generated_Source\PSoC6\pdl\middleware\ble/cy_ble_gap.h **** * Function Name: Cy_BLE_SetState
 696:Generated_Source\PSoC6\pdl\middleware\ble/cy_ble_gap.h **** ***************************************************************************//**
 697:Generated_Source\PSoC6\pdl\middleware\ble/cy_ble_gap.h **** *
 698:Generated_Source\PSoC6\pdl\middleware\ble/cy_ble_gap.h **** *  Used to set the BLE Middleware state machine's state.
 699:Generated_Source\PSoC6\pdl\middleware\ble/cy_ble_gap.h **** *
 700:Generated_Source\PSoC6\pdl\middleware\ble/cy_ble_gap.h **** *  \param state: The desired state to which the event handler's
 701:Generated_Source\PSoC6\pdl\middleware\ble/cy_ble_gap.h **** *   state machine should be set. The parameter state is a variable
 702:Generated_Source\PSoC6\pdl\middleware\ble/cy_ble_gap.h **** *   of type cy_en_ble_state_t.
 703:Generated_Source\PSoC6\pdl\middleware\ble/cy_ble_gap.h **** *
 704:Generated_Source\PSoC6\pdl\middleware\ble/cy_ble_gap.h **** * \return
 705:Generated_Source\PSoC6\pdl\middleware\ble/cy_ble_gap.h **** *  None
 706:Generated_Source\PSoC6\pdl\middleware\ble/cy_ble_gap.h **** *
 707:Generated_Source\PSoC6\pdl\middleware\ble/cy_ble_gap.h **** ******************************************************************************/
 708:Generated_Source\PSoC6\pdl\middleware\ble/cy_ble_gap.h **** #define Cy_BLE_SetState(state)    (cy_ble_state = (state))
 709:Generated_Source\PSoC6\pdl\middleware\ble/cy_ble_gap.h **** /** \endcond */
 710:Generated_Source\PSoC6\pdl\middleware\ble/cy_ble_gap.h **** 
 711:Generated_Source\PSoC6\pdl\middleware\ble/cy_ble_gap.h **** #if (CY_BLE_GAP_ROLE_PERIPHERAL || CY_BLE_GAP_ROLE_BROADCASTER)
 712:Generated_Source\PSoC6\pdl\middleware\ble/cy_ble_gap.h **** 
 713:Generated_Source\PSoC6\pdl\middleware\ble/cy_ble_gap.h **** 
 714:Generated_Source\PSoC6\pdl\middleware\ble/cy_ble_gap.h **** /******************************************************************************
ARM GAS  C:\Users\JC\AppData\Local\Temp\ccNOiAvA.s 			page 14


 715:Generated_Source\PSoC6\pdl\middleware\ble/cy_ble_gap.h **** * Function Name: Cy_BLE_GetAdvertisementState
 716:Generated_Source\PSoC6\pdl\middleware\ble/cy_ble_gap.h **** ***************************************************************************//**
 717:Generated_Source\PSoC6\pdl\middleware\ble/cy_ble_gap.h **** *    
 718:Generated_Source\PSoC6\pdl\middleware\ble/cy_ble_gap.h **** *  This function returns the state of the link layer hardware advertisement
 719:Generated_Source\PSoC6\pdl\middleware\ble/cy_ble_gap.h **** *  engine.
 720:Generated_Source\PSoC6\pdl\middleware\ble/cy_ble_gap.h **** *
 721:Generated_Source\PSoC6\pdl\middleware\ble/cy_ble_gap.h **** *  \image html ble_advertisement_state_machine.png
 722:Generated_Source\PSoC6\pdl\middleware\ble/cy_ble_gap.h **** *
 723:Generated_Source\PSoC6\pdl\middleware\ble/cy_ble_gap.h **** *  When Cy_BLE_GAPP_StartAdvertisement() is called, the state is set to
 724:Generated_Source\PSoC6\pdl\middleware\ble/cy_ble_gap.h **** *  #CY_BLE_ADV_STATE_ADV_INITIATED. It automatically changes to
 725:Generated_Source\PSoC6\pdl\middleware\ble/cy_ble_gap.h **** *  #CY_BLE_ADV_STATE_ADVERTISING when #CY_BLE_EVT_GAPP_ADVERTISEMENT_START_STOP
 726:Generated_Source\PSoC6\pdl\middleware\ble/cy_ble_gap.h **** *  event is received. When Cy_BLE_GAPP_StopAdvertisement() is called, the
 727:Generated_Source\PSoC6\pdl\middleware\ble/cy_ble_gap.h **** *  state is set to #CY_BLE_ADV_STATE_STOP_INITIATED. It automatically changes
 728:Generated_Source\PSoC6\pdl\middleware\ble/cy_ble_gap.h **** *  to #CY_BLE_ADV_STATE_STOPPED when the #CY_BLE_EVT_GAPP_ADVERTISEMENT_START_STOP
 729:Generated_Source\PSoC6\pdl\middleware\ble/cy_ble_gap.h **** *  event is received.
 730:Generated_Source\PSoC6\pdl\middleware\ble/cy_ble_gap.h **** *
 731:Generated_Source\PSoC6\pdl\middleware\ble/cy_ble_gap.h **** * \return
 732:Generated_Source\PSoC6\pdl\middleware\ble/cy_ble_gap.h **** * \ref cy_en_ble_adv_state_t :The current advertising state. The following are 
 733:Generated_Source\PSoC6\pdl\middleware\ble/cy_ble_gap.h **** *                              possible states.
 734:Generated_Source\PSoC6\pdl\middleware\ble/cy_ble_gap.h **** *
 735:Generated_Source\PSoC6\pdl\middleware\ble/cy_ble_gap.h **** *               State                |         Description
 736:Generated_Source\PSoC6\pdl\middleware\ble/cy_ble_gap.h **** *   -------------------------------- | -----------------------------
 737:Generated_Source\PSoC6\pdl\middleware\ble/cy_ble_gap.h **** *   CY_BLE_ADV_STATE_STOPPED         | Advertising is stopped.
 738:Generated_Source\PSoC6\pdl\middleware\ble/cy_ble_gap.h **** *   CY_BLE_ADV_STATE_ADV_INITIATED   | Advertising is initiated.
 739:Generated_Source\PSoC6\pdl\middleware\ble/cy_ble_gap.h **** *   CY_BLE_ADV_STATE_ADVERTISING     | Advertising is initiated.
 740:Generated_Source\PSoC6\pdl\middleware\ble/cy_ble_gap.h **** *   CY_BLE_ADV_STATE_STOP_INITIATED  | Stop advertising is initiated.
 741:Generated_Source\PSoC6\pdl\middleware\ble/cy_ble_gap.h **** *
 742:Generated_Source\PSoC6\pdl\middleware\ble/cy_ble_gap.h **** ******************************************************************************/
 743:Generated_Source\PSoC6\pdl\middleware\ble/cy_ble_gap.h **** __STATIC_INLINE cy_en_ble_adv_state_t Cy_BLE_GetAdvertisementState(void)
 744:Generated_Source\PSoC6\pdl\middleware\ble/cy_ble_gap.h **** {
 745:Generated_Source\PSoC6\pdl\middleware\ble/cy_ble_gap.h ****     return(cy_ble_advState);
 746:Generated_Source\PSoC6\pdl\middleware\ble/cy_ble_gap.h **** }
 747:Generated_Source\PSoC6\pdl\middleware\ble/cy_ble_gap.h **** 
 748:Generated_Source\PSoC6\pdl\middleware\ble/cy_ble_gap.h **** /** \cond IGNORE */
 749:Generated_Source\PSoC6\pdl\middleware\ble/cy_ble_gap.h **** /******************************************************************************
 750:Generated_Source\PSoC6\pdl\middleware\ble/cy_ble_gap.h **** * Function Name: Cy_BLE_SetAdvertisementState
 751:Generated_Source\PSoC6\pdl\middleware\ble/cy_ble_gap.h **** ***************************************************************************//**
 752:Generated_Source\PSoC6\pdl\middleware\ble/cy_ble_gap.h **** *
 753:Generated_Source\PSoC6\pdl\middleware\ble/cy_ble_gap.h **** *  Used to set the state of the link layer hardware advertisement engine.
 754:Generated_Source\PSoC6\pdl\middleware\ble/cy_ble_gap.h **** *
 755:Generated_Source\PSoC6\pdl\middleware\ble/cy_ble_gap.h **** *  \param state: The desired state.
 756:Generated_Source\PSoC6\pdl\middleware\ble/cy_ble_gap.h **** *
 757:Generated_Source\PSoC6\pdl\middleware\ble/cy_ble_gap.h **** * \return
 758:Generated_Source\PSoC6\pdl\middleware\ble/cy_ble_gap.h **** *  None
 759:Generated_Source\PSoC6\pdl\middleware\ble/cy_ble_gap.h **** *
 760:Generated_Source\PSoC6\pdl\middleware\ble/cy_ble_gap.h **** ******************************************************************************/
 761:Generated_Source\PSoC6\pdl\middleware\ble/cy_ble_gap.h **** __STATIC_INLINE void Cy_BLE_SetAdvertisementState(cy_en_ble_adv_state_t state)
 762:Generated_Source\PSoC6\pdl\middleware\ble/cy_ble_gap.h **** {
  28              		.loc 1 762 0
  29              		.cfi_startproc
  30              		@ args = 0, pretend = 0, frame = 8
  31              		@ frame_needed = 1, uses_anonymous_args = 0
  32              		@ link register save eliminated.
  33 0000 80B4     		push	{r7}
  34              		.cfi_def_cfa_offset 4
  35              		.cfi_offset 7, -4
  36 0002 83B0     		sub	sp, sp, #12
ARM GAS  C:\Users\JC\AppData\Local\Temp\ccNOiAvA.s 			page 15


  37              		.cfi_def_cfa_offset 16
  38 0004 00AF     		add	r7, sp, #0
  39              		.cfi_def_cfa_register 7
  40 0006 0346     		mov	r3, r0
  41 0008 FB71     		strb	r3, [r7, #7]
 763:Generated_Source\PSoC6\pdl\middleware\ble/cy_ble_gap.h ****     cy_ble_advState = state;
  42              		.loc 1 763 0
  43 000a 044A     		ldr	r2, .L2
  44 000c FB79     		ldrb	r3, [r7, #7]
  45 000e 1370     		strb	r3, [r2]
 764:Generated_Source\PSoC6\pdl\middleware\ble/cy_ble_gap.h **** }
  46              		.loc 1 764 0
  47 0010 00BF     		nop
  48 0012 0C37     		adds	r7, r7, #12
  49              		.cfi_def_cfa_offset 4
  50 0014 BD46     		mov	sp, r7
  51              		.cfi_def_cfa_register 13
  52              		@ sp needed
  53 0016 5DF8047B 		ldr	r7, [sp], #4
  54              		.cfi_restore 7
  55              		.cfi_def_cfa_offset 0
  56 001a 7047     		bx	lr
  57              	.L3:
  58              		.align	2
  59              	.L2:
  60 001c 00000000 		.word	cy_ble_advState
  61              		.cfi_endproc
  62              	.LFE171:
  63              		.size	Cy_BLE_SetAdvertisementState, .-Cy_BLE_SetAdvertisementState
  64              		.global	cy_ble_stackMemoryRam
  65              		.section	.noinit,"aw",%progbits
  66              		.align	2
  67              		.type	cy_ble_stackMemoryRam, %object
  68              		.size	cy_ble_stackMemoryRam, 10512
  69              	cy_ble_stackMemoryRam:
  70 0000 00000000 		.space	10512
  70      00000000 
  70      00000000 
  70      00000000 
  70      00000000 
  71              		.global	Cy_BLE_ApplCallback
  72              		.bss
  73              		.align	2
  74              		.type	Cy_BLE_ApplCallback, %object
  75              		.size	Cy_BLE_ApplCallback, 4
  76              	Cy_BLE_ApplCallback:
  77 0000 00000000 		.space	4
  78              		.global	Cy_BLE_HostRegisteredCallback
  79              		.align	2
  80              		.type	Cy_BLE_HostRegisteredCallback, %object
  81              		.size	Cy_BLE_HostRegisteredCallback, 4
  82              	Cy_BLE_HostRegisteredCallback:
  83 0004 00000000 		.space	4
  84              		.global	cy_ble_configPtr
  85              		.align	2
  86              		.type	cy_ble_configPtr, %object
  87              		.size	cy_ble_configPtr, 4
ARM GAS  C:\Users\JC\AppData\Local\Temp\ccNOiAvA.s 			page 16


  88              	cy_ble_configPtr:
  89 0008 00000000 		.space	4
  90              		.align	2
  91              	bleDeepSleepCallbackParams:
  92 000c 00000000 		.space	8
  92      00000000 
  93              		.data
  94              		.align	2
  95              		.type	bleDeepSleepCallback, %object
  96              		.size	bleDeepSleepCallback, 24
  97              	bleDeepSleepCallback:
  98 0000 00000000 		.word	Cy_BLE_DeepSleepCallback
  99 0004 01       		.byte	1
 100 0005 000000   		.space	3
 101 0008 06000000 		.word	6
 102 000c 0C000000 		.word	bleDeepSleepCallbackParams
 103 0010 00000000 		.space	8
 103      00000000 
 104              		.section	.text.Cy_BLE_UnregisterHostPMCallbacks,"ax",%progbits
 105              		.align	2
 106              		.global	Cy_BLE_UnregisterHostPMCallbacks
 107              		.thumb
 108              		.thumb_func
 109              		.type	Cy_BLE_UnregisterHostPMCallbacks, %function
 110              	Cy_BLE_UnregisterHostPMCallbacks:
 111              	.LFB256:
 112              		.file 2 "Generated_Source\\PSoC6\\pdl\\middleware\\ble\\cy_ble.c"
   1:Generated_Source\PSoC6\pdl\middleware\ble/cy_ble.c **** /***************************************************************************//**
   2:Generated_Source\PSoC6\pdl\middleware\ble/cy_ble.c **** * \file cy_ble.c
   3:Generated_Source\PSoC6\pdl\middleware\ble/cy_ble.c **** * \version 2.60
   4:Generated_Source\PSoC6\pdl\middleware\ble/cy_ble.c **** *
   5:Generated_Source\PSoC6\pdl\middleware\ble/cy_ble.c **** * \brief
   6:Generated_Source\PSoC6\pdl\middleware\ble/cy_ble.c **** *  This file contains the source code for the API of the BLE Middleware.
   7:Generated_Source\PSoC6\pdl\middleware\ble/cy_ble.c **** *
   8:Generated_Source\PSoC6\pdl\middleware\ble/cy_ble.c **** ********************************************************************************
   9:Generated_Source\PSoC6\pdl\middleware\ble/cy_ble.c **** * \copyright
  10:Generated_Source\PSoC6\pdl\middleware\ble/cy_ble.c **** * Copyright 2017-2020, Cypress Semiconductor Corporation.  All rights reserved.
  11:Generated_Source\PSoC6\pdl\middleware\ble/cy_ble.c **** * You may use this file only in accordance with the license, terms, conditions,
  12:Generated_Source\PSoC6\pdl\middleware\ble/cy_ble.c **** * disclaimers, and limitations in the end user license agreement accompanying
  13:Generated_Source\PSoC6\pdl\middleware\ble/cy_ble.c **** * the software package with which this file was provided.
  14:Generated_Source\PSoC6\pdl\middleware\ble/cy_ble.c **** *******************************************************************************/
  15:Generated_Source\PSoC6\pdl\middleware\ble/cy_ble.c **** 
  16:Generated_Source\PSoC6\pdl\middleware\ble/cy_ble.c **** #include "cy_ble_event_handler.h"
  17:Generated_Source\PSoC6\pdl\middleware\ble/cy_ble.c **** #include "cy_ble_hal_pvt.h"
  18:Generated_Source\PSoC6\pdl\middleware\ble/cy_ble.c **** #include "ipc/cy_ipc_sema.h"
  19:Generated_Source\PSoC6\pdl\middleware\ble/cy_ble.c **** #include <stdlib.h>
  20:Generated_Source\PSoC6\pdl\middleware\ble/cy_ble.c **** 
  21:Generated_Source\PSoC6\pdl\middleware\ble/cy_ble.c **** /* C binding of definitions if building with C++ compiler */
  22:Generated_Source\PSoC6\pdl\middleware\ble/cy_ble.c **** #ifdef __cplusplus
  23:Generated_Source\PSoC6\pdl\middleware\ble/cy_ble.c **** extern "C" {
  24:Generated_Source\PSoC6\pdl\middleware\ble/cy_ble.c **** #endif /* __cplusplus */
  25:Generated_Source\PSoC6\pdl\middleware\ble/cy_ble.c **** 
  26:Generated_Source\PSoC6\pdl\middleware\ble/cy_ble.c **** #if (CY_BLE_HOST_CONTR_CORE)
  27:Generated_Source\PSoC6\pdl\middleware\ble/cy_ble.c **** 
  28:Generated_Source\PSoC6\pdl\middleware\ble/cy_ble.c **** /***************************************
  29:Generated_Source\PSoC6\pdl\middleware\ble/cy_ble.c **** * Global Variables
  30:Generated_Source\PSoC6\pdl\middleware\ble/cy_ble.c **** ***************************************/
ARM GAS  C:\Users\JC\AppData\Local\Temp\ccNOiAvA.s 			page 17


  31:Generated_Source\PSoC6\pdl\middleware\ble/cy_ble.c **** 
  32:Generated_Source\PSoC6\pdl\middleware\ble/cy_ble.c **** /* Allocate RAM memory for the stack. This buffer can be reused by the application when
  33:Generated_Source\PSoC6\pdl\middleware\ble/cy_ble.c ****  * the BLE Middleware is stopped. For the export mode, the buffer is allocated in a heap.
  34:Generated_Source\PSoC6\pdl\middleware\ble/cy_ble.c ****  */
  35:Generated_Source\PSoC6\pdl\middleware\ble/cy_ble.c **** #if (CY_BLE_SHARING_MODE_EXPORT)
  36:Generated_Source\PSoC6\pdl\middleware\ble/cy_ble.c **** uint8_t *cy_ble_stackMemoryRam = NULL;
  37:Generated_Source\PSoC6\pdl\middleware\ble/cy_ble.c **** #else
  38:Generated_Source\PSoC6\pdl\middleware\ble/cy_ble.c **** CY_ALIGN(sizeof(uint32_t)) CY_NOINIT uint8_t cy_ble_stackMemoryRam[CY_BLE_STACK_RAM_SIZE];
  39:Generated_Source\PSoC6\pdl\middleware\ble/cy_ble.c **** #endif  /* CY_BLE_SHARING_MODE_EXPORT */
  40:Generated_Source\PSoC6\pdl\middleware\ble/cy_ble.c **** 
  41:Generated_Source\PSoC6\pdl\middleware\ble/cy_ble.c **** #if (CY_BLE_MODE_PROFILE)
  42:Generated_Source\PSoC6\pdl\middleware\ble/cy_ble.c **** /** An application layer event callback function to receive service events from the BLE Middleware.
  43:Generated_Source\PSoC6\pdl\middleware\ble/cy_ble.c **** cy_ble_callback_t Cy_BLE_ApplCallback = NULL;
  44:Generated_Source\PSoC6\pdl\middleware\ble/cy_ble.c ****     
  45:Generated_Source\PSoC6\pdl\middleware\ble/cy_ble.c **** /* BLE application IPC notification handler */
  46:Generated_Source\PSoC6\pdl\middleware\ble/cy_ble.c **** cy_ble_app_notify_callback_t Cy_BLE_HostRegisteredCallback = NULL;     
  47:Generated_Source\PSoC6\pdl\middleware\ble/cy_ble.c **** #endif  /* (CY_BLE_MODE_PROFILE) */
  48:Generated_Source\PSoC6\pdl\middleware\ble/cy_ble.c **** 
  49:Generated_Source\PSoC6\pdl\middleware\ble/cy_ble.c **** #if(CY_BLE_SHARING_MODE != CY_BLE_SHARING_IMPORT)
  50:Generated_Source\PSoC6\pdl\middleware\ble/cy_ble.c **** /** Pointer to the global BLE Config structures */
  51:Generated_Source\PSoC6\pdl\middleware\ble/cy_ble.c **** cy_stc_ble_config_t *cy_ble_configPtr = NULL;
  52:Generated_Source\PSoC6\pdl\middleware\ble/cy_ble.c **** #endif /* CY_BLE_SHARING_MODE != CY_BLE_SHARING_IMPORT */
  53:Generated_Source\PSoC6\pdl\middleware\ble/cy_ble.c **** 
  54:Generated_Source\PSoC6\pdl\middleware\ble/cy_ble.c **** #if (CY_BLE_USE_DEEP_SLEEP != 0u)
  55:Generated_Source\PSoC6\pdl\middleware\ble/cy_ble.c ****   /* Structure with the syspm callback parameters for BLE deep-sleep */
  56:Generated_Source\PSoC6\pdl\middleware\ble/cy_ble.c ****   static cy_stc_syspm_callback_params_t bleDeepSleepCallbackParams = { .base = NULL};
  57:Generated_Source\PSoC6\pdl\middleware\ble/cy_ble.c ****   static cy_stc_syspm_callback_t bleDeepSleepCallback =
  58:Generated_Source\PSoC6\pdl\middleware\ble/cy_ble.c ****   {
  59:Generated_Source\PSoC6\pdl\middleware\ble/cy_ble.c ****     .callback = &Cy_BLE_DeepSleepCallback,
  60:Generated_Source\PSoC6\pdl\middleware\ble/cy_ble.c ****     .type = CY_SYSPM_DEEPSLEEP,
  61:Generated_Source\PSoC6\pdl\middleware\ble/cy_ble.c ****     .skipMode = CY_SYSPM_SKIP_BEFORE_TRANSITION | CY_SYSPM_SKIP_CHECK_FAIL,
  62:Generated_Source\PSoC6\pdl\middleware\ble/cy_ble.c ****     .callbackParams = &bleDeepSleepCallbackParams
  63:Generated_Source\PSoC6\pdl\middleware\ble/cy_ble.c ****   };
  64:Generated_Source\PSoC6\pdl\middleware\ble/cy_ble.c **** 
  65:Generated_Source\PSoC6\pdl\middleware\ble/cy_ble.c ****   /* Structure with the syspm callback parameters for BLE sleep */
  66:Generated_Source\PSoC6\pdl\middleware\ble/cy_ble.c **** #if(CY_BLE_STACK_MODE_HOST_IPC)
  67:Generated_Source\PSoC6\pdl\middleware\ble/cy_ble.c ****   static cy_stc_syspm_callback_params_t bleSleepCallbackParams = { .base = NULL};
  68:Generated_Source\PSoC6\pdl\middleware\ble/cy_ble.c ****   static cy_stc_syspm_callback_t bleSleepCallback =
  69:Generated_Source\PSoC6\pdl\middleware\ble/cy_ble.c ****   {
  70:Generated_Source\PSoC6\pdl\middleware\ble/cy_ble.c ****     .callback = &Cy_BLE_SleepCallback,
  71:Generated_Source\PSoC6\pdl\middleware\ble/cy_ble.c ****     .type = CY_SYSPM_SLEEP,
  72:Generated_Source\PSoC6\pdl\middleware\ble/cy_ble.c ****     .skipMode = CY_SYSPM_SKIP_BEFORE_TRANSITION | CY_SYSPM_SKIP_CHECK_FAIL,
  73:Generated_Source\PSoC6\pdl\middleware\ble/cy_ble.c ****     .callbackParams = &bleSleepCallbackParams
  74:Generated_Source\PSoC6\pdl\middleware\ble/cy_ble.c ****   };
  75:Generated_Source\PSoC6\pdl\middleware\ble/cy_ble.c **** #endif /* CY_BLE_STACK_MODE_HOST_IPC */
  76:Generated_Source\PSoC6\pdl\middleware\ble/cy_ble.c **** #endif  /* (CY_BLE_USE_DEEP_SLEEP != 0u) */
  77:Generated_Source\PSoC6\pdl\middleware\ble/cy_ble.c **** 
  78:Generated_Source\PSoC6\pdl\middleware\ble/cy_ble.c **** #if (CY_BLE_INTR_NOTIFY_FEATURE_ENABLED) && (CY_BLE_MODE_PROFILE)
  79:Generated_Source\PSoC6\pdl\middleware\ble/cy_ble.c **** /** BLE interrupt notification structure */
  80:Generated_Source\PSoC6\pdl\middleware\ble/cy_ble.c **** cy_stc_ble_intr_notify_t intrNotify = 
  81:Generated_Source\PSoC6\pdl\middleware\ble/cy_ble.c **** {
  82:Generated_Source\PSoC6\pdl\middleware\ble/cy_ble.c ****     .clientID = CY_BLE_CYPIPE_MSG_INTR_NOTIFY_ID,
  83:Generated_Source\PSoC6\pdl\middleware\ble/cy_ble.c ****     .pktType  = 0xFFu
  84:Generated_Source\PSoC6\pdl\middleware\ble/cy_ble.c **** };
  85:Generated_Source\PSoC6\pdl\middleware\ble/cy_ble.c **** #endif /*(CY_BLE_INTR_NOTIFY_FEATURE_ENABLED) && (CY_BLE_MODE_PROFILE) */
  86:Generated_Source\PSoC6\pdl\middleware\ble/cy_ble.c **** 
  87:Generated_Source\PSoC6\pdl\middleware\ble/cy_ble.c **** 
ARM GAS  C:\Users\JC\AppData\Local\Temp\ccNOiAvA.s 			page 18


  88:Generated_Source\PSoC6\pdl\middleware\ble/cy_ble.c **** /******************************************************************************
  89:Generated_Source\PSoC6\pdl\middleware\ble/cy_ble.c **** * Function Name: Cy_BLE_UnregisterHostPMCallbacks
  90:Generated_Source\PSoC6\pdl\middleware\ble/cy_ble.c **** ***************************************************************************//**
  91:Generated_Source\PSoC6\pdl\middleware\ble/cy_ble.c **** *
  92:Generated_Source\PSoC6\pdl\middleware\ble/cy_ble.c **** *  Unregister BLE callback for Deepsleep/Sleep
  93:Generated_Source\PSoC6\pdl\middleware\ble/cy_ble.c **** *
  94:Generated_Source\PSoC6\pdl\middleware\ble/cy_ble.c **** ******************************************************************************/
  95:Generated_Source\PSoC6\pdl\middleware\ble/cy_ble.c **** void Cy_BLE_UnregisterHostPMCallbacks(void)
  96:Generated_Source\PSoC6\pdl\middleware\ble/cy_ble.c **** {
 113              		.loc 2 96 0
 114              		.cfi_startproc
 115              		@ args = 0, pretend = 0, frame = 0
 116              		@ frame_needed = 1, uses_anonymous_args = 0
 117 0000 80B5     		push	{r7, lr}
 118              		.cfi_def_cfa_offset 8
 119              		.cfi_offset 7, -8
 120              		.cfi_offset 14, -4
 121 0002 00AF     		add	r7, sp, #0
 122              		.cfi_def_cfa_register 7
  97:Generated_Source\PSoC6\pdl\middleware\ble/cy_ble.c ****     #if (CY_BLE_USE_DEEP_SLEEP != 0u)
  98:Generated_Source\PSoC6\pdl\middleware\ble/cy_ble.c ****         /* Unregister BLE callback for Deepsleep support */
  99:Generated_Source\PSoC6\pdl\middleware\ble/cy_ble.c ****         (void)Cy_SysPm_UnregisterCallback(&bleDeepSleepCallback);
 123              		.loc 2 99 0
 124 0004 0248     		ldr	r0, .L5
 125 0006 FFF7FEFF 		bl	Cy_SysPm_UnregisterCallback
 100:Generated_Source\PSoC6\pdl\middleware\ble/cy_ble.c ****         
 101:Generated_Source\PSoC6\pdl\middleware\ble/cy_ble.c ****         /* Unregister sleep mode callback only in dual core mode for the host core */
 102:Generated_Source\PSoC6\pdl\middleware\ble/cy_ble.c ****         #if(CY_BLE_STACK_MODE_HOST_IPC)
 103:Generated_Source\PSoC6\pdl\middleware\ble/cy_ble.c ****             /* Unregister BLE callback for Sleep support */
 104:Generated_Source\PSoC6\pdl\middleware\ble/cy_ble.c ****             (void)Cy_SysPm_UnregisterCallback(&bleSleepCallback);
 105:Generated_Source\PSoC6\pdl\middleware\ble/cy_ble.c ****         #endif /* ( CY_BLE_STACK_MODE_HOST_IPC) */
 106:Generated_Source\PSoC6\pdl\middleware\ble/cy_ble.c ****     #endif /* (CY_BLE_USE_DEEP_SLEEP != 0u) */
 107:Generated_Source\PSoC6\pdl\middleware\ble/cy_ble.c **** }
 126              		.loc 2 107 0
 127 000a 00BF     		nop
 128 000c 80BD     		pop	{r7, pc}
 129              	.L6:
 130 000e 00BF     		.align	2
 131              	.L5:
 132 0010 00000000 		.word	bleDeepSleepCallback
 133              		.cfi_endproc
 134              	.LFE256:
 135              		.size	Cy_BLE_UnregisterHostPMCallbacks, .-Cy_BLE_UnregisterHostPMCallbacks
 136              		.section	.text.Cy_BLE_Init,"ax",%progbits
 137              		.align	2
 138              		.global	Cy_BLE_Init
 139              		.thumb
 140              		.thumb_func
 141              		.type	Cy_BLE_Init, %function
 142              	Cy_BLE_Init:
 143              	.LFB257:
 108:Generated_Source\PSoC6\pdl\middleware\ble/cy_ble.c **** 
 109:Generated_Source\PSoC6\pdl\middleware\ble/cy_ble.c **** /**
 110:Generated_Source\PSoC6\pdl\middleware\ble/cy_ble.c ****  * \addtogroup group_ble_common_api_functions
 111:Generated_Source\PSoC6\pdl\middleware\ble/cy_ble.c ****  * @{
 112:Generated_Source\PSoC6\pdl\middleware\ble/cy_ble.c ****  */
 113:Generated_Source\PSoC6\pdl\middleware\ble/cy_ble.c **** 
ARM GAS  C:\Users\JC\AppData\Local\Temp\ccNOiAvA.s 			page 19


 114:Generated_Source\PSoC6\pdl\middleware\ble/cy_ble.c **** /******************************************************************************
 115:Generated_Source\PSoC6\pdl\middleware\ble/cy_ble.c **** * Function Name: Cy_BLE_Init
 116:Generated_Source\PSoC6\pdl\middleware\ble/cy_ble.c **** ***************************************************************************//**
 117:Generated_Source\PSoC6\pdl\middleware\ble/cy_ble.c **** *
 118:Generated_Source\PSoC6\pdl\middleware\ble/cy_ble.c **** *  Initializes the BLE Middleware.
 119:Generated_Source\PSoC6\pdl\middleware\ble/cy_ble.c **** *  
 120:Generated_Source\PSoC6\pdl\middleware\ble/cy_ble.c **** *
 121:Generated_Source\PSoC6\pdl\middleware\ble/cy_ble.c **** *  \param config: The configuration structure for the BLE Middleware.
 122:Generated_Source\PSoC6\pdl\middleware\ble/cy_ble.c **** *
 123:Generated_Source\PSoC6\pdl\middleware\ble/cy_ble.c **** * \return
 124:Generated_Source\PSoC6\pdl\middleware\ble/cy_ble.c **** * \ref cy_en_ble_api_result_t : Return value indicates if the function succeeded or
 125:Generated_Source\PSoC6\pdl\middleware\ble/cy_ble.c **** *  failed. The following are possible error codes.
 126:Generated_Source\PSoC6\pdl\middleware\ble/cy_ble.c **** *
 127:Generated_Source\PSoC6\pdl\middleware\ble/cy_ble.c **** *   Error codes                     | Description
 128:Generated_Source\PSoC6\pdl\middleware\ble/cy_ble.c **** *   ------------                    | -----------
 129:Generated_Source\PSoC6\pdl\middleware\ble/cy_ble.c **** *   CY_BLE_SUCCESS                  | The function completed successfully.
 130:Generated_Source\PSoC6\pdl\middleware\ble/cy_ble.c **** *   CY_BLE_ERROR_INVALID_PARAMETER  | On specifying NULL as the input parameter.
 131:Generated_Source\PSoC6\pdl\middleware\ble/cy_ble.c **** *
 132:Generated_Source\PSoC6\pdl\middleware\ble/cy_ble.c **** ******************************************************************************/
 133:Generated_Source\PSoC6\pdl\middleware\ble/cy_ble.c **** cy_en_ble_api_result_t Cy_BLE_Init(cy_stc_ble_config_t *config)
 134:Generated_Source\PSoC6\pdl\middleware\ble/cy_ble.c **** {
 144              		.loc 2 134 0
 145              		.cfi_startproc
 146              		@ args = 0, pretend = 0, frame = 16
 147              		@ frame_needed = 1, uses_anonymous_args = 0
 148 0000 80B5     		push	{r7, lr}
 149              		.cfi_def_cfa_offset 8
 150              		.cfi_offset 7, -8
 151              		.cfi_offset 14, -4
 152 0002 84B0     		sub	sp, sp, #16
 153              		.cfi_def_cfa_offset 24
 154 0004 00AF     		add	r7, sp, #0
 155              		.cfi_def_cfa_register 7
 156 0006 7860     		str	r0, [r7, #4]
 135:Generated_Source\PSoC6\pdl\middleware\ble/cy_ble.c ****     cy_en_ble_api_result_t apiResult = CY_BLE_SUCCESS;
 157              		.loc 2 135 0
 158 0008 0023     		movs	r3, #0
 159 000a FB60     		str	r3, [r7, #12]
 136:Generated_Source\PSoC6\pdl\middleware\ble/cy_ble.c **** 
 137:Generated_Source\PSoC6\pdl\middleware\ble/cy_ble.c ****     if(config == NULL)
 160              		.loc 2 137 0
 161 000c 7B68     		ldr	r3, [r7, #4]
 162 000e 002B     		cmp	r3, #0
 163 0010 02D1     		bne	.L8
 138:Generated_Source\PSoC6\pdl\middleware\ble/cy_ble.c ****     {
 139:Generated_Source\PSoC6\pdl\middleware\ble/cy_ble.c ****         apiResult = CY_BLE_ERROR_INVALID_PARAMETER;
 164              		.loc 2 139 0
 165 0012 154B     		ldr	r3, .L12
 166 0014 FB60     		str	r3, [r7, #12]
 167 0016 22E0     		b	.L9
 168              	.L8:
 140:Generated_Source\PSoC6\pdl\middleware\ble/cy_ble.c ****     }
 141:Generated_Source\PSoC6\pdl\middleware\ble/cy_ble.c ****     else
 142:Generated_Source\PSoC6\pdl\middleware\ble/cy_ble.c ****     {
 143:Generated_Source\PSoC6\pdl\middleware\ble/cy_ble.c ****         /* Register a pointer to the config structure */
 144:Generated_Source\PSoC6\pdl\middleware\ble/cy_ble.c ****         cy_ble_configPtr = config;
 169              		.loc 2 144 0
ARM GAS  C:\Users\JC\AppData\Local\Temp\ccNOiAvA.s 			page 20


 170 0018 144A     		ldr	r2, .L12+4
 171 001a 7B68     		ldr	r3, [r7, #4]
 172 001c 1360     		str	r3, [r2]
 145:Generated_Source\PSoC6\pdl\middleware\ble/cy_ble.c **** 
 146:Generated_Source\PSoC6\pdl\middleware\ble/cy_ble.c ****     #if (CY_BLE_MODE_PROFILE)
 147:Generated_Source\PSoC6\pdl\middleware\ble/cy_ble.c ****         /* Register a callback function via the config structure */
 148:Generated_Source\PSoC6\pdl\middleware\ble/cy_ble.c ****         if(cy_ble_configPtr->callbackFunc != NULL)
 173              		.loc 2 148 0
 174 001e 134B     		ldr	r3, .L12+4
 175 0020 1B68     		ldr	r3, [r3]
 176 0022 DB6A     		ldr	r3, [r3, #44]
 177 0024 002B     		cmp	r3, #0
 178 0026 04D0     		beq	.L10
 149:Generated_Source\PSoC6\pdl\middleware\ble/cy_ble.c ****         {
 150:Generated_Source\PSoC6\pdl\middleware\ble/cy_ble.c ****             Cy_BLE_ApplCallback = cy_ble_configPtr->callbackFunc;
 179              		.loc 2 150 0
 180 0028 104B     		ldr	r3, .L12+4
 181 002a 1B68     		ldr	r3, [r3]
 182 002c DB6A     		ldr	r3, [r3, #44]
 183 002e 104A     		ldr	r2, .L12+8
 184 0030 1360     		str	r3, [r2]
 185              	.L10:
 151:Generated_Source\PSoC6\pdl\middleware\ble/cy_ble.c ****         }
 152:Generated_Source\PSoC6\pdl\middleware\ble/cy_ble.c ****         cy_ble_eventHandlerFlag = 0u;
 186              		.loc 2 152 0
 187 0032 104B     		ldr	r3, .L12+12
 188 0034 0022     		movs	r2, #0
 189 0036 1A70     		strb	r2, [r3]
 153:Generated_Source\PSoC6\pdl\middleware\ble/cy_ble.c ****         (void)memset((uint8_t*)&cy_ble_busyStatus, 0, sizeof(cy_ble_busyStatus));
 190              		.loc 2 153 0
 191 0038 0122     		movs	r2, #1
 192 003a 0021     		movs	r1, #0
 193 003c 0E48     		ldr	r0, .L12+16
 194 003e FFF7FEFF 		bl	memset
 154:Generated_Source\PSoC6\pdl\middleware\ble/cy_ble.c **** 
 155:Generated_Source\PSoC6\pdl\middleware\ble/cy_ble.c ****         cy_ble_cmdStatus = 0u;
 195              		.loc 2 155 0
 196 0042 0E4B     		ldr	r3, .L12+20
 197 0044 0022     		movs	r2, #0
 198 0046 1A60     		str	r2, [r3]
 156:Generated_Source\PSoC6\pdl\middleware\ble/cy_ble.c ****         
 157:Generated_Source\PSoC6\pdl\middleware\ble/cy_ble.c ****         #if (CY_BLE_GATT_ROLE_CLIENT)
 158:Generated_Source\PSoC6\pdl\middleware\ble/cy_ble.c ****         {
 159:Generated_Source\PSoC6\pdl\middleware\ble/cy_ble.c ****             uint32_t idx;
 160:Generated_Source\PSoC6\pdl\middleware\ble/cy_ble.c ****             (void)memset(&cy_ble_serverInfo, 0, sizeof(cy_ble_serverInfo));
 161:Generated_Source\PSoC6\pdl\middleware\ble/cy_ble.c ****             (void)memset(cy_ble_connHandle, -1, sizeof(cy_ble_connHandle));
 162:Generated_Source\PSoC6\pdl\middleware\ble/cy_ble.c ****             (void)memset(&cy_ble_discovery, 0, sizeof(cy_ble_discovery));
 163:Generated_Source\PSoC6\pdl\middleware\ble/cy_ble.c **** 
 164:Generated_Source\PSoC6\pdl\middleware\ble/cy_ble.c ****             /* Update cy_ble_discovery[].connIndex with init values (CY_BLE_INVALID_CONN_HANDLE_VAL
 165:Generated_Source\PSoC6\pdl\middleware\ble/cy_ble.c ****             for(idx = 0u; idx < CY_BLE_GATTC_COUNT; idx++)
 166:Generated_Source\PSoC6\pdl\middleware\ble/cy_ble.c ****             {
 167:Generated_Source\PSoC6\pdl\middleware\ble/cy_ble.c ****                 cy_ble_discovery[idx].connIndex = CY_BLE_INVALID_CONN_HANDLE_VALUE;
 168:Generated_Source\PSoC6\pdl\middleware\ble/cy_ble.c ****             }
 169:Generated_Source\PSoC6\pdl\middleware\ble/cy_ble.c ****         }
 170:Generated_Source\PSoC6\pdl\middleware\ble/cy_ble.c ****         #endif /* CY_BLE_GATT_ROLE_CLIENT */
 171:Generated_Source\PSoC6\pdl\middleware\ble/cy_ble.c **** 
 172:Generated_Source\PSoC6\pdl\middleware\ble/cy_ble.c ****         #if (CY_BLE_GAP_ROLE_PERIPHERAL || CY_BLE_GAP_ROLE_BROADCASTER)
ARM GAS  C:\Users\JC\AppData\Local\Temp\ccNOiAvA.s 			page 21


 173:Generated_Source\PSoC6\pdl\middleware\ble/cy_ble.c ****         cy_ble_advertisingIntervalType = CY_BLE_ADVERTISING_FAST;
 199              		.loc 2 173 0
 200 0048 0D4B     		ldr	r3, .L12+24
 201 004a 0022     		movs	r2, #0
 202 004c 1A70     		strb	r2, [r3]
 174:Generated_Source\PSoC6\pdl\middleware\ble/cy_ble.c ****         #endif /* (CY_BLE_GAP_ROLE_PERIPHERAL || CY_BLE_GAP_ROLE_BROADCASTER)  */
 175:Generated_Source\PSoC6\pdl\middleware\ble/cy_ble.c **** 
 176:Generated_Source\PSoC6\pdl\middleware\ble/cy_ble.c ****         #if (CY_BLE_GAP_ROLE_CENTRAL || CY_BLE_GAP_ROLE_OBSERVER)
 177:Generated_Source\PSoC6\pdl\middleware\ble/cy_ble.c ****         cy_ble_scanningIntervalType = CY_BLE_SCANNING_FAST;
 178:Generated_Source\PSoC6\pdl\middleware\ble/cy_ble.c ****         #endif /* (CY_BLE_GAP_ROLE_CENTRAL || CY_BLE_GAP_ROLE_OBSERVER) */
 179:Generated_Source\PSoC6\pdl\middleware\ble/cy_ble.c **** 
 180:Generated_Source\PSoC6\pdl\middleware\ble/cy_ble.c ****         Cy_BLE_ServiceInit();
 203              		.loc 2 180 0
 204 004e FFF7FEFF 		bl	Cy_BLE_ServiceInit
 181:Generated_Source\PSoC6\pdl\middleware\ble/cy_ble.c **** 
 182:Generated_Source\PSoC6\pdl\middleware\ble/cy_ble.c ****         #if ((CY_BLE_GAP_ROLE_PERIPHERAL || CY_BLE_GAP_ROLE_CENTRAL) && (CY_BLE_BONDING_REQUIREMENT
 183:Generated_Source\PSoC6\pdl\middleware\ble/cy_ble.c ****         cy_ble_pendingFlashWrite = 0u;
 205              		.loc 2 183 0
 206 0052 0C4B     		ldr	r3, .L12+28
 207 0054 0022     		movs	r2, #0
 208 0056 1A70     		strb	r2, [r3]
 184:Generated_Source\PSoC6\pdl\middleware\ble/cy_ble.c ****         (void)memset(cy_ble_peerBonding, (int8_t)CY_BLE_GAP_BONDING_NONE, sizeof(cy_ble_peerBonding
 209              		.loc 2 184 0
 210 0058 0B4B     		ldr	r3, .L12+32
 211 005a 0022     		movs	r2, #0
 212 005c 1A70     		strb	r2, [r3]
 213              	.L9:
 185:Generated_Source\PSoC6\pdl\middleware\ble/cy_ble.c ****         #endif /* (CY_BLE_BONDING_REQUIREMENT == CY_BLE_BONDING_YES) */
 186:Generated_Source\PSoC6\pdl\middleware\ble/cy_ble.c ****     #endif     /* (CY_BLE_MODE_PROFILE) */
 187:Generated_Source\PSoC6\pdl\middleware\ble/cy_ble.c ****     }
 188:Generated_Source\PSoC6\pdl\middleware\ble/cy_ble.c ****             
 189:Generated_Source\PSoC6\pdl\middleware\ble/cy_ble.c ****     return(apiResult);
 214              		.loc 2 189 0
 215 005e FB68     		ldr	r3, [r7, #12]
 190:Generated_Source\PSoC6\pdl\middleware\ble/cy_ble.c **** }
 216              		.loc 2 190 0
 217 0060 1846     		mov	r0, r3
 218 0062 1037     		adds	r7, r7, #16
 219              		.cfi_def_cfa_offset 8
 220 0064 BD46     		mov	sp, r7
 221              		.cfi_def_cfa_register 13
 222              		@ sp needed
 223 0066 80BD     		pop	{r7, pc}
 224              	.L13:
 225              		.align	2
 226              	.L12:
 227 0068 01001600 		.word	1441793
 228 006c 00000000 		.word	cy_ble_configPtr
 229 0070 00000000 		.word	Cy_BLE_ApplCallback
 230 0074 00000000 		.word	cy_ble_eventHandlerFlag
 231 0078 00000000 		.word	cy_ble_busyStatus
 232 007c 00000000 		.word	cy_ble_cmdStatus
 233 0080 00000000 		.word	cy_ble_advertisingIntervalType
 234 0084 00000000 		.word	cy_ble_pendingFlashWrite
 235 0088 00000000 		.word	cy_ble_peerBonding
 236              		.cfi_endproc
 237              	.LFE257:
ARM GAS  C:\Users\JC\AppData\Local\Temp\ccNOiAvA.s 			page 22


 238              		.size	Cy_BLE_Init, .-Cy_BLE_Init
 239              		.section	.rodata
 240              		.align	2
 241              	.LC0:
 242 0000 2400     		.short	36
 243 0002 0300     		.short	3
 244 0004 3000     		.short	48
 245 0006 0100     		.short	1
 246 0008 2800     		.short	40
 247 000a 0200     		.short	2
 248 000c 2400     		.short	36
 249 000e 0200     		.short	2
 250 0010 0C00     		.short	12
 251 0012 0100     		.short	1
 252              		.section	.text.Cy_BLE_Enable,"ax",%progbits
 253              		.align	2
 254              		.global	Cy_BLE_Enable
 255              		.thumb
 256              		.thumb_func
 257              		.type	Cy_BLE_Enable, %function
 258              	Cy_BLE_Enable:
 259              	.LFB258:
 191:Generated_Source\PSoC6\pdl\middleware\ble/cy_ble.c **** /** @} */
 192:Generated_Source\PSoC6\pdl\middleware\ble/cy_ble.c **** 
 193:Generated_Source\PSoC6\pdl\middleware\ble/cy_ble.c **** /******************************************************************************
 194:Generated_Source\PSoC6\pdl\middleware\ble/cy_ble.c **** * Function Name: Cy_BLE_Enable
 195:Generated_Source\PSoC6\pdl\middleware\ble/cy_ble.c **** ***************************************************************************//**
 196:Generated_Source\PSoC6\pdl\middleware\ble/cy_ble.c **** *
 197:Generated_Source\PSoC6\pdl\middleware\ble/cy_ble.c **** *  Initializes and starts the BLE Stack.
 198:Generated_Source\PSoC6\pdl\middleware\ble/cy_ble.c **** *
 199:Generated_Source\PSoC6\pdl\middleware\ble/cy_ble.c **** *  Calling this function results in generation of a #CY_BLE_EVT_STACK_ON event
 200:Generated_Source\PSoC6\pdl\middleware\ble/cy_ble.c **** *  on successful initialization of the BLE Stack.
 201:Generated_Source\PSoC6\pdl\middleware\ble/cy_ble.c **** *
 202:Generated_Source\PSoC6\pdl\middleware\ble/cy_ble.c **** *  BLE Stack enables the BLE ECO clock automatically with the default
 203:Generated_Source\PSoC6\pdl\middleware\ble/cy_ble.c **** *  parameters:
 204:Generated_Source\PSoC6\pdl\middleware\ble/cy_ble.c **** *     Parameter            | Value
 205:Generated_Source\PSoC6\pdl\middleware\ble/cy_ble.c **** *     -------------------- | -----------
 206:Generated_Source\PSoC6\pdl\middleware\ble/cy_ble.c **** *     ECO Frequency        | CY_BLE_DEFAULT_ECO_FREQ
 207:Generated_Source\PSoC6\pdl\middleware\ble/cy_ble.c **** *     Divider              | CY_BLE_DEFAULT_ECO_DIV
 208:Generated_Source\PSoC6\pdl\middleware\ble/cy_ble.c **** *     Startup time         | CY_BLE_DEFAULT_OSC_STARTUP_DELAY_LF
 209:Generated_Source\PSoC6\pdl\middleware\ble/cy_ble.c **** *     Load cap             | CY_BLE_DEFAULT_CAP_TRIM_VALUE
 210:Generated_Source\PSoC6\pdl\middleware\ble/cy_ble.c **** *
 211:Generated_Source\PSoC6\pdl\middleware\ble/cy_ble.c **** *  If there is a need to start the BLE with non-default ECO parameters, 
 212:Generated_Source\PSoC6\pdl\middleware\ble/cy_ble.c **** *  call the Cy_BLE_EcoStart() function with the custom configuration each 
 213:Generated_Source\PSoC6\pdl\middleware\ble/cy_ble.c **** *  time before calling the Cy_BLE_Enable() function.
 214:Generated_Source\PSoC6\pdl\middleware\ble/cy_ble.c **** *
 215:Generated_Source\PSoC6\pdl\middleware\ble/cy_ble.c **** *  This function initializes the BLE Stack which consists of the BLE Stack 
 216:Generated_Source\PSoC6\pdl\middleware\ble/cy_ble.c **** *  Manager, BLE Controller, and BLE Host modules. It takes care of initializing
 217:Generated_Source\PSoC6\pdl\middleware\ble/cy_ble.c **** *  the Profile layer, schedulers, Timer and other platform-related resources
 218:Generated_Source\PSoC6\pdl\middleware\ble/cy_ble.c **** *  required for the BLE Middleware. It also registers the callback function for
 219:Generated_Source\PSoC6\pdl\middleware\ble/cy_ble.c **** *  BLE events that will be registered in the BLE stack.
 220:Generated_Source\PSoC6\pdl\middleware\ble/cy_ble.c **** *
 221:Generated_Source\PSoC6\pdl\middleware\ble/cy_ble.c **** *  Note that this function does not reset the BLE Stack.
 222:Generated_Source\PSoC6\pdl\middleware\ble/cy_ble.c **** * 
 223:Generated_Source\PSoC6\pdl\middleware\ble/cy_ble.c **** *  For the HCI-Mode of operation, this function will not initialize the BLE Host 
 224:Generated_Source\PSoC6\pdl\middleware\ble/cy_ble.c **** *  module.
 225:Generated_Source\PSoC6\pdl\middleware\ble/cy_ble.c **** *
ARM GAS  C:\Users\JC\AppData\Local\Temp\ccNOiAvA.s 			page 23


 226:Generated_Source\PSoC6\pdl\middleware\ble/cy_ble.c **** *  Calling this function results in generation of a #CY_BLE_EVT_STACK_ON event
 227:Generated_Source\PSoC6\pdl\middleware\ble/cy_ble.c **** *  on successful initialization of the BLE Stack.
 228:Generated_Source\PSoC6\pdl\middleware\ble/cy_ble.c **** *
 229:Generated_Source\PSoC6\pdl\middleware\ble/cy_ble.c **** *  In the Dual Core mode, this function should be called on both cores in the 
 230:Generated_Source\PSoC6\pdl\middleware\ble/cy_ble.c **** *  following sequence:
 231:Generated_Source\PSoC6\pdl\middleware\ble/cy_ble.c **** *   - call this function on CM0+ core to initialize the Controller.
 232:Generated_Source\PSoC6\pdl\middleware\ble/cy_ble.c **** *   - start CM4 core by calling Cy_SysEnableCM4() function.
 233:Generated_Source\PSoC6\pdl\middleware\ble/cy_ble.c **** *   - call this function on CM4 core to initialize the Host and Profiles.
 234:Generated_Source\PSoC6\pdl\middleware\ble/cy_ble.c **** *
 235:Generated_Source\PSoC6\pdl\middleware\ble/cy_ble.c **** *   BLE requires a call to Cy_IPC_SystemSemaInit() and Cy_IPC_SystemPipeInit() functions
 236:Generated_Source\PSoC6\pdl\middleware\ble/cy_ble.c **** *    before use.
 237:Generated_Source\PSoC6\pdl\middleware\ble/cy_ble.c **** *   
 238:Generated_Source\PSoC6\pdl\middleware\ble/cy_ble.c **** *    This function is called in the SystemInit() function, for proper flash write
 239:Generated_Source\PSoC6\pdl\middleware\ble/cy_ble.c **** *    and erase operations. If the default startup file is not used, or the function
 240:Generated_Source\PSoC6\pdl\middleware\ble/cy_ble.c **** *    SystemInit() is not called in your project, call the following functions:
 241:Generated_Source\PSoC6\pdl\middleware\ble/cy_ble.c **** *    -# Cy_IPC_SystemSemaInit()
 242:Generated_Source\PSoC6\pdl\middleware\ble/cy_ble.c **** *    -# Cy_IPC_SystemPipeInit()
 243:Generated_Source\PSoC6\pdl\middleware\ble/cy_ble.c **** *
 244:Generated_Source\PSoC6\pdl\middleware\ble/cy_ble.c **** * \return
 245:Generated_Source\PSoC6\pdl\middleware\ble/cy_ble.c **** * \ref cy_en_ble_api_result_t : Return value indicates if the function succeeded
 246:Generated_Source\PSoC6\pdl\middleware\ble/cy_ble.c **** *      or failed. The following are possible error codes.
 247:Generated_Source\PSoC6\pdl\middleware\ble/cy_ble.c **** *
 248:Generated_Source\PSoC6\pdl\middleware\ble/cy_ble.c **** *  <table>
 249:Generated_Source\PSoC6\pdl\middleware\ble/cy_ble.c **** *    <tr>
 250:Generated_Source\PSoC6\pdl\middleware\ble/cy_ble.c **** *      <th>Error codes</th>
 251:Generated_Source\PSoC6\pdl\middleware\ble/cy_ble.c **** *      <th>Description</th>
 252:Generated_Source\PSoC6\pdl\middleware\ble/cy_ble.c **** *    </tr>
 253:Generated_Source\PSoC6\pdl\middleware\ble/cy_ble.c **** *    <tr>
 254:Generated_Source\PSoC6\pdl\middleware\ble/cy_ble.c **** *      <td>CY_BLE_SUCCESS</td>
 255:Generated_Source\PSoC6\pdl\middleware\ble/cy_ble.c **** *      <td>On successful operation.</td>
 256:Generated_Source\PSoC6\pdl\middleware\ble/cy_ble.c **** *    </tr>
 257:Generated_Source\PSoC6\pdl\middleware\ble/cy_ble.c **** *    <tr>
 258:Generated_Source\PSoC6\pdl\middleware\ble/cy_ble.c **** *      <td>CY_BLE_ERROR_REPEATED_ATTEMPTS</td>
 259:Generated_Source\PSoC6\pdl\middleware\ble/cy_ble.c **** *      <td>On invoking this function more than once without calling 
 260:Generated_Source\PSoC6\pdl\middleware\ble/cy_ble.c **** *          Cy_BLE_Disable() function between calls to this function.</td>
 261:Generated_Source\PSoC6\pdl\middleware\ble/cy_ble.c **** *    </tr>
 262:Generated_Source\PSoC6\pdl\middleware\ble/cy_ble.c **** *    <tr>
 263:Generated_Source\PSoC6\pdl\middleware\ble/cy_ble.c **** *      <td>CY_BLE_ERROR_MEMORY_ALLOCATION_FAILED</td>
 264:Generated_Source\PSoC6\pdl\middleware\ble/cy_ble.c **** *      <td>There is insufficient memory available.</td>
 265:Generated_Source\PSoC6\pdl\middleware\ble/cy_ble.c **** *    </tr>
 266:Generated_Source\PSoC6\pdl\middleware\ble/cy_ble.c **** *  </table>
 267:Generated_Source\PSoC6\pdl\middleware\ble/cy_ble.c **** *
 268:Generated_Source\PSoC6\pdl\middleware\ble/cy_ble.c **** ******************************************************************************/
 269:Generated_Source\PSoC6\pdl\middleware\ble/cy_ble.c **** cy_en_ble_api_result_t Cy_BLE_Enable(void)
 270:Generated_Source\PSoC6\pdl\middleware\ble/cy_ble.c **** {
 260              		.loc 2 270 0
 261              		.cfi_startproc
 262              		@ args = 0, pretend = 0, frame = 112
 263              		@ frame_needed = 1, uses_anonymous_args = 0
 264 0000 F0B5     		push	{r4, r5, r6, r7, lr}
 265              		.cfi_def_cfa_offset 20
 266              		.cfi_offset 4, -20
 267              		.cfi_offset 5, -16
 268              		.cfi_offset 6, -12
 269              		.cfi_offset 7, -8
 270              		.cfi_offset 14, -4
 271 0002 9DB0     		sub	sp, sp, #116
ARM GAS  C:\Users\JC\AppData\Local\Temp\ccNOiAvA.s 			page 24


 272              		.cfi_def_cfa_offset 136
 273 0004 00AF     		add	r7, sp, #0
 274              		.cfi_def_cfa_register 7
 271:Generated_Source\PSoC6\pdl\middleware\ble/cy_ble.c ****     cy_en_ble_api_result_t apiResult = CY_BLE_SUCCESS;
 275              		.loc 2 271 0
 276 0006 0023     		movs	r3, #0
 277 0008 FB66     		str	r3, [r7, #108]
 272:Generated_Source\PSoC6\pdl\middleware\ble/cy_ble.c **** 
 273:Generated_Source\PSoC6\pdl\middleware\ble/cy_ble.c **** #if (CY_BLE_MODE_PROFILE)
 274:Generated_Source\PSoC6\pdl\middleware\ble/cy_ble.c ****          
 275:Generated_Source\PSoC6\pdl\middleware\ble/cy_ble.c ****     cy_stc_ble_stk_app_data_buff_t cy_ble_stackDataBuff[CY_BLE_STACK_APP_MIN_POOL] =
 278              		.loc 2 275 0
 279 000a 4F4B     		ldr	r3, .L21
 280 000c 07F15804 		add	r4, r7, #88
 281 0010 1D46     		mov	r5, r3
 282 0012 2868     		ldr	r0, [r5]	@ unaligned
 283 0014 6968     		ldr	r1, [r5, #4]	@ unaligned
 284 0016 AA68     		ldr	r2, [r5, #8]	@ unaligned
 285 0018 EB68     		ldr	r3, [r5, #12]	@ unaligned
 286 001a 0FC4     		stmia	r4!, {r0, r1, r2, r3}
 287 001c 2869     		ldr	r0, [r5, #16]	@ unaligned
 288 001e 2060     		str	r0, [r4]	@ unaligned
 276:Generated_Source\PSoC6\pdl\middleware\ble/cy_ble.c ****     {
 277:Generated_Source\PSoC6\pdl\middleware\ble/cy_ble.c ****         { CY_BLE_GATT_MTU_PLUS_L2CAP_MEM_EXT,   CY_BLE_GATT_MTU_BUFF_COUNT              },
 278:Generated_Source\PSoC6\pdl\middleware\ble/cy_ble.c ****         { CY_BLE_L2CAP_PSM_PLUS_L2CAP_MEM_EXT,  CY_BLE_L2CAP_PSM_COUNT                  },
 279:Generated_Source\PSoC6\pdl\middleware\ble/cy_ble.c ****         { CY_BLE_L2CAP_CBFC_PLUS_L2CAP_MEM_EXT, 2u * CY_BLE_L2CAP_LOGICAL_CHANNEL_COUNT },
 280:Generated_Source\PSoC6\pdl\middleware\ble/cy_ble.c ****         { CY_BLE_L2CAP_MTU_PLUS_L2CAP_MEM_EXT,  2u * CY_BLE_L2CAP_LOGICAL_CHANNEL_COUNT },
 281:Generated_Source\PSoC6\pdl\middleware\ble/cy_ble.c ****         { CY_BLE_GATT_DB_ATTR_BUFF_SIZE ,  1u }
 282:Generated_Source\PSoC6\pdl\middleware\ble/cy_ble.c ****     };
 283:Generated_Source\PSoC6\pdl\middleware\ble/cy_ble.c **** #endif  /* (CY_BLE_MODE_PROFILE) */
 284:Generated_Source\PSoC6\pdl\middleware\ble/cy_ble.c ****     
 285:Generated_Source\PSoC6\pdl\middleware\ble/cy_ble.c ****     cy_stc_ble_stack_init_info_t stackInitParam =
 289              		.loc 2 285 0
 290 0020 07F10C03 		add	r3, r7, #12
 291 0024 4C22     		movs	r2, #76
 292 0026 0021     		movs	r1, #0
 293 0028 1846     		mov	r0, r3
 294 002a FFF7FEFF 		bl	memset
 295 002e 474B     		ldr	r3, .L21+4
 296 0030 FB60     		str	r3, [r7, #12]
 297 0032 07F15803 		add	r3, r7, #88
 298 0036 7B61     		str	r3, [r7, #20]
 299 0038 42F61013 		movw	r3, #10512
 300 003c 3B83     		strh	r3, [r7, #24]	@ movhi
 301 003e 0523     		movs	r3, #5
 302 0040 BB76     		strb	r3, [r7, #26]
 286:Generated_Source\PSoC6\pdl\middleware\ble/cy_ble.c ****     {
 287:Generated_Source\PSoC6\pdl\middleware\ble/cy_ble.c ****     #if (CY_BLE_MODE_PROFILE)
 288:Generated_Source\PSoC6\pdl\middleware\ble/cy_ble.c ****         .CyBleAppCbFunc                      = (cy_ble_app_ev_cb_t)&Cy_BLE_EventHandler,
 289:Generated_Source\PSoC6\pdl\middleware\ble/cy_ble.c ****     #endif /* CY_BLE_MODE_PROFILE */
 290:Generated_Source\PSoC6\pdl\middleware\ble/cy_ble.c ****         .memParam                            =
 291:Generated_Source\PSoC6\pdl\middleware\ble/cy_ble.c ****         {
 292:Generated_Source\PSoC6\pdl\middleware\ble/cy_ble.c ****     #if (CY_BLE_MODE_PROFILE)
 293:Generated_Source\PSoC6\pdl\middleware\ble/cy_ble.c ****             .totalHeapSz                     = (uint16_t)(CY_BLE_STACK_RAM_SIZE - CY_BLE_GATT_PREPA
 294:Generated_Source\PSoC6\pdl\middleware\ble/cy_ble.c ****             .dataBuff                        = cy_ble_stackDataBuff,
 295:Generated_Source\PSoC6\pdl\middleware\ble/cy_ble.c ****             .totalDataBufferPools            = CY_BLE_STACK_APP_MIN_POOL,
 296:Generated_Source\PSoC6\pdl\middleware\ble/cy_ble.c **** 
ARM GAS  C:\Users\JC\AppData\Local\Temp\ccNOiAvA.s 			page 25


 297:Generated_Source\PSoC6\pdl\middleware\ble/cy_ble.c ****         #if (CY_BLE_BONDING_REQUIREMENT == CY_BLE_BONDING_YES)
 298:Generated_Source\PSoC6\pdl\middleware\ble/cy_ble.c ****             .bleStackFlashPointer            = (const uint8_t*)cy_ble_configPtr->flashStorage->stac
 303              		.loc 2 298 0
 304 0042 434B     		ldr	r3, .L21+8
 305 0044 1B68     		ldr	r3, [r3]
 306 0046 1B69     		ldr	r3, [r3, #16]
 285:Generated_Source\PSoC6\pdl\middleware\ble/cy_ble.c ****     {
 307              		.loc 2 285 0
 308 0048 FB61     		str	r3, [r7, #28]
 309 004a 41F29603 		movw	r3, #4246
 310 004e 3B62     		str	r3, [r7, #32]
 311 0050 1B23     		movs	r3, #27
 312 0052 BB84     		strh	r3, [r7, #36]	@ movhi
 313 0054 1B23     		movs	r3, #27
 314 0056 FB84     		strh	r3, [r7, #38]	@ movhi
 315 0058 0323     		movs	r3, #3
 316 005a 87F82830 		strb	r3, [r7, #40]
 317 005e 0423     		movs	r3, #4
 318 0060 87F82930 		strb	r3, [r7, #41]
 319 0064 0623     		movs	r3, #6
 320 0066 87F82A30 		strb	r3, [r7, #42]
 321 006a 1023     		movs	r3, #16
 322 006c 87F82B30 		strb	r3, [r7, #43]
 323 0070 1023     		movs	r3, #16
 324 0072 87F82C30 		strb	r3, [r7, #44]
 325 0076 1023     		movs	r3, #16
 326 0078 87F82D30 		strb	r3, [r7, #45]
 327 007c 7A23     		movs	r3, #122
 328 007e A7F85030 		strh	r3, [r7, #80]	@ movhi
 329 0082 0123     		movs	r3, #1
 330 0084 87F85430 		strb	r3, [r7, #84]
 299:Generated_Source\PSoC6\pdl\middleware\ble/cy_ble.c ****             .bleStackFlashSize               = CY_BLE_STACK_FLASH_SIZE,
 300:Generated_Source\PSoC6\pdl\middleware\ble/cy_ble.c ****         #endif  /* CY_BLE_BONDING_REQUIREMENT == CY_BLE_BONDING_YES */
 301:Generated_Source\PSoC6\pdl\middleware\ble/cy_ble.c ****     #else
 302:Generated_Source\PSoC6\pdl\middleware\ble/cy_ble.c ****             .totalHeapSz                     = CY_BLE_STACK_RAM_SIZE,
 303:Generated_Source\PSoC6\pdl\middleware\ble/cy_ble.c ****     #endif /* CY_BLE_MODE_PROFILE */
 304:Generated_Source\PSoC6\pdl\middleware\ble/cy_ble.c ****         },
 305:Generated_Source\PSoC6\pdl\middleware\ble/cy_ble.c ****         .stackConfig                         =
 306:Generated_Source\PSoC6\pdl\middleware\ble/cy_ble.c ****         {
 307:Generated_Source\PSoC6\pdl\middleware\ble/cy_ble.c ****             /* Configure DLE */
 308:Generated_Source\PSoC6\pdl\middleware\ble/cy_ble.c ****             .dleConfig.dleMaxTxCapability    = CY_BLE_LL_MAX_TX_PAYLOAD_SIZE,
 309:Generated_Source\PSoC6\pdl\middleware\ble/cy_ble.c ****             .dleConfig.dleMaxRxCapability    = CY_BLE_LL_MAX_RX_PAYLOAD_SIZE,
 310:Generated_Source\PSoC6\pdl\middleware\ble/cy_ble.c ****             .dleConfig.dleNumTxBuffer        = CY_BLE_LL_DEFAULT_NUM_ACL_TX_PACKETS,
 311:Generated_Source\PSoC6\pdl\middleware\ble/cy_ble.c ****             .dleConfig.dleNumRxBuffer        = CY_BLE_LL_DEFAULT_NUM_ACL_RX_PACKETS,
 312:Generated_Source\PSoC6\pdl\middleware\ble/cy_ble.c **** 
 313:Generated_Source\PSoC6\pdl\middleware\ble/cy_ble.c ****         #if (CY_BLE_MODE_PROFILE)
 314:Generated_Source\PSoC6\pdl\middleware\ble/cy_ble.c ****             /* Configure queue */
 315:Generated_Source\PSoC6\pdl\middleware\ble/cy_ble.c ****             .l2capConfig.l2capBufferPerConn  = CY_BLE_L2CAP_Q_DEPTH_PER_CONN,
 316:Generated_Source\PSoC6\pdl\middleware\ble/cy_ble.c ****         #endif /* (CY_BLE_MODE_PROFILE) */
 317:Generated_Source\PSoC6\pdl\middleware\ble/cy_ble.c **** 
 318:Generated_Source\PSoC6\pdl\middleware\ble/cy_ble.c ****             /* Configure LL Privacy */
 319:Generated_Source\PSoC6\pdl\middleware\ble/cy_ble.c ****             .privacyConfig.resolvingListSize = CY_BLE_MAX_RESOLVABLE_DEVICES,
 320:Generated_Source\PSoC6\pdl\middleware\ble/cy_ble.c **** 
 321:Generated_Source\PSoC6\pdl\middleware\ble/cy_ble.c ****             /* Configure bonded device list */
 322:Generated_Source\PSoC6\pdl\middleware\ble/cy_ble.c ****             .bondListConfig.bondListSize     = CY_BLE_MAX_BONDED_DEVICES,
 323:Generated_Source\PSoC6\pdl\middleware\ble/cy_ble.c **** 
 324:Generated_Source\PSoC6\pdl\middleware\ble/cy_ble.c ****             /* Configure white list */
ARM GAS  C:\Users\JC\AppData\Local\Temp\ccNOiAvA.s 			page 26


 325:Generated_Source\PSoC6\pdl\middleware\ble/cy_ble.c ****             .whiteListConfig.whiteListSize   = CY_BLE_MAX_WHITE_LIST_SIZE,
 326:Generated_Source\PSoC6\pdl\middleware\ble/cy_ble.c **** 
 327:Generated_Source\PSoC6\pdl\middleware\ble/cy_ble.c ****             .featureMask                     = (CY_BLE_DLE_FEATURE | CY_BLE_LL_PRIVACY_FEATURE | 
 328:Generated_Source\PSoC6\pdl\middleware\ble/cy_ble.c ****                                                 CY_BLE_SECURE_CONN_FEATURE | CY_BLE_PHY_UPDATE_FEAT
 329:Generated_Source\PSoC6\pdl\middleware\ble/cy_ble.c ****                                                 CY_BLE_STORE_BONDLIST_FEATURE | CY_BLE_STORE_RESOLV
 330:Generated_Source\PSoC6\pdl\middleware\ble/cy_ble.c ****                                                 CY_BLE_STORE_WHITELIST_FEATURE | CY_BLE_TX_POWER_CA
 331:Generated_Source\PSoC6\pdl\middleware\ble/cy_ble.c ****             .maxBleConnections               = CY_BLE_CONN_COUNT
 332:Generated_Source\PSoC6\pdl\middleware\ble/cy_ble.c ****         }
 333:Generated_Source\PSoC6\pdl\middleware\ble/cy_ble.c ****     };
 334:Generated_Source\PSoC6\pdl\middleware\ble/cy_ble.c **** 
 335:Generated_Source\PSoC6\pdl\middleware\ble/cy_ble.c **** #if (CY_BLE_USE_DEEP_SLEEP != 0u)
 336:Generated_Source\PSoC6\pdl\middleware\ble/cy_ble.c ****     /* Register BLE callback for Deepsleep support */
 337:Generated_Source\PSoC6\pdl\middleware\ble/cy_ble.c ****     (void)Cy_SysPm_RegisterCallback(&bleDeepSleepCallback);
 331              		.loc 2 337 0
 332 0088 3248     		ldr	r0, .L21+12
 333 008a FFF7FEFF 		bl	Cy_SysPm_RegisterCallback
 338:Generated_Source\PSoC6\pdl\middleware\ble/cy_ble.c ****     
 339:Generated_Source\PSoC6\pdl\middleware\ble/cy_ble.c ****     /* Register Sleep mode callback only in dual core mode for the host core */
 340:Generated_Source\PSoC6\pdl\middleware\ble/cy_ble.c ****     #if(CY_BLE_STACK_MODE_HOST_IPC)
 341:Generated_Source\PSoC6\pdl\middleware\ble/cy_ble.c ****     {
 342:Generated_Source\PSoC6\pdl\middleware\ble/cy_ble.c ****         /* Register BLE callback for Sleep support */
 343:Generated_Source\PSoC6\pdl\middleware\ble/cy_ble.c ****         (void)Cy_SysPm_RegisterCallback(&bleSleepCallback);
 344:Generated_Source\PSoC6\pdl\middleware\ble/cy_ble.c ****     }
 345:Generated_Source\PSoC6\pdl\middleware\ble/cy_ble.c ****     #endif /* (CY_BLE_STACK_MODE_HOST_IPC) */
 346:Generated_Source\PSoC6\pdl\middleware\ble/cy_ble.c **** #endif  /* (CY_BLE_USE_DEEP_SLEEP != 0u) */
 347:Generated_Source\PSoC6\pdl\middleware\ble/cy_ble.c ****     
 348:Generated_Source\PSoC6\pdl\middleware\ble/cy_ble.c **** #if(CY_BLE_SHARING_MODE_EXPORT)
 349:Generated_Source\PSoC6\pdl\middleware\ble/cy_ble.c ****     if(cy_ble_stackMemoryRam == NULL)
 350:Generated_Source\PSoC6\pdl\middleware\ble/cy_ble.c ****     {
 351:Generated_Source\PSoC6\pdl\middleware\ble/cy_ble.c ****         cy_ble_stackMemoryRam = (uint8 *)malloc(CY_BLE_STACK_RAM_SIZE);
 352:Generated_Source\PSoC6\pdl\middleware\ble/cy_ble.c ****         if(cy_ble_stackMemoryRam == NULL)
 353:Generated_Source\PSoC6\pdl\middleware\ble/cy_ble.c ****         {
 354:Generated_Source\PSoC6\pdl\middleware\ble/cy_ble.c ****             apiResult = CY_BLE_ERROR_MEMORY_ALLOCATION_FAILED;
 355:Generated_Source\PSoC6\pdl\middleware\ble/cy_ble.c ****         }
 356:Generated_Source\PSoC6\pdl\middleware\ble/cy_ble.c ****     }
 357:Generated_Source\PSoC6\pdl\middleware\ble/cy_ble.c **** #endif /* CY_BLE_SHARING_MODE_EXPORT */
 358:Generated_Source\PSoC6\pdl\middleware\ble/cy_ble.c ****     
 359:Generated_Source\PSoC6\pdl\middleware\ble/cy_ble.c ****     if(apiResult == CY_BLE_SUCCESS)
 334              		.loc 2 359 0
 335 008e FB6E     		ldr	r3, [r7, #108]
 336 0090 002B     		cmp	r3, #0
 337 0092 0AD1     		bne	.L15
 360:Generated_Source\PSoC6\pdl\middleware\ble/cy_ble.c ****     {
 361:Generated_Source\PSoC6\pdl\middleware\ble/cy_ble.c ****     #if (CY_BLE_DLE_FEATURE_ENABLED)
 362:Generated_Source\PSoC6\pdl\middleware\ble/cy_ble.c ****         Cy_BLE_EnableDleFeature();              /* Enable DLE code in the stack */
 363:Generated_Source\PSoC6\pdl\middleware\ble/cy_ble.c ****     #endif /* CY_BLE_DLE_FEATURE_ENABLED */
 364:Generated_Source\PSoC6\pdl\middleware\ble/cy_ble.c **** 
 365:Generated_Source\PSoC6\pdl\middleware\ble/cy_ble.c ****     #if (CY_BLE_LL_PRIVACY_FEATURE_ENABLED)
 366:Generated_Source\PSoC6\pdl\middleware\ble/cy_ble.c ****         Cy_BLE_EnablePrivacyFeature();          /* Enable LL Privacy code in the stack */
 338              		.loc 2 366 0
 339 0094 FFF7FEFF 		bl	Cy_BLE_EnablePrivacyFeature
 367:Generated_Source\PSoC6\pdl\middleware\ble/cy_ble.c ****     #endif /* CY_BLE_LL_PRIVACY_FEATURE_ENABLED */
 368:Generated_Source\PSoC6\pdl\middleware\ble/cy_ble.c **** 
 369:Generated_Source\PSoC6\pdl\middleware\ble/cy_ble.c ****     #if (CY_BLE_PHY_UPDATE_FEATURE_ENABLED)
 370:Generated_Source\PSoC6\pdl\middleware\ble/cy_ble.c ****         Cy_BLE_EnablePhyUpdateFeature();        /* Enable PHY Update code in the stack */
 340              		.loc 2 370 0
 341 0098 FFF7FEFF 		bl	Cy_BLE_EnablePhyUpdateFeature
ARM GAS  C:\Users\JC\AppData\Local\Temp\ccNOiAvA.s 			page 27


 371:Generated_Source\PSoC6\pdl\middleware\ble/cy_ble.c ****     #endif /* CY_BLE_PHY_UPDATE_FEATURE_ENABLED */
 372:Generated_Source\PSoC6\pdl\middleware\ble/cy_ble.c **** 
 373:Generated_Source\PSoC6\pdl\middleware\ble/cy_ble.c ****         apiResult = Cy_BLE_StackSetFeatureConfig(&stackInitParam.stackConfig);
 342              		.loc 2 373 0
 343 009c 07F10C03 		add	r3, r7, #12
 344 00a0 1833     		adds	r3, r3, #24
 345 00a2 1846     		mov	r0, r3
 346 00a4 FFF7FEFF 		bl	Cy_BLE_StackSetFeatureConfig
 347 00a8 F866     		str	r0, [r7, #108]
 348              	.L15:
 374:Generated_Source\PSoC6\pdl\middleware\ble/cy_ble.c ****     }
 375:Generated_Source\PSoC6\pdl\middleware\ble/cy_ble.c ****     
 376:Generated_Source\PSoC6\pdl\middleware\ble/cy_ble.c ****     if(apiResult == CY_BLE_SUCCESS)
 349              		.loc 2 376 0
 350 00aa FB6E     		ldr	r3, [r7, #108]
 351 00ac 002B     		cmp	r3, #0
 352 00ae 45D1     		bne	.L16
 377:Generated_Source\PSoC6\pdl\middleware\ble/cy_ble.c ****     {
 378:Generated_Source\PSoC6\pdl\middleware\ble/cy_ble.c ****         stackInitParam.memParam.memoryHeapPtr = cy_ble_stackMemoryRam;
 353              		.loc 2 378 0
 354 00b0 294B     		ldr	r3, .L21+16
 355 00b2 3B61     		str	r3, [r7, #16]
 379:Generated_Source\PSoC6\pdl\middleware\ble/cy_ble.c **** 
 380:Generated_Source\PSoC6\pdl\middleware\ble/cy_ble.c ****         /* Configure parameter for Radio PA calibration */
 381:Generated_Source\PSoC6\pdl\middleware\ble/cy_ble.c ****         if(cy_ble_configPtr->paCalConfig != NULL)
 356              		.loc 2 381 0
 357 00b4 264B     		ldr	r3, .L21+8
 358 00b6 1B68     		ldr	r3, [r3]
 359 00b8 9B6B     		ldr	r3, [r3, #56]
 360 00ba 002B     		cmp	r3, #0
 361 00bc 19D0     		beq	.L17
 382:Generated_Source\PSoC6\pdl\middleware\ble/cy_ble.c ****         {
 383:Generated_Source\PSoC6\pdl\middleware\ble/cy_ble.c ****             stackInitParam.stackConfig.paCalConfig = *cy_ble_configPtr->paCalConfig;
 362              		.loc 2 383 0
 363 00be 244B     		ldr	r3, .L21+8
 364 00c0 1B68     		ldr	r3, [r3]
 365 00c2 9B6B     		ldr	r3, [r3, #56]
 366 00c4 07F12E00 		add	r0, r7, #46
 367 00c8 03F12004 		add	r4, r3, #32
 368              	.L18:
 369 00cc 0246     		mov	r2, r0
 370 00ce 1946     		mov	r1, r3
 371 00d0 D1F800E0 		ldr	lr, [r1]	@ unaligned
 372 00d4 4E68     		ldr	r6, [r1, #4]	@ unaligned
 373 00d6 8D68     		ldr	r5, [r1, #8]	@ unaligned
 374 00d8 C968     		ldr	r1, [r1, #12]	@ unaligned
 375 00da C2F800E0 		str	lr, [r2]	@ unaligned
 376 00de 5660     		str	r6, [r2, #4]	@ unaligned
 377 00e0 9560     		str	r5, [r2, #8]	@ unaligned
 378 00e2 D160     		str	r1, [r2, #12]	@ unaligned
 379 00e4 1033     		adds	r3, r3, #16
 380 00e6 1030     		adds	r0, r0, #16
 381 00e8 A342     		cmp	r3, r4
 382 00ea EFD1     		bne	.L18
 383 00ec 0246     		mov	r2, r0
 384 00ee 1B88     		ldrh	r3, [r3]	@ unaligned
 385 00f0 1380     		strh	r3, [r2]	@ unaligned
ARM GAS  C:\Users\JC\AppData\Local\Temp\ccNOiAvA.s 			page 28


 386              	.L17:
 384:Generated_Source\PSoC6\pdl\middleware\ble/cy_ble.c ****         }
 385:Generated_Source\PSoC6\pdl\middleware\ble/cy_ble.c ****         
 386:Generated_Source\PSoC6\pdl\middleware\ble/cy_ble.c ****         /* Initialize the BLE Stack */
 387:Generated_Source\PSoC6\pdl\middleware\ble/cy_ble.c ****         apiResult = Cy_BLE_StackInit(&stackInitParam);
 387              		.loc 2 387 0
 388 00f2 07F10C03 		add	r3, r7, #12
 389 00f6 1846     		mov	r0, r3
 390 00f8 FFF7FEFF 		bl	Cy_BLE_StackInit
 391 00fc F866     		str	r0, [r7, #108]
 388:Generated_Source\PSoC6\pdl\middleware\ble/cy_ble.c **** 
 389:Generated_Source\PSoC6\pdl\middleware\ble/cy_ble.c ****     #if (CY_BLE_MODE_PROFILE)
 390:Generated_Source\PSoC6\pdl\middleware\ble/cy_ble.c ****         if(apiResult == CY_BLE_SUCCESS)
 392              		.loc 2 390 0
 393 00fe FB6E     		ldr	r3, [r7, #108]
 394 0100 002B     		cmp	r3, #0
 395 0102 18D1     		bne	.L19
 391:Generated_Source\PSoC6\pdl\middleware\ble/cy_ble.c ****         {
 392:Generated_Source\PSoC6\pdl\middleware\ble/cy_ble.c ****             Cy_BLE_SetState(CY_BLE_STATE_INITIALIZING);
 396              		.loc 2 392 0
 397 0104 154B     		ldr	r3, .L21+20
 398 0106 0122     		movs	r2, #1
 399 0108 1A70     		strb	r2, [r3]
 393:Generated_Source\PSoC6\pdl\middleware\ble/cy_ble.c **** 
 394:Generated_Source\PSoC6\pdl\middleware\ble/cy_ble.c ****         #if (CY_BLE_GAP_ROLE_CENTRAL || CY_BLE_GAP_ROLE_PERIPHERAL)
 395:Generated_Source\PSoC6\pdl\middleware\ble/cy_ble.c ****             (void)memset(&cy_ble_connState, 0, sizeof(cy_ble_connState));
 400              		.loc 2 395 0
 401 010a 154B     		ldr	r3, .L21+24
 402 010c 0022     		movs	r2, #0
 403 010e 1A70     		strb	r2, [r3]
 396:Generated_Source\PSoC6\pdl\middleware\ble/cy_ble.c ****         #endif /* (CY_BLE_GAP_ROLE_CENTRAL || CY_BLE_GAP_ROLE_PERIPHERAL) */
 397:Generated_Source\PSoC6\pdl\middleware\ble/cy_ble.c **** 
 398:Generated_Source\PSoC6\pdl\middleware\ble/cy_ble.c ****         #if (CY_BLE_GAP_ROLE_PERIPHERAL || CY_BLE_GAP_ROLE_BROADCASTER)
 399:Generated_Source\PSoC6\pdl\middleware\ble/cy_ble.c ****             Cy_BLE_SetAdvertisementState(CY_BLE_ADV_STATE_STOPPED);
 404              		.loc 2 399 0
 405 0110 0020     		movs	r0, #0
 406 0112 FFF7FEFF 		bl	Cy_BLE_SetAdvertisementState
 407              	.LBB2:
 400:Generated_Source\PSoC6\pdl\middleware\ble/cy_ble.c ****         #endif  /* (CY_BLE_GAP_ROLE_PERIPHERAL || CY_BLE_GAP_ROLE_BROADCASTER) */
 401:Generated_Source\PSoC6\pdl\middleware\ble/cy_ble.c **** 
 402:Generated_Source\PSoC6\pdl\middleware\ble/cy_ble.c ****         #if (CY_BLE_GAP_ROLE_CENTRAL || CY_BLE_GAP_ROLE_OBSERVER)
 403:Generated_Source\PSoC6\pdl\middleware\ble/cy_ble.c ****             Cy_BLE_SetScanState(CY_BLE_SCAN_STATE_STOPPED);
 404:Generated_Source\PSoC6\pdl\middleware\ble/cy_ble.c ****         #endif /* (CY_BLE_GAP_ROLE_CENTRAL || CY_BLE_GAP_ROLE_OBSERVER) */
 405:Generated_Source\PSoC6\pdl\middleware\ble/cy_ble.c **** 
 406:Generated_Source\PSoC6\pdl\middleware\ble/cy_ble.c ****         #if (CY_BLE_GATT_ROLE_SERVER)
 407:Generated_Source\PSoC6\pdl\middleware\ble/cy_ble.c ****             {
 408:Generated_Source\PSoC6\pdl\middleware\ble/cy_ble.c ****                 cy_stc_ble_gatts_db_info_t dbInfoParam =
 409:Generated_Source\PSoC6\pdl\middleware\ble/cy_ble.c ****                 {
 410:Generated_Source\PSoC6\pdl\middleware\ble/cy_ble.c ****                     .gattDbPtr          = (const cy_stc_ble_gatts_db_t*)cy_ble_configPtr->gattDB,
 408              		.loc 2 410 0
 409 0116 0E4B     		ldr	r3, .L21+8
 410 0118 1B68     		ldr	r3, [r3]
 411 011a 1B6A     		ldr	r3, [r3, #32]
 408:Generated_Source\PSoC6\pdl\middleware\ble/cy_ble.c ****                 {
 412              		.loc 2 408 0
 413 011c 7B60     		str	r3, [r7, #4]
 411:Generated_Source\PSoC6\pdl\middleware\ble/cy_ble.c ****                     .gattDbTotalEntries = cy_ble_configPtr->params->gattDbIndexCount,
ARM GAS  C:\Users\JC\AppData\Local\Temp\ccNOiAvA.s 			page 29


 414              		.loc 2 411 0
 415 011e 0C4B     		ldr	r3, .L21+8
 416 0120 1B68     		ldr	r3, [r3]
 417 0122 9B6A     		ldr	r3, [r3, #40]
 418 0124 DB88     		ldrh	r3, [r3, #6]
 408:Generated_Source\PSoC6\pdl\middleware\ble/cy_ble.c ****                 {
 419              		.loc 2 408 0
 420 0126 3B81     		strh	r3, [r7, #8]	@ movhi
 421 0128 1023     		movs	r3, #16
 422 012a 7B81     		strh	r3, [r7, #10]	@ movhi
 412:Generated_Source\PSoC6\pdl\middleware\ble/cy_ble.c ****                     .gattDbMaxValue     = CY_BLE_GATT_DB_MAX_VALUE_LEN
 413:Generated_Source\PSoC6\pdl\middleware\ble/cy_ble.c ****                 };
 414:Generated_Source\PSoC6\pdl\middleware\ble/cy_ble.c **** 
 415:Generated_Source\PSoC6\pdl\middleware\ble/cy_ble.c ****                 apiResult = Cy_BLE_GATTS_DbRegister(&dbInfoParam);
 423              		.loc 2 415 0
 424 012c 3B1D     		adds	r3, r7, #4
 425 012e 1846     		mov	r0, r3
 426 0130 FFF7FEFF 		bl	Cy_BLE_GATTS_DbRegister
 427 0134 F866     		str	r0, [r7, #108]
 428              	.L19:
 429              	.LBE2:
 416:Generated_Source\PSoC6\pdl\middleware\ble/cy_ble.c ****             }
 417:Generated_Source\PSoC6\pdl\middleware\ble/cy_ble.c ****         #endif /* CY_BLE_GATT_ROLE_SERVER */
 418:Generated_Source\PSoC6\pdl\middleware\ble/cy_ble.c ****         }
 419:Generated_Source\PSoC6\pdl\middleware\ble/cy_ble.c ****         cy_ble_cmdStatus = 0u;
 430              		.loc 2 419 0
 431 0136 0B4B     		ldr	r3, .L21+28
 432 0138 0022     		movs	r2, #0
 433 013a 1A60     		str	r2, [r3]
 434              	.L16:
 420:Generated_Source\PSoC6\pdl\middleware\ble/cy_ble.c ****     #endif /* (CY_BLE_MODE_PROFILE) */
 421:Generated_Source\PSoC6\pdl\middleware\ble/cy_ble.c ****     }
 422:Generated_Source\PSoC6\pdl\middleware\ble/cy_ble.c **** 
 423:Generated_Source\PSoC6\pdl\middleware\ble/cy_ble.c ****     return(apiResult);
 435              		.loc 2 423 0
 436 013c FB6E     		ldr	r3, [r7, #108]
 424:Generated_Source\PSoC6\pdl\middleware\ble/cy_ble.c **** }
 437              		.loc 2 424 0
 438 013e 1846     		mov	r0, r3
 439 0140 7437     		adds	r7, r7, #116
 440              		.cfi_def_cfa_offset 20
 441 0142 BD46     		mov	sp, r7
 442              		.cfi_def_cfa_register 13
 443              		@ sp needed
 444 0144 F0BD     		pop	{r4, r5, r6, r7, pc}
 445              	.L22:
 446 0146 00BF     		.align	2
 447              	.L21:
 448 0148 00000000 		.word	.LC0
 449 014c 00000000 		.word	Cy_BLE_EventHandler
 450 0150 00000000 		.word	cy_ble_configPtr
 451 0154 00000000 		.word	bleDeepSleepCallback
 452 0158 00000000 		.word	cy_ble_stackMemoryRam
 453 015c 00000000 		.word	cy_ble_state
 454 0160 00000000 		.word	cy_ble_connState
 455 0164 00000000 		.word	cy_ble_cmdStatus
 456              		.cfi_endproc
ARM GAS  C:\Users\JC\AppData\Local\Temp\ccNOiAvA.s 			page 30


 457              	.LFE258:
 458              		.size	Cy_BLE_Enable, .-Cy_BLE_Enable
 459              		.section	.text.Cy_BLE_Disable,"ax",%progbits
 460              		.align	2
 461              		.global	Cy_BLE_Disable
 462              		.thumb
 463              		.thumb_func
 464              		.type	Cy_BLE_Disable, %function
 465              	Cy_BLE_Disable:
 466              	.LFB259:
 425:Generated_Source\PSoC6\pdl\middleware\ble/cy_ble.c **** 
 426:Generated_Source\PSoC6\pdl\middleware\ble/cy_ble.c **** 
 427:Generated_Source\PSoC6\pdl\middleware\ble/cy_ble.c **** /******************************************************************************
 428:Generated_Source\PSoC6\pdl\middleware\ble/cy_ble.c **** * Function Name: Cy_BLE_Disable
 429:Generated_Source\PSoC6\pdl\middleware\ble/cy_ble.c **** ***************************************************************************//**
 430:Generated_Source\PSoC6\pdl\middleware\ble/cy_ble.c **** *
 431:Generated_Source\PSoC6\pdl\middleware\ble/cy_ble.c **** *  This function stops any ongoing operation in the BLE Stack and forces the
 432:Generated_Source\PSoC6\pdl\middleware\ble/cy_ble.c **** *  BLE Stack to shut down.
 433:Generated_Source\PSoC6\pdl\middleware\ble/cy_ble.c **** *
 434:Generated_Source\PSoC6\pdl\middleware\ble/cy_ble.c **** *  Calling this function results in generation of a 
 435:Generated_Source\PSoC6\pdl\middleware\ble/cy_ble.c **** *  #CY_BLE_EVT_STACK_SHUTDOWN_COMPLETE event on a successful stack shutdown.
 436:Generated_Source\PSoC6\pdl\middleware\ble/cy_ble.c **** *
 437:Generated_Source\PSoC6\pdl\middleware\ble/cy_ble.c **** *  For HCI mode:
 438:Generated_Source\PSoC6\pdl\middleware\ble/cy_ble.c **** *  This is a blocking function and no event is generated.
 439:Generated_Source\PSoC6\pdl\middleware\ble/cy_ble.c **** *  Only #CY_BLE_SUCCESS will be returned and other error codes are not applicable.
 440:Generated_Source\PSoC6\pdl\middleware\ble/cy_ble.c **** *  UART interface will be stopped and UART data will not be processed by stack
 441:Generated_Source\PSoC6\pdl\middleware\ble/cy_ble.c **** *  until Cy_BLE_Enable() is invoked.
 442:Generated_Source\PSoC6\pdl\middleware\ble/cy_ble.c **** *
 443:Generated_Source\PSoC6\pdl\middleware\ble/cy_ble.c **** * \return
 444:Generated_Source\PSoC6\pdl\middleware\ble/cy_ble.c **** * \ref cy_en_ble_api_result_t : Return value indicates if the function succeeded or
 445:Generated_Source\PSoC6\pdl\middleware\ble/cy_ble.c **** *  failed. The following are possible error codes.
 446:Generated_Source\PSoC6\pdl\middleware\ble/cy_ble.c **** *
 447:Generated_Source\PSoC6\pdl\middleware\ble/cy_ble.c **** *  <table>
 448:Generated_Source\PSoC6\pdl\middleware\ble/cy_ble.c **** *    <tr>
 449:Generated_Source\PSoC6\pdl\middleware\ble/cy_ble.c **** *      <th>Error codes</th>
 450:Generated_Source\PSoC6\pdl\middleware\ble/cy_ble.c **** *      <th>Description</th>
 451:Generated_Source\PSoC6\pdl\middleware\ble/cy_ble.c **** *    </tr>
 452:Generated_Source\PSoC6\pdl\middleware\ble/cy_ble.c **** *    <tr>
 453:Generated_Source\PSoC6\pdl\middleware\ble/cy_ble.c **** *      <td>CY_BLE_SUCCESS</td>
 454:Generated_Source\PSoC6\pdl\middleware\ble/cy_ble.c **** *      <td>On successful operation.</td>
 455:Generated_Source\PSoC6\pdl\middleware\ble/cy_ble.c **** *    </tr>
 456:Generated_Source\PSoC6\pdl\middleware\ble/cy_ble.c **** *    <tr>
 457:Generated_Source\PSoC6\pdl\middleware\ble/cy_ble.c **** *      <td>CY_BLE_ERROR_INVALID_OPERATION</td>
 458:Generated_Source\PSoC6\pdl\middleware\ble/cy_ble.c **** *      <td>On calling Cy_BLE_Disable before calling Cy_BLE_Enable() 
 459:Generated_Source\PSoC6\pdl\middleware\ble/cy_ble.c **** *          or on Controller core.</td>
 460:Generated_Source\PSoC6\pdl\middleware\ble/cy_ble.c **** *    </tr>
 461:Generated_Source\PSoC6\pdl\middleware\ble/cy_ble.c **** *  </table>
 462:Generated_Source\PSoC6\pdl\middleware\ble/cy_ble.c **** *
 463:Generated_Source\PSoC6\pdl\middleware\ble/cy_ble.c **** ******************************************************************************/
 464:Generated_Source\PSoC6\pdl\middleware\ble/cy_ble.c **** cy_en_ble_api_result_t Cy_BLE_Disable(void)
 465:Generated_Source\PSoC6\pdl\middleware\ble/cy_ble.c **** {
 467              		.loc 2 465 0
 468              		.cfi_startproc
 469              		@ args = 0, pretend = 0, frame = 8
 470              		@ frame_needed = 1, uses_anonymous_args = 0
 471 0000 80B5     		push	{r7, lr}
 472              		.cfi_def_cfa_offset 8
ARM GAS  C:\Users\JC\AppData\Local\Temp\ccNOiAvA.s 			page 31


 473              		.cfi_offset 7, -8
 474              		.cfi_offset 14, -4
 475 0002 82B0     		sub	sp, sp, #8
 476              		.cfi_def_cfa_offset 16
 477 0004 00AF     		add	r7, sp, #0
 478              		.cfi_def_cfa_register 7
 466:Generated_Source\PSoC6\pdl\middleware\ble/cy_ble.c ****     cy_en_ble_api_result_t apiResult;
 467:Generated_Source\PSoC6\pdl\middleware\ble/cy_ble.c **** 
 468:Generated_Source\PSoC6\pdl\middleware\ble/cy_ble.c **** #if (CY_BLE_STACK_IPC_CONTR_CORE)
 469:Generated_Source\PSoC6\pdl\middleware\ble/cy_ble.c ****     /* To stop Controller call Cy_BLE_Disable() function on Host core */
 470:Generated_Source\PSoC6\pdl\middleware\ble/cy_ble.c ****     apiResult = CY_BLE_SUCCESS;             
 471:Generated_Source\PSoC6\pdl\middleware\ble/cy_ble.c **** #else
 472:Generated_Source\PSoC6\pdl\middleware\ble/cy_ble.c ****     /* Stops all ongoing activities */
 473:Generated_Source\PSoC6\pdl\middleware\ble/cy_ble.c ****     apiResult = Cy_BLE_StackShutdown();
 479              		.loc 2 473 0
 480 0006 FFF7FEFF 		bl	Cy_BLE_StackShutdown
 481 000a 7860     		str	r0, [r7, #4]
 474:Generated_Source\PSoC6\pdl\middleware\ble/cy_ble.c ****     
 475:Generated_Source\PSoC6\pdl\middleware\ble/cy_ble.c ****     #if (CY_BLE_SHARING_MODE_EXPORT)
 476:Generated_Source\PSoC6\pdl\middleware\ble/cy_ble.c ****     if(cy_ble_stackMemoryRam != NULL)
 477:Generated_Source\PSoC6\pdl\middleware\ble/cy_ble.c ****     {
 478:Generated_Source\PSoC6\pdl\middleware\ble/cy_ble.c ****         free(cy_ble_stackMemoryRam);
 479:Generated_Source\PSoC6\pdl\middleware\ble/cy_ble.c ****     }
 480:Generated_Source\PSoC6\pdl\middleware\ble/cy_ble.c ****     #endif /* CY_BLE_SHARING_MODE_EXPORT */
 481:Generated_Source\PSoC6\pdl\middleware\ble/cy_ble.c **** #endif     /* CY_BLE_STACK_IPC_CONTR_CORE */
 482:Generated_Source\PSoC6\pdl\middleware\ble/cy_ble.c **** 
 483:Generated_Source\PSoC6\pdl\middleware\ble/cy_ble.c ****     return(apiResult);
 482              		.loc 2 483 0
 483 000c 7B68     		ldr	r3, [r7, #4]
 484:Generated_Source\PSoC6\pdl\middleware\ble/cy_ble.c **** }
 484              		.loc 2 484 0
 485 000e 1846     		mov	r0, r3
 486 0010 0837     		adds	r7, r7, #8
 487              		.cfi_def_cfa_offset 8
 488 0012 BD46     		mov	sp, r7
 489              		.cfi_def_cfa_register 13
 490              		@ sp needed
 491 0014 80BD     		pop	{r7, pc}
 492              		.cfi_endproc
 493              	.LFE259:
 494              		.size	Cy_BLE_Disable, .-Cy_BLE_Disable
 495 0016 00BF     		.section	.text.Cy_BLE_ConfigureExtPA,"ax",%progbits
 496              		.align	2
 497              		.global	Cy_BLE_ConfigureExtPA
 498              		.thumb
 499              		.thumb_func
 500              		.type	Cy_BLE_ConfigureExtPA, %function
 501              	Cy_BLE_ConfigureExtPA:
 502              	.LFB260:
 485:Generated_Source\PSoC6\pdl\middleware\ble/cy_ble.c **** 
 486:Generated_Source\PSoC6\pdl\middleware\ble/cy_ble.c **** 
 487:Generated_Source\PSoC6\pdl\middleware\ble/cy_ble.c **** /*******************************************************************************
 488:Generated_Source\PSoC6\pdl\middleware\ble/cy_ble.c **** * Function Name: Cy_BLE_ConfigureExtPA
 489:Generated_Source\PSoC6\pdl\middleware\ble/cy_ble.c **** ****************************************************************************//**
 490:Generated_Source\PSoC6\pdl\middleware\ble/cy_ble.c **** *
 491:Generated_Source\PSoC6\pdl\middleware\ble/cy_ble.c **** *  This function controls the external Power Amplifier and Low Noise Amplifier
 492:Generated_Source\PSoC6\pdl\middleware\ble/cy_ble.c **** *  outputs.
ARM GAS  C:\Users\JC\AppData\Local\Temp\ccNOiAvA.s 			page 32


 493:Generated_Source\PSoC6\pdl\middleware\ble/cy_ble.c **** *
 494:Generated_Source\PSoC6\pdl\middleware\ble/cy_ble.c **** * \param controlValue Enables and controls polarity of the outputs.
 495:Generated_Source\PSoC6\pdl\middleware\ble/cy_ble.c **** *   To control external PA and LNA, the following mask defines are used:
 496:Generated_Source\PSoC6\pdl\middleware\ble/cy_ble.c **** *
 497:Generated_Source\PSoC6\pdl\middleware\ble/cy_ble.c **** *   - BLE_BLESS_EXT_PA_LNA_CTRL_ENABLE_EXT_PA_LNA_Msk - When set to 1, enables
 498:Generated_Source\PSoC6\pdl\middleware\ble/cy_ble.c **** *       the external PA & LNA and BLESS power profile for energy profiler
 499:Generated_Source\PSoC6\pdl\middleware\ble/cy_ble.c **** *   - BLE_BLESS_EXT_PA_LNA_CTRL_CHIP_EN_POL_Msk - Controls the polarity of the 
 500:Generated_Source\PSoC6\pdl\middleware\ble/cy_ble.c **** *       chip-enable control signal:
 501:Generated_Source\PSoC6\pdl\middleware\ble/cy_ble.c **** *       * 0 - High enable, Low disable
 502:Generated_Source\PSoC6\pdl\middleware\ble/cy_ble.c **** *       * 1 - Low enable, High disable, Incorrect power profile
 503:Generated_Source\PSoC6\pdl\middleware\ble/cy_ble.c **** *   - BLE_BLESS_EXT_PA_LNA_CTRL_PA_CTRL_POL_Msk - Controls the polarity of the PA
 504:Generated_Source\PSoC6\pdl\middleware\ble/cy_ble.c **** *       control signal:
 505:Generated_Source\PSoC6\pdl\middleware\ble/cy_ble.c **** *       * 0 - High enable, Low disable
 506:Generated_Source\PSoC6\pdl\middleware\ble/cy_ble.c **** *       * 1 - Low enable, High disable, Incorrect power profile
 507:Generated_Source\PSoC6\pdl\middleware\ble/cy_ble.c **** *   - BLE_BLESS_EXT_PA_LNA_CTRL_LNA_CTRL_POL_Msk - Controls the polarity of the LNA
 508:Generated_Source\PSoC6\pdl\middleware\ble/cy_ble.c **** *       control signal:
 509:Generated_Source\PSoC6\pdl\middleware\ble/cy_ble.c **** *       * 0 - High enable, Low disable
 510:Generated_Source\PSoC6\pdl\middleware\ble/cy_ble.c **** *       * 1 - Low enable, High disable, Incorrect power profile
 511:Generated_Source\PSoC6\pdl\middleware\ble/cy_ble.c **** *   - BLE_BLESS_EXT_PA_LNA_CTRL_OUT_EN_DRIVE_VAL_Msk  - Configures the drive value
 512:Generated_Source\PSoC6\pdl\middleware\ble/cy_ble.c **** *       on the output enables of PA, LNA and CHI_EN signals
 513:Generated_Source\PSoC6\pdl\middleware\ble/cy_ble.c **** *       * 0 - drive 0 on the output enable signals
 514:Generated_Source\PSoC6\pdl\middleware\ble/cy_ble.c **** *       * 1 - drive 1 on the output enable signals
 515:Generated_Source\PSoC6\pdl\middleware\ble/cy_ble.c **** *
 516:Generated_Source\PSoC6\pdl\middleware\ble/cy_ble.c **** * \return
 517:Generated_Source\PSoC6\pdl\middleware\ble/cy_ble.c **** *  None
 518:Generated_Source\PSoC6\pdl\middleware\ble/cy_ble.c **** *
 519:Generated_Source\PSoC6\pdl\middleware\ble/cy_ble.c **** *******************************************************************************/
 520:Generated_Source\PSoC6\pdl\middleware\ble/cy_ble.c **** void Cy_BLE_ConfigureExtPA(uint32_t controlValue)
 521:Generated_Source\PSoC6\pdl\middleware\ble/cy_ble.c **** {
 503              		.loc 2 521 0
 504              		.cfi_startproc
 505              		@ args = 0, pretend = 0, frame = 8
 506              		@ frame_needed = 1, uses_anonymous_args = 0
 507              		@ link register save eliminated.
 508 0000 80B4     		push	{r7}
 509              		.cfi_def_cfa_offset 4
 510              		.cfi_offset 7, -4
 511 0002 83B0     		sub	sp, sp, #12
 512              		.cfi_def_cfa_offset 16
 513 0004 00AF     		add	r7, sp, #0
 514              		.cfi_def_cfa_register 7
 515 0006 7860     		str	r0, [r7, #4]
 522:Generated_Source\PSoC6\pdl\middleware\ble/cy_ble.c ****     BLE->BLESS.EXT_PA_LNA_CTRL = controlValue;
 516              		.loc 2 522 0
 517 0008 054B     		ldr	r3, .L26
 518 000a 03F5F833 		add	r3, r3, #126976
 519 000e 7833     		adds	r3, r3, #120
 520 0010 7A68     		ldr	r2, [r7, #4]
 521 0012 1A60     		str	r2, [r3]
 523:Generated_Source\PSoC6\pdl\middleware\ble/cy_ble.c **** }
 522              		.loc 2 523 0
 523 0014 00BF     		nop
 524 0016 0C37     		adds	r7, r7, #12
 525              		.cfi_def_cfa_offset 4
 526 0018 BD46     		mov	sp, r7
 527              		.cfi_def_cfa_register 13
 528              		@ sp needed
ARM GAS  C:\Users\JC\AppData\Local\Temp\ccNOiAvA.s 			page 33


 529 001a 5DF8047B 		ldr	r7, [sp], #4
 530              		.cfi_restore 7
 531              		.cfi_def_cfa_offset 0
 532 001e 7047     		bx	lr
 533              	.L27:
 534              		.align	2
 535              	.L26:
 536 0020 00003C40 		.word	1077673984
 537              		.cfi_endproc
 538              	.LFE260:
 539              		.size	Cy_BLE_ConfigureExtPA, .-Cy_BLE_ConfigureExtPA
 540              		.section	.text.Cy_BLE_RegisterAppHostCallback,"ax",%progbits
 541              		.align	2
 542              		.global	Cy_BLE_RegisterAppHostCallback
 543              		.thumb
 544              		.thumb_func
 545              		.type	Cy_BLE_RegisterAppHostCallback, %function
 546              	Cy_BLE_RegisterAppHostCallback:
 547              	.LFB261:
 524:Generated_Source\PSoC6\pdl\middleware\ble/cy_ble.c **** 
 525:Generated_Source\PSoC6\pdl\middleware\ble/cy_ble.c **** #if (CY_BLE_INTR_NOTIFY_FEATURE_ENABLED) && (CY_BLE_HOST_CORE)
 526:Generated_Source\PSoC6\pdl\middleware\ble/cy_ble.c **** /*******************************************************************************
 527:Generated_Source\PSoC6\pdl\middleware\ble/cy_ble.c **** * Function Name: Cy_BLE_RegisterInterruptCallback
 528:Generated_Source\PSoC6\pdl\middleware\ble/cy_ble.c **** ****************************************************************************//**
 529:Generated_Source\PSoC6\pdl\middleware\ble/cy_ble.c **** *
 530:Generated_Source\PSoC6\pdl\middleware\ble/cy_ble.c **** *  This function registers a callback to expose BLE interrupt notifications to an 
 531:Generated_Source\PSoC6\pdl\middleware\ble/cy_ble.c **** *  application that indicates a different link layer and radio state transition
 532:Generated_Source\PSoC6\pdl\middleware\ble/cy_ble.c **** *  to the user from the BLESS interrupt context. This callback is triggered at 
 533:Generated_Source\PSoC6\pdl\middleware\ble/cy_ble.c **** *  the beginning of a received BLESS interrupt (based on the registered 
 534:Generated_Source\PSoC6\pdl\middleware\ble/cy_ble.c **** *  interrupt mask).
 535:Generated_Source\PSoC6\pdl\middleware\ble/cy_ble.c **** *
 536:Generated_Source\PSoC6\pdl\middleware\ble/cy_ble.c **** *  An application can use an interrupt callback to know when: 
 537:Generated_Source\PSoC6\pdl\middleware\ble/cy_ble.c **** *  * the RF activity is about to begin/end; 
 538:Generated_Source\PSoC6\pdl\middleware\ble/cy_ble.c **** *  * the BLE device changes its state from advertising to connected; 
 539:Generated_Source\PSoC6\pdl\middleware\ble/cy_ble.c **** *  * BLESS transits between active and low-power modes.
 540:Generated_Source\PSoC6\pdl\middleware\ble/cy_ble.c **** *    
 541:Generated_Source\PSoC6\pdl\middleware\ble/cy_ble.c **** *  These BLESS real-time states can be used to synchronize
 542:Generated_Source\PSoC6\pdl\middleware\ble/cy_ble.c **** *  an application with the BLESS or prevent radio interference with other 
 543:Generated_Source\PSoC6\pdl\middleware\ble/cy_ble.c **** *  peripherals, etc.
 544:Generated_Source\PSoC6\pdl\middleware\ble/cy_ble.c **** *    
 545:Generated_Source\PSoC6\pdl\middleware\ble/cy_ble.c **** *  BLE interrupt notifications feature enables via define in cy_ble_config.h:
 546:Generated_Source\PSoC6\pdl\middleware\ble/cy_ble.c **** *  \code   
 547:Generated_Source\PSoC6\pdl\middleware\ble/cy_ble.c **** *  #define CY_BLE_INTR_NOTIFY_FEATURE_ENABLE       (1u)
 548:Generated_Source\PSoC6\pdl\middleware\ble/cy_ble.c **** *  \endcode    
 549:Generated_Source\PSoC6\pdl\middleware\ble/cy_ble.c **** *
 550:Generated_Source\PSoC6\pdl\middleware\ble/cy_ble.c **** *  BLE Dual mode requires an additional define IPC channel and IPC Interrupt 
 551:Generated_Source\PSoC6\pdl\middleware\ble/cy_ble.c **** *  structure to send notifications from the controller core to host core. 
 552:Generated_Source\PSoC6\pdl\middleware\ble/cy_ble.c **** *  Use the following defines:
 553:Generated_Source\PSoC6\pdl\middleware\ble/cy_ble.c **** *  \code    
 554:Generated_Source\PSoC6\pdl\middleware\ble/cy_ble.c **** *  #define CY_BLE_INTR_NOTIFY_IPC_CHAN             (9..15)
 555:Generated_Source\PSoC6\pdl\middleware\ble/cy_ble.c **** *  #define CY_BLE_INTR_NOTIFY_IPC_INTR             (9..15)
 556:Generated_Source\PSoC6\pdl\middleware\ble/cy_ble.c **** *  #define CY_BLE_INTR_NOTIFY_IPC_INTR_PRIOR       (0..7)  
 557:Generated_Source\PSoC6\pdl\middleware\ble/cy_ble.c **** *  \endcode
 558:Generated_Source\PSoC6\pdl\middleware\ble/cy_ble.c **** *    
 559:Generated_Source\PSoC6\pdl\middleware\ble/cy_ble.c **** *  \param intrMask
 560:Generated_Source\PSoC6\pdl\middleware\ble/cy_ble.c **** *  All interrupts masks are specified in the #cy_en_ble_interrupt_callback_feature_t
 561:Generated_Source\PSoC6\pdl\middleware\ble/cy_ble.c **** *  enumeration.
ARM GAS  C:\Users\JC\AppData\Local\Temp\ccNOiAvA.s 			page 34


 562:Generated_Source\PSoC6\pdl\middleware\ble/cy_ble.c **** *    
 563:Generated_Source\PSoC6\pdl\middleware\ble/cy_ble.c **** *  \param CallBack
 564:Generated_Source\PSoC6\pdl\middleware\ble/cy_ble.c **** *  The pointer to an application notify callback.
 565:Generated_Source\PSoC6\pdl\middleware\ble/cy_ble.c **** *
 566:Generated_Source\PSoC6\pdl\middleware\ble/cy_ble.c **** * \return
 567:Generated_Source\PSoC6\pdl\middleware\ble/cy_ble.c **** * \ref cy_en_ble_api_result_t : The return value indicates if the function succeeded or
 568:Generated_Source\PSoC6\pdl\middleware\ble/cy_ble.c **** *  failed. The possible error codes:
 569:Generated_Source\PSoC6\pdl\middleware\ble/cy_ble.c **** *
 570:Generated_Source\PSoC6\pdl\middleware\ble/cy_ble.c **** *    Errors codes                   | Description
 571:Generated_Source\PSoC6\pdl\middleware\ble/cy_ble.c **** *    ------------                   | -----------
 572:Generated_Source\PSoC6\pdl\middleware\ble/cy_ble.c **** *    CY_BLE_SUCCESS                 | The callback is registered successfully.
 573:Generated_Source\PSoC6\pdl\middleware\ble/cy_ble.c **** *    CY_BLE_ERROR_INVALID_PARAMETER | Validation of the input parameters failed.
 574:Generated_Source\PSoC6\pdl\middleware\ble/cy_ble.c **** *    CY_BLE_ERROR_INVALID_OPERATION | The IPC channel is busy (Dual core mode only).
 575:Generated_Source\PSoC6\pdl\middleware\ble/cy_ble.c **** *
 576:Generated_Source\PSoC6\pdl\middleware\ble/cy_ble.c **** *******************************************************************************/   
 577:Generated_Source\PSoC6\pdl\middleware\ble/cy_ble.c **** cy_en_ble_api_result_t Cy_BLE_RegisterInterruptCallback(uint32_t intrMask, cy_ble_intr_callback_t C
 578:Generated_Source\PSoC6\pdl\middleware\ble/cy_ble.c **** { 
 579:Generated_Source\PSoC6\pdl\middleware\ble/cy_ble.c ****     cy_en_ble_api_result_t apiResult = CY_BLE_SUCCESS;
 580:Generated_Source\PSoC6\pdl\middleware\ble/cy_ble.c ****     
 581:Generated_Source\PSoC6\pdl\middleware\ble/cy_ble.c ****     if(CallBack != NULL)
 582:Generated_Source\PSoC6\pdl\middleware\ble/cy_ble.c ****     {
 583:Generated_Source\PSoC6\pdl\middleware\ble/cy_ble.c ****         /* Store the application callback and interrupt mask */
 584:Generated_Source\PSoC6\pdl\middleware\ble/cy_ble.c ****         Cy_BLE_InterruptCallback = CallBack;
 585:Generated_Source\PSoC6\pdl\middleware\ble/cy_ble.c ****         intrNotify.mask = intrMask;
 586:Generated_Source\PSoC6\pdl\middleware\ble/cy_ble.c ****         
 587:Generated_Source\PSoC6\pdl\middleware\ble/cy_ble.c ****         /* Set up the IPC for Dual Stack mode */
 588:Generated_Source\PSoC6\pdl\middleware\ble/cy_ble.c ****         #if(CY_BLE_STACK_MODE_HOST_IPC)
 589:Generated_Source\PSoC6\pdl\middleware\ble/cy_ble.c ****         {  
 590:Generated_Source\PSoC6\pdl\middleware\ble/cy_ble.c ****             if(!intrNotify.configFlag)
 591:Generated_Source\PSoC6\pdl\middleware\ble/cy_ble.c ****             {
 592:Generated_Source\PSoC6\pdl\middleware\ble/cy_ble.c ****                 uint32_t rTimeout = 2000u; /* us */
 593:Generated_Source\PSoC6\pdl\middleware\ble/cy_ble.c ****                 cy_en_ipc_pipe_status_t ipcStatus;
 594:Generated_Source\PSoC6\pdl\middleware\ble/cy_ble.c ****                 cy_stc_sysint_t intrConfig =
 595:Generated_Source\PSoC6\pdl\middleware\ble/cy_ble.c ****                 {
 596:Generated_Source\PSoC6\pdl\middleware\ble/cy_ble.c ****                     .intrPriority = (uint32_t)CY_BLE_INTR_NOTIFY_IPC_INTR_PRIOR,
 597:Generated_Source\PSoC6\pdl\middleware\ble/cy_ble.c ****                     .intrSrc      = (IRQn_Type)CY_IPC_INTR_NUM_TO_VECT((int32_t)CY_BLE_INTR_NOTIFY_
 598:Generated_Source\PSoC6\pdl\middleware\ble/cy_ble.c ****                 };
 599:Generated_Source\PSoC6\pdl\middleware\ble/cy_ble.c ****             
 600:Generated_Source\PSoC6\pdl\middleware\ble/cy_ble.c ****                 /* Initialize the interrupt controller for CM4 and IPC Interrupt */
 601:Generated_Source\PSoC6\pdl\middleware\ble/cy_ble.c ****                 (void)Cy_SysInt_Init(&intrConfig, &Cy_BLE_HAL_IntrNotifyIpcHandler);
 602:Generated_Source\PSoC6\pdl\middleware\ble/cy_ble.c ****                 NVIC_EnableIRQ(intrConfig.intrSrc);
 603:Generated_Source\PSoC6\pdl\middleware\ble/cy_ble.c ****         
 604:Generated_Source\PSoC6\pdl\middleware\ble/cy_ble.c ****                 /* Do not bring up an IPC release interrupt here, only set up a notify interrupt */
 605:Generated_Source\PSoC6\pdl\middleware\ble/cy_ble.c ****                 Cy_IPC_Drv_SetInterruptMask(Cy_IPC_Drv_GetIntrBaseAddr(CY_BLE_INTR_NOTIFY_IPC_INTR)
 606:Generated_Source\PSoC6\pdl\middleware\ble/cy_ble.c ****                                             CY_IPC_NO_NOTIFICATION, (1uL << CY_BLE_INTR_NOTIFY_IPC_
 607:Generated_Source\PSoC6\pdl\middleware\ble/cy_ble.c ****                 
 608:Generated_Source\PSoC6\pdl\middleware\ble/cy_ble.c ****                 /* 
 609:Generated_Source\PSoC6\pdl\middleware\ble/cy_ble.c ****                  * Send the address of the intrNotify structure to the controller core via CyPipe
 610:Generated_Source\PSoC6\pdl\middleware\ble/cy_ble.c ****                  * The IPC Pipe can be busy, then try sending a message during 2 ms. 
 611:Generated_Source\PSoC6\pdl\middleware\ble/cy_ble.c ****                  */
 612:Generated_Source\PSoC6\pdl\middleware\ble/cy_ble.c ****                 do
 613:Generated_Source\PSoC6\pdl\middleware\ble/cy_ble.c ****                 {
 614:Generated_Source\PSoC6\pdl\middleware\ble/cy_ble.c ****                     ipcStatus = Cy_IPC_Pipe_SendMessage(CY_BLE_IPC_CONTROLLER_ADDR, CY_BLE_IPC_HOST
 615:Generated_Source\PSoC6\pdl\middleware\ble/cy_ble.c ****                                                         (void *)&intrNotify, NULL);
 616:Generated_Source\PSoC6\pdl\middleware\ble/cy_ble.c ****                     Cy_SysLib_DelayUs(1u);
 617:Generated_Source\PSoC6\pdl\middleware\ble/cy_ble.c ****                     rTimeout--;
 618:Generated_Source\PSoC6\pdl\middleware\ble/cy_ble.c ****                 }while((ipcStatus != CY_IPC_PIPE_SUCCESS) && (rTimeout != 0u));
ARM GAS  C:\Users\JC\AppData\Local\Temp\ccNOiAvA.s 			page 35


 619:Generated_Source\PSoC6\pdl\middleware\ble/cy_ble.c ****               
 620:Generated_Source\PSoC6\pdl\middleware\ble/cy_ble.c ****                 if(ipcStatus != CY_IPC_PIPE_SUCCESS)
 621:Generated_Source\PSoC6\pdl\middleware\ble/cy_ble.c ****                 {
 622:Generated_Source\PSoC6\pdl\middleware\ble/cy_ble.c ****                     apiResult = CY_BLE_ERROR_INVALID_OPERATION;
 623:Generated_Source\PSoC6\pdl\middleware\ble/cy_ble.c ****                 }
 624:Generated_Source\PSoC6\pdl\middleware\ble/cy_ble.c ****             }
 625:Generated_Source\PSoC6\pdl\middleware\ble/cy_ble.c ****         }
 626:Generated_Source\PSoC6\pdl\middleware\ble/cy_ble.c ****         #else 
 627:Generated_Source\PSoC6\pdl\middleware\ble/cy_ble.c ****             intrNotifyPtr = &intrNotify; 
 628:Generated_Source\PSoC6\pdl\middleware\ble/cy_ble.c ****         #endif /* CY_BLE_STACK_MODE_HOST_IPC */
 629:Generated_Source\PSoC6\pdl\middleware\ble/cy_ble.c ****        
 630:Generated_Source\PSoC6\pdl\middleware\ble/cy_ble.c ****     }
 631:Generated_Source\PSoC6\pdl\middleware\ble/cy_ble.c ****     else
 632:Generated_Source\PSoC6\pdl\middleware\ble/cy_ble.c ****     {
 633:Generated_Source\PSoC6\pdl\middleware\ble/cy_ble.c ****         apiResult = CY_BLE_ERROR_INVALID_PARAMETER;
 634:Generated_Source\PSoC6\pdl\middleware\ble/cy_ble.c ****     }
 635:Generated_Source\PSoC6\pdl\middleware\ble/cy_ble.c ****     return apiResult; 
 636:Generated_Source\PSoC6\pdl\middleware\ble/cy_ble.c **** }
 637:Generated_Source\PSoC6\pdl\middleware\ble/cy_ble.c **** 
 638:Generated_Source\PSoC6\pdl\middleware\ble/cy_ble.c **** 
 639:Generated_Source\PSoC6\pdl\middleware\ble/cy_ble.c **** /*******************************************************************************
 640:Generated_Source\PSoC6\pdl\middleware\ble/cy_ble.c **** * Function Name: Cy_BLE_UnRegisterInterruptCallback
 641:Generated_Source\PSoC6\pdl\middleware\ble/cy_ble.c **** ****************************************************************************//**
 642:Generated_Source\PSoC6\pdl\middleware\ble/cy_ble.c **** *
 643:Generated_Source\PSoC6\pdl\middleware\ble/cy_ble.c **** *  This function un-registers callback which exposed BLE interrupt 
 644:Generated_Source\PSoC6\pdl\middleware\ble/cy_ble.c **** *  notifications to the application. 
 645:Generated_Source\PSoC6\pdl\middleware\ble/cy_ble.c **** *
 646:Generated_Source\PSoC6\pdl\middleware\ble/cy_ble.c **** * \return
 647:Generated_Source\PSoC6\pdl\middleware\ble/cy_ble.c **** * \ref cy_en_ble_api_result_t : Return value indicates if the function succeeded or
 648:Generated_Source\PSoC6\pdl\middleware\ble/cy_ble.c **** *  failed. The following are possible error codes.
 649:Generated_Source\PSoC6\pdl\middleware\ble/cy_ble.c **** *    
 650:Generated_Source\PSoC6\pdl\middleware\ble/cy_ble.c **** *    Errors codes                   | Description
 651:Generated_Source\PSoC6\pdl\middleware\ble/cy_ble.c **** *    ------------                   | -----------
 652:Generated_Source\PSoC6\pdl\middleware\ble/cy_ble.c **** *    CY_BLE_SUCCESS                 | The callback is registered successfully.
 653:Generated_Source\PSoC6\pdl\middleware\ble/cy_ble.c **** *    CY_BLE_ERROR_INVALID_OPERATION | The IPC channel is busy (Dual core mode only).
 654:Generated_Source\PSoC6\pdl\middleware\ble/cy_ble.c **** *
 655:Generated_Source\PSoC6\pdl\middleware\ble/cy_ble.c **** *******************************************************************************/
 656:Generated_Source\PSoC6\pdl\middleware\ble/cy_ble.c **** cy_en_ble_api_result_t Cy_BLE_UnRegisterInterruptCallback(void)
 657:Generated_Source\PSoC6\pdl\middleware\ble/cy_ble.c **** {
 658:Generated_Source\PSoC6\pdl\middleware\ble/cy_ble.c ****     cy_en_ble_api_result_t apiResult = CY_BLE_SUCCESS;
 659:Generated_Source\PSoC6\pdl\middleware\ble/cy_ble.c ****     if(Cy_BLE_InterruptCallback != NULL)
 660:Generated_Source\PSoC6\pdl\middleware\ble/cy_ble.c ****     {
 661:Generated_Source\PSoC6\pdl\middleware\ble/cy_ble.c ****         /* Clean interrupt mask */
 662:Generated_Source\PSoC6\pdl\middleware\ble/cy_ble.c ****         apiResult = Cy_BLE_RegisterInterruptCallback((uint32_t)CY_BLE_INTR_CALLBACK_NONE, 
 663:Generated_Source\PSoC6\pdl\middleware\ble/cy_ble.c ****                                                      Cy_BLE_InterruptCallback);
 664:Generated_Source\PSoC6\pdl\middleware\ble/cy_ble.c ****         if(apiResult == CY_BLE_SUCCESS)
 665:Generated_Source\PSoC6\pdl\middleware\ble/cy_ble.c ****         {
 666:Generated_Source\PSoC6\pdl\middleware\ble/cy_ble.c ****             /* Clean callback pointer */
 667:Generated_Source\PSoC6\pdl\middleware\ble/cy_ble.c ****             Cy_BLE_InterruptCallback = NULL;
 668:Generated_Source\PSoC6\pdl\middleware\ble/cy_ble.c ****         }
 669:Generated_Source\PSoC6\pdl\middleware\ble/cy_ble.c ****     }
 670:Generated_Source\PSoC6\pdl\middleware\ble/cy_ble.c ****     return(apiResult);    
 671:Generated_Source\PSoC6\pdl\middleware\ble/cy_ble.c **** }
 672:Generated_Source\PSoC6\pdl\middleware\ble/cy_ble.c **** 
 673:Generated_Source\PSoC6\pdl\middleware\ble/cy_ble.c **** #endif /* (CY_BLE_INTR_NOTIFY_FEATURE_ENABLED) && (CY_BLE_HOST_CORE) */
 674:Generated_Source\PSoC6\pdl\middleware\ble/cy_ble.c **** 
 675:Generated_Source\PSoC6\pdl\middleware\ble/cy_ble.c **** 
ARM GAS  C:\Users\JC\AppData\Local\Temp\ccNOiAvA.s 			page 36


 676:Generated_Source\PSoC6\pdl\middleware\ble/cy_ble.c **** #if (CY_BLE_MODE_PROFILE)
 677:Generated_Source\PSoC6\pdl\middleware\ble/cy_ble.c **** 
 678:Generated_Source\PSoC6\pdl\middleware\ble/cy_ble.c **** /*******************************************************************************
 679:Generated_Source\PSoC6\pdl\middleware\ble/cy_ble.c **** * Function Name: Cy_BLE_RegisterAppHostCallback
 680:Generated_Source\PSoC6\pdl\middleware\ble/cy_ble.c **** ****************************************************************************//**
 681:Generated_Source\PSoC6\pdl\middleware\ble/cy_ble.c **** *
 682:Generated_Source\PSoC6\pdl\middleware\ble/cy_ble.c **** * This function registers an application Host callback (BLE RTOS hook). 
 683:Generated_Source\PSoC6\pdl\middleware\ble/cy_ble.c **** * The user can trigger an RTOS BLE task if the application Host callback was
 684:Generated_Source\PSoC6\pdl\middleware\ble/cy_ble.c **** * called.
 685:Generated_Source\PSoC6\pdl\middleware\ble/cy_ble.c **** * 
 686:Generated_Source\PSoC6\pdl\middleware\ble/cy_ble.c **** * Theory of operation:
 687:Generated_Source\PSoC6\pdl\middleware\ble/cy_ble.c **** * The BLE Middleware triggers this callback when the BLE Stack controller needs
 688:Generated_Source\PSoC6\pdl\middleware\ble/cy_ble.c **** * to process pending Stack events (by calling Cy_BLE_ProcessEvents()). This
 689:Generated_Source\PSoC6\pdl\middleware\ble/cy_ble.c **** * callback executes from within an ISR and must be very short.  
 690:Generated_Source\PSoC6\pdl\middleware\ble/cy_ble.c **** *    
 691:Generated_Source\PSoC6\pdl\middleware\ble/cy_ble.c **** * \note The application Host callback is called from the context of a high-
 692:Generated_Source\PSoC6\pdl\middleware\ble/cy_ble.c **** * priority ISR. Some RTOS (e.g. FreeRTOS) have restrictions on calling the RTOS
 693:Generated_Source\PSoC6\pdl\middleware\ble/cy_ble.c **** * functions from a high-priority ISR. The user application is responsible for
 694:Generated_Source\PSoC6\pdl\middleware\ble/cy_ble.c **** * integration of the BLE RTOS hook and RTOS functions and must insure that RTOS 
 695:Generated_Source\PSoC6\pdl\middleware\ble/cy_ble.c **** * allows to call RTOS API from BLE interrupt context.  
 696:Generated_Source\PSoC6\pdl\middleware\ble/cy_ble.c **** * If direct call is forbidden one of the possible solutions is to trig a 
 697:Generated_Source\PSoC6\pdl\middleware\ble/cy_ble.c **** * low-priority interrupt from the application Host callback and then call the
 698:Generated_Source\PSoC6\pdl\middleware\ble/cy_ble.c **** * RTOS functions from a low-priority interrupt. For details refer to specific
 699:Generated_Source\PSoC6\pdl\middleware\ble/cy_ble.c **** * RTOS documentation.
 700:Generated_Source\PSoC6\pdl\middleware\ble/cy_ble.c **** *   
 701:Generated_Source\PSoC6\pdl\middleware\ble/cy_ble.c **** * \param CallBack
 702:Generated_Source\PSoC6\pdl\middleware\ble/cy_ble.c **** * The pointer to the application Host callback.
 703:Generated_Source\PSoC6\pdl\middleware\ble/cy_ble.c **** *
 704:Generated_Source\PSoC6\pdl\middleware\ble/cy_ble.c **** * \return
 705:Generated_Source\PSoC6\pdl\middleware\ble/cy_ble.c **** *  Error Codes                        | Description
 706:Generated_Source\PSoC6\pdl\middleware\ble/cy_ble.c **** *  ------------                       | -----------
 707:Generated_Source\PSoC6\pdl\middleware\ble/cy_ble.c **** *   CY_BLE_SUCCESS                    | The callback was registered successfully.
 708:Generated_Source\PSoC6\pdl\middleware\ble/cy_ble.c **** *   CY_BLE_ERROR_INVALID_PARAMETER    | On specifying NULL as the input parameter.
 709:Generated_Source\PSoC6\pdl\middleware\ble/cy_ble.c **** *
 710:Generated_Source\PSoC6\pdl\middleware\ble/cy_ble.c **** *******************************************************************************/
 711:Generated_Source\PSoC6\pdl\middleware\ble/cy_ble.c **** cy_en_ble_api_result_t Cy_BLE_RegisterAppHostCallback(cy_ble_app_notify_callback_t CallBack)
 712:Generated_Source\PSoC6\pdl\middleware\ble/cy_ble.c **** {
 548              		.loc 2 712 0
 549              		.cfi_startproc
 550              		@ args = 0, pretend = 0, frame = 16
 551              		@ frame_needed = 1, uses_anonymous_args = 0
 552              		@ link register save eliminated.
 553 0000 80B4     		push	{r7}
 554              		.cfi_def_cfa_offset 4
 555              		.cfi_offset 7, -4
 556 0002 85B0     		sub	sp, sp, #20
 557              		.cfi_def_cfa_offset 24
 558 0004 00AF     		add	r7, sp, #0
 559              		.cfi_def_cfa_register 7
 560 0006 7860     		str	r0, [r7, #4]
 713:Generated_Source\PSoC6\pdl\middleware\ble/cy_ble.c ****     cy_en_ble_api_result_t apiResult = CY_BLE_SUCCESS;
 561              		.loc 2 713 0
 562 0008 0023     		movs	r3, #0
 563 000a FB60     		str	r3, [r7, #12]
 714:Generated_Source\PSoC6\pdl\middleware\ble/cy_ble.c ****     
 715:Generated_Source\PSoC6\pdl\middleware\ble/cy_ble.c ****     if(CallBack != NULL)
 564              		.loc 2 715 0
ARM GAS  C:\Users\JC\AppData\Local\Temp\ccNOiAvA.s 			page 37


 565 000c 7B68     		ldr	r3, [r7, #4]
 566 000e 002B     		cmp	r3, #0
 567 0010 03D0     		beq	.L29
 716:Generated_Source\PSoC6\pdl\middleware\ble/cy_ble.c ****     {
 717:Generated_Source\PSoC6\pdl\middleware\ble/cy_ble.c ****         Cy_BLE_HostRegisteredCallback = CallBack;
 568              		.loc 2 717 0
 569 0012 064A     		ldr	r2, .L32
 570 0014 7B68     		ldr	r3, [r7, #4]
 571 0016 1360     		str	r3, [r2]
 572 0018 01E0     		b	.L30
 573              	.L29:
 718:Generated_Source\PSoC6\pdl\middleware\ble/cy_ble.c ****     }
 719:Generated_Source\PSoC6\pdl\middleware\ble/cy_ble.c ****     else
 720:Generated_Source\PSoC6\pdl\middleware\ble/cy_ble.c ****     {
 721:Generated_Source\PSoC6\pdl\middleware\ble/cy_ble.c ****         apiResult = CY_BLE_ERROR_INVALID_PARAMETER;
 574              		.loc 2 721 0
 575 001a 054B     		ldr	r3, .L32+4
 576 001c FB60     		str	r3, [r7, #12]
 577              	.L30:
 722:Generated_Source\PSoC6\pdl\middleware\ble/cy_ble.c ****     }   
 723:Generated_Source\PSoC6\pdl\middleware\ble/cy_ble.c ****     return apiResult;
 578              		.loc 2 723 0
 579 001e FB68     		ldr	r3, [r7, #12]
 724:Generated_Source\PSoC6\pdl\middleware\ble/cy_ble.c **** }
 580              		.loc 2 724 0
 581 0020 1846     		mov	r0, r3
 582 0022 1437     		adds	r7, r7, #20
 583              		.cfi_def_cfa_offset 4
 584 0024 BD46     		mov	sp, r7
 585              		.cfi_def_cfa_register 13
 586              		@ sp needed
 587 0026 5DF8047B 		ldr	r7, [sp], #4
 588              		.cfi_restore 7
 589              		.cfi_def_cfa_offset 0
 590 002a 7047     		bx	lr
 591              	.L33:
 592              		.align	2
 593              	.L32:
 594 002c 00000000 		.word	Cy_BLE_HostRegisteredCallback
 595 0030 01001600 		.word	1441793
 596              		.cfi_endproc
 597              	.LFE261:
 598              		.size	Cy_BLE_RegisterAppHostCallback, .-Cy_BLE_RegisterAppHostCallback
 599              		.section	.text.Cy_BLE_UnRegisterAppHostCallback,"ax",%progbits
 600              		.align	2
 601              		.global	Cy_BLE_UnRegisterAppHostCallback
 602              		.thumb
 603              		.thumb_func
 604              		.type	Cy_BLE_UnRegisterAppHostCallback, %function
 605              	Cy_BLE_UnRegisterAppHostCallback:
 606              	.LFB262:
 725:Generated_Source\PSoC6\pdl\middleware\ble/cy_ble.c **** 
 726:Generated_Source\PSoC6\pdl\middleware\ble/cy_ble.c **** /*******************************************************************************
 727:Generated_Source\PSoC6\pdl\middleware\ble/cy_ble.c **** * Function Name: Cy_BLE_UnRegisterAppHostCallback
 728:Generated_Source\PSoC6\pdl\middleware\ble/cy_ble.c **** ****************************************************************************//**
 729:Generated_Source\PSoC6\pdl\middleware\ble/cy_ble.c **** *
 730:Generated_Source\PSoC6\pdl\middleware\ble/cy_ble.c **** * This function un-registers an application Host callback (BLE RTOS hook). 
ARM GAS  C:\Users\JC\AppData\Local\Temp\ccNOiAvA.s 			page 38


 731:Generated_Source\PSoC6\pdl\middleware\ble/cy_ble.c **** *
 732:Generated_Source\PSoC6\pdl\middleware\ble/cy_ble.c **** *******************************************************************************/
 733:Generated_Source\PSoC6\pdl\middleware\ble/cy_ble.c **** void Cy_BLE_UnRegisterAppHostCallback(void)
 734:Generated_Source\PSoC6\pdl\middleware\ble/cy_ble.c **** {
 607              		.loc 2 734 0
 608              		.cfi_startproc
 609              		@ args = 0, pretend = 0, frame = 0
 610              		@ frame_needed = 1, uses_anonymous_args = 0
 611              		@ link register save eliminated.
 612 0000 80B4     		push	{r7}
 613              		.cfi_def_cfa_offset 4
 614              		.cfi_offset 7, -4
 615 0002 00AF     		add	r7, sp, #0
 616              		.cfi_def_cfa_register 7
 735:Generated_Source\PSoC6\pdl\middleware\ble/cy_ble.c ****     Cy_BLE_HostRegisteredCallback = NULL;
 617              		.loc 2 735 0
 618 0004 034B     		ldr	r3, .L35
 619 0006 0022     		movs	r2, #0
 620 0008 1A60     		str	r2, [r3]
 736:Generated_Source\PSoC6\pdl\middleware\ble/cy_ble.c **** }
 621              		.loc 2 736 0
 622 000a 00BF     		nop
 623 000c BD46     		mov	sp, r7
 624              		.cfi_def_cfa_register 13
 625              		@ sp needed
 626 000e 5DF8047B 		ldr	r7, [sp], #4
 627              		.cfi_restore 7
 628              		.cfi_def_cfa_offset 0
 629 0012 7047     		bx	lr
 630              	.L36:
 631              		.align	2
 632              	.L35:
 633 0014 00000000 		.word	Cy_BLE_HostRegisteredCallback
 634              		.cfi_endproc
 635              	.LFE262:
 636              		.size	Cy_BLE_UnRegisterAppHostCallback, .-Cy_BLE_UnRegisterAppHostCallback
 637              		.section	.text.Cy_BLE_DeepSleepCallback,"ax",%progbits
 638              		.align	2
 639              		.global	Cy_BLE_DeepSleepCallback
 640              		.thumb
 641              		.thumb_func
 642              		.type	Cy_BLE_DeepSleepCallback, %function
 643              	Cy_BLE_DeepSleepCallback:
 644              	.LFB263:
 737:Generated_Source\PSoC6\pdl\middleware\ble/cy_ble.c **** #endif /* (CY_BLE_MODE_PROFILE) */
 738:Generated_Source\PSoC6\pdl\middleware\ble/cy_ble.c **** 
 739:Generated_Source\PSoC6\pdl\middleware\ble/cy_ble.c **** 
 740:Generated_Source\PSoC6\pdl\middleware\ble/cy_ble.c **** #if (CY_BLE_USE_DEEP_SLEEP != 0u)
 741:Generated_Source\PSoC6\pdl\middleware\ble/cy_ble.c **** /*******************************************************************************
 742:Generated_Source\PSoC6\pdl\middleware\ble/cy_ble.c **** * Function Name: Cy_BLE_DeepSleepCallback
 743:Generated_Source\PSoC6\pdl\middleware\ble/cy_ble.c **** ****************************************************************************//**
 744:Generated_Source\PSoC6\pdl\middleware\ble/cy_ble.c **** *
 745:Generated_Source\PSoC6\pdl\middleware\ble/cy_ble.c **** * This function requests the BLE Stack to put Bluetooth Low Energy Sub-System
 746:Generated_Source\PSoC6\pdl\middleware\ble/cy_ble.c **** * (BLESS) to DeepSleep mode.
 747:Generated_Source\PSoC6\pdl\middleware\ble/cy_ble.c **** *
 748:Generated_Source\PSoC6\pdl\middleware\ble/cy_ble.c **** * It is registered to the system power mode by Cy_SysPm_RegisterCallback()
 749:Generated_Source\PSoC6\pdl\middleware\ble/cy_ble.c **** * function with CY_SYSPM_DEEPSLEEP type. After registration it is called by
ARM GAS  C:\Users\JC\AppData\Local\Temp\ccNOiAvA.s 			page 39


 750:Generated_Source\PSoC6\pdl\middleware\ble/cy_ble.c **** * Cy_SysPm_DeepSleep() function prior entering the core into the Deep Sleep
 751:Generated_Source\PSoC6\pdl\middleware\ble/cy_ble.c **** * power mode.
 752:Generated_Source\PSoC6\pdl\middleware\ble/cy_ble.c **** *
 753:Generated_Source\PSoC6\pdl\middleware\ble/cy_ble.c **** * When it is called with the enMode parameter set to CY_SYSPM_CHECK_READY,
 754:Generated_Source\PSoC6\pdl\middleware\ble/cy_ble.c **** * function enters BLESS to CY_BLE_BLESS_DEEPSLEEP mode. It also checks the
 755:Generated_Source\PSoC6\pdl\middleware\ble/cy_ble.c **** * BLE Subsystem's current operational mode. When the
 756:Generated_Source\PSoC6\pdl\middleware\ble/cy_ble.c **** * Cy_BLE_StackGetBleSsState() function returns CY_BLE_BLESS_STATE_ECO_ON or
 757:Generated_Source\PSoC6\pdl\middleware\ble/cy_ble.c **** * CY_BLE_BLESS_STATE_DEEPSLEEP state, this function returns CY_SYSPM_PASS and
 758:Generated_Source\PSoC6\pdl\middleware\ble/cy_ble.c **** * allows to put the core into the Deep Sleep power mode.
 759:Generated_Source\PSoC6\pdl\middleware\ble/cy_ble.c **** * At all other times, the function tries to enter core into sleep mode.
 760:Generated_Source\PSoC6\pdl\middleware\ble/cy_ble.c **** *
 761:Generated_Source\PSoC6\pdl\middleware\ble/cy_ble.c **** * This function is available only when BLE low power mode is enabled in the
 762:Generated_Source\PSoC6\pdl\middleware\ble/cy_ble.c **** * Advanced tab of customizer.
 763:Generated_Source\PSoC6\pdl\middleware\ble/cy_ble.c **** *
 764:Generated_Source\PSoC6\pdl\middleware\ble/cy_ble.c **** * \param
 765:Generated_Source\PSoC6\pdl\middleware\ble/cy_ble.c **** * callbackParams  pointer to the structure with the syspm callback parameters
 766:Generated_Source\PSoC6\pdl\middleware\ble/cy_ble.c **** *                 callbackParams->mode - the callback mode, see description 
 767:Generated_Source\PSoC6\pdl\middleware\ble/cy_ble.c **** *                 of the cy_en_syspm_callback_mode_t type.
 768:Generated_Source\PSoC6\pdl\middleware\ble/cy_ble.c **** *
 769:Generated_Source\PSoC6\pdl\middleware\ble/cy_ble.c **** * \return
 770:Generated_Source\PSoC6\pdl\middleware\ble/cy_ble.c **** * * CY_SYSPM_SUCCESS  - Entered and exited from DeepSleep
 771:Generated_Source\PSoC6\pdl\middleware\ble/cy_ble.c **** * * CY_SYSPM_FAIL     - DeepSleep not entered.
 772:Generated_Source\PSoC6\pdl\middleware\ble/cy_ble.c **** *
 773:Generated_Source\PSoC6\pdl\middleware\ble/cy_ble.c **** *******************************************************************************/
 774:Generated_Source\PSoC6\pdl\middleware\ble/cy_ble.c **** #if (CY_SYSPM_DRV_VERSION_MAJOR < 4)
 775:Generated_Source\PSoC6\pdl\middleware\ble/cy_ble.c **** cy_en_syspm_status_t Cy_BLE_DeepSleepCallback(cy_stc_syspm_callback_params_t *callbackParams)
 776:Generated_Source\PSoC6\pdl\middleware\ble/cy_ble.c **** #else
 777:Generated_Source\PSoC6\pdl\middleware\ble/cy_ble.c **** cy_en_syspm_status_t Cy_BLE_DeepSleepCallback(cy_stc_syspm_callback_params_t *callbackParams,
 778:Generated_Source\PSoC6\pdl\middleware\ble/cy_ble.c ****                                               cy_en_syspm_callback_mode_t mode)
 779:Generated_Source\PSoC6\pdl\middleware\ble/cy_ble.c **** #endif /* (CY_SYSPM_DRV_VERSION_MAJOR < 4) */
 780:Generated_Source\PSoC6\pdl\middleware\ble/cy_ble.c **** 
 781:Generated_Source\PSoC6\pdl\middleware\ble/cy_ble.c **** {
 645              		.loc 2 781 0
 646              		.cfi_startproc
 647              		@ args = 0, pretend = 0, frame = 24
 648              		@ frame_needed = 1, uses_anonymous_args = 0
 649 0000 80B5     		push	{r7, lr}
 650              		.cfi_def_cfa_offset 8
 651              		.cfi_offset 7, -8
 652              		.cfi_offset 14, -4
 653 0002 86B0     		sub	sp, sp, #24
 654              		.cfi_def_cfa_offset 32
 655 0004 00AF     		add	r7, sp, #0
 656              		.cfi_def_cfa_register 7
 657 0006 7860     		str	r0, [r7, #4]
 658 0008 0B46     		mov	r3, r1
 659 000a FB70     		strb	r3, [r7, #3]
 782:Generated_Source\PSoC6\pdl\middleware\ble/cy_ble.c ****     cy_en_syspm_status_t retVal;
 783:Generated_Source\PSoC6\pdl\middleware\ble/cy_ble.c ****     static uint32_t interruptState = 0u;
 784:Generated_Source\PSoC6\pdl\middleware\ble/cy_ble.c ****     cy_en_ble_bless_state_t blessState;
 785:Generated_Source\PSoC6\pdl\middleware\ble/cy_ble.c ****     
 786:Generated_Source\PSoC6\pdl\middleware\ble/cy_ble.c ****     /* Local variable to store the status of BLESS Hardware block */
 787:Generated_Source\PSoC6\pdl\middleware\ble/cy_ble.c ****     cy_en_ble_lp_mode_t sleepMode;
 788:Generated_Source\PSoC6\pdl\middleware\ble/cy_ble.c **** 
 789:Generated_Source\PSoC6\pdl\middleware\ble/cy_ble.c **** #if (CY_SYSPM_DRV_VERSION_MAJOR < 4)
 790:Generated_Source\PSoC6\pdl\middleware\ble/cy_ble.c ****     switch(callbackParams->mode)
 791:Generated_Source\PSoC6\pdl\middleware\ble/cy_ble.c **** #else
ARM GAS  C:\Users\JC\AppData\Local\Temp\ccNOiAvA.s 			page 40


 792:Generated_Source\PSoC6\pdl\middleware\ble/cy_ble.c ****     switch(mode)
 660              		.loc 2 792 0
 661 000c FB78     		ldrb	r3, [r7, #3]	@ zero_extendqisi2
 662 000e 012B     		cmp	r3, #1
 663 0010 02D0     		beq	.L39
 664 0012 082B     		cmp	r3, #8
 665 0014 5CD0     		beq	.L40
 666 0016 63E0     		b	.L54
 667              	.L39:
 793:Generated_Source\PSoC6\pdl\middleware\ble/cy_ble.c **** #endif /* (CY_SYSPM_DRV_VERSION_MAJOR < 4) */
 794:Generated_Source\PSoC6\pdl\middleware\ble/cy_ble.c ****     {
 795:Generated_Source\PSoC6\pdl\middleware\ble/cy_ble.c ****         case (CY_SYSPM_CHECK_READY):
 796:Generated_Source\PSoC6\pdl\middleware\ble/cy_ble.c ****         #if (CY_BLE_MODE_PROFILE)
 797:Generated_Source\PSoC6\pdl\middleware\ble/cy_ble.c ****             if(Cy_BLE_GetState() == CY_BLE_STATE_INITIALIZING)
 668              		.loc 2 797 0
 669 0018 364B     		ldr	r3, .L56
 670 001a 1B78     		ldrb	r3, [r3]	@ zero_extendqisi2
 671 001c 012B     		cmp	r3, #1
 672 001e 02D1     		bne	.L41
 798:Generated_Source\PSoC6\pdl\middleware\ble/cy_ble.c ****             {
 799:Generated_Source\PSoC6\pdl\middleware\ble/cy_ble.c ****                 retVal = CY_SYSPM_FAIL;
 673              		.loc 2 799 0
 674 0020 354B     		ldr	r3, .L56+4
 675 0022 7B61     		str	r3, [r7, #20]
 800:Generated_Source\PSoC6\pdl\middleware\ble/cy_ble.c ****             }
 801:Generated_Source\PSoC6\pdl\middleware\ble/cy_ble.c ****             else
 802:Generated_Source\PSoC6\pdl\middleware\ble/cy_ble.c ****         #endif  /*(CY_BLE_MODE_PROFILE) */
 803:Generated_Source\PSoC6\pdl\middleware\ble/cy_ble.c ****             
 804:Generated_Source\PSoC6\pdl\middleware\ble/cy_ble.c ****             if(Cy_IPC_Sema_Status(CY_BLE_SEMA) == CY_IPC_SEMA_STATUS_LOCKED)
 805:Generated_Source\PSoC6\pdl\middleware\ble/cy_ble.c ****             {
 806:Generated_Source\PSoC6\pdl\middleware\ble/cy_ble.c ****                 /* System do not enter deepsleep if BLE Host start write operation */
 807:Generated_Source\PSoC6\pdl\middleware\ble/cy_ble.c ****                 retVal = CY_SYSPM_FAIL;
 808:Generated_Source\PSoC6\pdl\middleware\ble/cy_ble.c ****             }
 809:Generated_Source\PSoC6\pdl\middleware\ble/cy_ble.c ****             else
 810:Generated_Source\PSoC6\pdl\middleware\ble/cy_ble.c **** 
 811:Generated_Source\PSoC6\pdl\middleware\ble/cy_ble.c ****         #if(CY_BLE_STACK_CONTR_CORE)       
 812:Generated_Source\PSoC6\pdl\middleware\ble/cy_ble.c ****             if (Cy_BLE_HAL_IsEcoCpuClockSrc() == 1u)
 813:Generated_Source\PSoC6\pdl\middleware\ble/cy_ble.c ****             {            
 814:Generated_Source\PSoC6\pdl\middleware\ble/cy_ble.c ****                 /* System never enters deepsleep if BLE ECO is CPU source */
 815:Generated_Source\PSoC6\pdl\middleware\ble/cy_ble.c ****                 retVal = CY_SYSPM_FAIL;
 816:Generated_Source\PSoC6\pdl\middleware\ble/cy_ble.c ****             }
 817:Generated_Source\PSoC6\pdl\middleware\ble/cy_ble.c ****             else
 818:Generated_Source\PSoC6\pdl\middleware\ble/cy_ble.c ****         #endif /* (CY_BLE_STACK_CONTR_CORE) */
 819:Generated_Source\PSoC6\pdl\middleware\ble/cy_ble.c ****             {        
 820:Generated_Source\PSoC6\pdl\middleware\ble/cy_ble.c ****         #if(!CY_BLE_STACK_MODE_HOST_IPC)
 821:Generated_Source\PSoC6\pdl\middleware\ble/cy_ble.c ****                 cy_en_ble_api_result_t retIsControllerActive;
 822:Generated_Source\PSoC6\pdl\middleware\ble/cy_ble.c ****         #endif /* !CY_BLE_STACK_MODE_HOST_IPC */   
 823:Generated_Source\PSoC6\pdl\middleware\ble/cy_ble.c ****         
 824:Generated_Source\PSoC6\pdl\middleware\ble/cy_ble.c ****         #if(CY_BLE_STACK_MODE_HOST_IPC)
 825:Generated_Source\PSoC6\pdl\middleware\ble/cy_ble.c ****                 /* Disable global interrupt to prevent changes from any other interrupt ISR */
 826:Generated_Source\PSoC6\pdl\middleware\ble/cy_ble.c ****                 interruptState = Cy_SysLib_EnterCriticalSection();
 827:Generated_Source\PSoC6\pdl\middleware\ble/cy_ble.c ****         #endif /* CY_BLE_STACK_MODE_HOST_IPC */
 828:Generated_Source\PSoC6\pdl\middleware\ble/cy_ble.c ****                
 829:Generated_Source\PSoC6\pdl\middleware\ble/cy_ble.c ****                 /* Put BLESS into Deep Sleep and check the return status */
 830:Generated_Source\PSoC6\pdl\middleware\ble/cy_ble.c ****                 sleepMode = Cy_BLE_StackEnterLPM(CY_BLE_BLESS_DEEPSLEEP);
 831:Generated_Source\PSoC6\pdl\middleware\ble/cy_ble.c **** 
 832:Generated_Source\PSoC6\pdl\middleware\ble/cy_ble.c ****         #if(!CY_BLE_STACK_MODE_HOST_IPC)
ARM GAS  C:\Users\JC\AppData\Local\Temp\ccNOiAvA.s 			page 41


 833:Generated_Source\PSoC6\pdl\middleware\ble/cy_ble.c ****                 /* Disable global interrupt to prevent changes from any other interrupt ISR */
 834:Generated_Source\PSoC6\pdl\middleware\ble/cy_ble.c ****                 interruptState = Cy_SysLib_EnterCriticalSection();
 835:Generated_Source\PSoC6\pdl\middleware\ble/cy_ble.c ****         #endif /* !CY_BLE_STACK_MODE_HOST_IPC */
 836:Generated_Source\PSoC6\pdl\middleware\ble/cy_ble.c **** 
 837:Generated_Source\PSoC6\pdl\middleware\ble/cy_ble.c ****                 /* Check the Status of BLESS */
 838:Generated_Source\PSoC6\pdl\middleware\ble/cy_ble.c ****                 blessState = Cy_BLE_StackGetBleSsState();
 839:Generated_Source\PSoC6\pdl\middleware\ble/cy_ble.c **** 
 840:Generated_Source\PSoC6\pdl\middleware\ble/cy_ble.c ****                 #if(!CY_BLE_STACK_MODE_HOST_IPC)
 841:Generated_Source\PSoC6\pdl\middleware\ble/cy_ble.c ****                 if(blessState == CY_BLE_BLESS_STATE_STOPPED)
 842:Generated_Source\PSoC6\pdl\middleware\ble/cy_ble.c ****                 {
 843:Generated_Source\PSoC6\pdl\middleware\ble/cy_ble.c ****                     retVal = CY_SYSPM_SUCCESS;
 844:Generated_Source\PSoC6\pdl\middleware\ble/cy_ble.c ****                 }
 845:Generated_Source\PSoC6\pdl\middleware\ble/cy_ble.c ****                 else
 846:Generated_Source\PSoC6\pdl\middleware\ble/cy_ble.c ****                 #endif /* (!CY_BLE_STACK_MODE_HOST_IPC)*/
 847:Generated_Source\PSoC6\pdl\middleware\ble/cy_ble.c ****                 if(sleepMode == CY_BLE_BLESS_DEEPSLEEP)
 848:Generated_Source\PSoC6\pdl\middleware\ble/cy_ble.c ****                 {
 849:Generated_Source\PSoC6\pdl\middleware\ble/cy_ble.c **** 
 850:Generated_Source\PSoC6\pdl\middleware\ble/cy_ble.c ****                     #if(!CY_BLE_STACK_MODE_HOST_IPC)
 851:Generated_Source\PSoC6\pdl\middleware\ble/cy_ble.c ****                     retIsControllerActive = Cy_BLE_IsControllerActive(CY_BLE_CONTROLLER_SLEEP_MODE_
 852:Generated_Source\PSoC6\pdl\middleware\ble/cy_ble.c ****                     #endif /* !CY_BLE_STACK_MODE_HOST_IPC */
 853:Generated_Source\PSoC6\pdl\middleware\ble/cy_ble.c **** 
 854:Generated_Source\PSoC6\pdl\middleware\ble/cy_ble.c ****                     if(((blessState == CY_BLE_BLESS_STATE_ECO_ON) || (blessState == CY_BLE_BLESS_ST
 855:Generated_Source\PSoC6\pdl\middleware\ble/cy_ble.c ****                     #if(!CY_BLE_STACK_MODE_HOST_IPC)
 856:Generated_Source\PSoC6\pdl\middleware\ble/cy_ble.c ****                         && (retIsControllerActive == CY_BLE_SUCCESS)
 857:Generated_Source\PSoC6\pdl\middleware\ble/cy_ble.c ****                     #endif /* !CY_BLE_STACK_MODE_HOST_IPC */                    
 858:Generated_Source\PSoC6\pdl\middleware\ble/cy_ble.c ****                         )
 859:Generated_Source\PSoC6\pdl\middleware\ble/cy_ble.c ****                     {
 860:Generated_Source\PSoC6\pdl\middleware\ble/cy_ble.c ****                         /* Enter device deep sleep */
 861:Generated_Source\PSoC6\pdl\middleware\ble/cy_ble.c ****                         retVal = CY_SYSPM_SUCCESS;
 862:Generated_Source\PSoC6\pdl\middleware\ble/cy_ble.c ****                     }
 863:Generated_Source\PSoC6\pdl\middleware\ble/cy_ble.c ****                     else
 864:Generated_Source\PSoC6\pdl\middleware\ble/cy_ble.c ****                     {
 865:Generated_Source\PSoC6\pdl\middleware\ble/cy_ble.c ****                         /* The BLESS hardware block cannot go to Deep Sleep, try sleep mode */
 866:Generated_Source\PSoC6\pdl\middleware\ble/cy_ble.c ****                         retVal = CY_SYSPM_FAIL;
 867:Generated_Source\PSoC6\pdl\middleware\ble/cy_ble.c ****                     }
 868:Generated_Source\PSoC6\pdl\middleware\ble/cy_ble.c ****                 }
 869:Generated_Source\PSoC6\pdl\middleware\ble/cy_ble.c ****                 else
 870:Generated_Source\PSoC6\pdl\middleware\ble/cy_ble.c ****                 {
 871:Generated_Source\PSoC6\pdl\middleware\ble/cy_ble.c ****                 #if(!CY_BLE_STACK_MODE_HOST_IPC)
 872:Generated_Source\PSoC6\pdl\middleware\ble/cy_ble.c ****                     retIsControllerActive = Cy_BLE_IsControllerActive(CY_BLE_CONTROLLER_SLEEP_MODE_
 873:Generated_Source\PSoC6\pdl\middleware\ble/cy_ble.c **** 
 874:Generated_Source\PSoC6\pdl\middleware\ble/cy_ble.c ****                     if((blessState != CY_BLE_BLESS_STATE_EVENT_CLOSE) && 
 875:Generated_Source\PSoC6\pdl\middleware\ble/cy_ble.c ****                        (retIsControllerActive == CY_BLE_SUCCESS))
 876:Generated_Source\PSoC6\pdl\middleware\ble/cy_ble.c ****                     {
 877:Generated_Source\PSoC6\pdl\middleware\ble/cy_ble.c ****                         /* If the BLESS hardware block cannot go to Deep Sleep and BLE Event has no
 878:Generated_Source\PSoC6\pdl\middleware\ble/cy_ble.c ****                          * closed yet, then place CPU to Sleep */
 879:Generated_Source\PSoC6\pdl\middleware\ble/cy_ble.c ****                         (void)Cy_SysPm_Sleep(CY_SYSPM_WAIT_FOR_INTERRUPT);
 880:Generated_Source\PSoC6\pdl\middleware\ble/cy_ble.c ****                     }
 881:Generated_Source\PSoC6\pdl\middleware\ble/cy_ble.c ****                 #endif /* !CY_BLE_STACK_MODE_HOST_IPC */
 882:Generated_Source\PSoC6\pdl\middleware\ble/cy_ble.c ****                     retVal = CY_SYSPM_FAIL;
 883:Generated_Source\PSoC6\pdl\middleware\ble/cy_ble.c ****                 }
 884:Generated_Source\PSoC6\pdl\middleware\ble/cy_ble.c ****                 if(retVal == CY_SYSPM_FAIL)
 885:Generated_Source\PSoC6\pdl\middleware\ble/cy_ble.c ****                 {
 886:Generated_Source\PSoC6\pdl\middleware\ble/cy_ble.c ****                     /* Enable interrupts after failing check */
 887:Generated_Source\PSoC6\pdl\middleware\ble/cy_ble.c ****                     Cy_SysLib_ExitCriticalSection(interruptState);
 888:Generated_Source\PSoC6\pdl\middleware\ble/cy_ble.c ****                 }
 889:Generated_Source\PSoC6\pdl\middleware\ble/cy_ble.c ****             }
ARM GAS  C:\Users\JC\AppData\Local\Temp\ccNOiAvA.s 			page 42


 890:Generated_Source\PSoC6\pdl\middleware\ble/cy_ble.c ****             break;
 676              		.loc 2 890 0
 677 0024 5FE0     		b	.L55
 678              	.L41:
 804:Generated_Source\PSoC6\pdl\middleware\ble/cy_ble.c ****             {
 679              		.loc 2 804 0
 680 0026 0320     		movs	r0, #3
 681 0028 FFF7FEFF 		bl	Cy_IPC_Sema_Status
 682 002c 0246     		mov	r2, r0
 683 002e 334B     		ldr	r3, .L56+8
 684 0030 9A42     		cmp	r2, r3
 685 0032 02D1     		bne	.L43
 807:Generated_Source\PSoC6\pdl\middleware\ble/cy_ble.c ****             }
 686              		.loc 2 807 0
 687 0034 304B     		ldr	r3, .L56+4
 688 0036 7B61     		str	r3, [r7, #20]
 689              		.loc 2 890 0
 690 0038 55E0     		b	.L55
 691              	.L43:
 812:Generated_Source\PSoC6\pdl\middleware\ble/cy_ble.c ****             {            
 692              		.loc 2 812 0
 693 003a FFF7FEFF 		bl	Cy_BLE_HAL_IsEcoCpuClockSrc
 694 003e 0346     		mov	r3, r0
 695 0040 012B     		cmp	r3, #1
 696 0042 02D1     		bne	.L44
 815:Generated_Source\PSoC6\pdl\middleware\ble/cy_ble.c ****             }
 697              		.loc 2 815 0
 698 0044 2C4B     		ldr	r3, .L56+4
 699 0046 7B61     		str	r3, [r7, #20]
 700              		.loc 2 890 0
 701 0048 4DE0     		b	.L55
 702              	.L44:
 703              	.LBB3:
 830:Generated_Source\PSoC6\pdl\middleware\ble/cy_ble.c **** 
 704              		.loc 2 830 0
 705 004a 0220     		movs	r0, #2
 706 004c FFF7FEFF 		bl	Cy_BLE_StackEnterLPM
 707 0050 0346     		mov	r3, r0
 708 0052 FB74     		strb	r3, [r7, #19]
 834:Generated_Source\PSoC6\pdl\middleware\ble/cy_ble.c ****         #endif /* !CY_BLE_STACK_MODE_HOST_IPC */
 709              		.loc 2 834 0
 710 0054 FFF7FEFF 		bl	Cy_SysLib_EnterCriticalSection
 711 0058 0246     		mov	r2, r0
 712 005a 294B     		ldr	r3, .L56+12
 713 005c 1A60     		str	r2, [r3]
 838:Generated_Source\PSoC6\pdl\middleware\ble/cy_ble.c **** 
 714              		.loc 2 838 0
 715 005e FFF7FEFF 		bl	Cy_BLE_StackGetBleSsState
 716 0062 0346     		mov	r3, r0
 717 0064 BB74     		strb	r3, [r7, #18]
 841:Generated_Source\PSoC6\pdl\middleware\ble/cy_ble.c ****                 {
 718              		.loc 2 841 0
 719 0066 BB7C     		ldrb	r3, [r7, #18]	@ zero_extendqisi2
 720 0068 062B     		cmp	r3, #6
 721 006a 02D1     		bne	.L45
 843:Generated_Source\PSoC6\pdl\middleware\ble/cy_ble.c ****                 }
 722              		.loc 2 843 0
ARM GAS  C:\Users\JC\AppData\Local\Temp\ccNOiAvA.s 			page 43


 723 006c 0023     		movs	r3, #0
 724 006e 7B61     		str	r3, [r7, #20]
 725 0070 24E0     		b	.L46
 726              	.L45:
 847:Generated_Source\PSoC6\pdl\middleware\ble/cy_ble.c ****                 {
 727              		.loc 2 847 0
 728 0072 FB7C     		ldrb	r3, [r7, #19]	@ zero_extendqisi2
 729 0074 022B     		cmp	r3, #2
 730 0076 12D1     		bne	.L47
 851:Generated_Source\PSoC6\pdl\middleware\ble/cy_ble.c ****                     #endif /* !CY_BLE_STACK_MODE_HOST_IPC */
 731              		.loc 2 851 0
 732 0078 0220     		movs	r0, #2
 733 007a FFF7FEFF 		bl	Cy_BLE_IsControllerActive
 734 007e F860     		str	r0, [r7, #12]
 854:Generated_Source\PSoC6\pdl\middleware\ble/cy_ble.c ****                     #if(!CY_BLE_STACK_MODE_HOST_IPC)
 735              		.loc 2 854 0
 736 0080 BB7C     		ldrb	r3, [r7, #18]	@ zero_extendqisi2
 737 0082 032B     		cmp	r3, #3
 738 0084 02D0     		beq	.L48
 854:Generated_Source\PSoC6\pdl\middleware\ble/cy_ble.c ****                     #if(!CY_BLE_STACK_MODE_HOST_IPC)
 739              		.loc 2 854 0 is_stmt 0 discriminator 1
 740 0086 BB7C     		ldrb	r3, [r7, #18]	@ zero_extendqisi2
 741 0088 052B     		cmp	r3, #5
 742 008a 05D1     		bne	.L49
 743              	.L48:
 856:Generated_Source\PSoC6\pdl\middleware\ble/cy_ble.c ****                     #endif /* !CY_BLE_STACK_MODE_HOST_IPC */                    
 744              		.loc 2 856 0 is_stmt 1
 745 008c FB68     		ldr	r3, [r7, #12]
 746 008e 002B     		cmp	r3, #0
 747 0090 02D1     		bne	.L49
 861:Generated_Source\PSoC6\pdl\middleware\ble/cy_ble.c ****                     }
 748              		.loc 2 861 0
 749 0092 0023     		movs	r3, #0
 750 0094 7B61     		str	r3, [r7, #20]
 751 0096 11E0     		b	.L46
 752              	.L49:
 866:Generated_Source\PSoC6\pdl\middleware\ble/cy_ble.c ****                     }
 753              		.loc 2 866 0
 754 0098 174B     		ldr	r3, .L56+4
 755 009a 7B61     		str	r3, [r7, #20]
 756 009c 0EE0     		b	.L46
 757              	.L47:
 872:Generated_Source\PSoC6\pdl\middleware\ble/cy_ble.c **** 
 758              		.loc 2 872 0
 759 009e 0120     		movs	r0, #1
 760 00a0 FFF7FEFF 		bl	Cy_BLE_IsControllerActive
 761 00a4 F860     		str	r0, [r7, #12]
 874:Generated_Source\PSoC6\pdl\middleware\ble/cy_ble.c ****                        (retIsControllerActive == CY_BLE_SUCCESS))
 762              		.loc 2 874 0
 763 00a6 BB7C     		ldrb	r3, [r7, #18]	@ zero_extendqisi2
 764 00a8 022B     		cmp	r3, #2
 765 00aa 05D0     		beq	.L51
 874:Generated_Source\PSoC6\pdl\middleware\ble/cy_ble.c ****                        (retIsControllerActive == CY_BLE_SUCCESS))
 766              		.loc 2 874 0 is_stmt 0 discriminator 1
 767 00ac FB68     		ldr	r3, [r7, #12]
 768 00ae 002B     		cmp	r3, #0
 769 00b0 02D1     		bne	.L51
ARM GAS  C:\Users\JC\AppData\Local\Temp\ccNOiAvA.s 			page 44


 879:Generated_Source\PSoC6\pdl\middleware\ble/cy_ble.c ****                     }
 770              		.loc 2 879 0 is_stmt 1
 771 00b2 0020     		movs	r0, #0
 772 00b4 FFF7FEFF 		bl	Cy_SysPm_CpuEnterSleep
 773              	.L51:
 882:Generated_Source\PSoC6\pdl\middleware\ble/cy_ble.c ****                 }
 774              		.loc 2 882 0
 775 00b8 0F4B     		ldr	r3, .L56+4
 776 00ba 7B61     		str	r3, [r7, #20]
 777              	.L46:
 884:Generated_Source\PSoC6\pdl\middleware\ble/cy_ble.c ****                 {
 778              		.loc 2 884 0
 779 00bc 7B69     		ldr	r3, [r7, #20]
 780 00be 0E4A     		ldr	r2, .L56+4
 781 00c0 9342     		cmp	r3, r2
 782 00c2 10D1     		bne	.L55
 887:Generated_Source\PSoC6\pdl\middleware\ble/cy_ble.c ****                 }
 783              		.loc 2 887 0
 784 00c4 0E4B     		ldr	r3, .L56+12
 785 00c6 1B68     		ldr	r3, [r3]
 786 00c8 1846     		mov	r0, r3
 787 00ca FFF7FEFF 		bl	Cy_SysLib_ExitCriticalSection
 788              	.LBE3:
 789              		.loc 2 890 0
 790 00ce 0AE0     		b	.L55
 791              	.L40:
 891:Generated_Source\PSoC6\pdl\middleware\ble/cy_ble.c **** 
 892:Generated_Source\PSoC6\pdl\middleware\ble/cy_ble.c ****         /* Enable interrupts after wakeup */
 893:Generated_Source\PSoC6\pdl\middleware\ble/cy_ble.c ****         case (CY_SYSPM_AFTER_TRANSITION):
 894:Generated_Source\PSoC6\pdl\middleware\ble/cy_ble.c ****             Cy_SysLib_ExitCriticalSection(interruptState);
 792              		.loc 2 894 0
 793 00d0 0B4B     		ldr	r3, .L56+12
 794 00d2 1B68     		ldr	r3, [r3]
 795 00d4 1846     		mov	r0, r3
 796 00d6 FFF7FEFF 		bl	Cy_SysLib_ExitCriticalSection
 895:Generated_Source\PSoC6\pdl\middleware\ble/cy_ble.c ****             retVal = CY_SYSPM_SUCCESS;
 797              		.loc 2 895 0
 798 00da 0023     		movs	r3, #0
 799 00dc 7B61     		str	r3, [r7, #20]
 896:Generated_Source\PSoC6\pdl\middleware\ble/cy_ble.c ****             break;
 800              		.loc 2 896 0
 801 00de 03E0     		b	.L52
 802              	.L54:
 897:Generated_Source\PSoC6\pdl\middleware\ble/cy_ble.c **** 
 898:Generated_Source\PSoC6\pdl\middleware\ble/cy_ble.c ****         default:
 899:Generated_Source\PSoC6\pdl\middleware\ble/cy_ble.c ****             retVal = CY_SYSPM_FAIL;
 803              		.loc 2 899 0
 804 00e0 054B     		ldr	r3, .L56+4
 805 00e2 7B61     		str	r3, [r7, #20]
 900:Generated_Source\PSoC6\pdl\middleware\ble/cy_ble.c ****             break;
 806              		.loc 2 900 0
 807 00e4 00E0     		b	.L52
 808              	.L55:
 890:Generated_Source\PSoC6\pdl\middleware\ble/cy_ble.c **** 
 809              		.loc 2 890 0
 810 00e6 00BF     		nop
 811              	.L52:
ARM GAS  C:\Users\JC\AppData\Local\Temp\ccNOiAvA.s 			page 45


 901:Generated_Source\PSoC6\pdl\middleware\ble/cy_ble.c ****     }
 902:Generated_Source\PSoC6\pdl\middleware\ble/cy_ble.c **** 
 903:Generated_Source\PSoC6\pdl\middleware\ble/cy_ble.c ****     return(retVal);
 812              		.loc 2 903 0
 813 00e8 7B69     		ldr	r3, [r7, #20]
 904:Generated_Source\PSoC6\pdl\middleware\ble/cy_ble.c **** }
 814              		.loc 2 904 0
 815 00ea 1846     		mov	r0, r3
 816 00ec 1837     		adds	r7, r7, #24
 817              		.cfi_def_cfa_offset 8
 818 00ee BD46     		mov	sp, r7
 819              		.cfi_def_cfa_register 13
 820              		@ sp needed
 821 00f0 80BD     		pop	{r7, pc}
 822              	.L57:
 823 00f2 00BF     		.align	2
 824              	.L56:
 825 00f4 00000000 		.word	cy_ble_state
 826 00f8 FF004200 		.word	4325631
 827 00fc 01018800 		.word	8913153
 828 0100 14000000 		.word	interruptState.14640
 829              		.cfi_endproc
 830              	.LFE263:
 831              		.size	Cy_BLE_DeepSleepCallback, .-Cy_BLE_DeepSleepCallback
 832              		.bss
 833              		.align	2
 834              	interruptState.14640:
 835 0014 00000000 		.space	4
 836              		.text
 837              	.Letext0:
 838              		.file 3 "c:\\program files (x86)\\cypress\\psoc creator\\4.4\\psoc creator\\import\\gnu\\arm\\5.4.
 839              		.file 4 "c:\\program files (x86)\\cypress\\psoc creator\\4.4\\psoc creator\\import\\gnu\\arm\\5.4.
 840              		.file 5 "Generated_Source\\PSoC6\\pdl\\drivers/peripheral/device/cy_device.h"
 841              		.file 6 "Generated_Source\\PSoC6\\pdl\\devices/psoc6/include/cyble_416045_02.h"
 842              		.file 7 "Generated_Source\\PSoC6\\pdl\\devices/psoc6/include/ip/cyip_ble.h"
 843              		.file 8 "Generated_Source\\PSoC6\\pdl\\devices/psoc6/include/psoc6_01_config.h"
 844              		.file 9 "Generated_Source\\PSoC6\\pdl\\drivers/peripheral/sysint/cy_sysint.h"
 845              		.file 10 "Generated_Source\\PSoC6\\pdl\\drivers/peripheral/syspm/cy_syspm.h"
 846              		.file 11 "Generated_Source\\PSoC6\\pdl\\middleware\\ble\\cy_ble_stack.h"
 847              		.file 12 "Generated_Source\\PSoC6\\pdl\\middleware\\ble\\cy_ble_stack_host_main.h"
 848              		.file 13 "Generated_Source\\PSoC6\\pdl\\middleware\\ble\\cy_ble_stack_gatt.h"
 849              		.file 14 "Generated_Source\\PSoC6\\pdl\\middleware\\ble\\cy_ble_stack_gap.h"
 850              		.file 15 "Generated_Source\\PSoC6\\pdl\\middleware\\ble\\cy_ble_stack_gap_central.h"
 851              		.file 16 "Generated_Source\\PSoC6\\pdl\\middleware\\ble\\cy_ble_stack_gap_peripheral.h"
 852              		.file 17 "Generated_Source\\PSoC6\\pdl\\middleware\\ble\\cy_ble_stack_gatt_db.h"
 853              		.file 18 "Generated_Source\\PSoC6\\pdl\\middleware\\ble\\cy_ble_gatt.h"
 854              		.file 19 "Generated_Source\\PSoC6\\pdl\\middleware\\ble\\cy_ble.h"
 855              		.file 20 "Generated_Source\\PSoC6\\pdl\\drivers/peripheral/ipc/cy_ipc_sema.h"
 856              		.file 21 "Generated_Source\\PSoC6\\pdl\\cmsis/include/core_cm4.h"
 857              		.file 22 "Generated_Source\\PSoC6\\pdl\\middleware\\ble\\cy_ble_event_handler.h"
 858              		.section	.debug_info,"",%progbits
 859              	.Ldebug_info0:
 860 0000 21370000 		.4byte	0x3721
 861 0004 0400     		.2byte	0x4
 862 0006 00000000 		.4byte	.Ldebug_abbrev0
 863 000a 04       		.byte	0x4
 864 000b 01       		.uleb128 0x1
ARM GAS  C:\Users\JC\AppData\Local\Temp\ccNOiAvA.s 			page 46


 865 000c 2E3B0000 		.4byte	.LASF1070
 866 0010 0C       		.byte	0xc
 867 0011 AF260000 		.4byte	.LASF1071
 868 0015 E0290000 		.4byte	.LASF1072
 869 0019 00000000 		.4byte	.Ldebug_ranges0+0
 870 001d 00000000 		.4byte	0
 871 0021 00000000 		.4byte	.Ldebug_line0
 872 0025 02       		.uleb128 0x2
 873 0026 04       		.byte	0x4
 874 0027 05       		.byte	0x5
 875 0028 696E7400 		.ascii	"int\000"
 876 002c 03       		.uleb128 0x3
 877 002d 04       		.byte	0x4
 878 002e 07       		.byte	0x7
 879 002f 97580000 		.4byte	.LASF0
 880 0033 03       		.uleb128 0x3
 881 0034 08       		.byte	0x8
 882 0035 05       		.byte	0x5
 883 0036 37000000 		.4byte	.LASF1
 884 003a 03       		.uleb128 0x3
 885 003b 08       		.byte	0x8
 886 003c 04       		.byte	0x4
 887 003d 99070000 		.4byte	.LASF2
 888 0041 04       		.uleb128 0x4
 889 0042 2F240000 		.4byte	.LASF4
 890 0046 03       		.byte	0x3
 891 0047 1B       		.byte	0x1b
 892 0048 4C000000 		.4byte	0x4c
 893 004c 03       		.uleb128 0x3
 894 004d 01       		.byte	0x1
 895 004e 06       		.byte	0x6
 896 004f E9490000 		.4byte	.LASF3
 897 0053 04       		.uleb128 0x4
 898 0054 88120000 		.4byte	.LASF5
 899 0058 03       		.byte	0x3
 900 0059 1D       		.byte	0x1d
 901 005a 5E000000 		.4byte	0x5e
 902 005e 03       		.uleb128 0x3
 903 005f 01       		.byte	0x1
 904 0060 08       		.byte	0x8
 905 0061 522D0000 		.4byte	.LASF6
 906 0065 04       		.uleb128 0x4
 907 0066 B2290000 		.4byte	.LASF7
 908 006a 03       		.byte	0x3
 909 006b 29       		.byte	0x29
 910 006c 70000000 		.4byte	0x70
 911 0070 03       		.uleb128 0x3
 912 0071 02       		.byte	0x2
 913 0072 05       		.byte	0x5
 914 0073 CA3D0000 		.4byte	.LASF8
 915 0077 04       		.uleb128 0x4
 916 0078 4B1D0000 		.4byte	.LASF9
 917 007c 03       		.byte	0x3
 918 007d 2B       		.byte	0x2b
 919 007e 82000000 		.4byte	0x82
 920 0082 03       		.uleb128 0x3
 921 0083 02       		.byte	0x2
ARM GAS  C:\Users\JC\AppData\Local\Temp\ccNOiAvA.s 			page 47


 922 0084 07       		.byte	0x7
 923 0085 C9280000 		.4byte	.LASF10
 924 0089 04       		.uleb128 0x4
 925 008a 08420000 		.4byte	.LASF11
 926 008e 03       		.byte	0x3
 927 008f 3F       		.byte	0x3f
 928 0090 94000000 		.4byte	0x94
 929 0094 03       		.uleb128 0x3
 930 0095 04       		.byte	0x4
 931 0096 05       		.byte	0x5
 932 0097 B6410000 		.4byte	.LASF12
 933 009b 04       		.uleb128 0x4
 934 009c 3F340000 		.4byte	.LASF13
 935 00a0 03       		.byte	0x3
 936 00a1 41       		.byte	0x41
 937 00a2 A6000000 		.4byte	0xa6
 938 00a6 03       		.uleb128 0x3
 939 00a7 04       		.byte	0x4
 940 00a8 07       		.byte	0x7
 941 00a9 01010000 		.4byte	.LASF14
 942 00ad 03       		.uleb128 0x3
 943 00ae 08       		.byte	0x8
 944 00af 07       		.byte	0x7
 945 00b0 C44C0000 		.4byte	.LASF15
 946 00b4 03       		.uleb128 0x3
 947 00b5 04       		.byte	0x4
 948 00b6 07       		.byte	0x7
 949 00b7 4D440000 		.4byte	.LASF16
 950 00bb 05       		.uleb128 0x5
 951 00bc 04       		.byte	0x4
 952 00bd 03       		.uleb128 0x3
 953 00be 01       		.byte	0x1
 954 00bf 08       		.byte	0x8
 955 00c0 0E500000 		.4byte	.LASF17
 956 00c4 06       		.uleb128 0x6
 957 00c5 04       		.byte	0x4
 958 00c6 CA000000 		.4byte	0xca
 959 00ca 07       		.uleb128 0x7
 960 00cb 04       		.uleb128 0x4
 961 00cc 684B0000 		.4byte	.LASF18
 962 00d0 04       		.byte	0x4
 963 00d1 14       		.byte	0x14
 964 00d2 41000000 		.4byte	0x41
 965 00d6 04       		.uleb128 0x4
 966 00d7 432B0000 		.4byte	.LASF19
 967 00db 04       		.byte	0x4
 968 00dc 18       		.byte	0x18
 969 00dd 53000000 		.4byte	0x53
 970 00e1 04       		.uleb128 0x4
 971 00e2 B1440000 		.4byte	.LASF20
 972 00e6 04       		.byte	0x4
 973 00e7 20       		.byte	0x20
 974 00e8 65000000 		.4byte	0x65
 975 00ec 04       		.uleb128 0x4
 976 00ed 5F4C0000 		.4byte	.LASF21
 977 00f1 04       		.byte	0x4
 978 00f2 24       		.byte	0x24
ARM GAS  C:\Users\JC\AppData\Local\Temp\ccNOiAvA.s 			page 48


 979 00f3 77000000 		.4byte	0x77
 980 00f7 04       		.uleb128 0x4
 981 00f8 21570000 		.4byte	.LASF22
 982 00fc 04       		.byte	0x4
 983 00fd 2C       		.byte	0x2c
 984 00fe 89000000 		.4byte	0x89
 985 0102 04       		.uleb128 0x4
 986 0103 80060000 		.4byte	.LASF23
 987 0107 04       		.byte	0x4
 988 0108 30       		.byte	0x30
 989 0109 9B000000 		.4byte	0x9b
 990 010d 08       		.uleb128 0x8
 991 010e 02010000 		.4byte	0x102
 992 0112 09       		.uleb128 0x9
 993 0113 0D010000 		.4byte	0x10d
 994 0117 0A       		.uleb128 0xa
 995 0118 12010000 		.4byte	0x112
 996 011c 27010000 		.4byte	0x127
 997 0120 0B       		.uleb128 0xb
 998 0121 B4000000 		.4byte	0xb4
 999 0125 02       		.byte	0x2
 1000 0126 00       		.byte	0
 1001 0127 0A       		.uleb128 0xa
 1002 0128 0D010000 		.4byte	0x10d
 1003 012c 37010000 		.4byte	0x137
 1004 0130 0B       		.uleb128 0xb
 1005 0131 B4000000 		.4byte	0xb4
 1006 0135 0F       		.byte	0xf
 1007 0136 00       		.byte	0
 1008 0137 0A       		.uleb128 0xa
 1009 0138 12010000 		.4byte	0x112
 1010 013c 47010000 		.4byte	0x147
 1011 0140 0B       		.uleb128 0xb
 1012 0141 B4000000 		.4byte	0xb4
 1013 0145 03       		.byte	0x3
 1014 0146 00       		.byte	0
 1015 0147 0A       		.uleb128 0xa
 1016 0148 12010000 		.4byte	0x112
 1017 014c 57010000 		.4byte	0x157
 1018 0150 0B       		.uleb128 0xb
 1019 0151 B4000000 		.4byte	0xb4
 1020 0155 04       		.byte	0x4
 1021 0156 00       		.byte	0
 1022 0157 0A       		.uleb128 0xa
 1023 0158 0D010000 		.4byte	0x10d
 1024 015c 67010000 		.4byte	0x167
 1025 0160 0B       		.uleb128 0xb
 1026 0161 B4000000 		.4byte	0xb4
 1027 0165 03       		.byte	0x3
 1028 0166 00       		.byte	0
 1029 0167 0A       		.uleb128 0xa
 1030 0168 12010000 		.4byte	0x112
 1031 016c 77010000 		.4byte	0x177
 1032 0170 0B       		.uleb128 0xb
 1033 0171 B4000000 		.4byte	0xb4
 1034 0175 2B       		.byte	0x2b
 1035 0176 00       		.byte	0
ARM GAS  C:\Users\JC\AppData\Local\Temp\ccNOiAvA.s 			page 49


 1036 0177 0A       		.uleb128 0xa
 1037 0178 12010000 		.4byte	0x112
 1038 017c 87010000 		.4byte	0x187
 1039 0180 0B       		.uleb128 0xb
 1040 0181 B4000000 		.4byte	0xb4
 1041 0185 1C       		.byte	0x1c
 1042 0186 00       		.byte	0
 1043 0187 0A       		.uleb128 0xa
 1044 0188 12010000 		.4byte	0x112
 1045 018c 97010000 		.4byte	0x197
 1046 0190 0B       		.uleb128 0xb
 1047 0191 B4000000 		.4byte	0xb4
 1048 0195 07       		.byte	0x7
 1049 0196 00       		.byte	0
 1050 0197 0A       		.uleb128 0xa
 1051 0198 12010000 		.4byte	0x112
 1052 019c A7010000 		.4byte	0x1a7
 1053 01a0 0B       		.uleb128 0xb
 1054 01a1 B4000000 		.4byte	0xb4
 1055 01a5 0B       		.byte	0xb
 1056 01a6 00       		.byte	0
 1057 01a7 0A       		.uleb128 0xa
 1058 01a8 12010000 		.4byte	0x112
 1059 01ac B7010000 		.4byte	0x1b7
 1060 01b0 0B       		.uleb128 0xb
 1061 01b1 B4000000 		.4byte	0xb4
 1062 01b5 01       		.byte	0x1
 1063 01b6 00       		.byte	0
 1064 01b7 0A       		.uleb128 0xa
 1065 01b8 12010000 		.4byte	0x112
 1066 01bc C7010000 		.4byte	0x1c7
 1067 01c0 0B       		.uleb128 0xb
 1068 01c1 B4000000 		.4byte	0xb4
 1069 01c5 1E       		.byte	0x1e
 1070 01c6 00       		.byte	0
 1071 01c7 08       		.uleb128 0x8
 1072 01c8 D6000000 		.4byte	0xd6
 1073 01cc 0A       		.uleb128 0xa
 1074 01cd 12010000 		.4byte	0x112
 1075 01d1 DC010000 		.4byte	0x1dc
 1076 01d5 0B       		.uleb128 0xb
 1077 01d6 B4000000 		.4byte	0xb4
 1078 01da 2F       		.byte	0x2f
 1079 01db 00       		.byte	0
 1080 01dc 0A       		.uleb128 0xa
 1081 01dd 12010000 		.4byte	0x112
 1082 01e1 EC010000 		.4byte	0x1ec
 1083 01e5 0B       		.uleb128 0xb
 1084 01e6 B4000000 		.4byte	0xb4
 1085 01ea 17       		.byte	0x17
 1086 01eb 00       		.byte	0
 1087 01ec 0A       		.uleb128 0xa
 1088 01ed 12010000 		.4byte	0x112
 1089 01f1 FC010000 		.4byte	0x1fc
 1090 01f5 0B       		.uleb128 0xb
 1091 01f6 B4000000 		.4byte	0xb4
 1092 01fa 3A       		.byte	0x3a
ARM GAS  C:\Users\JC\AppData\Local\Temp\ccNOiAvA.s 			page 50


 1093 01fb 00       		.byte	0
 1094 01fc 0A       		.uleb128 0xa
 1095 01fd 12010000 		.4byte	0x112
 1096 0201 0C020000 		.4byte	0x20c
 1097 0205 0B       		.uleb128 0xb
 1098 0206 B4000000 		.4byte	0xb4
 1099 020a 05       		.byte	0x5
 1100 020b 00       		.byte	0
 1101 020c 0A       		.uleb128 0xa
 1102 020d 12010000 		.4byte	0x112
 1103 0211 1D020000 		.4byte	0x21d
 1104 0215 0C       		.uleb128 0xc
 1105 0216 B4000000 		.4byte	0xb4
 1106 021a FE03     		.2byte	0x3fe
 1107 021c 00       		.byte	0
 1108 021d 0A       		.uleb128 0xa
 1109 021e 12010000 		.4byte	0x112
 1110 0222 2E020000 		.4byte	0x22e
 1111 0226 0C       		.uleb128 0xc
 1112 0227 B4000000 		.4byte	0xb4
 1113 022b 7F03     		.2byte	0x37f
 1114 022d 00       		.byte	0
 1115 022e 0D       		.uleb128 0xd
 1116 022f B8       		.byte	0xb8
 1117 0230 05       		.byte	0x5
 1118 0231 34       		.byte	0x34
 1119 0232 3F060000 		.4byte	0x63f
 1120 0236 0E       		.uleb128 0xe
 1121 0237 8F070000 		.4byte	.LASF24
 1122 023b 05       		.byte	0x5
 1123 023c 37       		.byte	0x37
 1124 023d 02010000 		.4byte	0x102
 1125 0241 00       		.byte	0
 1126 0242 0E       		.uleb128 0xe
 1127 0243 78440000 		.4byte	.LASF25
 1128 0247 05       		.byte	0x5
 1129 0248 38       		.byte	0x38
 1130 0249 02010000 		.4byte	0x102
 1131 024d 04       		.byte	0x4
 1132 024e 0E       		.uleb128 0xe
 1133 024f 1E1C0000 		.4byte	.LASF26
 1134 0253 05       		.byte	0x5
 1135 0254 39       		.byte	0x39
 1136 0255 02010000 		.4byte	0x102
 1137 0259 08       		.byte	0x8
 1138 025a 0E       		.uleb128 0xe
 1139 025b FF460000 		.4byte	.LASF27
 1140 025f 05       		.byte	0x5
 1141 0260 3A       		.byte	0x3a
 1142 0261 02010000 		.4byte	0x102
 1143 0265 0C       		.byte	0xc
 1144 0266 0E       		.uleb128 0xe
 1145 0267 9A540000 		.4byte	.LASF28
 1146 026b 05       		.byte	0x5
 1147 026c 3B       		.byte	0x3b
 1148 026d 02010000 		.4byte	0x102
 1149 0271 10       		.byte	0x10
ARM GAS  C:\Users\JC\AppData\Local\Temp\ccNOiAvA.s 			page 51


 1150 0272 0E       		.uleb128 0xe
 1151 0273 004A0000 		.4byte	.LASF29
 1152 0277 05       		.byte	0x5
 1153 0278 3C       		.byte	0x3c
 1154 0279 02010000 		.4byte	0x102
 1155 027d 14       		.byte	0x14
 1156 027e 0E       		.uleb128 0xe
 1157 027f 2E000000 		.4byte	.LASF30
 1158 0283 05       		.byte	0x5
 1159 0284 3D       		.byte	0x3d
 1160 0285 02010000 		.4byte	0x102
 1161 0289 18       		.byte	0x18
 1162 028a 0E       		.uleb128 0xe
 1163 028b 172D0000 		.4byte	.LASF31
 1164 028f 05       		.byte	0x5
 1165 0290 3E       		.byte	0x3e
 1166 0291 02010000 		.4byte	0x102
 1167 0295 1C       		.byte	0x1c
 1168 0296 0E       		.uleb128 0xe
 1169 0297 C13F0000 		.4byte	.LASF32
 1170 029b 05       		.byte	0x5
 1171 029c 3F       		.byte	0x3f
 1172 029d 02010000 		.4byte	0x102
 1173 02a1 20       		.byte	0x20
 1174 02a2 0E       		.uleb128 0xe
 1175 02a3 07460000 		.4byte	.LASF33
 1176 02a7 05       		.byte	0x5
 1177 02a8 40       		.byte	0x40
 1178 02a9 02010000 		.4byte	0x102
 1179 02ad 24       		.byte	0x24
 1180 02ae 0E       		.uleb128 0xe
 1181 02af 0B210000 		.4byte	.LASF34
 1182 02b3 05       		.byte	0x5
 1183 02b4 43       		.byte	0x43
 1184 02b5 D6000000 		.4byte	0xd6
 1185 02b9 28       		.byte	0x28
 1186 02ba 0E       		.uleb128 0xe
 1187 02bb 011D0000 		.4byte	.LASF35
 1188 02bf 05       		.byte	0x5
 1189 02c0 44       		.byte	0x44
 1190 02c1 D6000000 		.4byte	0xd6
 1191 02c5 29       		.byte	0x29
 1192 02c6 0E       		.uleb128 0xe
 1193 02c7 580A0000 		.4byte	.LASF36
 1194 02cb 05       		.byte	0x5
 1195 02cc 45       		.byte	0x45
 1196 02cd D6000000 		.4byte	0xd6
 1197 02d1 2A       		.byte	0x2a
 1198 02d2 0E       		.uleb128 0xe
 1199 02d3 E71E0000 		.4byte	.LASF37
 1200 02d7 05       		.byte	0x5
 1201 02d8 46       		.byte	0x46
 1202 02d9 D6000000 		.4byte	0xd6
 1203 02dd 2B       		.byte	0x2b
 1204 02de 0E       		.uleb128 0xe
 1205 02df 19360000 		.4byte	.LASF38
 1206 02e3 05       		.byte	0x5
ARM GAS  C:\Users\JC\AppData\Local\Temp\ccNOiAvA.s 			page 52


 1207 02e4 47       		.byte	0x47
 1208 02e5 D6000000 		.4byte	0xd6
 1209 02e9 2C       		.byte	0x2c
 1210 02ea 0E       		.uleb128 0xe
 1211 02eb EF390000 		.4byte	.LASF39
 1212 02ef 05       		.byte	0x5
 1213 02f0 48       		.byte	0x48
 1214 02f1 D6000000 		.4byte	0xd6
 1215 02f5 2D       		.byte	0x2d
 1216 02f6 0E       		.uleb128 0xe
 1217 02f7 4D120000 		.4byte	.LASF40
 1218 02fb 05       		.byte	0x5
 1219 02fc 49       		.byte	0x49
 1220 02fd D6000000 		.4byte	0xd6
 1221 0301 2E       		.byte	0x2e
 1222 0302 0E       		.uleb128 0xe
 1223 0303 7C120000 		.4byte	.LASF41
 1224 0307 05       		.byte	0x5
 1225 0308 4A       		.byte	0x4a
 1226 0309 D6000000 		.4byte	0xd6
 1227 030d 2F       		.byte	0x2f
 1228 030e 0E       		.uleb128 0xe
 1229 030f 29450000 		.4byte	.LASF42
 1230 0313 05       		.byte	0x5
 1231 0314 4B       		.byte	0x4b
 1232 0315 D6000000 		.4byte	0xd6
 1233 0319 30       		.byte	0x30
 1234 031a 0E       		.uleb128 0xe
 1235 031b 4A1A0000 		.4byte	.LASF43
 1236 031f 05       		.byte	0x5
 1237 0320 4E       		.byte	0x4e
 1238 0321 D6000000 		.4byte	0xd6
 1239 0325 31       		.byte	0x31
 1240 0326 0E       		.uleb128 0xe
 1241 0327 920A0000 		.4byte	.LASF44
 1242 032b 05       		.byte	0x5
 1243 032c 4F       		.byte	0x4f
 1244 032d D6000000 		.4byte	0xd6
 1245 0331 32       		.byte	0x32
 1246 0332 0E       		.uleb128 0xe
 1247 0333 51010000 		.4byte	.LASF45
 1248 0337 05       		.byte	0x5
 1249 0338 50       		.byte	0x50
 1250 0339 D6000000 		.4byte	0xd6
 1251 033d 33       		.byte	0x33
 1252 033e 0E       		.uleb128 0xe
 1253 033f 94440000 		.4byte	.LASF46
 1254 0343 05       		.byte	0x5
 1255 0344 51       		.byte	0x51
 1256 0345 D6000000 		.4byte	0xd6
 1257 0349 34       		.byte	0x34
 1258 034a 0E       		.uleb128 0xe
 1259 034b EA530000 		.4byte	.LASF47
 1260 034f 05       		.byte	0x5
 1261 0350 52       		.byte	0x52
 1262 0351 E1000000 		.4byte	0xe1
 1263 0355 36       		.byte	0x36
ARM GAS  C:\Users\JC\AppData\Local\Temp\ccNOiAvA.s 			page 53


 1264 0356 0E       		.uleb128 0xe
 1265 0357 A6420000 		.4byte	.LASF48
 1266 035b 05       		.byte	0x5
 1267 035c 53       		.byte	0x53
 1268 035d E1000000 		.4byte	0xe1
 1269 0361 38       		.byte	0x38
 1270 0362 0E       		.uleb128 0xe
 1271 0363 3F330000 		.4byte	.LASF49
 1272 0367 05       		.byte	0x5
 1273 0368 54       		.byte	0x54
 1274 0369 E1000000 		.4byte	0xe1
 1275 036d 3A       		.byte	0x3a
 1276 036e 0E       		.uleb128 0xe
 1277 036f E93A0000 		.4byte	.LASF50
 1278 0373 05       		.byte	0x5
 1279 0374 55       		.byte	0x55
 1280 0375 D6000000 		.4byte	0xd6
 1281 0379 3C       		.byte	0x3c
 1282 037a 0E       		.uleb128 0xe
 1283 037b 33050000 		.4byte	.LASF51
 1284 037f 05       		.byte	0x5
 1285 0380 56       		.byte	0x56
 1286 0381 D6000000 		.4byte	0xd6
 1287 0385 3D       		.byte	0x3d
 1288 0386 0E       		.uleb128 0xe
 1289 0387 EF210000 		.4byte	.LASF52
 1290 038b 05       		.byte	0x5
 1291 038c 57       		.byte	0x57
 1292 038d D6000000 		.4byte	0xd6
 1293 0391 3E       		.byte	0x3e
 1294 0392 0E       		.uleb128 0xe
 1295 0393 914F0000 		.4byte	.LASF53
 1296 0397 05       		.byte	0x5
 1297 0398 58       		.byte	0x58
 1298 0399 D6000000 		.4byte	0xd6
 1299 039d 3F       		.byte	0x3f
 1300 039e 0E       		.uleb128 0xe
 1301 039f 7A1A0000 		.4byte	.LASF54
 1302 03a3 05       		.byte	0x5
 1303 03a4 59       		.byte	0x59
 1304 03a5 D6000000 		.4byte	0xd6
 1305 03a9 40       		.byte	0x40
 1306 03aa 0E       		.uleb128 0xe
 1307 03ab 332B0000 		.4byte	.LASF55
 1308 03af 05       		.byte	0x5
 1309 03b0 5A       		.byte	0x5a
 1310 03b1 D6000000 		.4byte	0xd6
 1311 03b5 41       		.byte	0x41
 1312 03b6 0E       		.uleb128 0xe
 1313 03b7 994E0000 		.4byte	.LASF56
 1314 03bb 05       		.byte	0x5
 1315 03bc 5B       		.byte	0x5b
 1316 03bd D6000000 		.4byte	0xd6
 1317 03c1 42       		.byte	0x42
 1318 03c2 0E       		.uleb128 0xe
 1319 03c3 B94E0000 		.4byte	.LASF57
 1320 03c7 05       		.byte	0x5
ARM GAS  C:\Users\JC\AppData\Local\Temp\ccNOiAvA.s 			page 54


 1321 03c8 5C       		.byte	0x5c
 1322 03c9 D6000000 		.4byte	0xd6
 1323 03cd 43       		.byte	0x43
 1324 03ce 0E       		.uleb128 0xe
 1325 03cf 28010000 		.4byte	.LASF58
 1326 03d3 05       		.byte	0x5
 1327 03d4 5D       		.byte	0x5d
 1328 03d5 D6000000 		.4byte	0xd6
 1329 03d9 44       		.byte	0x44
 1330 03da 0E       		.uleb128 0xe
 1331 03db 37390000 		.4byte	.LASF59
 1332 03df 05       		.byte	0x5
 1333 03e0 5E       		.byte	0x5e
 1334 03e1 02010000 		.4byte	0x102
 1335 03e5 48       		.byte	0x48
 1336 03e6 0E       		.uleb128 0xe
 1337 03e7 37230000 		.4byte	.LASF60
 1338 03eb 05       		.byte	0x5
 1339 03ec 5F       		.byte	0x5f
 1340 03ed 02010000 		.4byte	0x102
 1341 03f1 4C       		.byte	0x4c
 1342 03f2 0E       		.uleb128 0xe
 1343 03f3 592F0000 		.4byte	.LASF61
 1344 03f7 05       		.byte	0x5
 1345 03f8 60       		.byte	0x60
 1346 03f9 D6000000 		.4byte	0xd6
 1347 03fd 50       		.byte	0x50
 1348 03fe 0E       		.uleb128 0xe
 1349 03ff 2F220000 		.4byte	.LASF62
 1350 0403 05       		.byte	0x5
 1351 0404 61       		.byte	0x61
 1352 0405 D6000000 		.4byte	0xd6
 1353 0409 51       		.byte	0x51
 1354 040a 0E       		.uleb128 0xe
 1355 040b 6B410000 		.4byte	.LASF63
 1356 040f 05       		.byte	0x5
 1357 0410 62       		.byte	0x62
 1358 0411 D6000000 		.4byte	0xd6
 1359 0415 52       		.byte	0x52
 1360 0416 0E       		.uleb128 0xe
 1361 0417 684C0000 		.4byte	.LASF64
 1362 041b 05       		.byte	0x5
 1363 041c 63       		.byte	0x63
 1364 041d D6000000 		.4byte	0xd6
 1365 0421 53       		.byte	0x53
 1366 0422 0E       		.uleb128 0xe
 1367 0423 AD230000 		.4byte	.LASF65
 1368 0427 05       		.byte	0x5
 1369 0428 64       		.byte	0x64
 1370 0429 D6000000 		.4byte	0xd6
 1371 042d 54       		.byte	0x54
 1372 042e 0E       		.uleb128 0xe
 1373 042f 1A3B0000 		.4byte	.LASF66
 1374 0433 05       		.byte	0x5
 1375 0434 65       		.byte	0x65
 1376 0435 D6000000 		.4byte	0xd6
 1377 0439 55       		.byte	0x55
ARM GAS  C:\Users\JC\AppData\Local\Temp\ccNOiAvA.s 			page 55


 1378 043a 0E       		.uleb128 0xe
 1379 043b BB490000 		.4byte	.LASF67
 1380 043f 05       		.byte	0x5
 1381 0440 66       		.byte	0x66
 1382 0441 D6000000 		.4byte	0xd6
 1383 0445 56       		.byte	0x56
 1384 0446 0E       		.uleb128 0xe
 1385 0447 73540000 		.4byte	.LASF68
 1386 044b 05       		.byte	0x5
 1387 044c 67       		.byte	0x67
 1388 044d D6000000 		.4byte	0xd6
 1389 0451 57       		.byte	0x57
 1390 0452 0E       		.uleb128 0xe
 1391 0453 25090000 		.4byte	.LASF69
 1392 0457 05       		.byte	0x5
 1393 0458 68       		.byte	0x68
 1394 0459 D6000000 		.4byte	0xd6
 1395 045d 58       		.byte	0x58
 1396 045e 0E       		.uleb128 0xe
 1397 045f 5C170000 		.4byte	.LASF70
 1398 0463 05       		.byte	0x5
 1399 0464 69       		.byte	0x69
 1400 0465 D6000000 		.4byte	0xd6
 1401 0469 59       		.byte	0x59
 1402 046a 0E       		.uleb128 0xe
 1403 046b 0C390000 		.4byte	.LASF71
 1404 046f 05       		.byte	0x5
 1405 0470 6E       		.byte	0x6e
 1406 0471 EC000000 		.4byte	0xec
 1407 0475 5A       		.byte	0x5a
 1408 0476 0E       		.uleb128 0xe
 1409 0477 F91B0000 		.4byte	.LASF72
 1410 047b 05       		.byte	0x5
 1411 047c 6F       		.byte	0x6f
 1412 047d EC000000 		.4byte	0xec
 1413 0481 5C       		.byte	0x5c
 1414 0482 0E       		.uleb128 0xe
 1415 0483 C7190000 		.4byte	.LASF73
 1416 0487 05       		.byte	0x5
 1417 0488 70       		.byte	0x70
 1418 0489 D6000000 		.4byte	0xd6
 1419 048d 5E       		.byte	0x5e
 1420 048e 0E       		.uleb128 0xe
 1421 048f 20320000 		.4byte	.LASF74
 1422 0493 05       		.byte	0x5
 1423 0494 71       		.byte	0x71
 1424 0495 D6000000 		.4byte	0xd6
 1425 0499 5F       		.byte	0x5f
 1426 049a 0E       		.uleb128 0xe
 1427 049b CD050000 		.4byte	.LASF75
 1428 049f 05       		.byte	0x5
 1429 04a0 72       		.byte	0x72
 1430 04a1 D6000000 		.4byte	0xd6
 1431 04a5 60       		.byte	0x60
 1432 04a6 0E       		.uleb128 0xe
 1433 04a7 DF270000 		.4byte	.LASF76
 1434 04ab 05       		.byte	0x5
ARM GAS  C:\Users\JC\AppData\Local\Temp\ccNOiAvA.s 			page 56


 1435 04ac 73       		.byte	0x73
 1436 04ad 02010000 		.4byte	0x102
 1437 04b1 64       		.byte	0x64
 1438 04b2 0E       		.uleb128 0xe
 1439 04b3 DF390000 		.4byte	.LASF77
 1440 04b7 05       		.byte	0x5
 1441 04b8 76       		.byte	0x76
 1442 04b9 EC000000 		.4byte	0xec
 1443 04bd 68       		.byte	0x68
 1444 04be 0E       		.uleb128 0xe
 1445 04bf 394F0000 		.4byte	.LASF78
 1446 04c3 05       		.byte	0x5
 1447 04c4 77       		.byte	0x77
 1448 04c5 EC000000 		.4byte	0xec
 1449 04c9 6A       		.byte	0x6a
 1450 04ca 0E       		.uleb128 0xe
 1451 04cb 6E080000 		.4byte	.LASF79
 1452 04cf 05       		.byte	0x5
 1453 04d0 78       		.byte	0x78
 1454 04d1 EC000000 		.4byte	0xec
 1455 04d5 6C       		.byte	0x6c
 1456 04d6 0E       		.uleb128 0xe
 1457 04d7 E14D0000 		.4byte	.LASF80
 1458 04db 05       		.byte	0x5
 1459 04dc 79       		.byte	0x79
 1460 04dd EC000000 		.4byte	0xec
 1461 04e1 6E       		.byte	0x6e
 1462 04e2 0E       		.uleb128 0xe
 1463 04e3 B2080000 		.4byte	.LASF81
 1464 04e7 05       		.byte	0x5
 1465 04e8 7B       		.byte	0x7b
 1466 04e9 D6000000 		.4byte	0xd6
 1467 04ed 70       		.byte	0x70
 1468 04ee 0E       		.uleb128 0xe
 1469 04ef 43180000 		.4byte	.LASF82
 1470 04f3 05       		.byte	0x5
 1471 04f4 7C       		.byte	0x7c
 1472 04f5 D6000000 		.4byte	0xd6
 1473 04f9 71       		.byte	0x71
 1474 04fa 0E       		.uleb128 0xe
 1475 04fb 58120000 		.4byte	.LASF83
 1476 04ff 05       		.byte	0x5
 1477 0500 7D       		.byte	0x7d
 1478 0501 D6000000 		.4byte	0xd6
 1479 0505 72       		.byte	0x72
 1480 0506 0E       		.uleb128 0xe
 1481 0507 8E1D0000 		.4byte	.LASF84
 1482 050b 05       		.byte	0x5
 1483 050c 7E       		.byte	0x7e
 1484 050d D6000000 		.4byte	0xd6
 1485 0511 73       		.byte	0x73
 1486 0512 0E       		.uleb128 0xe
 1487 0513 BC1D0000 		.4byte	.LASF85
 1488 0517 05       		.byte	0x5
 1489 0518 80       		.byte	0x80
 1490 0519 EC000000 		.4byte	0xec
 1491 051d 74       		.byte	0x74
ARM GAS  C:\Users\JC\AppData\Local\Temp\ccNOiAvA.s 			page 57


 1492 051e 0E       		.uleb128 0xe
 1493 051f 051B0000 		.4byte	.LASF86
 1494 0523 05       		.byte	0x5
 1495 0524 81       		.byte	0x81
 1496 0525 EC000000 		.4byte	0xec
 1497 0529 76       		.byte	0x76
 1498 052a 0E       		.uleb128 0xe
 1499 052b 13490000 		.4byte	.LASF87
 1500 052f 05       		.byte	0x5
 1501 0530 82       		.byte	0x82
 1502 0531 EC000000 		.4byte	0xec
 1503 0535 78       		.byte	0x78
 1504 0536 0E       		.uleb128 0xe
 1505 0537 2F400000 		.4byte	.LASF88
 1506 053b 05       		.byte	0x5
 1507 053c 83       		.byte	0x83
 1508 053d EC000000 		.4byte	0xec
 1509 0541 7A       		.byte	0x7a
 1510 0542 0E       		.uleb128 0xe
 1511 0543 98390000 		.4byte	.LASF89
 1512 0547 05       		.byte	0x5
 1513 0548 86       		.byte	0x86
 1514 0549 D6000000 		.4byte	0xd6
 1515 054d 7C       		.byte	0x7c
 1516 054e 0E       		.uleb128 0xe
 1517 054f AB510000 		.4byte	.LASF90
 1518 0553 05       		.byte	0x5
 1519 0554 87       		.byte	0x87
 1520 0555 D6000000 		.4byte	0xd6
 1521 0559 7D       		.byte	0x7d
 1522 055a 0E       		.uleb128 0xe
 1523 055b B9570000 		.4byte	.LASF91
 1524 055f 05       		.byte	0x5
 1525 0560 88       		.byte	0x88
 1526 0561 D6000000 		.4byte	0xd6
 1527 0565 7E       		.byte	0x7e
 1528 0566 0E       		.uleb128 0xe
 1529 0567 7A1D0000 		.4byte	.LASF92
 1530 056b 05       		.byte	0x5
 1531 056c 89       		.byte	0x89
 1532 056d D6000000 		.4byte	0xd6
 1533 0571 7F       		.byte	0x7f
 1534 0572 0E       		.uleb128 0xe
 1535 0573 D1060000 		.4byte	.LASF93
 1536 0577 05       		.byte	0x5
 1537 0578 8A       		.byte	0x8a
 1538 0579 D6000000 		.4byte	0xd6
 1539 057d 80       		.byte	0x80
 1540 057e 0E       		.uleb128 0xe
 1541 057f E94F0000 		.4byte	.LASF94
 1542 0583 05       		.byte	0x5
 1543 0584 8D       		.byte	0x8d
 1544 0585 02010000 		.4byte	0x102
 1545 0589 84       		.byte	0x84
 1546 058a 0E       		.uleb128 0xe
 1547 058b 09320000 		.4byte	.LASF95
 1548 058f 05       		.byte	0x5
ARM GAS  C:\Users\JC\AppData\Local\Temp\ccNOiAvA.s 			page 58


 1549 0590 8E       		.byte	0x8e
 1550 0591 02010000 		.4byte	0x102
 1551 0595 88       		.byte	0x88
 1552 0596 0E       		.uleb128 0xe
 1553 0597 D51F0000 		.4byte	.LASF96
 1554 059b 05       		.byte	0x5
 1555 059c 8F       		.byte	0x8f
 1556 059d 02010000 		.4byte	0x102
 1557 05a1 8C       		.byte	0x8c
 1558 05a2 0E       		.uleb128 0xe
 1559 05a3 1B4B0000 		.4byte	.LASF97
 1560 05a7 05       		.byte	0x5
 1561 05a8 90       		.byte	0x90
 1562 05a9 02010000 		.4byte	0x102
 1563 05ad 90       		.byte	0x90
 1564 05ae 0E       		.uleb128 0xe
 1565 05af 56410000 		.4byte	.LASF98
 1566 05b3 05       		.byte	0x5
 1567 05b4 91       		.byte	0x91
 1568 05b5 02010000 		.4byte	0x102
 1569 05b9 94       		.byte	0x94
 1570 05ba 0E       		.uleb128 0xe
 1571 05bb 430B0000 		.4byte	.LASF99
 1572 05bf 05       		.byte	0x5
 1573 05c0 92       		.byte	0x92
 1574 05c1 02010000 		.4byte	0x102
 1575 05c5 98       		.byte	0x98
 1576 05c6 0E       		.uleb128 0xe
 1577 05c7 95250000 		.4byte	.LASF100
 1578 05cb 05       		.byte	0x5
 1579 05cc 93       		.byte	0x93
 1580 05cd 02010000 		.4byte	0x102
 1581 05d1 9C       		.byte	0x9c
 1582 05d2 0E       		.uleb128 0xe
 1583 05d3 57100000 		.4byte	.LASF101
 1584 05d7 05       		.byte	0x5
 1585 05d8 94       		.byte	0x94
 1586 05d9 02010000 		.4byte	0x102
 1587 05dd A0       		.byte	0xa0
 1588 05de 0E       		.uleb128 0xe
 1589 05df 36170000 		.4byte	.LASF102
 1590 05e3 05       		.byte	0x5
 1591 05e4 95       		.byte	0x95
 1592 05e5 EC000000 		.4byte	0xec
 1593 05e9 A4       		.byte	0xa4
 1594 05ea 0E       		.uleb128 0xe
 1595 05eb BC4A0000 		.4byte	.LASF103
 1596 05ef 05       		.byte	0x5
 1597 05f0 96       		.byte	0x96
 1598 05f1 EC000000 		.4byte	0xec
 1599 05f5 A6       		.byte	0xa6
 1600 05f6 0E       		.uleb128 0xe
 1601 05f7 34210000 		.4byte	.LASF104
 1602 05fb 05       		.byte	0x5
 1603 05fc 97       		.byte	0x97
 1604 05fd EC000000 		.4byte	0xec
 1605 0601 A8       		.byte	0xa8
ARM GAS  C:\Users\JC\AppData\Local\Temp\ccNOiAvA.s 			page 59


 1606 0602 0E       		.uleb128 0xe
 1607 0603 41160000 		.4byte	.LASF105
 1608 0607 05       		.byte	0x5
 1609 0608 98       		.byte	0x98
 1610 0609 EC000000 		.4byte	0xec
 1611 060d AA       		.byte	0xaa
 1612 060e 0E       		.uleb128 0xe
 1613 060f 5A220000 		.4byte	.LASF106
 1614 0613 05       		.byte	0x5
 1615 0614 99       		.byte	0x99
 1616 0615 EC000000 		.4byte	0xec
 1617 0619 AC       		.byte	0xac
 1618 061a 0E       		.uleb128 0xe
 1619 061b BA320000 		.4byte	.LASF107
 1620 061f 05       		.byte	0x5
 1621 0620 9A       		.byte	0x9a
 1622 0621 EC000000 		.4byte	0xec
 1623 0625 AE       		.byte	0xae
 1624 0626 0E       		.uleb128 0xe
 1625 0627 B0430000 		.4byte	.LASF108
 1626 062b 05       		.byte	0x5
 1627 062c 9D       		.byte	0x9d
 1628 062d EC000000 		.4byte	0xec
 1629 0631 B0       		.byte	0xb0
 1630 0632 0E       		.uleb128 0xe
 1631 0633 07470000 		.4byte	.LASF109
 1632 0637 05       		.byte	0x5
 1633 0638 9E       		.byte	0x9e
 1634 0639 02010000 		.4byte	0x102
 1635 063d B4       		.byte	0xb4
 1636 063e 00       		.byte	0
 1637 063f 04       		.uleb128 0x4
 1638 0640 40550000 		.4byte	.LASF110
 1639 0644 05       		.byte	0x5
 1640 0645 9F       		.byte	0x9f
 1641 0646 2E020000 		.4byte	0x22e
 1642 064a 0F       		.uleb128 0xf
 1643 064b 02       		.byte	0x2
 1644 064c 70000000 		.4byte	0x70
 1645 0650 06       		.byte	0x6
 1646 0651 24       		.byte	0x24
 1647 0652 0B0A0000 		.4byte	0xa0b
 1648 0656 10       		.uleb128 0x10
 1649 0657 F8520000 		.4byte	.LASF111
 1650 065b 71       		.sleb128 -15
 1651 065c 10       		.uleb128 0x10
 1652 065d F6150000 		.4byte	.LASF112
 1653 0661 72       		.sleb128 -14
 1654 0662 10       		.uleb128 0x10
 1655 0663 E5310000 		.4byte	.LASF113
 1656 0667 73       		.sleb128 -13
 1657 0668 10       		.uleb128 0x10
 1658 0669 58570000 		.4byte	.LASF114
 1659 066d 74       		.sleb128 -12
 1660 066e 10       		.uleb128 0x10
 1661 066f B92A0000 		.4byte	.LASF115
 1662 0673 75       		.sleb128 -11
ARM GAS  C:\Users\JC\AppData\Local\Temp\ccNOiAvA.s 			page 60


 1663 0674 10       		.uleb128 0x10
 1664 0675 74240000 		.4byte	.LASF116
 1665 0679 76       		.sleb128 -10
 1666 067a 10       		.uleb128 0x10
 1667 067b 96550000 		.4byte	.LASF117
 1668 067f 7B       		.sleb128 -5
 1669 0680 10       		.uleb128 0x10
 1670 0681 DE240000 		.4byte	.LASF118
 1671 0685 7C       		.sleb128 -4
 1672 0686 10       		.uleb128 0x10
 1673 0687 3F560000 		.4byte	.LASF119
 1674 068b 7E       		.sleb128 -2
 1675 068c 10       		.uleb128 0x10
 1676 068d 01100000 		.4byte	.LASF120
 1677 0691 7F       		.sleb128 -1
 1678 0692 11       		.uleb128 0x11
 1679 0693 52310000 		.4byte	.LASF121
 1680 0697 00       		.byte	0
 1681 0698 11       		.uleb128 0x11
 1682 0699 B24D0000 		.4byte	.LASF122
 1683 069d 01       		.byte	0x1
 1684 069e 11       		.uleb128 0x11
 1685 069f BF0E0000 		.4byte	.LASF123
 1686 06a3 02       		.byte	0x2
 1687 06a4 11       		.uleb128 0x11
 1688 06a5 5F2A0000 		.4byte	.LASF124
 1689 06a9 03       		.byte	0x3
 1690 06aa 11       		.uleb128 0x11
 1691 06ab F7480000 		.4byte	.LASF125
 1692 06af 04       		.byte	0x4
 1693 06b0 11       		.uleb128 0x11
 1694 06b1 73070000 		.4byte	.LASF126
 1695 06b5 05       		.byte	0x5
 1696 06b6 11       		.uleb128 0x11
 1697 06b7 80230000 		.4byte	.LASF127
 1698 06bb 06       		.byte	0x6
 1699 06bc 11       		.uleb128 0x11
 1700 06bd 48430000 		.4byte	.LASF128
 1701 06c1 07       		.byte	0x7
 1702 06c2 11       		.uleb128 0x11
 1703 06c3 01020000 		.4byte	.LASF129
 1704 06c7 08       		.byte	0x8
 1705 06c8 11       		.uleb128 0x11
 1706 06c9 141F0000 		.4byte	.LASF130
 1707 06cd 09       		.byte	0x9
 1708 06ce 11       		.uleb128 0x11
 1709 06cf 60330000 		.4byte	.LASF131
 1710 06d3 0A       		.byte	0xa
 1711 06d4 11       		.uleb128 0x11
 1712 06d5 1C4F0000 		.4byte	.LASF132
 1713 06d9 0B       		.byte	0xb
 1714 06da 11       		.uleb128 0x11
 1715 06db AE100000 		.4byte	.LASF133
 1716 06df 0C       		.byte	0xc
 1717 06e0 11       		.uleb128 0x11
 1718 06e1 D62B0000 		.4byte	.LASF134
 1719 06e5 0D       		.byte	0xd
ARM GAS  C:\Users\JC\AppData\Local\Temp\ccNOiAvA.s 			page 61


 1720 06e6 11       		.uleb128 0x11
 1721 06e7 9F4A0000 		.4byte	.LASF135
 1722 06eb 0E       		.byte	0xe
 1723 06ec 11       		.uleb128 0x11
 1724 06ed 6F300000 		.4byte	.LASF136
 1725 06f1 0F       		.byte	0xf
 1726 06f2 11       		.uleb128 0x11
 1727 06f3 DC4E0000 		.4byte	.LASF137
 1728 06f7 10       		.byte	0x10
 1729 06f8 11       		.uleb128 0x11
 1730 06f9 FC270000 		.4byte	.LASF138
 1731 06fd 11       		.byte	0x11
 1732 06fe 11       		.uleb128 0x11
 1733 06ff C2020000 		.4byte	.LASF139
 1734 0703 12       		.byte	0x12
 1735 0704 11       		.uleb128 0x11
 1736 0705 E3050000 		.4byte	.LASF140
 1737 0709 13       		.byte	0x13
 1738 070a 11       		.uleb128 0x11
 1739 070b 77210000 		.4byte	.LASF141
 1740 070f 14       		.byte	0x14
 1741 0710 11       		.uleb128 0x11
 1742 0711 BB2B0000 		.4byte	.LASF142
 1743 0715 15       		.byte	0x15
 1744 0716 11       		.uleb128 0x11
 1745 0717 4F070000 		.4byte	.LASF143
 1746 071b 16       		.byte	0x16
 1747 071c 11       		.uleb128 0x11
 1748 071d DF560000 		.4byte	.LASF144
 1749 0721 17       		.byte	0x17
 1750 0722 11       		.uleb128 0x11
 1751 0723 0A200000 		.4byte	.LASF145
 1752 0727 18       		.byte	0x18
 1753 0728 11       		.uleb128 0x11
 1754 0729 94560000 		.4byte	.LASF146
 1755 072d 19       		.byte	0x19
 1756 072e 11       		.uleb128 0x11
 1757 072f EA190000 		.4byte	.LASF147
 1758 0733 1A       		.byte	0x1a
 1759 0734 11       		.uleb128 0x11
 1760 0735 EE360000 		.4byte	.LASF148
 1761 0739 1B       		.byte	0x1b
 1762 073a 11       		.uleb128 0x11
 1763 073b F0510000 		.4byte	.LASF149
 1764 073f 1C       		.byte	0x1c
 1765 0740 11       		.uleb128 0x11
 1766 0741 51140000 		.4byte	.LASF150
 1767 0745 1D       		.byte	0x1d
 1768 0746 11       		.uleb128 0x11
 1769 0747 36310000 		.4byte	.LASF151
 1770 074b 1E       		.byte	0x1e
 1771 074c 11       		.uleb128 0x11
 1772 074d 964D0000 		.4byte	.LASF152
 1773 0751 1F       		.byte	0x1f
 1774 0752 11       		.uleb128 0x11
 1775 0753 780E0000 		.4byte	.LASF153
 1776 0757 20       		.byte	0x20
ARM GAS  C:\Users\JC\AppData\Local\Temp\ccNOiAvA.s 			page 62


 1777 0758 11       		.uleb128 0x11
 1778 0759 432A0000 		.4byte	.LASF154
 1779 075d 21       		.byte	0x21
 1780 075e 11       		.uleb128 0x11
 1781 075f DB480000 		.4byte	.LASF155
 1782 0763 22       		.byte	0x22
 1783 0764 11       		.uleb128 0x11
 1784 0765 08090000 		.4byte	.LASF156
 1785 0769 23       		.byte	0x23
 1786 076a 11       		.uleb128 0x11
 1787 076b 95240000 		.4byte	.LASF157
 1788 076f 24       		.byte	0x24
 1789 0770 11       		.uleb128 0x11
 1790 0771 F0430000 		.4byte	.LASF158
 1791 0775 25       		.byte	0x25
 1792 0776 11       		.uleb128 0x11
 1793 0777 32030000 		.4byte	.LASF159
 1794 077b 26       		.byte	0x26
 1795 077c 11       		.uleb128 0x11
 1796 077d 1F200000 		.4byte	.LASF160
 1797 0781 27       		.byte	0x27
 1798 0782 11       		.uleb128 0x11
 1799 0783 D43D0000 		.4byte	.LASF161
 1800 0787 28       		.byte	0x28
 1801 0788 11       		.uleb128 0x11
 1802 0789 BB580000 		.4byte	.LASF162
 1803 078d 29       		.byte	0x29
 1804 078e 11       		.uleb128 0x11
 1805 078f F72E0000 		.4byte	.LASF163
 1806 0793 2A       		.byte	0x2a
 1807 0794 11       		.uleb128 0x11
 1808 0795 98000000 		.4byte	.LASF164
 1809 0799 2B       		.byte	0x2b
 1810 079a 11       		.uleb128 0x11
 1811 079b AF2F0000 		.4byte	.LASF165
 1812 079f 2C       		.byte	0x2c
 1813 07a0 11       		.uleb128 0x11
 1814 07a1 13010000 		.4byte	.LASF166
 1815 07a5 2D       		.byte	0x2d
 1816 07a6 11       		.uleb128 0x11
 1817 07a7 5A300000 		.4byte	.LASF167
 1818 07ab 2E       		.byte	0x2e
 1819 07ac 11       		.uleb128 0x11
 1820 07ad EC010000 		.4byte	.LASF168
 1821 07b1 2F       		.byte	0x2f
 1822 07b2 11       		.uleb128 0x11
 1823 07b3 01310000 		.4byte	.LASF169
 1824 07b7 30       		.byte	0x30
 1825 07b8 11       		.uleb128 0x11
 1826 07b9 AC270000 		.4byte	.LASF170
 1827 07bd 31       		.byte	0x31
 1828 07be 11       		.uleb128 0x11
 1829 07bf E7200000 		.4byte	.LASF171
 1830 07c3 32       		.byte	0x32
 1831 07c4 11       		.uleb128 0x11
 1832 07c5 2B3F0000 		.4byte	.LASF172
 1833 07c9 33       		.byte	0x33
ARM GAS  C:\Users\JC\AppData\Local\Temp\ccNOiAvA.s 			page 63


 1834 07ca 11       		.uleb128 0x11
 1835 07cb 45580000 		.4byte	.LASF173
 1836 07cf 34       		.byte	0x34
 1837 07d0 11       		.uleb128 0x11
 1838 07d1 021C0000 		.4byte	.LASF174
 1839 07d5 35       		.byte	0x35
 1840 07d6 11       		.uleb128 0x11
 1841 07d7 B9380000 		.4byte	.LASF175
 1842 07db 36       		.byte	0x36
 1843 07dc 11       		.uleb128 0x11
 1844 07dd 38530000 		.4byte	.LASF176
 1845 07e1 37       		.byte	0x37
 1846 07e2 11       		.uleb128 0x11
 1847 07e3 4F160000 		.4byte	.LASF177
 1848 07e7 38       		.byte	0x38
 1849 07e8 11       		.uleb128 0x11
 1850 07e9 A8330000 		.4byte	.LASF178
 1851 07ed 39       		.byte	0x39
 1852 07ee 11       		.uleb128 0x11
 1853 07ef 664F0000 		.4byte	.LASF179
 1854 07f3 3A       		.byte	0x3a
 1855 07f4 11       		.uleb128 0x11
 1856 07f5 CB100000 		.4byte	.LASF180
 1857 07f9 3B       		.byte	0x3b
 1858 07fa 11       		.uleb128 0x11
 1859 07fb EC4A0000 		.4byte	.LASF181
 1860 07ff 3C       		.byte	0x3c
 1861 0800 11       		.uleb128 0x11
 1862 0801 6F0B0000 		.4byte	.LASF182
 1863 0805 3D       		.byte	0x3d
 1864 0806 11       		.uleb128 0x11
 1865 0807 80260000 		.4byte	.LASF183
 1866 080b 3E       		.byte	0x3e
 1867 080c 11       		.uleb128 0x11
 1868 080d E3440000 		.4byte	.LASF184
 1869 0811 3F       		.byte	0x3f
 1870 0812 11       		.uleb128 0x11
 1871 0813 8D050000 		.4byte	.LASF185
 1872 0817 40       		.byte	0x40
 1873 0818 11       		.uleb128 0x11
 1874 0819 40210000 		.4byte	.LASF186
 1875 081d 41       		.byte	0x41
 1876 081e 11       		.uleb128 0x11
 1877 081f E73B0000 		.4byte	.LASF187
 1878 0823 42       		.byte	0x42
 1879 0824 11       		.uleb128 0x11
 1880 0825 7A550000 		.4byte	.LASF188
 1881 0829 43       		.byte	0x43
 1882 082a 11       		.uleb128 0x11
 1883 082b EE180000 		.4byte	.LASF189
 1884 082f 44       		.byte	0x44
 1885 0830 11       		.uleb128 0x11
 1886 0831 C8350000 		.4byte	.LASF190
 1887 0835 45       		.byte	0x45
 1888 0836 11       		.uleb128 0x11
 1889 0837 9A500000 		.4byte	.LASF191
 1890 083b 46       		.byte	0x46
ARM GAS  C:\Users\JC\AppData\Local\Temp\ccNOiAvA.s 			page 64


 1891 083c 11       		.uleb128 0x11
 1892 083d 4B130000 		.4byte	.LASF192
 1893 0841 47       		.byte	0x47
 1894 0842 11       		.uleb128 0x11
 1895 0843 6A2F0000 		.4byte	.LASF193
 1896 0847 48       		.byte	0x48
 1897 0848 11       		.uleb128 0x11
 1898 0849 1F4C0000 		.4byte	.LASF194
 1899 084d 49       		.byte	0x49
 1900 084e 11       		.uleb128 0x11
 1901 084f 690D0000 		.4byte	.LASF195
 1902 0853 4A       		.byte	0x4a
 1903 0854 11       		.uleb128 0x11
 1904 0855 87280000 		.4byte	.LASF196
 1905 0859 4B       		.byte	0x4b
 1906 085a 11       		.uleb128 0x11
 1907 085b 21140000 		.4byte	.LASF197
 1908 085f 4C       		.byte	0x4c
 1909 0860 11       		.uleb128 0x11
 1910 0861 C4300000 		.4byte	.LASF198
 1911 0865 4D       		.byte	0x4d
 1912 0866 11       		.uleb128 0x11
 1913 0867 294D0000 		.4byte	.LASF199
 1914 086b 4E       		.byte	0x4e
 1915 086c 11       		.uleb128 0x11
 1916 086d 5B0E0000 		.4byte	.LASF200
 1917 0871 4F       		.byte	0x4f
 1918 0872 11       		.uleb128 0x11
 1919 0873 002A0000 		.4byte	.LASF201
 1920 0877 50       		.byte	0x50
 1921 0878 11       		.uleb128 0x11
 1922 0879 93480000 		.4byte	.LASF202
 1923 087d 51       		.byte	0x51
 1924 087e 11       		.uleb128 0x11
 1925 087f 93210000 		.4byte	.LASF203
 1926 0883 52       		.byte	0x52
 1927 0884 11       		.uleb128 0x11
 1928 0885 6E400000 		.4byte	.LASF204
 1929 0889 53       		.byte	0x53
 1930 088a 11       		.uleb128 0x11
 1931 088b 49390000 		.4byte	.LASF205
 1932 088f 54       		.byte	0x54
 1933 0890 11       		.uleb128 0x11
 1934 0891 16410000 		.4byte	.LASF206
 1935 0895 55       		.byte	0x55
 1936 0896 11       		.uleb128 0x11
 1937 0897 11330000 		.4byte	.LASF207
 1938 089b 56       		.byte	0x56
 1939 089c 11       		.uleb128 0x11
 1940 089d 7D080000 		.4byte	.LASF208
 1941 08a1 57       		.byte	0x57
 1942 08a2 11       		.uleb128 0x11
 1943 08a3 E1120000 		.4byte	.LASF209
 1944 08a7 58       		.byte	0x58
 1945 08a8 11       		.uleb128 0x11
 1946 08a9 E4070000 		.4byte	.LASF210
 1947 08ad 59       		.byte	0x59
ARM GAS  C:\Users\JC\AppData\Local\Temp\ccNOiAvA.s 			page 65


 1948 08ae 11       		.uleb128 0x11
 1949 08af D9110000 		.4byte	.LASF211
 1950 08b3 5A       		.byte	0x5a
 1951 08b4 11       		.uleb128 0x11
 1952 08b5 092E0000 		.4byte	.LASF212
 1953 08b9 5B       		.byte	0x5b
 1954 08ba 11       		.uleb128 0x11
 1955 08bb 4E4B0000 		.4byte	.LASF213
 1956 08bf 5C       		.byte	0x5c
 1957 08c0 11       		.uleb128 0x11
 1958 08c1 480C0000 		.4byte	.LASF214
 1959 08c5 5D       		.byte	0x5d
 1960 08c6 11       		.uleb128 0x11
 1961 08c7 E2260000 		.4byte	.LASF215
 1962 08cb 5E       		.byte	0x5e
 1963 08cc 11       		.uleb128 0x11
 1964 08cd E5450000 		.4byte	.LASF216
 1965 08d1 5F       		.byte	0x5f
 1966 08d2 11       		.uleb128 0x11
 1967 08d3 23060000 		.4byte	.LASF217
 1968 08d7 60       		.byte	0x60
 1969 08d8 11       		.uleb128 0x11
 1970 08d9 5D210000 		.4byte	.LASF218
 1971 08dd 61       		.byte	0x61
 1972 08de 11       		.uleb128 0x11
 1973 08df DE520000 		.4byte	.LASF219
 1974 08e3 62       		.byte	0x62
 1975 08e4 11       		.uleb128 0x11
 1976 08e5 0A150000 		.4byte	.LASF220
 1977 08e9 63       		.byte	0x63
 1978 08ea 11       		.uleb128 0x11
 1979 08eb 75320000 		.4byte	.LASF221
 1980 08ef 64       		.byte	0x64
 1981 08f0 11       		.uleb128 0x11
 1982 08f1 7F4E0000 		.4byte	.LASF222
 1983 08f5 65       		.byte	0x65
 1984 08f6 11       		.uleb128 0x11
 1985 08f7 7A130000 		.4byte	.LASF223
 1986 08fb 66       		.byte	0x66
 1987 08fc 11       		.uleb128 0x11
 1988 08fd 4B2B0000 		.4byte	.LASF224
 1989 0901 67       		.byte	0x67
 1990 0902 11       		.uleb128 0x11
 1991 0903 CF490000 		.4byte	.LASF225
 1992 0907 68       		.byte	0x68
 1993 0908 11       		.uleb128 0x11
 1994 0909 340A0000 		.4byte	.LASF226
 1995 090d 69       		.byte	0x69
 1996 090e 11       		.uleb128 0x11
 1997 090f B2240000 		.4byte	.LASF227
 1998 0913 6A       		.byte	0x6a
 1999 0914 11       		.uleb128 0x11
 2000 0915 0D440000 		.4byte	.LASF228
 2001 0919 6B       		.byte	0x6b
 2002 091a 11       		.uleb128 0x11
 2003 091b E9420000 		.4byte	.LASF229
 2004 091f 6C       		.byte	0x6c
ARM GAS  C:\Users\JC\AppData\Local\Temp\ccNOiAvA.s 			page 66


 2005 0920 11       		.uleb128 0x11
 2006 0921 1D020000 		.4byte	.LASF230
 2007 0925 6D       		.byte	0x6d
 2008 0926 11       		.uleb128 0x11
 2009 0927 541F0000 		.4byte	.LASF231
 2010 092b 6E       		.byte	0x6e
 2011 092c 11       		.uleb128 0x11
 2012 092d B23C0000 		.4byte	.LASF232
 2013 0931 6F       		.byte	0x6f
 2014 0932 11       		.uleb128 0x11
 2015 0933 CA550000 		.4byte	.LASF233
 2016 0937 70       		.byte	0x70
 2017 0938 11       		.uleb128 0x11
 2018 0939 7A190000 		.4byte	.LASF234
 2019 093d 71       		.byte	0x71
 2020 093e 11       		.uleb128 0x11
 2021 093f AC360000 		.4byte	.LASF235
 2022 0943 72       		.byte	0x72
 2023 0944 11       		.uleb128 0x11
 2024 0945 47510000 		.4byte	.LASF236
 2025 0949 73       		.byte	0x73
 2026 094a 11       		.uleb128 0x11
 2027 094b D5130000 		.4byte	.LASF237
 2028 094f 74       		.byte	0x74
 2029 0950 11       		.uleb128 0x11
 2030 0951 A9300000 		.4byte	.LASF238
 2031 0955 75       		.byte	0x75
 2032 0956 11       		.uleb128 0x11
 2033 0957 FC390000 		.4byte	.LASF239
 2034 095b 76       		.byte	0x76
 2035 095c 11       		.uleb128 0x11
 2036 095d CF530000 		.4byte	.LASF240
 2037 0961 77       		.byte	0x77
 2038 0962 11       		.uleb128 0x11
 2039 0963 81170000 		.4byte	.LASF241
 2040 0967 78       		.byte	0x78
 2041 0968 11       		.uleb128 0x11
 2042 0969 4A340000 		.4byte	.LASF242
 2043 096d 79       		.byte	0x79
 2044 096e 11       		.uleb128 0x11
 2045 096f D0170000 		.4byte	.LASF243
 2046 0973 7A       		.byte	0x7a
 2047 0974 11       		.uleb128 0x11
 2048 0975 62350000 		.4byte	.LASF244
 2049 0979 7B       		.byte	0x7b
 2050 097a 11       		.uleb128 0x11
 2051 097b 45500000 		.4byte	.LASF245
 2052 097f 7C       		.byte	0x7c
 2053 0980 11       		.uleb128 0x11
 2054 0981 CB120000 		.4byte	.LASF246
 2055 0985 7D       		.byte	0x7d
 2056 0986 11       		.uleb128 0x11
 2057 0987 0C2F0000 		.4byte	.LASF247
 2058 098b 7E       		.byte	0x7e
 2059 098c 11       		.uleb128 0x11
 2060 098d E54B0000 		.4byte	.LASF248
 2061 0991 7F       		.byte	0x7f
ARM GAS  C:\Users\JC\AppData\Local\Temp\ccNOiAvA.s 			page 67


 2062 0992 11       		.uleb128 0x11
 2063 0993 D80C0000 		.4byte	.LASF249
 2064 0997 80       		.byte	0x80
 2065 0998 11       		.uleb128 0x11
 2066 0999 BF270000 		.4byte	.LASF250
 2067 099d 81       		.byte	0x81
 2068 099e 11       		.uleb128 0x11
 2069 099f E9460000 		.4byte	.LASF251
 2070 09a3 82       		.byte	0x82
 2071 09a4 11       		.uleb128 0x11
 2072 09a5 6A060000 		.4byte	.LASF252
 2073 09a9 83       		.byte	0x83
 2074 09aa 11       		.uleb128 0x11
 2075 09ab 2E410000 		.4byte	.LASF253
 2076 09af 84       		.byte	0x84
 2077 09b0 11       		.uleb128 0x11
 2078 09b1 C9000000 		.4byte	.LASF254
 2079 09b5 85       		.byte	0x85
 2080 09b6 11       		.uleb128 0x11
 2081 09b7 341D0000 		.4byte	.LASF255
 2082 09bb 86       		.byte	0x86
 2083 09bc 11       		.uleb128 0x11
 2084 09bd 663A0000 		.4byte	.LASF256
 2085 09c1 87       		.byte	0x87
 2086 09c2 11       		.uleb128 0x11
 2087 09c3 5C540000 		.4byte	.LASF257
 2088 09c7 88       		.byte	0x88
 2089 09c8 11       		.uleb128 0x11
 2090 09c9 1F170000 		.4byte	.LASF258
 2091 09cd 89       		.byte	0x89
 2092 09ce 11       		.uleb128 0x11
 2093 09cf F4170000 		.4byte	.LASF259
 2094 09d3 8A       		.byte	0x8a
 2095 09d4 11       		.uleb128 0x11
 2096 09d5 352C0000 		.4byte	.LASF260
 2097 09d9 8B       		.byte	0x8b
 2098 09da 11       		.uleb128 0x11
 2099 09db 28180000 		.4byte	.LASF261
 2100 09df 8C       		.byte	0x8c
 2101 09e0 11       		.uleb128 0x11
 2102 09e1 754B0000 		.4byte	.LASF262
 2103 09e5 8D       		.byte	0x8d
 2104 09e6 11       		.uleb128 0x11
 2105 09e7 620A0000 		.4byte	.LASF263
 2106 09eb 8E       		.byte	0x8e
 2107 09ec 11       		.uleb128 0x11
 2108 09ed EB0F0000 		.4byte	.LASF264
 2109 09f1 8F       		.byte	0x8f
 2110 09f2 11       		.uleb128 0x11
 2111 09f3 BD1A0000 		.4byte	.LASF265
 2112 09f7 90       		.byte	0x90
 2113 09f8 11       		.uleb128 0x11
 2114 09f9 A0410000 		.4byte	.LASF266
 2115 09fd 91       		.byte	0x91
 2116 09fe 11       		.uleb128 0x11
 2117 09ff AC060000 		.4byte	.LASF267
 2118 0a03 92       		.byte	0x92
ARM GAS  C:\Users\JC\AppData\Local\Temp\ccNOiAvA.s 			page 68


 2119 0a04 11       		.uleb128 0x11
 2120 0a05 4B170000 		.4byte	.LASF268
 2121 0a09 F0       		.byte	0xf0
 2122 0a0a 00       		.byte	0
 2123 0a0b 04       		.uleb128 0x4
 2124 0a0c 74460000 		.4byte	.LASF269
 2125 0a10 06       		.byte	0x6
 2126 0a11 F4       		.byte	0xf4
 2127 0a12 4A060000 		.4byte	0x64a
 2128 0a16 0A       		.uleb128 0xa
 2129 0a17 12010000 		.4byte	0x112
 2130 0a1b 260A0000 		.4byte	0xa26
 2131 0a1f 0B       		.uleb128 0xb
 2132 0a20 B4000000 		.4byte	0xb4
 2133 0a24 2E       		.byte	0x2e
 2134 0a25 00       		.byte	0
 2135 0a26 12       		.uleb128 0x12
 2136 0a27 0001     		.2byte	0x100
 2137 0a29 07       		.byte	0x7
 2138 0a2a 25       		.byte	0x25
 2139 0a2b E40A0000 		.4byte	0xae4
 2140 0a2f 0E       		.uleb128 0xe
 2141 0a30 114A0000 		.4byte	.LASF270
 2142 0a34 07       		.byte	0x7
 2143 0a35 26       		.byte	0x26
 2144 0a36 0D010000 		.4byte	0x10d
 2145 0a3a 00       		.byte	0
 2146 0a3b 0E       		.uleb128 0xe
 2147 0a3c 603E0000 		.4byte	.LASF271
 2148 0a40 07       		.byte	0x7
 2149 0a41 27       		.byte	0x27
 2150 0a42 E90A0000 		.4byte	0xae9
 2151 0a46 04       		.byte	0x4
 2152 0a47 0E       		.uleb128 0xe
 2153 0a48 DB4C0000 		.4byte	.LASF272
 2154 0a4c 07       		.byte	0x7
 2155 0a4d 28       		.byte	0x28
 2156 0a4e 0D010000 		.4byte	0x10d
 2157 0a52 10       		.byte	0x10
 2158 0a53 0E       		.uleb128 0xe
 2159 0a54 A3270000 		.4byte	.LASF273
 2160 0a58 07       		.byte	0x7
 2161 0a59 29       		.byte	0x29
 2162 0a5a 0D010000 		.4byte	0x10d
 2163 0a5e 14       		.byte	0x14
 2164 0a5f 0E       		.uleb128 0xe
 2165 0a60 4C410000 		.4byte	.LASF274
 2166 0a64 07       		.byte	0x7
 2167 0a65 2A       		.byte	0x2a
 2168 0a66 0D010000 		.4byte	0x10d
 2169 0a6a 18       		.byte	0x18
 2170 0a6b 0E       		.uleb128 0xe
 2171 0a6c 8D270000 		.4byte	.LASF275
 2172 0a70 07       		.byte	0x7
 2173 0a71 2B       		.byte	0x2b
 2174 0a72 12010000 		.4byte	0x112
 2175 0a76 1C       		.byte	0x1c
ARM GAS  C:\Users\JC\AppData\Local\Temp\ccNOiAvA.s 			page 69


 2176 0a77 0E       		.uleb128 0xe
 2177 0a78 53110000 		.4byte	.LASF276
 2178 0a7c 07       		.byte	0x7
 2179 0a7d 2C       		.byte	0x2c
 2180 0a7e 0D010000 		.4byte	0x10d
 2181 0a82 20       		.byte	0x20
 2182 0a83 0E       		.uleb128 0xe
 2183 0a84 862D0000 		.4byte	.LASF277
 2184 0a88 07       		.byte	0x7
 2185 0a89 2D       		.byte	0x2d
 2186 0a8a 0D010000 		.4byte	0x10d
 2187 0a8e 24       		.byte	0x24
 2188 0a8f 0E       		.uleb128 0xe
 2189 0a90 3E4B0000 		.4byte	.LASF278
 2190 0a94 07       		.byte	0x7
 2191 0a95 2E       		.byte	0x2e
 2192 0a96 0D010000 		.4byte	0x10d
 2193 0a9a 28       		.byte	0x28
 2194 0a9b 0E       		.uleb128 0xe
 2195 0a9c B10B0000 		.4byte	.LASF279
 2196 0aa0 07       		.byte	0x7
 2197 0aa1 2F       		.byte	0x2f
 2198 0aa2 0D010000 		.4byte	0x10d
 2199 0aa6 2C       		.byte	0x2c
 2200 0aa7 0E       		.uleb128 0xe
 2201 0aa8 DF210000 		.4byte	.LASF280
 2202 0aac 07       		.byte	0x7
 2203 0aad 30       		.byte	0x30
 2204 0aae 0D010000 		.4byte	0x10d
 2205 0ab2 30       		.byte	0x30
 2206 0ab3 0E       		.uleb128 0xe
 2207 0ab4 58290000 		.4byte	.LASF281
 2208 0ab8 07       		.byte	0x7
 2209 0ab9 31       		.byte	0x31
 2210 0aba F30A0000 		.4byte	0xaf3
 2211 0abe 34       		.byte	0x34
 2212 0abf 0E       		.uleb128 0xe
 2213 0ac0 00500000 		.4byte	.LASF282
 2214 0ac4 07       		.byte	0x7
 2215 0ac5 32       		.byte	0x32
 2216 0ac6 0D010000 		.4byte	0x10d
 2217 0aca 40       		.byte	0x40
 2218 0acb 0E       		.uleb128 0xe
 2219 0acc 181B0000 		.4byte	.LASF283
 2220 0ad0 07       		.byte	0x7
 2221 0ad1 33       		.byte	0x33
 2222 0ad2 0D010000 		.4byte	0x10d
 2223 0ad6 44       		.byte	0x44
 2224 0ad7 0E       		.uleb128 0xe
 2225 0ad8 62290000 		.4byte	.LASF284
 2226 0adc 07       		.byte	0x7
 2227 0add 34       		.byte	0x34
 2228 0ade 0D0B0000 		.4byte	0xb0d
 2229 0ae2 48       		.byte	0x48
 2230 0ae3 00       		.byte	0
 2231 0ae4 08       		.uleb128 0x8
 2232 0ae5 17010000 		.4byte	0x117
ARM GAS  C:\Users\JC\AppData\Local\Temp\ccNOiAvA.s 			page 70


 2233 0ae9 09       		.uleb128 0x9
 2234 0aea E40A0000 		.4byte	0xae4
 2235 0aee 08       		.uleb128 0x8
 2236 0aef 17010000 		.4byte	0x117
 2237 0af3 09       		.uleb128 0x9
 2238 0af4 EE0A0000 		.4byte	0xaee
 2239 0af8 0A       		.uleb128 0xa
 2240 0af9 12010000 		.4byte	0x112
 2241 0afd 080B0000 		.4byte	0xb08
 2242 0b01 0B       		.uleb128 0xb
 2243 0b02 B4000000 		.4byte	0xb4
 2244 0b06 2D       		.byte	0x2d
 2245 0b07 00       		.byte	0
 2246 0b08 08       		.uleb128 0x8
 2247 0b09 F80A0000 		.4byte	0xaf8
 2248 0b0d 09       		.uleb128 0x9
 2249 0b0e 080B0000 		.4byte	0xb08
 2250 0b12 04       		.uleb128 0x4
 2251 0b13 ED3C0000 		.4byte	.LASF285
 2252 0b17 07       		.byte	0x7
 2253 0b18 35       		.byte	0x35
 2254 0b19 260A0000 		.4byte	0xa26
 2255 0b1d 12       		.uleb128 0x12
 2256 0b1e 0002     		.2byte	0x200
 2257 0b20 07       		.byte	0x7
 2258 0b21 3A       		.byte	0x3a
 2259 0b22 0C0C0000 		.4byte	0xc0c
 2260 0b26 0E       		.uleb128 0xe
 2261 0b27 114A0000 		.4byte	.LASF270
 2262 0b2b 07       		.byte	0x7
 2263 0b2c 3B       		.byte	0x3b
 2264 0b2d 0D010000 		.4byte	0x10d
 2265 0b31 00       		.byte	0
 2266 0b32 0E       		.uleb128 0xe
 2267 0b33 A1330000 		.4byte	.LASF286
 2268 0b37 07       		.byte	0x7
 2269 0b38 3C       		.byte	0x3c
 2270 0b39 12010000 		.4byte	0x112
 2271 0b3d 04       		.byte	0x4
 2272 0b3e 0E       		.uleb128 0xe
 2273 0b3f 603E0000 		.4byte	.LASF271
 2274 0b43 07       		.byte	0x7
 2275 0b44 3D       		.byte	0x3d
 2276 0b45 110C0000 		.4byte	0xc11
 2277 0b49 08       		.byte	0x8
 2278 0b4a 0E       		.uleb128 0xe
 2279 0b4b 05030000 		.4byte	.LASF287
 2280 0b4f 07       		.byte	0x7
 2281 0b50 3E       		.byte	0x3e
 2282 0b51 0D010000 		.4byte	0x10d
 2283 0b55 10       		.byte	0x10
 2284 0b56 0E       		.uleb128 0xe
 2285 0b57 3A510000 		.4byte	.LASF288
 2286 0b5b 07       		.byte	0x7
 2287 0b5c 3F       		.byte	0x3f
 2288 0b5d 0D010000 		.4byte	0x10d
 2289 0b61 14       		.byte	0x14
ARM GAS  C:\Users\JC\AppData\Local\Temp\ccNOiAvA.s 			page 71


 2290 0b62 0E       		.uleb128 0xe
 2291 0b63 97420000 		.4byte	.LASF289
 2292 0b67 07       		.byte	0x7
 2293 0b68 40       		.byte	0x40
 2294 0b69 12010000 		.4byte	0x112
 2295 0b6d 18       		.byte	0x18
 2296 0b6e 0E       		.uleb128 0xe
 2297 0b6f B1350000 		.4byte	.LASF290
 2298 0b73 07       		.byte	0x7
 2299 0b74 41       		.byte	0x41
 2300 0b75 0D010000 		.4byte	0x10d
 2301 0b79 1C       		.byte	0x1c
 2302 0b7a 0E       		.uleb128 0xe
 2303 0b7b D7390000 		.4byte	.LASF291
 2304 0b7f 07       		.byte	0x7
 2305 0b80 42       		.byte	0x42
 2306 0b81 0D010000 		.4byte	0x10d
 2307 0b85 20       		.byte	0x20
 2308 0b86 0E       		.uleb128 0xe
 2309 0b87 693E0000 		.4byte	.LASF292
 2310 0b8b 07       		.byte	0x7
 2311 0b8c 43       		.byte	0x43
 2312 0b8d 0D010000 		.4byte	0x10d
 2313 0b91 24       		.byte	0x24
 2314 0b92 0E       		.uleb128 0xe
 2315 0b93 852B0000 		.4byte	.LASF293
 2316 0b97 07       		.byte	0x7
 2317 0b98 44       		.byte	0x44
 2318 0b99 12010000 		.4byte	0x112
 2319 0b9d 28       		.byte	0x28
 2320 0b9e 0E       		.uleb128 0xe
 2321 0b9f 15550000 		.4byte	.LASF294
 2322 0ba3 07       		.byte	0x7
 2323 0ba4 45       		.byte	0x45
 2324 0ba5 12010000 		.4byte	0x112
 2325 0ba9 2C       		.byte	0x2c
 2326 0baa 0E       		.uleb128 0xe
 2327 0bab AB220000 		.4byte	.LASF295
 2328 0baf 07       		.byte	0x7
 2329 0bb0 46       		.byte	0x46
 2330 0bb1 12010000 		.4byte	0x112
 2331 0bb5 30       		.byte	0x30
 2332 0bb6 0E       		.uleb128 0xe
 2333 0bb7 58290000 		.4byte	.LASF281
 2334 0bbb 07       		.byte	0x7
 2335 0bbc 47       		.byte	0x47
 2336 0bbd 1B0C0000 		.4byte	0xc1b
 2337 0bc1 34       		.byte	0x34
 2338 0bc2 0E       		.uleb128 0xe
 2339 0bc3 DB4C0000 		.4byte	.LASF272
 2340 0bc7 07       		.byte	0x7
 2341 0bc8 48       		.byte	0x48
 2342 0bc9 0D010000 		.4byte	0x10d
 2343 0bcd 40       		.byte	0x40
 2344 0bce 0E       		.uleb128 0xe
 2345 0bcf A3270000 		.4byte	.LASF273
 2346 0bd3 07       		.byte	0x7
ARM GAS  C:\Users\JC\AppData\Local\Temp\ccNOiAvA.s 			page 72


 2347 0bd4 49       		.byte	0x49
 2348 0bd5 0D010000 		.4byte	0x10d
 2349 0bd9 44       		.byte	0x44
 2350 0bda 0E       		.uleb128 0xe
 2351 0bdb 4C410000 		.4byte	.LASF274
 2352 0bdf 07       		.byte	0x7
 2353 0be0 4A       		.byte	0x4a
 2354 0be1 0D010000 		.4byte	0x10d
 2355 0be5 48       		.byte	0x48
 2356 0be6 0E       		.uleb128 0xe
 2357 0be7 8D270000 		.4byte	.LASF275
 2358 0beb 07       		.byte	0x7
 2359 0bec 4B       		.byte	0x4b
 2360 0bed 12010000 		.4byte	0x112
 2361 0bf1 4C       		.byte	0x4c
 2362 0bf2 0E       		.uleb128 0xe
 2363 0bf3 62290000 		.4byte	.LASF284
 2364 0bf7 07       		.byte	0x7
 2365 0bf8 4C       		.byte	0x4c
 2366 0bf9 250C0000 		.4byte	0xc25
 2367 0bfd 50       		.byte	0x50
 2368 0bfe 13       		.uleb128 0x13
 2369 0bff 760A0000 		.4byte	.LASF296
 2370 0c03 07       		.byte	0x7
 2371 0c04 4D       		.byte	0x4d
 2372 0c05 120B0000 		.4byte	0xb12
 2373 0c09 0001     		.2byte	0x100
 2374 0c0b 00       		.byte	0
 2375 0c0c 08       		.uleb128 0x8
 2376 0c0d A7010000 		.4byte	0x1a7
 2377 0c11 09       		.uleb128 0x9
 2378 0c12 0C0C0000 		.4byte	0xc0c
 2379 0c16 08       		.uleb128 0x8
 2380 0c17 17010000 		.4byte	0x117
 2381 0c1b 09       		.uleb128 0x9
 2382 0c1c 160C0000 		.4byte	0xc16
 2383 0c20 08       		.uleb128 0x8
 2384 0c21 67010000 		.4byte	0x167
 2385 0c25 09       		.uleb128 0x9
 2386 0c26 200C0000 		.4byte	0xc20
 2387 0c2a 04       		.uleb128 0x4
 2388 0c2b E0430000 		.4byte	.LASF297
 2389 0c2f 07       		.byte	0x7
 2390 0c30 4E       		.byte	0x4e
 2391 0c31 1D0B0000 		.4byte	0xb1d
 2392 0c35 14       		.uleb128 0x14
 2393 0c36 00E00100 		.4byte	0x1e000
 2394 0c3a 07       		.byte	0x7
 2395 0c3b 53       		.byte	0x53
 2396 0c3c F9190000 		.4byte	0x19f9
 2397 0c40 0E       		.uleb128 0xe
 2398 0c41 854D0000 		.4byte	.LASF298
 2399 0c45 07       		.byte	0x7
 2400 0c46 54       		.byte	0x54
 2401 0c47 0D010000 		.4byte	0x10d
 2402 0c4b 00       		.byte	0
 2403 0c4c 0E       		.uleb128 0xe
ARM GAS  C:\Users\JC\AppData\Local\Temp\ccNOiAvA.s 			page 73


 2404 0c4d 603E0000 		.4byte	.LASF271
 2405 0c51 07       		.byte	0x7
 2406 0c52 55       		.byte	0x55
 2407 0c53 12010000 		.4byte	0x112
 2408 0c57 04       		.byte	0x4
 2409 0c58 0E       		.uleb128 0xe
 2410 0c59 1B160000 		.4byte	.LASF299
 2411 0c5d 07       		.byte	0x7
 2412 0c5e 56       		.byte	0x56
 2413 0c5f 0D010000 		.4byte	0x10d
 2414 0c63 08       		.byte	0x8
 2415 0c64 0E       		.uleb128 0xe
 2416 0c65 58290000 		.4byte	.LASF281
 2417 0c69 07       		.byte	0x7
 2418 0c6a 57       		.byte	0x57
 2419 0c6b 12010000 		.4byte	0x112
 2420 0c6f 0C       		.byte	0xc
 2421 0c70 0E       		.uleb128 0xe
 2422 0c71 CC3A0000 		.4byte	.LASF300
 2423 0c75 07       		.byte	0x7
 2424 0c76 58       		.byte	0x58
 2425 0c77 0D010000 		.4byte	0x10d
 2426 0c7b 10       		.byte	0x10
 2427 0c7c 0E       		.uleb128 0xe
 2428 0c7d 62290000 		.4byte	.LASF284
 2429 0c81 07       		.byte	0x7
 2430 0c82 59       		.byte	0x59
 2431 0c83 12010000 		.4byte	0x112
 2432 0c87 14       		.byte	0x14
 2433 0c88 0E       		.uleb128 0xe
 2434 0c89 4F220000 		.4byte	.LASF301
 2435 0c8d 07       		.byte	0x7
 2436 0c8e 5A       		.byte	0x5a
 2437 0c8f 0D010000 		.4byte	0x10d
 2438 0c93 18       		.byte	0x18
 2439 0c94 0E       		.uleb128 0xe
 2440 0c95 8C400000 		.4byte	.LASF302
 2441 0c99 07       		.byte	0x7
 2442 0c9a 5B       		.byte	0x5b
 2443 0c9b 0D010000 		.4byte	0x10d
 2444 0c9f 1C       		.byte	0x1c
 2445 0ca0 0E       		.uleb128 0xe
 2446 0ca1 721B0000 		.4byte	.LASF303
 2447 0ca5 07       		.byte	0x7
 2448 0ca6 5C       		.byte	0x5c
 2449 0ca7 0D010000 		.4byte	0x10d
 2450 0cab 20       		.byte	0x20
 2451 0cac 0E       		.uleb128 0xe
 2452 0cad E04C0000 		.4byte	.LASF304
 2453 0cb1 07       		.byte	0x7
 2454 0cb2 5D       		.byte	0x5d
 2455 0cb3 12010000 		.4byte	0x112
 2456 0cb7 24       		.byte	0x24
 2457 0cb8 0E       		.uleb128 0xe
 2458 0cb9 6E120000 		.4byte	.LASF305
 2459 0cbd 07       		.byte	0x7
 2460 0cbe 5E       		.byte	0x5e
ARM GAS  C:\Users\JC\AppData\Local\Temp\ccNOiAvA.s 			page 74


 2461 0cbf 0D010000 		.4byte	0x10d
 2462 0cc3 28       		.byte	0x28
 2463 0cc4 0E       		.uleb128 0xe
 2464 0cc5 D32F0000 		.4byte	.LASF306
 2465 0cc9 07       		.byte	0x7
 2466 0cca 5F       		.byte	0x5f
 2467 0ccb 0D010000 		.4byte	0x10d
 2468 0ccf 2C       		.byte	0x2c
 2469 0cd0 0E       		.uleb128 0xe
 2470 0cd1 154E0000 		.4byte	.LASF307
 2471 0cd5 07       		.byte	0x7
 2472 0cd6 60       		.byte	0x60
 2473 0cd7 0D010000 		.4byte	0x10d
 2474 0cdb 30       		.byte	0x30
 2475 0cdc 0E       		.uleb128 0xe
 2476 0cdd 6C290000 		.4byte	.LASF308
 2477 0ce1 07       		.byte	0x7
 2478 0ce2 61       		.byte	0x61
 2479 0ce3 12010000 		.4byte	0x112
 2480 0ce7 34       		.byte	0x34
 2481 0ce8 0E       		.uleb128 0xe
 2482 0ce9 FD210000 		.4byte	.LASF309
 2483 0ced 07       		.byte	0x7
 2484 0cee 62       		.byte	0x62
 2485 0cef 0D010000 		.4byte	0x10d
 2486 0cf3 38       		.byte	0x38
 2487 0cf4 0E       		.uleb128 0xe
 2488 0cf5 DA010000 		.4byte	.LASF310
 2489 0cf9 07       		.byte	0x7
 2490 0cfa 63       		.byte	0x63
 2491 0cfb 12010000 		.4byte	0x112
 2492 0cff 3C       		.byte	0x3c
 2493 0d00 0E       		.uleb128 0xe
 2494 0d01 28490000 		.4byte	.LASF311
 2495 0d05 07       		.byte	0x7
 2496 0d06 64       		.byte	0x64
 2497 0d07 0D010000 		.4byte	0x10d
 2498 0d0b 40       		.byte	0x40
 2499 0d0c 0E       		.uleb128 0xe
 2500 0d0d 502C0000 		.4byte	.LASF312
 2501 0d11 07       		.byte	0x7
 2502 0d12 65       		.byte	0x65
 2503 0d13 0D010000 		.4byte	0x10d
 2504 0d17 44       		.byte	0x44
 2505 0d18 0E       		.uleb128 0xe
 2506 0d19 DB0B0000 		.4byte	.LASF313
 2507 0d1d 07       		.byte	0x7
 2508 0d1e 66       		.byte	0x66
 2509 0d1f 0D010000 		.4byte	0x10d
 2510 0d23 48       		.byte	0x48
 2511 0d24 0E       		.uleb128 0xe
 2512 0d25 76290000 		.4byte	.LASF314
 2513 0d29 07       		.byte	0x7
 2514 0d2a 67       		.byte	0x67
 2515 0d2b 12010000 		.4byte	0x112
 2516 0d2f 4C       		.byte	0x4c
 2517 0d30 0E       		.uleb128 0xe
ARM GAS  C:\Users\JC\AppData\Local\Temp\ccNOiAvA.s 			page 75


 2518 0d31 3C300000 		.4byte	.LASF315
 2519 0d35 07       		.byte	0x7
 2520 0d36 68       		.byte	0x68
 2521 0d37 0D010000 		.4byte	0x10d
 2522 0d3b 50       		.byte	0x50
 2523 0d3c 0E       		.uleb128 0xe
 2524 0d3d 21530000 		.4byte	.LASF316
 2525 0d41 07       		.byte	0x7
 2526 0d42 69       		.byte	0x69
 2527 0d43 12010000 		.4byte	0x112
 2528 0d47 54       		.byte	0x54
 2529 0d48 0E       		.uleb128 0xe
 2530 0d49 25130000 		.4byte	.LASF317
 2531 0d4d 07       		.byte	0x7
 2532 0d4e 6A       		.byte	0x6a
 2533 0d4f 0D010000 		.4byte	0x10d
 2534 0d53 58       		.byte	0x58
 2535 0d54 0E       		.uleb128 0xe
 2536 0d55 38130000 		.4byte	.LASF318
 2537 0d59 07       		.byte	0x7
 2538 0d5a 6B       		.byte	0x6b
 2539 0d5b 0D010000 		.4byte	0x10d
 2540 0d5f 5C       		.byte	0x5c
 2541 0d60 0E       		.uleb128 0xe
 2542 0d61 01130000 		.4byte	.LASF319
 2543 0d65 07       		.byte	0x7
 2544 0d66 6C       		.byte	0x6c
 2545 0d67 0D010000 		.4byte	0x10d
 2546 0d6b 60       		.byte	0x60
 2547 0d6c 0E       		.uleb128 0xe
 2548 0d6d 80290000 		.4byte	.LASF320
 2549 0d71 07       		.byte	0x7
 2550 0d72 6D       		.byte	0x6d
 2551 0d73 12010000 		.4byte	0x112
 2552 0d77 64       		.byte	0x64
 2553 0d78 0E       		.uleb128 0xe
 2554 0d79 D14F0000 		.4byte	.LASF321
 2555 0d7d 07       		.byte	0x7
 2556 0d7e 6E       		.byte	0x6e
 2557 0d7f 0D010000 		.4byte	0x10d
 2558 0d83 68       		.byte	0x68
 2559 0d84 0E       		.uleb128 0xe
 2560 0d85 DD4F0000 		.4byte	.LASF322
 2561 0d89 07       		.byte	0x7
 2562 0d8a 6F       		.byte	0x6f
 2563 0d8b 0D010000 		.4byte	0x10d
 2564 0d8f 6C       		.byte	0x6c
 2565 0d90 0E       		.uleb128 0xe
 2566 0d91 C54F0000 		.4byte	.LASF323
 2567 0d95 07       		.byte	0x7
 2568 0d96 70       		.byte	0x70
 2569 0d97 0D010000 		.4byte	0x10d
 2570 0d9b 70       		.byte	0x70
 2571 0d9c 0E       		.uleb128 0xe
 2572 0d9d 8A290000 		.4byte	.LASF324
 2573 0da1 07       		.byte	0x7
 2574 0da2 71       		.byte	0x71
ARM GAS  C:\Users\JC\AppData\Local\Temp\ccNOiAvA.s 			page 76


 2575 0da3 12010000 		.4byte	0x112
 2576 0da7 74       		.byte	0x74
 2577 0da8 0E       		.uleb128 0xe
 2578 0da9 B43F0000 		.4byte	.LASF325
 2579 0dad 07       		.byte	0x7
 2580 0dae 72       		.byte	0x72
 2581 0daf 0D010000 		.4byte	0x10d
 2582 0db3 78       		.byte	0x78
 2583 0db4 0E       		.uleb128 0xe
 2584 0db5 4E090000 		.4byte	.LASF326
 2585 0db9 07       		.byte	0x7
 2586 0dba 73       		.byte	0x73
 2587 0dbb 0D010000 		.4byte	0x10d
 2588 0dbf 7C       		.byte	0x7c
 2589 0dc0 0E       		.uleb128 0xe
 2590 0dc1 A51D0000 		.4byte	.LASF327
 2591 0dc5 07       		.byte	0x7
 2592 0dc6 74       		.byte	0x74
 2593 0dc7 0D010000 		.4byte	0x10d
 2594 0dcb 80       		.byte	0x80
 2595 0dcc 0E       		.uleb128 0xe
 2596 0dcd 9D4F0000 		.4byte	.LASF328
 2597 0dd1 07       		.byte	0x7
 2598 0dd2 75       		.byte	0x75
 2599 0dd3 0D010000 		.4byte	0x10d
 2600 0dd7 84       		.byte	0x84
 2601 0dd8 0E       		.uleb128 0xe
 2602 0dd9 0A160000 		.4byte	.LASF329
 2603 0ddd 07       		.byte	0x7
 2604 0dde 76       		.byte	0x76
 2605 0ddf 0D010000 		.4byte	0x10d
 2606 0de3 88       		.byte	0x88
 2607 0de4 0E       		.uleb128 0xe
 2608 0de5 B4160000 		.4byte	.LASF330
 2609 0de9 07       		.byte	0x7
 2610 0dea 77       		.byte	0x77
 2611 0deb 0D010000 		.4byte	0x10d
 2612 0def 8C       		.byte	0x8c
 2613 0df0 0E       		.uleb128 0xe
 2614 0df1 A9120000 		.4byte	.LASF331
 2615 0df5 07       		.byte	0x7
 2616 0df6 78       		.byte	0x78
 2617 0df7 0D010000 		.4byte	0x10d
 2618 0dfb 90       		.byte	0x90
 2619 0dfc 0E       		.uleb128 0xe
 2620 0dfd 94290000 		.4byte	.LASF332
 2621 0e01 07       		.byte	0x7
 2622 0e02 79       		.byte	0x79
 2623 0e03 12010000 		.4byte	0x112
 2624 0e07 94       		.byte	0x94
 2625 0e08 0E       		.uleb128 0xe
 2626 0e09 8C4B0000 		.4byte	.LASF333
 2627 0e0d 07       		.byte	0x7
 2628 0e0e 7A       		.byte	0x7a
 2629 0e0f 0D010000 		.4byte	0x10d
 2630 0e13 98       		.byte	0x98
 2631 0e14 0E       		.uleb128 0xe
ARM GAS  C:\Users\JC\AppData\Local\Temp\ccNOiAvA.s 			page 77


 2632 0e15 C5160000 		.4byte	.LASF334
 2633 0e19 07       		.byte	0x7
 2634 0e1a 7B       		.byte	0x7b
 2635 0e1b 0D010000 		.4byte	0x10d
 2636 0e1f 9C       		.byte	0x9c
 2637 0e20 0E       		.uleb128 0xe
 2638 0e21 BA120000 		.4byte	.LASF335
 2639 0e25 07       		.byte	0x7
 2640 0e26 7C       		.byte	0x7c
 2641 0e27 0D010000 		.4byte	0x10d
 2642 0e2b A0       		.byte	0xa0
 2643 0e2c 0E       		.uleb128 0xe
 2644 0e2d 9E290000 		.4byte	.LASF336
 2645 0e31 07       		.byte	0x7
 2646 0e32 7D       		.byte	0x7d
 2647 0e33 12010000 		.4byte	0x112
 2648 0e37 A4       		.byte	0xa4
 2649 0e38 0E       		.uleb128 0xe
 2650 0e39 49050000 		.4byte	.LASF337
 2651 0e3d 07       		.byte	0x7
 2652 0e3e 7E       		.byte	0x7e
 2653 0e3f 0D010000 		.4byte	0x10d
 2654 0e43 A8       		.byte	0xa8
 2655 0e44 0E       		.uleb128 0xe
 2656 0e45 0A190000 		.4byte	.LASF338
 2657 0e49 07       		.byte	0x7
 2658 0e4a 7F       		.byte	0x7f
 2659 0e4b 12010000 		.4byte	0x112
 2660 0e4f AC       		.byte	0xac
 2661 0e50 0E       		.uleb128 0xe
 2662 0e51 CE1D0000 		.4byte	.LASF339
 2663 0e55 07       		.byte	0x7
 2664 0e56 80       		.byte	0x80
 2665 0e57 0D010000 		.4byte	0x10d
 2666 0e5b B0       		.byte	0xb0
 2667 0e5c 0E       		.uleb128 0xe
 2668 0e5d A8290000 		.4byte	.LASF340
 2669 0e61 07       		.byte	0x7
 2670 0e62 81       		.byte	0x81
 2671 0e63 12010000 		.4byte	0x112
 2672 0e67 B4       		.byte	0xb4
 2673 0e68 0E       		.uleb128 0xe
 2674 0e69 D8040000 		.4byte	.LASF341
 2675 0e6d 07       		.byte	0x7
 2676 0e6e 82       		.byte	0x82
 2677 0e6f 0D010000 		.4byte	0x10d
 2678 0e73 B8       		.byte	0xb8
 2679 0e74 0E       		.uleb128 0xe
 2680 0e75 6C010000 		.4byte	.LASF342
 2681 0e79 07       		.byte	0x7
 2682 0e7a 83       		.byte	0x83
 2683 0e7b 12010000 		.4byte	0x112
 2684 0e7f BC       		.byte	0xbc
 2685 0e80 0E       		.uleb128 0xe
 2686 0e81 A4580000 		.4byte	.LASF343
 2687 0e85 07       		.byte	0x7
 2688 0e86 84       		.byte	0x84
ARM GAS  C:\Users\JC\AppData\Local\Temp\ccNOiAvA.s 			page 78


 2689 0e87 0D010000 		.4byte	0x10d
 2690 0e8b C0       		.byte	0xc0
 2691 0e8c 0E       		.uleb128 0xe
 2692 0e8d CD1B0000 		.4byte	.LASF344
 2693 0e91 07       		.byte	0x7
 2694 0e92 85       		.byte	0x85
 2695 0e93 0D010000 		.4byte	0x10d
 2696 0e97 C4       		.byte	0xc4
 2697 0e98 0E       		.uleb128 0xe
 2698 0e99 45230000 		.4byte	.LASF345
 2699 0e9d 07       		.byte	0x7
 2700 0e9e 86       		.byte	0x86
 2701 0e9f 12010000 		.4byte	0x112
 2702 0ea3 C8       		.byte	0xc8
 2703 0ea4 0E       		.uleb128 0xe
 2704 0ea5 A82B0000 		.4byte	.LASF346
 2705 0ea9 07       		.byte	0x7
 2706 0eaa 87       		.byte	0x87
 2707 0eab 0D010000 		.4byte	0x10d
 2708 0eaf CC       		.byte	0xcc
 2709 0eb0 0E       		.uleb128 0xe
 2710 0eb1 77010000 		.4byte	.LASF347
 2711 0eb5 07       		.byte	0x7
 2712 0eb6 88       		.byte	0x88
 2713 0eb7 FE190000 		.4byte	0x19fe
 2714 0ebb D0       		.byte	0xd0
 2715 0ebc 0E       		.uleb128 0xe
 2716 0ebd 65190000 		.4byte	.LASF348
 2717 0ec1 07       		.byte	0x7
 2718 0ec2 89       		.byte	0x89
 2719 0ec3 0D010000 		.4byte	0x10d
 2720 0ec7 D8       		.byte	0xd8
 2721 0ec8 0E       		.uleb128 0xe
 2722 0ec9 82010000 		.4byte	.LASF349
 2723 0ecd 07       		.byte	0x7
 2724 0ece 8A       		.byte	0x8a
 2725 0ecf 12010000 		.4byte	0x112
 2726 0ed3 DC       		.byte	0xdc
 2727 0ed4 0E       		.uleb128 0xe
 2728 0ed5 83440000 		.4byte	.LASF350
 2729 0ed9 07       		.byte	0x7
 2730 0eda 8B       		.byte	0x8b
 2731 0edb 0D010000 		.4byte	0x10d
 2732 0edf E0       		.byte	0xe0
 2733 0ee0 0E       		.uleb128 0xe
 2734 0ee1 8D010000 		.4byte	.LASF351
 2735 0ee5 07       		.byte	0x7
 2736 0ee6 8C       		.byte	0x8c
 2737 0ee7 12010000 		.4byte	0x112
 2738 0eeb E4       		.byte	0xe4
 2739 0eec 0E       		.uleb128 0xe
 2740 0eed F4410000 		.4byte	.LASF352
 2741 0ef1 07       		.byte	0x7
 2742 0ef2 8D       		.byte	0x8d
 2743 0ef3 0D010000 		.4byte	0x10d
 2744 0ef7 E8       		.byte	0xe8
 2745 0ef8 0E       		.uleb128 0xe
ARM GAS  C:\Users\JC\AppData\Local\Temp\ccNOiAvA.s 			page 79


 2746 0ef9 98010000 		.4byte	.LASF353
 2747 0efd 07       		.byte	0x7
 2748 0efe 8F       		.byte	0x8f
 2749 0eff 081A0000 		.4byte	0x1a08
 2750 0f03 EC       		.byte	0xec
 2751 0f04 0E       		.uleb128 0xe
 2752 0f05 85500000 		.4byte	.LASF354
 2753 0f09 07       		.byte	0x7
 2754 0f0a 90       		.byte	0x90
 2755 0f0b 12010000 		.4byte	0x112
 2756 0f0f F8       		.byte	0xf8
 2757 0f10 0E       		.uleb128 0xe
 2758 0f11 A3010000 		.4byte	.LASF355
 2759 0f15 07       		.byte	0x7
 2760 0f16 92       		.byte	0x92
 2761 0f17 12010000 		.4byte	0x112
 2762 0f1b FC       		.byte	0xfc
 2763 0f1c 13       		.uleb128 0x13
 2764 0f1d 41220000 		.4byte	.LASF356
 2765 0f21 07       		.byte	0x7
 2766 0f22 93       		.byte	0x93
 2767 0f23 0D010000 		.4byte	0x10d
 2768 0f27 0001     		.2byte	0x100
 2769 0f29 13       		.uleb128 0x13
 2770 0f2a 6E1A0000 		.4byte	.LASF357
 2771 0f2e 07       		.byte	0x7
 2772 0f2f 94       		.byte	0x94
 2773 0f30 0D010000 		.4byte	0x10d
 2774 0f34 0401     		.2byte	0x104
 2775 0f36 13       		.uleb128 0x13
 2776 0f37 281E0000 		.4byte	.LASF358
 2777 0f3b 07       		.byte	0x7
 2778 0f3c 95       		.byte	0x95
 2779 0f3d 0D010000 		.4byte	0x10d
 2780 0f41 0801     		.2byte	0x108
 2781 0f43 13       		.uleb128 0x13
 2782 0f44 A5570000 		.4byte	.LASF359
 2783 0f48 07       		.byte	0x7
 2784 0f49 96       		.byte	0x96
 2785 0f4a 0D010000 		.4byte	0x10d
 2786 0f4e 0C01     		.2byte	0x10c
 2787 0f50 13       		.uleb128 0x13
 2788 0f51 6D200000 		.4byte	.LASF360
 2789 0f55 07       		.byte	0x7
 2790 0f56 97       		.byte	0x97
 2791 0f57 0D010000 		.4byte	0x10d
 2792 0f5b 1001     		.2byte	0x110
 2793 0f5d 13       		.uleb128 0x13
 2794 0f5e 164A0000 		.4byte	.LASF361
 2795 0f62 07       		.byte	0x7
 2796 0f63 98       		.byte	0x98
 2797 0f64 0D010000 		.4byte	0x10d
 2798 0f68 1401     		.2byte	0x114
 2799 0f6a 13       		.uleb128 0x13
 2800 0f6b 63070000 		.4byte	.LASF362
 2801 0f6f 07       		.byte	0x7
 2802 0f70 99       		.byte	0x99
ARM GAS  C:\Users\JC\AppData\Local\Temp\ccNOiAvA.s 			page 80


 2803 0f71 0D010000 		.4byte	0x10d
 2804 0f75 1801     		.2byte	0x118
 2805 0f77 13       		.uleb128 0x13
 2806 0f78 1F1D0000 		.4byte	.LASF363
 2807 0f7c 07       		.byte	0x7
 2808 0f7d 9A       		.byte	0x9a
 2809 0f7e 0D010000 		.4byte	0x10d
 2810 0f82 1C01     		.2byte	0x11c
 2811 0f84 13       		.uleb128 0x13
 2812 0f85 EA1A0000 		.4byte	.LASF364
 2813 0f89 07       		.byte	0x7
 2814 0f8a 9B       		.byte	0x9b
 2815 0f8b 12010000 		.4byte	0x112
 2816 0f8f 2001     		.2byte	0x120
 2817 0f91 13       		.uleb128 0x13
 2818 0f92 EF160000 		.4byte	.LASF365
 2819 0f96 07       		.byte	0x7
 2820 0f97 9C       		.byte	0x9c
 2821 0f98 12010000 		.4byte	0x112
 2822 0f9c 2401     		.2byte	0x124
 2823 0f9e 13       		.uleb128 0x13
 2824 0f9f 00000000 		.4byte	.LASF366
 2825 0fa3 07       		.byte	0x7
 2826 0fa4 9D       		.byte	0x9d
 2827 0fa5 0D010000 		.4byte	0x10d
 2828 0fa9 2801     		.2byte	0x128
 2829 0fab 13       		.uleb128 0x13
 2830 0fac C23E0000 		.4byte	.LASF367
 2831 0fb0 07       		.byte	0x7
 2832 0fb1 9E       		.byte	0x9e
 2833 0fb2 0D010000 		.4byte	0x10d
 2834 0fb6 2C01     		.2byte	0x12c
 2835 0fb8 13       		.uleb128 0x13
 2836 0fb9 251B0000 		.4byte	.LASF368
 2837 0fbd 07       		.byte	0x7
 2838 0fbe 9F       		.byte	0x9f
 2839 0fbf 0D010000 		.4byte	0x10d
 2840 0fc3 3001     		.2byte	0x130
 2841 0fc5 13       		.uleb128 0x13
 2842 0fc6 00450000 		.4byte	.LASF369
 2843 0fca 07       		.byte	0x7
 2844 0fcb A0       		.byte	0xa0
 2845 0fcc 0D010000 		.4byte	0x10d
 2846 0fd0 3401     		.2byte	0x134
 2847 0fd2 13       		.uleb128 0x13
 2848 0fd3 AA1A0000 		.4byte	.LASF370
 2849 0fd7 07       		.byte	0x7
 2850 0fd8 A1       		.byte	0xa1
 2851 0fd9 0D010000 		.4byte	0x10d
 2852 0fdd 3801     		.2byte	0x138
 2853 0fdf 13       		.uleb128 0x13
 2854 0fe0 AE010000 		.4byte	.LASF371
 2855 0fe4 07       		.byte	0x7
 2856 0fe5 A2       		.byte	0xa2
 2857 0fe6 12010000 		.4byte	0x112
 2858 0fea 3C01     		.2byte	0x13c
 2859 0fec 13       		.uleb128 0x13
ARM GAS  C:\Users\JC\AppData\Local\Temp\ccNOiAvA.s 			page 81


 2860 0fed BB530000 		.4byte	.LASF372
 2861 0ff1 07       		.byte	0x7
 2862 0ff2 A3       		.byte	0xa3
 2863 0ff3 1D1A0000 		.4byte	0x1a1d
 2864 0ff7 4001     		.2byte	0x140
 2865 0ff9 13       		.uleb128 0x13
 2866 0ffa B9010000 		.4byte	.LASF373
 2867 0ffe 07       		.byte	0x7
 2868 0fff A4       		.byte	0xa4
 2869 1000 271A0000 		.4byte	0x1a27
 2870 1004 5401     		.2byte	0x154
 2871 1006 13       		.uleb128 0x13
 2872 1007 E7500000 		.4byte	.LASF374
 2873 100b 07       		.byte	0x7
 2874 100c A5       		.byte	0xa5
 2875 100d 0D010000 		.4byte	0x10d
 2876 1011 6001     		.2byte	0x160
 2877 1013 13       		.uleb128 0x13
 2878 1014 E7030000 		.4byte	.LASF375
 2879 1018 07       		.byte	0x7
 2880 1019 A6       		.byte	0xa6
 2881 101a 0D010000 		.4byte	0x10d
 2882 101e 6401     		.2byte	0x164
 2883 1020 13       		.uleb128 0x13
 2884 1021 C4010000 		.4byte	.LASF376
 2885 1025 07       		.byte	0x7
 2886 1026 A7       		.byte	0xa7
 2887 1027 311A0000 		.4byte	0x1a31
 2888 102b 6801     		.2byte	0x168
 2889 102d 13       		.uleb128 0x13
 2890 102e D3440000 		.4byte	.LASF377
 2891 1032 07       		.byte	0x7
 2892 1033 A8       		.byte	0xa8
 2893 1034 0D010000 		.4byte	0x10d
 2894 1038 7001     		.2byte	0x170
 2895 103a 13       		.uleb128 0x13
 2896 103b 84240000 		.4byte	.LASF378
 2897 103f 07       		.byte	0x7
 2898 1040 A9       		.byte	0xa9
 2899 1041 12010000 		.4byte	0x112
 2900 1045 7401     		.2byte	0x174
 2901 1047 13       		.uleb128 0x13
 2902 1048 942B0000 		.4byte	.LASF379
 2903 104c 07       		.byte	0x7
 2904 104d AA       		.byte	0xaa
 2905 104e 0D010000 		.4byte	0x10d
 2906 1052 7801     		.2byte	0x178
 2907 1054 13       		.uleb128 0x13
 2908 1055 CF010000 		.4byte	.LASF380
 2909 1059 07       		.byte	0x7
 2910 105a AB       		.byte	0xab
 2911 105b 3B1A0000 		.4byte	0x1a3b
 2912 105f 7C01     		.2byte	0x17c
 2913 1061 13       		.uleb128 0x13
 2914 1062 A2550000 		.4byte	.LASF381
 2915 1066 07       		.byte	0x7
 2916 1067 AC       		.byte	0xac
ARM GAS  C:\Users\JC\AppData\Local\Temp\ccNOiAvA.s 			page 82


 2917 1068 12010000 		.4byte	0x112
 2918 106c 8801     		.2byte	0x188
 2919 106e 13       		.uleb128 0x13
 2920 106f 6A020000 		.4byte	.LASF382
 2921 1073 07       		.byte	0x7
 2922 1074 AD       		.byte	0xad
 2923 1075 12010000 		.4byte	0x112
 2924 1079 8C01     		.2byte	0x18c
 2925 107b 13       		.uleb128 0x13
 2926 107c 1F560000 		.4byte	.LASF383
 2927 1080 07       		.byte	0x7
 2928 1081 AE       		.byte	0xae
 2929 1082 0D010000 		.4byte	0x10d
 2930 1086 9001     		.2byte	0x190
 2931 1088 13       		.uleb128 0x13
 2932 1089 75020000 		.4byte	.LASF384
 2933 108d 07       		.byte	0x7
 2934 108e AF       		.byte	0xaf
 2935 108f 451A0000 		.4byte	0x1a45
 2936 1093 9401     		.2byte	0x194
 2937 1095 13       		.uleb128 0x13
 2938 1096 46420000 		.4byte	.LASF385
 2939 109a 07       		.byte	0x7
 2940 109b B0       		.byte	0xb0
 2941 109c 0D010000 		.4byte	0x10d
 2942 10a0 A801     		.2byte	0x1a8
 2943 10a2 13       		.uleb128 0x13
 2944 10a3 12420000 		.4byte	.LASF386
 2945 10a7 07       		.byte	0x7
 2946 10a8 B1       		.byte	0xb1
 2947 10a9 0D010000 		.4byte	0x10d
 2948 10ad AC01     		.2byte	0x1ac
 2949 10af 13       		.uleb128 0x13
 2950 10b0 92120000 		.4byte	.LASF387
 2951 10b4 07       		.byte	0x7
 2952 10b5 B2       		.byte	0xb2
 2953 10b6 0D010000 		.4byte	0x10d
 2954 10ba B001     		.2byte	0x1b0
 2955 10bc 13       		.uleb128 0x13
 2956 10bd BE130000 		.4byte	.LASF388
 2957 10c1 07       		.byte	0x7
 2958 10c2 B3       		.byte	0xb3
 2959 10c3 0D010000 		.4byte	0x10d
 2960 10c7 B401     		.2byte	0x1b4
 2961 10c9 13       		.uleb128 0x13
 2962 10ca 674E0000 		.4byte	.LASF389
 2963 10ce 07       		.byte	0x7
 2964 10cf B4       		.byte	0xb4
 2965 10d0 0D010000 		.4byte	0x10d
 2966 10d4 B801     		.2byte	0x1b8
 2967 10d6 13       		.uleb128 0x13
 2968 10d7 C44E0000 		.4byte	.LASF390
 2969 10db 07       		.byte	0x7
 2970 10dc B5       		.byte	0xb5
 2971 10dd 0D010000 		.4byte	0x10d
 2972 10e1 BC01     		.2byte	0x1bc
 2973 10e3 13       		.uleb128 0x13
ARM GAS  C:\Users\JC\AppData\Local\Temp\ccNOiAvA.s 			page 83


 2974 10e4 4C060000 		.4byte	.LASF391
 2975 10e8 07       		.byte	0x7
 2976 10e9 B6       		.byte	0xb6
 2977 10ea 0D010000 		.4byte	0x10d
 2978 10ee C001     		.2byte	0x1c0
 2979 10f0 13       		.uleb128 0x13
 2980 10f1 5B060000 		.4byte	.LASF392
 2981 10f5 07       		.byte	0x7
 2982 10f6 B7       		.byte	0xb7
 2983 10f7 0D010000 		.4byte	0x10d
 2984 10fb C401     		.2byte	0x1c4
 2985 10fd 13       		.uleb128 0x13
 2986 10fe 3D060000 		.4byte	.LASF393
 2987 1102 07       		.byte	0x7
 2988 1103 B8       		.byte	0xb8
 2989 1104 0D010000 		.4byte	0x10d
 2990 1108 C801     		.2byte	0x1c8
 2991 110a 13       		.uleb128 0x13
 2992 110b 80020000 		.4byte	.LASF394
 2993 110f 07       		.byte	0x7
 2994 1110 B9       		.byte	0xb9
 2995 1111 12010000 		.4byte	0x112
 2996 1115 CC01     		.2byte	0x1cc
 2997 1117 13       		.uleb128 0x13
 2998 1118 96090000 		.4byte	.LASF395
 2999 111c 07       		.byte	0x7
 3000 111d BA       		.byte	0xba
 3001 111e 0D010000 		.4byte	0x10d
 3002 1122 D001     		.2byte	0x1d0
 3003 1124 13       		.uleb128 0x13
 3004 1125 561D0000 		.4byte	.LASF396
 3005 1129 07       		.byte	0x7
 3006 112a BB       		.byte	0xbb
 3007 112b 0D010000 		.4byte	0x10d
 3008 112f D401     		.2byte	0x1d4
 3009 1131 13       		.uleb128 0x13
 3010 1132 0B170000 		.4byte	.LASF397
 3011 1136 07       		.byte	0x7
 3012 1137 BC       		.byte	0xbc
 3013 1138 0D010000 		.4byte	0x10d
 3014 113c D801     		.2byte	0x1d8
 3015 113e 13       		.uleb128 0x13
 3016 113f FF160000 		.4byte	.LASF398
 3017 1143 07       		.byte	0x7
 3018 1144 BD       		.byte	0xbd
 3019 1145 0D010000 		.4byte	0x10d
 3020 1149 DC01     		.2byte	0x1dc
 3021 114b 13       		.uleb128 0x13
 3022 114c C5060000 		.4byte	.LASF399
 3023 1150 07       		.byte	0x7
 3024 1151 BE       		.byte	0xbe
 3025 1152 0D010000 		.4byte	0x10d
 3026 1156 E001     		.2byte	0x1e0
 3027 1158 13       		.uleb128 0x13
 3028 1159 8B020000 		.4byte	.LASF400
 3029 115d 07       		.byte	0x7
 3030 115e BF       		.byte	0xbf
ARM GAS  C:\Users\JC\AppData\Local\Temp\ccNOiAvA.s 			page 84


 3031 115f 12010000 		.4byte	0x112
 3032 1163 E401     		.2byte	0x1e4
 3033 1165 13       		.uleb128 0x13
 3034 1166 190E0000 		.4byte	.LASF401
 3035 116a 07       		.byte	0x7
 3036 116b C0       		.byte	0xc0
 3037 116c 0D010000 		.4byte	0x10d
 3038 1170 E801     		.2byte	0x1e8
 3039 1172 13       		.uleb128 0x13
 3040 1173 250E0000 		.4byte	.LASF402
 3041 1177 07       		.byte	0x7
 3042 1178 C1       		.byte	0xc1
 3043 1179 0D010000 		.4byte	0x10d
 3044 117d EC01     		.2byte	0x1ec
 3045 117f 13       		.uleb128 0x13
 3046 1180 64430000 		.4byte	.LASF403
 3047 1184 07       		.byte	0x7
 3048 1185 C2       		.byte	0xc2
 3049 1186 0D010000 		.4byte	0x10d
 3050 118a F001     		.2byte	0x1f0
 3051 118c 13       		.uleb128 0x13
 3052 118d 7D430000 		.4byte	.LASF404
 3053 1191 07       		.byte	0x7
 3054 1192 C3       		.byte	0xc3
 3055 1193 0D010000 		.4byte	0x10d
 3056 1197 F401     		.2byte	0x1f4
 3057 1199 13       		.uleb128 0x13
 3058 119a BF140000 		.4byte	.LASF405
 3059 119e 07       		.byte	0x7
 3060 119f C4       		.byte	0xc4
 3061 11a0 0D010000 		.4byte	0x10d
 3062 11a4 F801     		.2byte	0x1f8
 3063 11a6 13       		.uleb128 0x13
 3064 11a7 96020000 		.4byte	.LASF406
 3065 11ab 07       		.byte	0x7
 3066 11ac C5       		.byte	0xc5
 3067 11ad 12010000 		.4byte	0x112
 3068 11b1 FC01     		.2byte	0x1fc
 3069 11b3 13       		.uleb128 0x13
 3070 11b4 4F2E0000 		.4byte	.LASF407
 3071 11b8 07       		.byte	0x7
 3072 11b9 C6       		.byte	0xc6
 3073 11ba 12010000 		.4byte	0x112
 3074 11be 0002     		.2byte	0x200
 3075 11c0 13       		.uleb128 0x13
 3076 11c1 582E0000 		.4byte	.LASF408
 3077 11c5 07       		.byte	0x7
 3078 11c6 C7       		.byte	0xc7
 3079 11c7 12010000 		.4byte	0x112
 3080 11cb 0402     		.2byte	0x204
 3081 11cd 13       		.uleb128 0x13
 3082 11ce 612E0000 		.4byte	.LASF409
 3083 11d2 07       		.byte	0x7
 3084 11d3 C8       		.byte	0xc8
 3085 11d4 12010000 		.4byte	0x112
 3086 11d8 0802     		.2byte	0x208
 3087 11da 13       		.uleb128 0x13
ARM GAS  C:\Users\JC\AppData\Local\Temp\ccNOiAvA.s 			page 85


 3088 11db 6A2E0000 		.4byte	.LASF410
 3089 11df 07       		.byte	0x7
 3090 11e0 C9       		.byte	0xc9
 3091 11e1 12010000 		.4byte	0x112
 3092 11e5 0C02     		.2byte	0x20c
 3093 11e7 13       		.uleb128 0x13
 3094 11e8 732E0000 		.4byte	.LASF411
 3095 11ec 07       		.byte	0x7
 3096 11ed CA       		.byte	0xca
 3097 11ee 12010000 		.4byte	0x112
 3098 11f2 1002     		.2byte	0x210
 3099 11f4 13       		.uleb128 0x13
 3100 11f5 7C2E0000 		.4byte	.LASF412
 3101 11f9 07       		.byte	0x7
 3102 11fa CB       		.byte	0xcb
 3103 11fb 12010000 		.4byte	0x112
 3104 11ff 1402     		.2byte	0x214
 3105 1201 13       		.uleb128 0x13
 3106 1202 852E0000 		.4byte	.LASF413
 3107 1206 07       		.byte	0x7
 3108 1207 CC       		.byte	0xcc
 3109 1208 12010000 		.4byte	0x112
 3110 120c 1802     		.2byte	0x218
 3111 120e 13       		.uleb128 0x13
 3112 120f 8E2E0000 		.4byte	.LASF414
 3113 1213 07       		.byte	0x7
 3114 1214 CD       		.byte	0xcd
 3115 1215 12010000 		.4byte	0x112
 3116 1219 1C02     		.2byte	0x21c
 3117 121b 13       		.uleb128 0x13
 3118 121c 972E0000 		.4byte	.LASF415
 3119 1220 07       		.byte	0x7
 3120 1221 CE       		.byte	0xce
 3121 1222 12010000 		.4byte	0x112
 3122 1226 2002     		.2byte	0x220
 3123 1228 13       		.uleb128 0x13
 3124 1229 99270000 		.4byte	.LASF416
 3125 122d 07       		.byte	0x7
 3126 122e CF       		.byte	0xcf
 3127 122f 12010000 		.4byte	0x112
 3128 1233 2402     		.2byte	0x224
 3129 1235 13       		.uleb128 0x13
 3130 1236 A1020000 		.4byte	.LASF417
 3131 123a 07       		.byte	0x7
 3132 123b D0       		.byte	0xd0
 3133 123c 4F1A0000 		.4byte	0x1a4f
 3134 1240 2802     		.2byte	0x228
 3135 1242 13       		.uleb128 0x13
 3136 1243 2C0D0000 		.4byte	.LASF418
 3137 1247 07       		.byte	0x7
 3138 1248 D1       		.byte	0xd1
 3139 1249 0D010000 		.4byte	0x10d
 3140 124d 3002     		.2byte	0x230
 3141 124f 13       		.uleb128 0x13
 3142 1250 3D0D0000 		.4byte	.LASF419
 3143 1254 07       		.byte	0x7
 3144 1255 D2       		.byte	0xd2
ARM GAS  C:\Users\JC\AppData\Local\Temp\ccNOiAvA.s 			page 86


 3145 1256 0D010000 		.4byte	0x10d
 3146 125a 3402     		.2byte	0x234
 3147 125c 13       		.uleb128 0x13
 3148 125d 1B0D0000 		.4byte	.LASF420
 3149 1261 07       		.byte	0x7
 3150 1262 D3       		.byte	0xd3
 3151 1263 0D010000 		.4byte	0x10d
 3152 1267 3802     		.2byte	0x238
 3153 1269 13       		.uleb128 0x13
 3154 126a F1470000 		.4byte	.LASF421
 3155 126e 07       		.byte	0x7
 3156 126f D4       		.byte	0xd4
 3157 1270 0D010000 		.4byte	0x10d
 3158 1274 3C02     		.2byte	0x23c
 3159 1276 13       		.uleb128 0x13
 3160 1277 05480000 		.4byte	.LASF422
 3161 127b 07       		.byte	0x7
 3162 127c D6       		.byte	0xd6
 3163 127d 0D010000 		.4byte	0x10d
 3164 1281 4002     		.2byte	0x240
 3165 1283 13       		.uleb128 0x13
 3166 1284 DD470000 		.4byte	.LASF423
 3167 1288 07       		.byte	0x7
 3168 1289 D8       		.byte	0xd8
 3169 128a 0D010000 		.4byte	0x10d
 3170 128e 4402     		.2byte	0x244
 3171 1290 13       		.uleb128 0x13
 3172 1291 40270000 		.4byte	.LASF424
 3173 1295 07       		.byte	0x7
 3174 1296 DA       		.byte	0xda
 3175 1297 0D010000 		.4byte	0x10d
 3176 129b 4802     		.2byte	0x248
 3177 129d 13       		.uleb128 0x13
 3178 129e 17300000 		.4byte	.LASF425
 3179 12a2 07       		.byte	0x7
 3180 12a3 DB       		.byte	0xdb
 3181 12a4 0D010000 		.4byte	0x10d
 3182 12a8 4C02     		.2byte	0x24c
 3183 12aa 13       		.uleb128 0x13
 3184 12ab AC020000 		.4byte	.LASF426
 3185 12af 07       		.byte	0x7
 3186 12b0 DC       		.byte	0xdc
 3187 12b1 591A0000 		.4byte	0x1a59
 3188 12b5 5002     		.2byte	0x250
 3189 12b7 13       		.uleb128 0x13
 3190 12b8 DC1C0000 		.4byte	.LASF427
 3191 12bc 07       		.byte	0x7
 3192 12bd DD       		.byte	0xdd
 3193 12be 0D010000 		.4byte	0x10d
 3194 12c2 5802     		.2byte	0x258
 3195 12c4 13       		.uleb128 0x13
 3196 12c5 B7020000 		.4byte	.LASF428
 3197 12c9 07       		.byte	0x7
 3198 12ca DE       		.byte	0xde
 3199 12cb 12010000 		.4byte	0x112
 3200 12cf 5C02     		.2byte	0x25c
 3201 12d1 13       		.uleb128 0x13
ARM GAS  C:\Users\JC\AppData\Local\Temp\ccNOiAvA.s 			page 87


 3202 12d2 563F0000 		.4byte	.LASF429
 3203 12d6 07       		.byte	0x7
 3204 12d7 DF       		.byte	0xdf
 3205 12d8 0D010000 		.4byte	0x10d
 3206 12dc 6002     		.2byte	0x260
 3207 12de 13       		.uleb128 0x13
 3208 12df 19350000 		.4byte	.LASF430
 3209 12e3 07       		.byte	0x7
 3210 12e4 E0       		.byte	0xe0
 3211 12e5 12010000 		.4byte	0x112
 3212 12e9 6402     		.2byte	0x264
 3213 12eb 13       		.uleb128 0x13
 3214 12ec 3E480000 		.4byte	.LASF431
 3215 12f0 07       		.byte	0x7
 3216 12f1 E1       		.byte	0xe1
 3217 12f2 12010000 		.4byte	0x112
 3218 12f6 6802     		.2byte	0x268
 3219 12f8 13       		.uleb128 0x13
 3220 12f9 4F300000 		.4byte	.LASF432
 3221 12fd 07       		.byte	0x7
 3222 12fe E2       		.byte	0xe2
 3223 12ff 731A0000 		.4byte	0x1a73
 3224 1303 6C02     		.2byte	0x26c
 3225 1305 13       		.uleb128 0x13
 3226 1306 551A0000 		.4byte	.LASF433
 3227 130a 07       		.byte	0x7
 3228 130b E3       		.byte	0xe3
 3229 130c 0D010000 		.4byte	0x10d
 3230 1310 A403     		.2byte	0x3a4
 3231 1312 13       		.uleb128 0x13
 3232 1313 09570000 		.4byte	.LASF434
 3233 1317 07       		.byte	0x7
 3234 1318 E4       		.byte	0xe4
 3235 1319 0D010000 		.4byte	0x10d
 3236 131d A803     		.2byte	0x3a8
 3237 131f 13       		.uleb128 0x13
 3238 1320 B5470000 		.4byte	.LASF435
 3239 1324 07       		.byte	0x7
 3240 1325 E5       		.byte	0xe5
 3241 1326 0D010000 		.4byte	0x10d
 3242 132a AC03     		.2byte	0x3ac
 3243 132c 13       		.uleb128 0x13
 3244 132d F7230000 		.4byte	.LASF436
 3245 1331 07       		.byte	0x7
 3246 1332 E6       		.byte	0xe6
 3247 1333 0D010000 		.4byte	0x10d
 3248 1337 B003     		.2byte	0x3b0
 3249 1339 13       		.uleb128 0x13
 3250 133a D7020000 		.4byte	.LASF437
 3251 133e 07       		.byte	0x7
 3252 133f E7       		.byte	0xe7
 3253 1340 7D1A0000 		.4byte	0x1a7d
 3254 1344 B403     		.2byte	0x3b4
 3255 1346 13       		.uleb128 0x13
 3256 1347 58180000 		.4byte	.LASF438
 3257 134b 07       		.byte	0x7
 3258 134c E8       		.byte	0xe8
ARM GAS  C:\Users\JC\AppData\Local\Temp\ccNOiAvA.s 			page 88


 3259 134d 0D010000 		.4byte	0x10d
 3260 1351 C003     		.2byte	0x3c0
 3261 1353 13       		.uleb128 0x13
 3262 1354 67180000 		.4byte	.LASF439
 3263 1358 07       		.byte	0x7
 3264 1359 E9       		.byte	0xe9
 3265 135a 0D010000 		.4byte	0x10d
 3266 135e C403     		.2byte	0x3c4
 3267 1360 13       		.uleb128 0x13
 3268 1361 76180000 		.4byte	.LASF440
 3269 1365 07       		.byte	0x7
 3270 1366 EA       		.byte	0xea
 3271 1367 0D010000 		.4byte	0x10d
 3272 136b C803     		.2byte	0x3c8
 3273 136d 13       		.uleb128 0x13
 3274 136e 85180000 		.4byte	.LASF441
 3275 1372 07       		.byte	0x7
 3276 1373 EB       		.byte	0xeb
 3277 1374 0D010000 		.4byte	0x10d
 3278 1378 CC03     		.2byte	0x3cc
 3279 137a 13       		.uleb128 0x13
 3280 137b 94180000 		.4byte	.LASF442
 3281 137f 07       		.byte	0x7
 3282 1380 EC       		.byte	0xec
 3283 1381 0D010000 		.4byte	0x10d
 3284 1385 D003     		.2byte	0x3d0
 3285 1387 13       		.uleb128 0x13
 3286 1388 A3180000 		.4byte	.LASF443
 3287 138c 07       		.byte	0x7
 3288 138d ED       		.byte	0xed
 3289 138e 0D010000 		.4byte	0x10d
 3290 1392 D403     		.2byte	0x3d4
 3291 1394 13       		.uleb128 0x13
 3292 1395 B2180000 		.4byte	.LASF444
 3293 1399 07       		.byte	0x7
 3294 139a EE       		.byte	0xee
 3295 139b 0D010000 		.4byte	0x10d
 3296 139f D803     		.2byte	0x3d8
 3297 13a1 13       		.uleb128 0x13
 3298 13a2 C1180000 		.4byte	.LASF445
 3299 13a6 07       		.byte	0x7
 3300 13a7 EF       		.byte	0xef
 3301 13a8 0D010000 		.4byte	0x10d
 3302 13ac DC03     		.2byte	0x3dc
 3303 13ae 13       		.uleb128 0x13
 3304 13af D0180000 		.4byte	.LASF446
 3305 13b3 07       		.byte	0x7
 3306 13b4 F0       		.byte	0xf0
 3307 13b5 0D010000 		.4byte	0x10d
 3308 13b9 E003     		.2byte	0x3e0
 3309 13bb 13       		.uleb128 0x13
 3310 13bc DF180000 		.4byte	.LASF447
 3311 13c0 07       		.byte	0x7
 3312 13c1 F1       		.byte	0xf1
 3313 13c2 0D010000 		.4byte	0x10d
 3314 13c6 E403     		.2byte	0x3e4
 3315 13c8 13       		.uleb128 0x13
ARM GAS  C:\Users\JC\AppData\Local\Temp\ccNOiAvA.s 			page 89


 3316 13c9 464D0000 		.4byte	.LASF448
 3317 13cd 07       		.byte	0x7
 3318 13ce F2       		.byte	0xf2
 3319 13cf 0D010000 		.4byte	0x10d
 3320 13d3 E803     		.2byte	0x3e8
 3321 13d5 13       		.uleb128 0x13
 3322 13d6 564D0000 		.4byte	.LASF449
 3323 13da 07       		.byte	0x7
 3324 13db F3       		.byte	0xf3
 3325 13dc 0D010000 		.4byte	0x10d
 3326 13e0 EC03     		.2byte	0x3ec
 3327 13e2 13       		.uleb128 0x13
 3328 13e3 4F030000 		.4byte	.LASF450
 3329 13e7 07       		.byte	0x7
 3330 13e8 F4       		.byte	0xf4
 3331 13e9 981A0000 		.4byte	0x1a98
 3332 13ed F003     		.2byte	0x3f0
 3333 13ef 13       		.uleb128 0x13
 3334 13f0 6D100000 		.4byte	.LASF451
 3335 13f4 07       		.byte	0x7
 3336 13f5 F5       		.byte	0xf5
 3337 13f6 0D010000 		.4byte	0x10d
 3338 13fa 040A     		.2byte	0xa04
 3339 13fc 13       		.uleb128 0x13
 3340 13fd 67250000 		.4byte	.LASF452
 3341 1401 07       		.byte	0x7
 3342 1402 F6       		.byte	0xf6
 3343 1403 12010000 		.4byte	0x112
 3344 1407 080A     		.2byte	0xa08
 3345 1409 13       		.uleb128 0x13
 3346 140a A3280000 		.4byte	.LASF453
 3347 140e 07       		.byte	0x7
 3348 140f F7       		.byte	0xf7
 3349 1410 12010000 		.4byte	0x112
 3350 1414 0C0A     		.2byte	0xa0c
 3351 1416 13       		.uleb128 0x13
 3352 1417 9A2A0000 		.4byte	.LASF454
 3353 141b 07       		.byte	0x7
 3354 141c F8       		.byte	0xf8
 3355 141d 0D010000 		.4byte	0x10d
 3356 1421 100A     		.2byte	0xa10
 3357 1423 13       		.uleb128 0x13
 3358 1424 5C080000 		.4byte	.LASF455
 3359 1428 07       		.byte	0x7
 3360 1429 F9       		.byte	0xf9
 3361 142a 0D010000 		.4byte	0x10d
 3362 142e 140A     		.2byte	0xa14
 3363 1430 13       		.uleb128 0x13
 3364 1431 9F510000 		.4byte	.LASF456
 3365 1435 07       		.byte	0x7
 3366 1436 FA       		.byte	0xfa
 3367 1437 0D010000 		.4byte	0x10d
 3368 143b 180A     		.2byte	0xa18
 3369 143d 13       		.uleb128 0x13
 3370 143e 9A3A0000 		.4byte	.LASF457
 3371 1442 07       		.byte	0x7
 3372 1443 FB       		.byte	0xfb
ARM GAS  C:\Users\JC\AppData\Local\Temp\ccNOiAvA.s 			page 90


 3373 1444 0D010000 		.4byte	0x10d
 3374 1448 1C0A     		.2byte	0xa1c
 3375 144a 13       		.uleb128 0x13
 3376 144b DC2E0000 		.4byte	.LASF458
 3377 144f 07       		.byte	0x7
 3378 1450 FC       		.byte	0xfc
 3379 1451 0D010000 		.4byte	0x10d
 3380 1455 200A     		.2byte	0xa20
 3381 1457 13       		.uleb128 0x13
 3382 1458 F7380000 		.4byte	.LASF459
 3383 145c 07       		.byte	0x7
 3384 145d FD       		.byte	0xfd
 3385 145e 0D010000 		.4byte	0x10d
 3386 1462 240A     		.2byte	0xa24
 3387 1464 13       		.uleb128 0x13
 3388 1465 3E1B0000 		.4byte	.LASF460
 3389 1469 07       		.byte	0x7
 3390 146a FE       		.byte	0xfe
 3391 146b 12010000 		.4byte	0x112
 3392 146f 280A     		.2byte	0xa28
 3393 1471 13       		.uleb128 0x13
 3394 1472 B11E0000 		.4byte	.LASF461
 3395 1476 07       		.byte	0x7
 3396 1477 FF       		.byte	0xff
 3397 1478 12010000 		.4byte	0x112
 3398 147c 2C0A     		.2byte	0xa2c
 3399 147e 15       		.uleb128 0x15
 3400 147f 5A030000 		.4byte	.LASF462
 3401 1483 07       		.byte	0x7
 3402 1484 0001     		.2byte	0x100
 3403 1486 B21A0000 		.4byte	0x1ab2
 3404 148a 300A     		.2byte	0xa30
 3405 148c 15       		.uleb128 0x15
 3406 148d 0F1D0000 		.4byte	.LASF463
 3407 1491 07       		.byte	0x7
 3408 1492 0101     		.2byte	0x101
 3409 1494 0D010000 		.4byte	0x10d
 3410 1498 000E     		.2byte	0xe00
 3411 149a 15       		.uleb128 0x15
 3412 149b DC360000 		.4byte	.LASF464
 3413 149f 07       		.byte	0x7
 3414 14a0 0201     		.2byte	0x102
 3415 14a2 0D010000 		.4byte	0x10d
 3416 14a6 040E     		.2byte	0xe04
 3417 14a8 15       		.uleb128 0x15
 3418 14a9 A54E0000 		.4byte	.LASF465
 3419 14ad 07       		.byte	0x7
 3420 14ae 0301     		.2byte	0x103
 3421 14b0 0D010000 		.4byte	0x10d
 3422 14b4 080E     		.2byte	0xe08
 3423 14b6 15       		.uleb128 0x15
 3424 14b7 65030000 		.4byte	.LASF466
 3425 14bb 07       		.byte	0x7
 3426 14bc 0401     		.2byte	0x104
 3427 14be 12010000 		.4byte	0x112
 3428 14c2 0C0E     		.2byte	0xe0c
 3429 14c4 15       		.uleb128 0x15
ARM GAS  C:\Users\JC\AppData\Local\Temp\ccNOiAvA.s 			page 91


 3430 14c5 FC3D0000 		.4byte	.LASF467
 3431 14c9 07       		.byte	0x7
 3432 14ca 0501     		.2byte	0x105
 3433 14cc 0D010000 		.4byte	0x10d
 3434 14d0 100E     		.2byte	0xe10
 3435 14d2 15       		.uleb128 0x15
 3436 14d3 70030000 		.4byte	.LASF468
 3437 14d7 07       		.byte	0x7
 3438 14d8 0601     		.2byte	0x106
 3439 14da BC1A0000 		.4byte	0x1abc
 3440 14de 140E     		.2byte	0xe14
 3441 14e0 15       		.uleb128 0x15
 3442 14e1 89060000 		.4byte	.LASF469
 3443 14e5 07       		.byte	0x7
 3444 14e6 0701     		.2byte	0x107
 3445 14e8 0D010000 		.4byte	0x10d
 3446 14ec 000F     		.2byte	0xf00
 3447 14ee 15       		.uleb128 0x15
 3448 14ef 69500000 		.4byte	.LASF470
 3449 14f3 07       		.byte	0x7
 3450 14f4 0801     		.2byte	0x108
 3451 14f6 0D010000 		.4byte	0x10d
 3452 14fa 040F     		.2byte	0xf04
 3453 14fc 15       		.uleb128 0x15
 3454 14fd 77500000 		.4byte	.LASF471
 3455 1501 07       		.byte	0x7
 3456 1502 0901     		.2byte	0x109
 3457 1504 0D010000 		.4byte	0x10d
 3458 1508 080F     		.2byte	0xf08
 3459 150a 15       		.uleb128 0x15
 3460 150b 5B500000 		.4byte	.LASF472
 3461 150f 07       		.byte	0x7
 3462 1510 0B01     		.2byte	0x10b
 3463 1512 0D010000 		.4byte	0x10d
 3464 1516 0C0F     		.2byte	0xf0c
 3465 1518 15       		.uleb128 0x15
 3466 1519 70170000 		.4byte	.LASF473
 3467 151d 07       		.byte	0x7
 3468 151e 0D01     		.2byte	0x10d
 3469 1520 C11A0000 		.4byte	0x1ac1
 3470 1524 100F     		.2byte	0xf10
 3471 1526 15       		.uleb128 0x15
 3472 1527 7B030000 		.4byte	.LASF474
 3473 152b 07       		.byte	0x7
 3474 152c 0E01     		.2byte	0x10e
 3475 152e DB1A0000 		.4byte	0x1adb
 3476 1532 500F     		.2byte	0xf50
 3477 1534 15       		.uleb128 0x15
 3478 1535 BD230000 		.4byte	.LASF475
 3479 1539 07       		.byte	0x7
 3480 153a 0F01     		.2byte	0x10f
 3481 153c 0D010000 		.4byte	0x10d
 3482 1540 A00F     		.2byte	0xfa0
 3483 1542 15       		.uleb128 0x15
 3484 1543 86030000 		.4byte	.LASF476
 3485 1547 07       		.byte	0x7
 3486 1548 1001     		.2byte	0x110
ARM GAS  C:\Users\JC\AppData\Local\Temp\ccNOiAvA.s 			page 92


 3487 154a F61A0000 		.4byte	0x1af6
 3488 154e A40F     		.2byte	0xfa4
 3489 1550 15       		.uleb128 0x15
 3490 1551 730C0000 		.4byte	.LASF477
 3491 1555 07       		.byte	0x7
 3492 1556 1101     		.2byte	0x111
 3493 1558 0D010000 		.4byte	0x10d
 3494 155c 0018     		.2byte	0x1800
 3495 155e 15       		.uleb128 0x15
 3496 155f 91030000 		.4byte	.LASF478
 3497 1563 07       		.byte	0x7
 3498 1564 1201     		.2byte	0x112
 3499 1566 001B0000 		.4byte	0x1b00
 3500 156a 0418     		.2byte	0x1804
 3501 156c 15       		.uleb128 0x15
 3502 156d E60B0000 		.4byte	.LASF479
 3503 1571 07       		.byte	0x7
 3504 1572 1301     		.2byte	0x113
 3505 1574 0D010000 		.4byte	0x10d
 3506 1578 0028     		.2byte	0x2800
 3507 157a 15       		.uleb128 0x15
 3508 157b 9C030000 		.4byte	.LASF480
 3509 157f 07       		.byte	0x7
 3510 1580 1401     		.2byte	0x114
 3511 1582 1B1B0000 		.4byte	0x1b1b
 3512 1586 0428     		.2byte	0x2804
 3513 1588 16       		.uleb128 0x16
 3514 1589 FA500000 		.4byte	.LASF481
 3515 158d 07       		.byte	0x7
 3516 158e 1501     		.2byte	0x115
 3517 1590 0D010000 		.4byte	0x10d
 3518 1594 00280100 		.4byte	0x12800
 3519 1598 16       		.uleb128 0x16
 3520 1599 A7030000 		.4byte	.LASF482
 3521 159d 07       		.byte	0x7
 3522 159e 1601     		.2byte	0x116
 3523 15a0 251B0000 		.4byte	0x1b25
 3524 15a4 04280100 		.4byte	0x12804
 3525 15a8 16       		.uleb128 0x16
 3526 15a9 26160000 		.4byte	.LASF483
 3527 15ad 07       		.byte	0x7
 3528 15ae 1701     		.2byte	0x117
 3529 15b0 0D010000 		.4byte	0x10d
 3530 15b4 80280100 		.4byte	0x12880
 3531 15b8 16       		.uleb128 0x16
 3532 15b9 B2030000 		.4byte	.LASF484
 3533 15bd 07       		.byte	0x7
 3534 15be 1801     		.2byte	0x118
 3535 15c0 2F1B0000 		.4byte	0x1b2f
 3536 15c4 84280100 		.4byte	0x12884
 3537 15c8 16       		.uleb128 0x16
 3538 15c9 96350000 		.4byte	.LASF485
 3539 15cd 07       		.byte	0x7
 3540 15ce 1901     		.2byte	0x119
 3541 15d0 0D010000 		.4byte	0x10d
 3542 15d4 00290100 		.4byte	0x12900
 3543 15d8 16       		.uleb128 0x16
ARM GAS  C:\Users\JC\AppData\Local\Temp\ccNOiAvA.s 			page 93


 3544 15d9 3B040000 		.4byte	.LASF486
 3545 15dd 07       		.byte	0x7
 3546 15de 1A01     		.2byte	0x11a
 3547 15e0 391B0000 		.4byte	0x1b39
 3548 15e4 04290100 		.4byte	0x12904
 3549 15e8 16       		.uleb128 0x16
 3550 15e9 A3520000 		.4byte	.LASF487
 3551 15ed 07       		.byte	0x7
 3552 15ee 1B01     		.2byte	0x11b
 3553 15f0 0D010000 		.4byte	0x10d
 3554 15f4 80290100 		.4byte	0x12980
 3555 15f8 16       		.uleb128 0x16
 3556 15f9 46040000 		.4byte	.LASF488
 3557 15fd 07       		.byte	0x7
 3558 15fe 1C01     		.2byte	0x11c
 3559 1600 541B0000 		.4byte	0x1b54
 3560 1604 84290100 		.4byte	0x12984
 3561 1608 16       		.uleb128 0x16
 3562 1609 C10B0000 		.4byte	.LASF489
 3563 160d 07       		.byte	0x7
 3564 160e 1D01     		.2byte	0x11d
 3565 1610 0D010000 		.4byte	0x10d
 3566 1614 00400100 		.4byte	0x14000
 3567 1618 16       		.uleb128 0x16
 3568 1619 70550000 		.4byte	.LASF490
 3569 161d 07       		.byte	0x7
 3570 161e 1E01     		.2byte	0x11e
 3571 1620 0D010000 		.4byte	0x10d
 3572 1624 04400100 		.4byte	0x14004
 3573 1628 16       		.uleb128 0x16
 3574 1629 AF570000 		.4byte	.LASF491
 3575 162d 07       		.byte	0x7
 3576 162e 1F01     		.2byte	0x11f
 3577 1630 0D010000 		.4byte	0x10d
 3578 1634 08400100 		.4byte	0x14008
 3579 1638 16       		.uleb128 0x16
 3580 1639 3F0C0000 		.4byte	.LASF492
 3581 163d 07       		.byte	0x7
 3582 163e 2001     		.2byte	0x120
 3583 1640 0D010000 		.4byte	0x10d
 3584 1644 0C400100 		.4byte	0x1400c
 3585 1648 16       		.uleb128 0x16
 3586 1649 51040000 		.4byte	.LASF493
 3587 164d 07       		.byte	0x7
 3588 164e 2101     		.2byte	0x121
 3589 1650 5E1B0000 		.4byte	0x1b5e
 3590 1654 10400100 		.4byte	0x14010
 3591 1658 16       		.uleb128 0x16
 3592 1659 C42F0000 		.4byte	.LASF494
 3593 165d 07       		.byte	0x7
 3594 165e 2201     		.2byte	0x122
 3595 1660 12010000 		.4byte	0x112
 3596 1664 20400100 		.4byte	0x14020
 3597 1668 16       		.uleb128 0x16
 3598 1669 4D3E0000 		.4byte	.LASF495
 3599 166d 07       		.byte	0x7
 3600 166e 2301     		.2byte	0x123
ARM GAS  C:\Users\JC\AppData\Local\Temp\ccNOiAvA.s 			page 94


 3601 1670 12010000 		.4byte	0x112
 3602 1674 24400100 		.4byte	0x14024
 3603 1678 16       		.uleb128 0x16
 3604 1679 2E560000 		.4byte	.LASF496
 3605 167d 07       		.byte	0x7
 3606 167e 2401     		.2byte	0x124
 3607 1680 12010000 		.4byte	0x112
 3608 1684 28400100 		.4byte	0x14028
 3609 1688 16       		.uleb128 0x16
 3610 1689 8C0C0000 		.4byte	.LASF497
 3611 168d 07       		.byte	0x7
 3612 168e 2501     		.2byte	0x125
 3613 1690 12010000 		.4byte	0x112
 3614 1694 2C400100 		.4byte	0x1402c
 3615 1698 16       		.uleb128 0x16
 3616 1699 99200000 		.4byte	.LASF498
 3617 169d 07       		.byte	0x7
 3618 169e 2601     		.2byte	0x126
 3619 16a0 12010000 		.4byte	0x112
 3620 16a4 30400100 		.4byte	0x14030
 3621 16a8 16       		.uleb128 0x16
 3622 16a9 14130000 		.4byte	.LASF499
 3623 16ad 07       		.byte	0x7
 3624 16ae 2701     		.2byte	0x127
 3625 16b0 12010000 		.4byte	0x112
 3626 16b4 34400100 		.4byte	0x14034
 3627 16b8 16       		.uleb128 0x16
 3628 16b9 862F0000 		.4byte	.LASF500
 3629 16bd 07       		.byte	0x7
 3630 16be 2801     		.2byte	0x128
 3631 16c0 12010000 		.4byte	0x112
 3632 16c4 38400100 		.4byte	0x14038
 3633 16c8 16       		.uleb128 0x16
 3634 16c9 9D260000 		.4byte	.LASF501
 3635 16cd 07       		.byte	0x7
 3636 16ce 2901     		.2byte	0x129
 3637 16d0 12010000 		.4byte	0x112
 3638 16d4 3C400100 		.4byte	0x1403c
 3639 16d8 16       		.uleb128 0x16
 3640 16d9 AE320000 		.4byte	.LASF502
 3641 16dd 07       		.byte	0x7
 3642 16de 2A01     		.2byte	0x12a
 3643 16e0 0D010000 		.4byte	0x10d
 3644 16e4 40400100 		.4byte	0x14040
 3645 16e8 16       		.uleb128 0x16
 3646 16e9 29210000 		.4byte	.LASF503
 3647 16ed 07       		.byte	0x7
 3648 16ee 2B01     		.2byte	0x12b
 3649 16f0 12010000 		.4byte	0x112
 3650 16f4 44400100 		.4byte	0x14044
 3651 16f8 16       		.uleb128 0x16
 3652 16f9 F9220000 		.4byte	.LASF504
 3653 16fd 07       		.byte	0x7
 3654 16fe 2C01     		.2byte	0x12c
 3655 1700 0D010000 		.4byte	0x10d
 3656 1704 48400100 		.4byte	0x14048
 3657 1708 16       		.uleb128 0x16
ARM GAS  C:\Users\JC\AppData\Local\Temp\ccNOiAvA.s 			page 95


 3658 1709 EE140000 		.4byte	.LASF505
 3659 170d 07       		.byte	0x7
 3660 170e 2D01     		.2byte	0x12d
 3661 1710 12010000 		.4byte	0x112
 3662 1714 4C400100 		.4byte	0x1404c
 3663 1718 16       		.uleb128 0x16
 3664 1719 5C040000 		.4byte	.LASF506
 3665 171d 07       		.byte	0x7
 3666 171e 2E01     		.2byte	0x12e
 3667 1720 681B0000 		.4byte	0x1b68
 3668 1724 50400100 		.4byte	0x14050
 3669 1728 16       		.uleb128 0x16
 3670 1729 13080000 		.4byte	.LASF507
 3671 172d 07       		.byte	0x7
 3672 172e 2F01     		.2byte	0x12f
 3673 1730 12010000 		.4byte	0x112
 3674 1734 80400100 		.4byte	0x14080
 3675 1738 16       		.uleb128 0x16
 3676 1739 FC400000 		.4byte	.LASF508
 3677 173d 07       		.byte	0x7
 3678 173e 3001     		.2byte	0x130
 3679 1740 12010000 		.4byte	0x112
 3680 1744 84400100 		.4byte	0x14084
 3681 1748 16       		.uleb128 0x16
 3682 1749 CB450000 		.4byte	.LASF509
 3683 174d 07       		.byte	0x7
 3684 174e 3101     		.2byte	0x131
 3685 1750 12010000 		.4byte	0x112
 3686 1754 88400100 		.4byte	0x14088
 3687 1758 16       		.uleb128 0x16
 3688 1759 67040000 		.4byte	.LASF510
 3689 175d 07       		.byte	0x7
 3690 175e 3201     		.2byte	0x132
 3691 1760 721B0000 		.4byte	0x1b72
 3692 1764 8C400100 		.4byte	0x1408c
 3693 1768 16       		.uleb128 0x16
 3694 1769 721E0000 		.4byte	.LASF511
 3695 176d 07       		.byte	0x7
 3696 176e 3301     		.2byte	0x133
 3697 1770 771B0000 		.4byte	0x1b77
 3698 1774 00410100 		.4byte	0x14100
 3699 1778 16       		.uleb128 0x16
 3700 1779 72040000 		.4byte	.LASF512
 3701 177d 07       		.byte	0x7
 3702 177e 3401     		.2byte	0x134
 3703 1780 811B0000 		.4byte	0x1b81
 3704 1784 40410100 		.4byte	0x14140
 3705 1788 16       		.uleb128 0x16
 3706 1789 3A370000 		.4byte	.LASF513
 3707 178d 07       		.byte	0x7
 3708 178e 3501     		.2byte	0x135
 3709 1790 0D010000 		.4byte	0x10d
 3710 1794 00420100 		.4byte	0x14200
 3711 1798 16       		.uleb128 0x16
 3712 1799 39090000 		.4byte	.LASF514
 3713 179d 07       		.byte	0x7
 3714 179e 3601     		.2byte	0x136
ARM GAS  C:\Users\JC\AppData\Local\Temp\ccNOiAvA.s 			page 96


 3715 17a0 0D010000 		.4byte	0x10d
 3716 17a4 04420100 		.4byte	0x14204
 3717 17a8 16       		.uleb128 0x16
 3718 17a9 AF190000 		.4byte	.LASF515
 3719 17ad 07       		.byte	0x7
 3720 17ae 3701     		.2byte	0x137
 3721 17b0 0D010000 		.4byte	0x10d
 3722 17b4 08420100 		.4byte	0x14208
 3723 17b8 16       		.uleb128 0x16
 3724 17b9 7D040000 		.4byte	.LASF516
 3725 17bd 07       		.byte	0x7
 3726 17be 3801     		.2byte	0x138
 3727 17c0 12010000 		.4byte	0x112
 3728 17c4 0C420100 		.4byte	0x1420c
 3729 17c8 16       		.uleb128 0x16
 3730 17c9 B9090000 		.4byte	.LASF517
 3731 17cd 07       		.byte	0x7
 3732 17ce 3901     		.2byte	0x139
 3733 17d0 0D010000 		.4byte	0x10d
 3734 17d4 10420100 		.4byte	0x14210
 3735 17d8 16       		.uleb128 0x16
 3736 17d9 20550000 		.4byte	.LASF518
 3737 17dd 07       		.byte	0x7
 3738 17de 3A01     		.2byte	0x13a
 3739 17e0 0D010000 		.4byte	0x10d
 3740 17e4 14420100 		.4byte	0x14214
 3741 17e8 16       		.uleb128 0x16
 3742 17e9 44280000 		.4byte	.LASF519
 3743 17ed 07       		.byte	0x7
 3744 17ee 3B01     		.2byte	0x13b
 3745 17f0 0D010000 		.4byte	0x10d
 3746 17f4 18420100 		.4byte	0x14218
 3747 17f8 16       		.uleb128 0x16
 3748 17f9 88040000 		.4byte	.LASF520
 3749 17fd 07       		.byte	0x7
 3750 17fe 3C01     		.2byte	0x13c
 3751 1800 12010000 		.4byte	0x112
 3752 1804 1C420100 		.4byte	0x1421c
 3753 1808 16       		.uleb128 0x16
 3754 1809 01380000 		.4byte	.LASF521
 3755 180d 07       		.byte	0x7
 3756 180e 3D01     		.2byte	0x13d
 3757 1810 0D010000 		.4byte	0x10d
 3758 1814 20420100 		.4byte	0x14220
 3759 1818 16       		.uleb128 0x16
 3760 1819 1A400000 		.4byte	.LASF522
 3761 181d 07       		.byte	0x7
 3762 181e 3E01     		.2byte	0x13e
 3763 1820 0D010000 		.4byte	0x10d
 3764 1824 24420100 		.4byte	0x14224
 3765 1828 16       		.uleb128 0x16
 3766 1829 173A0000 		.4byte	.LASF523
 3767 182d 07       		.byte	0x7
 3768 182e 3F01     		.2byte	0x13f
 3769 1830 0D010000 		.4byte	0x10d
 3770 1834 28420100 		.4byte	0x14228
 3771 1838 16       		.uleb128 0x16
ARM GAS  C:\Users\JC\AppData\Local\Temp\ccNOiAvA.s 			page 97


 3772 1839 93040000 		.4byte	.LASF524
 3773 183d 07       		.byte	0x7
 3774 183e 4001     		.2byte	0x140
 3775 1840 12010000 		.4byte	0x112
 3776 1844 2C420100 		.4byte	0x1422c
 3777 1848 16       		.uleb128 0x16
 3778 1849 7C0A0000 		.4byte	.LASF525
 3779 184d 07       		.byte	0x7
 3780 184e 4101     		.2byte	0x141
 3781 1850 0D010000 		.4byte	0x10d
 3782 1854 30420100 		.4byte	0x14230
 3783 1858 16       		.uleb128 0x16
 3784 1859 9D080000 		.4byte	.LASF526
 3785 185d 07       		.byte	0x7
 3786 185e 4201     		.2byte	0x142
 3787 1860 0D010000 		.4byte	0x10d
 3788 1864 34420100 		.4byte	0x14234
 3789 1868 16       		.uleb128 0x16
 3790 1869 504A0000 		.4byte	.LASF527
 3791 186d 07       		.byte	0x7
 3792 186e 4301     		.2byte	0x143
 3793 1870 0D010000 		.4byte	0x10d
 3794 1874 38420100 		.4byte	0x14238
 3795 1878 16       		.uleb128 0x16
 3796 1879 9E040000 		.4byte	.LASF528
 3797 187d 07       		.byte	0x7
 3798 187e 4401     		.2byte	0x144
 3799 1880 9B1B0000 		.4byte	0x1b9b
 3800 1884 3C420100 		.4byte	0x1423c
 3801 1888 16       		.uleb128 0x16
 3802 1889 27300000 		.4byte	.LASF529
 3803 188d 07       		.byte	0x7
 3804 188e 4501     		.2byte	0x145
 3805 1890 0D010000 		.4byte	0x10d
 3806 1894 00440100 		.4byte	0x14400
 3807 1898 16       		.uleb128 0x16
 3808 1899 65230000 		.4byte	.LASF530
 3809 189d 07       		.byte	0x7
 3810 189e 4601     		.2byte	0x146
 3811 18a0 0D010000 		.4byte	0x10d
 3812 18a4 04440100 		.4byte	0x14404
 3813 18a8 16       		.uleb128 0x16
 3814 18a9 23380000 		.4byte	.LASF531
 3815 18ad 07       		.byte	0x7
 3816 18ae 4701     		.2byte	0x147
 3817 18b0 0D010000 		.4byte	0x10d
 3818 18b4 08440100 		.4byte	0x14408
 3819 18b8 16       		.uleb128 0x16
 3820 18b9 E6040000 		.4byte	.LASF532
 3821 18bd 07       		.byte	0x7
 3822 18be 4801     		.2byte	0x148
 3823 18c0 12010000 		.4byte	0x112
 3824 18c4 0C440100 		.4byte	0x1440c
 3825 18c8 16       		.uleb128 0x16
 3826 18c9 7F090000 		.4byte	.LASF533
 3827 18cd 07       		.byte	0x7
 3828 18ce 4901     		.2byte	0x149
ARM GAS  C:\Users\JC\AppData\Local\Temp\ccNOiAvA.s 			page 98


 3829 18d0 0D010000 		.4byte	0x10d
 3830 18d4 10440100 		.4byte	0x14410
 3831 18d8 16       		.uleb128 0x16
 3832 18d9 4A320000 		.4byte	.LASF534
 3833 18dd 07       		.byte	0x7
 3834 18de 4B01     		.2byte	0x14b
 3835 18e0 0D010000 		.4byte	0x10d
 3836 18e4 14440100 		.4byte	0x14414
 3837 18e8 16       		.uleb128 0x16
 3838 18e9 F1040000 		.4byte	.LASF535
 3839 18ed 07       		.byte	0x7
 3840 18ee 4D01     		.2byte	0x14d
 3841 18f0 A51B0000 		.4byte	0x1ba5
 3842 18f4 18440100 		.4byte	0x14418
 3843 18f8 16       		.uleb128 0x16
 3844 18f9 E7150000 		.4byte	.LASF536
 3845 18fd 07       		.byte	0x7
 3846 18fe 4E01     		.2byte	0x14e
 3847 1900 0D010000 		.4byte	0x10d
 3848 1904 20440100 		.4byte	0x14420
 3849 1908 16       		.uleb128 0x16
 3850 1909 A3360000 		.4byte	.LASF537
 3851 190d 07       		.byte	0x7
 3852 190e 5001     		.2byte	0x150
 3853 1910 12010000 		.4byte	0x112
 3854 1914 24440100 		.4byte	0x14424
 3855 1918 16       		.uleb128 0x16
 3856 1919 682D0000 		.4byte	.LASF538
 3857 191d 07       		.byte	0x7
 3858 191e 5101     		.2byte	0x151
 3859 1920 12010000 		.4byte	0x112
 3860 1924 28440100 		.4byte	0x14428
 3861 1928 16       		.uleb128 0x16
 3862 1929 FC040000 		.4byte	.LASF539
 3863 192d 07       		.byte	0x7
 3864 192e 5201     		.2byte	0x152
 3865 1930 12010000 		.4byte	0x112
 3866 1934 2C440100 		.4byte	0x1442c
 3867 1938 16       		.uleb128 0x16
 3868 1939 DD140000 		.4byte	.LASF540
 3869 193d 07       		.byte	0x7
 3870 193e 5301     		.2byte	0x153
 3871 1940 AF1B0000 		.4byte	0x1baf
 3872 1944 30440100 		.4byte	0x14430
 3873 1948 16       		.uleb128 0x16
 3874 1949 07050000 		.4byte	.LASF541
 3875 194d 07       		.byte	0x7
 3876 194e 5401     		.2byte	0x154
 3877 1950 C91B0000 		.4byte	0x1bc9
 3878 1954 50440100 		.4byte	0x14450
 3879 1958 16       		.uleb128 0x16
 3880 1959 36320000 		.4byte	.LASF542
 3881 195d 07       		.byte	0x7
 3882 195e 5501     		.2byte	0x155
 3883 1960 0D010000 		.4byte	0x10d
 3884 1964 00480100 		.4byte	0x14800
 3885 1968 16       		.uleb128 0x16
ARM GAS  C:\Users\JC\AppData\Local\Temp\ccNOiAvA.s 			page 99


 3886 1969 12050000 		.4byte	.LASF543
 3887 196d 07       		.byte	0x7
 3888 196e 5601     		.2byte	0x156
 3889 1970 D31B0000 		.4byte	0x1bd3
 3890 1974 04480100 		.4byte	0x14804
 3891 1978 16       		.uleb128 0x16
 3892 1979 BE400000 		.4byte	.LASF544
 3893 197d 07       		.byte	0x7
 3894 197e 5701     		.2byte	0x157
 3895 1980 0D010000 		.4byte	0x10d
 3896 1984 C0480100 		.4byte	0x148c0
 3897 1988 16       		.uleb128 0x16
 3898 1989 1D050000 		.4byte	.LASF545
 3899 198d 07       		.byte	0x7
 3900 198e 5801     		.2byte	0x158
 3901 1990 DD1B0000 		.4byte	0x1bdd
 3902 1994 C4480100 		.4byte	0x148c4
 3903 1998 16       		.uleb128 0x16
 3904 1999 DC280000 		.4byte	.LASF546
 3905 199d 07       		.byte	0x7
 3906 199e 5901     		.2byte	0x159
 3907 19a0 0D010000 		.4byte	0x10d
 3908 19a4 80490100 		.4byte	0x14980
 3909 19a8 16       		.uleb128 0x16
 3910 19a9 28050000 		.4byte	.LASF547
 3911 19ad 07       		.byte	0x7
 3912 19ae 5B01     		.2byte	0x15b
 3913 19b0 E71B0000 		.4byte	0x1be7
 3914 19b4 84490100 		.4byte	0x14984
 3915 19b8 16       		.uleb128 0x16
 3916 19b9 56440000 		.4byte	.LASF548
 3917 19bd 07       		.byte	0x7
 3918 19be 5C01     		.2byte	0x15c
 3919 19c0 0D010000 		.4byte	0x10d
 3920 19c4 404A0100 		.4byte	0x14a40
 3921 19c8 16       		.uleb128 0x16
 3922 19c9 3B350000 		.4byte	.LASF549
 3923 19cd 07       		.byte	0x7
 3924 19ce 5E01     		.2byte	0x15e
 3925 19d0 F11B0000 		.4byte	0x1bf1
 3926 19d4 444A0100 		.4byte	0x14a44
 3927 19d8 16       		.uleb128 0x16
 3928 19d9 E1300000 		.4byte	.LASF550
 3929 19dd 07       		.byte	0x7
 3930 19de 5F01     		.2byte	0x15f
 3931 19e0 0D010000 		.4byte	0x10d
 3932 19e4 004B0100 		.4byte	0x14b00
 3933 19e8 16       		.uleb128 0x16
 3934 19e9 3E050000 		.4byte	.LASF551
 3935 19ed 07       		.byte	0x7
 3936 19ee 6001     		.2byte	0x160
 3937 19f0 0C1C0000 		.4byte	0x1c0c
 3938 19f4 044B0100 		.4byte	0x14b04
 3939 19f8 00       		.byte	0
 3940 19f9 08       		.uleb128 0x8
 3941 19fa A7010000 		.4byte	0x1a7
 3942 19fe 09       		.uleb128 0x9
ARM GAS  C:\Users\JC\AppData\Local\Temp\ccNOiAvA.s 			page 100


 3943 19ff F9190000 		.4byte	0x19f9
 3944 1a03 08       		.uleb128 0x8
 3945 1a04 17010000 		.4byte	0x117
 3946 1a08 09       		.uleb128 0x9
 3947 1a09 031A0000 		.4byte	0x1a03
 3948 1a0d 0A       		.uleb128 0xa
 3949 1a0e 0D010000 		.4byte	0x10d
 3950 1a12 1D1A0000 		.4byte	0x1a1d
 3951 1a16 0B       		.uleb128 0xb
 3952 1a17 B4000000 		.4byte	0xb4
 3953 1a1b 04       		.byte	0x4
 3954 1a1c 00       		.byte	0
 3955 1a1d 08       		.uleb128 0x8
 3956 1a1e 0D1A0000 		.4byte	0x1a0d
 3957 1a22 08       		.uleb128 0x8
 3958 1a23 17010000 		.4byte	0x117
 3959 1a27 09       		.uleb128 0x9
 3960 1a28 221A0000 		.4byte	0x1a22
 3961 1a2c 08       		.uleb128 0x8
 3962 1a2d A7010000 		.4byte	0x1a7
 3963 1a31 09       		.uleb128 0x9
 3964 1a32 2C1A0000 		.4byte	0x1a2c
 3965 1a36 08       		.uleb128 0x8
 3966 1a37 17010000 		.4byte	0x117
 3967 1a3b 09       		.uleb128 0x9
 3968 1a3c 361A0000 		.4byte	0x1a36
 3969 1a40 08       		.uleb128 0x8
 3970 1a41 47010000 		.4byte	0x147
 3971 1a45 09       		.uleb128 0x9
 3972 1a46 401A0000 		.4byte	0x1a40
 3973 1a4a 08       		.uleb128 0x8
 3974 1a4b A7010000 		.4byte	0x1a7
 3975 1a4f 09       		.uleb128 0x9
 3976 1a50 4A1A0000 		.4byte	0x1a4a
 3977 1a54 08       		.uleb128 0x8
 3978 1a55 A7010000 		.4byte	0x1a7
 3979 1a59 09       		.uleb128 0x9
 3980 1a5a 541A0000 		.4byte	0x1a54
 3981 1a5e 0A       		.uleb128 0xa
 3982 1a5f 12010000 		.4byte	0x112
 3983 1a63 6E1A0000 		.4byte	0x1a6e
 3984 1a67 0B       		.uleb128 0xb
 3985 1a68 B4000000 		.4byte	0xb4
 3986 1a6c 4D       		.byte	0x4d
 3987 1a6d 00       		.byte	0
 3988 1a6e 08       		.uleb128 0x8
 3989 1a6f 5E1A0000 		.4byte	0x1a5e
 3990 1a73 09       		.uleb128 0x9
 3991 1a74 6E1A0000 		.4byte	0x1a6e
 3992 1a78 08       		.uleb128 0x8
 3993 1a79 17010000 		.4byte	0x117
 3994 1a7d 09       		.uleb128 0x9
 3995 1a7e 781A0000 		.4byte	0x1a78
 3996 1a82 0A       		.uleb128 0xa
 3997 1a83 12010000 		.4byte	0x112
 3998 1a87 931A0000 		.4byte	0x1a93
 3999 1a8b 0C       		.uleb128 0xc
ARM GAS  C:\Users\JC\AppData\Local\Temp\ccNOiAvA.s 			page 101


 4000 1a8c B4000000 		.4byte	0xb4
 4001 1a90 8401     		.2byte	0x184
 4002 1a92 00       		.byte	0
 4003 1a93 08       		.uleb128 0x8
 4004 1a94 821A0000 		.4byte	0x1a82
 4005 1a98 09       		.uleb128 0x9
 4006 1a99 931A0000 		.4byte	0x1a93
 4007 1a9d 0A       		.uleb128 0xa
 4008 1a9e 12010000 		.4byte	0x112
 4009 1aa2 AD1A0000 		.4byte	0x1aad
 4010 1aa6 0B       		.uleb128 0xb
 4011 1aa7 B4000000 		.4byte	0xb4
 4012 1aab F3       		.byte	0xf3
 4013 1aac 00       		.byte	0
 4014 1aad 08       		.uleb128 0x8
 4015 1aae 9D1A0000 		.4byte	0x1a9d
 4016 1ab2 09       		.uleb128 0x9
 4017 1ab3 AD1A0000 		.4byte	0x1aad
 4018 1ab7 08       		.uleb128 0x8
 4019 1ab8 EC010000 		.4byte	0x1ec
 4020 1abc 09       		.uleb128 0x9
 4021 1abd B71A0000 		.4byte	0x1ab7
 4022 1ac1 08       		.uleb128 0x8
 4023 1ac2 27010000 		.4byte	0x127
 4024 1ac6 0A       		.uleb128 0xa
 4025 1ac7 12010000 		.4byte	0x112
 4026 1acb D61A0000 		.4byte	0x1ad6
 4027 1acf 0B       		.uleb128 0xb
 4028 1ad0 B4000000 		.4byte	0xb4
 4029 1ad4 13       		.byte	0x13
 4030 1ad5 00       		.byte	0
 4031 1ad6 08       		.uleb128 0x8
 4032 1ad7 C61A0000 		.4byte	0x1ac6
 4033 1adb 09       		.uleb128 0x9
 4034 1adc D61A0000 		.4byte	0x1ad6
 4035 1ae0 0A       		.uleb128 0xa
 4036 1ae1 12010000 		.4byte	0x112
 4037 1ae5 F11A0000 		.4byte	0x1af1
 4038 1ae9 0C       		.uleb128 0xc
 4039 1aea B4000000 		.4byte	0xb4
 4040 1aee 1602     		.2byte	0x216
 4041 1af0 00       		.byte	0
 4042 1af1 08       		.uleb128 0x8
 4043 1af2 E01A0000 		.4byte	0x1ae0
 4044 1af6 09       		.uleb128 0x9
 4045 1af7 F11A0000 		.4byte	0x1af1
 4046 1afb 08       		.uleb128 0x8
 4047 1afc 0C020000 		.4byte	0x20c
 4048 1b00 09       		.uleb128 0x9
 4049 1b01 FB1A0000 		.4byte	0x1afb
 4050 1b05 0A       		.uleb128 0xa
 4051 1b06 12010000 		.4byte	0x112
 4052 1b0a 161B0000 		.4byte	0x1b16
 4053 1b0e 0C       		.uleb128 0xc
 4054 1b0f B4000000 		.4byte	0xb4
 4055 1b13 FE3F     		.2byte	0x3ffe
 4056 1b15 00       		.byte	0
ARM GAS  C:\Users\JC\AppData\Local\Temp\ccNOiAvA.s 			page 102


 4057 1b16 08       		.uleb128 0x8
 4058 1b17 051B0000 		.4byte	0x1b05
 4059 1b1b 09       		.uleb128 0x9
 4060 1b1c 161B0000 		.4byte	0x1b16
 4061 1b20 08       		.uleb128 0x8
 4062 1b21 B7010000 		.4byte	0x1b7
 4063 1b25 09       		.uleb128 0x9
 4064 1b26 201B0000 		.4byte	0x1b20
 4065 1b2a 08       		.uleb128 0x8
 4066 1b2b B7010000 		.4byte	0x1b7
 4067 1b2f 09       		.uleb128 0x9
 4068 1b30 2A1B0000 		.4byte	0x1b2a
 4069 1b34 08       		.uleb128 0x8
 4070 1b35 B7010000 		.4byte	0x1b7
 4071 1b39 09       		.uleb128 0x9
 4072 1b3a 341B0000 		.4byte	0x1b34
 4073 1b3e 0A       		.uleb128 0xa
 4074 1b3f 12010000 		.4byte	0x112
 4075 1b43 4F1B0000 		.4byte	0x1b4f
 4076 1b47 0C       		.uleb128 0xc
 4077 1b48 B4000000 		.4byte	0xb4
 4078 1b4c 9E05     		.2byte	0x59e
 4079 1b4e 00       		.byte	0
 4080 1b4f 08       		.uleb128 0x8
 4081 1b50 3E1B0000 		.4byte	0x1b3e
 4082 1b54 09       		.uleb128 0x9
 4083 1b55 4F1B0000 		.4byte	0x1b4f
 4084 1b59 08       		.uleb128 0x8
 4085 1b5a 37010000 		.4byte	0x137
 4086 1b5e 09       		.uleb128 0x9
 4087 1b5f 591B0000 		.4byte	0x1b59
 4088 1b63 08       		.uleb128 0x8
 4089 1b64 97010000 		.4byte	0x197
 4090 1b68 09       		.uleb128 0x9
 4091 1b69 631B0000 		.4byte	0x1b63
 4092 1b6d 08       		.uleb128 0x8
 4093 1b6e 77010000 		.4byte	0x177
 4094 1b72 09       		.uleb128 0x9
 4095 1b73 6D1B0000 		.4byte	0x1b6d
 4096 1b77 08       		.uleb128 0x8
 4097 1b78 27010000 		.4byte	0x127
 4098 1b7c 08       		.uleb128 0x8
 4099 1b7d CC010000 		.4byte	0x1cc
 4100 1b81 09       		.uleb128 0x9
 4101 1b82 7C1B0000 		.4byte	0x1b7c
 4102 1b86 0A       		.uleb128 0xa
 4103 1b87 12010000 		.4byte	0x112
 4104 1b8b 961B0000 		.4byte	0x1b96
 4105 1b8f 0B       		.uleb128 0xb
 4106 1b90 B4000000 		.4byte	0xb4
 4107 1b94 70       		.byte	0x70
 4108 1b95 00       		.byte	0
 4109 1b96 08       		.uleb128 0x8
 4110 1b97 861B0000 		.4byte	0x1b86
 4111 1b9b 09       		.uleb128 0x9
 4112 1b9c 961B0000 		.4byte	0x1b96
 4113 1ba0 08       		.uleb128 0x8
ARM GAS  C:\Users\JC\AppData\Local\Temp\ccNOiAvA.s 			page 103


 4114 1ba1 A7010000 		.4byte	0x1a7
 4115 1ba5 09       		.uleb128 0x9
 4116 1ba6 A01B0000 		.4byte	0x1ba0
 4117 1baa 08       		.uleb128 0x8
 4118 1bab 87010000 		.4byte	0x187
 4119 1baf 09       		.uleb128 0x9
 4120 1bb0 AA1B0000 		.4byte	0x1baa
 4121 1bb4 0A       		.uleb128 0xa
 4122 1bb5 12010000 		.4byte	0x112
 4123 1bb9 C41B0000 		.4byte	0x1bc4
 4124 1bbd 0B       		.uleb128 0xb
 4125 1bbe B4000000 		.4byte	0xb4
 4126 1bc2 EB       		.byte	0xeb
 4127 1bc3 00       		.byte	0
 4128 1bc4 08       		.uleb128 0x8
 4129 1bc5 B41B0000 		.4byte	0x1bb4
 4130 1bc9 09       		.uleb128 0x9
 4131 1bca C41B0000 		.4byte	0x1bc4
 4132 1bce 08       		.uleb128 0x8
 4133 1bcf 160A0000 		.4byte	0xa16
 4134 1bd3 09       		.uleb128 0x9
 4135 1bd4 CE1B0000 		.4byte	0x1bce
 4136 1bd8 08       		.uleb128 0x8
 4137 1bd9 160A0000 		.4byte	0xa16
 4138 1bdd 09       		.uleb128 0x9
 4139 1bde D81B0000 		.4byte	0x1bd8
 4140 1be2 08       		.uleb128 0x8
 4141 1be3 160A0000 		.4byte	0xa16
 4142 1be7 09       		.uleb128 0x9
 4143 1be8 E21B0000 		.4byte	0x1be2
 4144 1bec 08       		.uleb128 0x8
 4145 1bed 160A0000 		.4byte	0xa16
 4146 1bf1 09       		.uleb128 0x9
 4147 1bf2 EC1B0000 		.4byte	0x1bec
 4148 1bf6 0A       		.uleb128 0xa
 4149 1bf7 12010000 		.4byte	0x112
 4150 1bfb 071C0000 		.4byte	0x1c07
 4151 1bff 0C       		.uleb128 0xc
 4152 1c00 B4000000 		.4byte	0xb4
 4153 1c04 3E25     		.2byte	0x253e
 4154 1c06 00       		.byte	0
 4155 1c07 08       		.uleb128 0x8
 4156 1c08 F61B0000 		.4byte	0x1bf6
 4157 1c0c 09       		.uleb128 0x9
 4158 1c0d 071C0000 		.4byte	0x1c07
 4159 1c11 17       		.uleb128 0x17
 4160 1c12 26540000 		.4byte	.LASF552
 4161 1c16 07       		.byte	0x7
 4162 1c17 6101     		.2byte	0x161
 4163 1c19 350C0000 		.4byte	0xc35
 4164 1c1d 18       		.uleb128 0x18
 4165 1c1e 0010     		.2byte	0x1000
 4166 1c20 07       		.byte	0x7
 4167 1c21 6601     		.2byte	0x166
 4168 1c23 321F0000 		.4byte	0x1f32
 4169 1c27 19       		.uleb128 0x19
 4170 1c28 603E0000 		.4byte	.LASF271
ARM GAS  C:\Users\JC\AppData\Local\Temp\ccNOiAvA.s 			page 104


 4171 1c2c 07       		.byte	0x7
 4172 1c2d 6701     		.2byte	0x167
 4173 1c2f 371F0000 		.4byte	0x1f37
 4174 1c33 00       		.byte	0
 4175 1c34 19       		.uleb128 0x19
 4176 1c35 17380000 		.4byte	.LASF553
 4177 1c39 07       		.byte	0x7
 4178 1c3a 6801     		.2byte	0x168
 4179 1c3c 0D010000 		.4byte	0x10d
 4180 1c40 60       		.byte	0x60
 4181 1c41 19       		.uleb128 0x19
 4182 1c42 7D330000 		.4byte	.LASF554
 4183 1c46 07       		.byte	0x7
 4184 1c47 6901     		.2byte	0x169
 4185 1c49 0D010000 		.4byte	0x10d
 4186 1c4d 64       		.byte	0x64
 4187 1c4e 19       		.uleb128 0x19
 4188 1c4f 8E340000 		.4byte	.LASF555
 4189 1c53 07       		.byte	0x7
 4190 1c54 6A01     		.2byte	0x16a
 4191 1c56 0D010000 		.4byte	0x10d
 4192 1c5a 68       		.byte	0x68
 4193 1c5b 19       		.uleb128 0x19
 4194 1c5c 4C410000 		.4byte	.LASF274
 4195 1c60 07       		.byte	0x7
 4196 1c61 6B01     		.2byte	0x16b
 4197 1c63 0D010000 		.4byte	0x10d
 4198 1c67 6C       		.byte	0x6c
 4199 1c68 19       		.uleb128 0x19
 4200 1c69 73430000 		.4byte	.LASF556
 4201 1c6d 07       		.byte	0x7
 4202 1c6e 6C01     		.2byte	0x16c
 4203 1c70 0D010000 		.4byte	0x10d
 4204 1c74 70       		.byte	0x70
 4205 1c75 19       		.uleb128 0x19
 4206 1c76 BC350000 		.4byte	.LASF557
 4207 1c7a 07       		.byte	0x7
 4208 1c7b 6D01     		.2byte	0x16d
 4209 1c7d 0D010000 		.4byte	0x10d
 4210 1c81 74       		.byte	0x74
 4211 1c82 19       		.uleb128 0x19
 4212 1c83 332A0000 		.4byte	.LASF558
 4213 1c87 07       		.byte	0x7
 4214 1c88 6E01     		.2byte	0x16e
 4215 1c8a 0D010000 		.4byte	0x10d
 4216 1c8e 78       		.byte	0x78
 4217 1c8f 19       		.uleb128 0x19
 4218 1c90 58290000 		.4byte	.LASF281
 4219 1c94 07       		.byte	0x7
 4220 1c95 6F01     		.2byte	0x16f
 4221 1c97 12010000 		.4byte	0x112
 4222 1c9b 7C       		.byte	0x7c
 4223 1c9c 19       		.uleb128 0x19
 4224 1c9d D41A0000 		.4byte	.LASF559
 4225 1ca1 07       		.byte	0x7
 4226 1ca2 7001     		.2byte	0x170
 4227 1ca4 12010000 		.4byte	0x112
ARM GAS  C:\Users\JC\AppData\Local\Temp\ccNOiAvA.s 			page 105


 4228 1ca8 80       		.byte	0x80
 4229 1ca9 19       		.uleb128 0x19
 4230 1caa E6170000 		.4byte	.LASF560
 4231 1cae 07       		.byte	0x7
 4232 1caf 7201     		.2byte	0x172
 4233 1cb1 12010000 		.4byte	0x112
 4234 1cb5 84       		.byte	0x84
 4235 1cb6 19       		.uleb128 0x19
 4236 1cb7 62290000 		.4byte	.LASF284
 4237 1cbb 07       		.byte	0x7
 4238 1cbc 7301     		.2byte	0x173
 4239 1cbe 411F0000 		.4byte	0x1f41
 4240 1cc2 88       		.byte	0x88
 4241 1cc3 19       		.uleb128 0x19
 4242 1cc4 984A0000 		.4byte	.LASF561
 4243 1cc8 07       		.byte	0x7
 4244 1cc9 7401     		.2byte	0x174
 4245 1ccb 0D010000 		.4byte	0x10d
 4246 1ccf A0       		.byte	0xa0
 4247 1cd0 19       		.uleb128 0x19
 4248 1cd1 3C200000 		.4byte	.LASF562
 4249 1cd5 07       		.byte	0x7
 4250 1cd6 7501     		.2byte	0x175
 4251 1cd8 0D010000 		.4byte	0x10d
 4252 1cdc A4       		.byte	0xa4
 4253 1cdd 19       		.uleb128 0x19
 4254 1cde 46350000 		.4byte	.LASF563
 4255 1ce2 07       		.byte	0x7
 4256 1ce3 7601     		.2byte	0x176
 4257 1ce5 0D010000 		.4byte	0x10d
 4258 1ce9 A8       		.byte	0xa8
 4259 1cea 19       		.uleb128 0x19
 4260 1ceb 54350000 		.4byte	.LASF564
 4261 1cef 07       		.byte	0x7
 4262 1cf0 7701     		.2byte	0x177
 4263 1cf2 0D010000 		.4byte	0x10d
 4264 1cf6 AC       		.byte	0xac
 4265 1cf7 19       		.uleb128 0x19
 4266 1cf8 A63C0000 		.4byte	.LASF565
 4267 1cfc 07       		.byte	0x7
 4268 1cfd 7801     		.2byte	0x178
 4269 1cff 0D010000 		.4byte	0x10d
 4270 1d03 B0       		.byte	0xb0
 4271 1d04 19       		.uleb128 0x19
 4272 1d05 292A0000 		.4byte	.LASF566
 4273 1d09 07       		.byte	0x7
 4274 1d0a 7901     		.2byte	0x179
 4275 1d0c 12010000 		.4byte	0x112
 4276 1d10 B4       		.byte	0xb4
 4277 1d11 19       		.uleb128 0x19
 4278 1d12 242B0000 		.4byte	.LASF567
 4279 1d16 07       		.byte	0x7
 4280 1d17 7A01     		.2byte	0x17a
 4281 1d19 12010000 		.4byte	0x112
 4282 1d1d B8       		.byte	0xb8
 4283 1d1e 19       		.uleb128 0x19
 4284 1d1f 6C290000 		.4byte	.LASF308
ARM GAS  C:\Users\JC\AppData\Local\Temp\ccNOiAvA.s 			page 106


 4285 1d23 07       		.byte	0x7
 4286 1d24 7B01     		.2byte	0x17b
 4287 1d26 12010000 		.4byte	0x112
 4288 1d2a BC       		.byte	0xbc
 4289 1d2b 19       		.uleb128 0x19
 4290 1d2c D6190000 		.4byte	.LASF568
 4291 1d30 07       		.byte	0x7
 4292 1d31 7C01     		.2byte	0x17c
 4293 1d33 0D010000 		.4byte	0x10d
 4294 1d37 C0       		.byte	0xc0
 4295 1d38 19       		.uleb128 0x19
 4296 1d39 A40B0000 		.4byte	.LASF569
 4297 1d3d 07       		.byte	0x7
 4298 1d3e 7D01     		.2byte	0x17d
 4299 1d40 0D010000 		.4byte	0x10d
 4300 1d44 C4       		.byte	0xc4
 4301 1d45 19       		.uleb128 0x19
 4302 1d46 76290000 		.4byte	.LASF314
 4303 1d4a 07       		.byte	0x7
 4304 1d4b 7E01     		.2byte	0x17e
 4305 1d4d 4B1F0000 		.4byte	0x1f4b
 4306 1d51 C8       		.byte	0xc8
 4307 1d52 19       		.uleb128 0x19
 4308 1d53 58190000 		.4byte	.LASF570
 4309 1d57 07       		.byte	0x7
 4310 1d58 7F01     		.2byte	0x17f
 4311 1d5a 0D010000 		.4byte	0x10d
 4312 1d5e D0       		.byte	0xd0
 4313 1d5f 19       		.uleb128 0x19
 4314 1d60 8F1F0000 		.4byte	.LASF571
 4315 1d64 07       		.byte	0x7
 4316 1d65 8001     		.2byte	0x180
 4317 1d67 0D010000 		.4byte	0x10d
 4318 1d6b D4       		.byte	0xd4
 4319 1d6c 19       		.uleb128 0x19
 4320 1d6d 9F1F0000 		.4byte	.LASF572
 4321 1d71 07       		.byte	0x7
 4322 1d72 8201     		.2byte	0x182
 4323 1d74 0D010000 		.4byte	0x10d
 4324 1d78 D8       		.byte	0xd8
 4325 1d79 19       		.uleb128 0x19
 4326 1d7a AF1F0000 		.4byte	.LASF573
 4327 1d7e 07       		.byte	0x7
 4328 1d7f 8301     		.2byte	0x183
 4329 1d81 0D010000 		.4byte	0x10d
 4330 1d85 DC       		.byte	0xdc
 4331 1d86 19       		.uleb128 0x19
 4332 1d87 21240000 		.4byte	.LASF574
 4333 1d8b 07       		.byte	0x7
 4334 1d8c 8401     		.2byte	0x184
 4335 1d8e 12010000 		.4byte	0x112
 4336 1d92 E0       		.byte	0xe0
 4337 1d93 19       		.uleb128 0x19
 4338 1d94 E9230000 		.4byte	.LASF575
 4339 1d98 07       		.byte	0x7
 4340 1d99 8501     		.2byte	0x185
 4341 1d9b 12010000 		.4byte	0x112
ARM GAS  C:\Users\JC\AppData\Local\Temp\ccNOiAvA.s 			page 107


 4342 1d9f E4       		.byte	0xe4
 4343 1da0 19       		.uleb128 0x19
 4344 1da1 37570000 		.4byte	.LASF576
 4345 1da5 07       		.byte	0x7
 4346 1da6 8601     		.2byte	0x186
 4347 1da8 0D010000 		.4byte	0x10d
 4348 1dac E8       		.byte	0xe8
 4349 1dad 19       		.uleb128 0x19
 4350 1dae 29570000 		.4byte	.LASF577
 4351 1db2 07       		.byte	0x7
 4352 1db3 8701     		.2byte	0x187
 4353 1db5 0D010000 		.4byte	0x10d
 4354 1db9 EC       		.byte	0xec
 4355 1dba 19       		.uleb128 0x19
 4356 1dbb DF3E0000 		.4byte	.LASF578
 4357 1dbf 07       		.byte	0x7
 4358 1dc0 8801     		.2byte	0x188
 4359 1dc2 0D010000 		.4byte	0x10d
 4360 1dc6 F0       		.byte	0xf0
 4361 1dc7 19       		.uleb128 0x19
 4362 1dc8 65340000 		.4byte	.LASF579
 4363 1dcc 07       		.byte	0x7
 4364 1dcd 8901     		.2byte	0x189
 4365 1dcf 12010000 		.4byte	0x112
 4366 1dd3 F4       		.byte	0xf4
 4367 1dd4 19       		.uleb128 0x19
 4368 1dd5 80290000 		.4byte	.LASF320
 4369 1dd9 07       		.byte	0x7
 4370 1dda 8A01     		.2byte	0x18a
 4371 1ddc 551F0000 		.4byte	0x1f55
 4372 1de0 F8       		.byte	0xf8
 4373 1de1 15       		.uleb128 0x15
 4374 1de2 77420000 		.4byte	.LASF580
 4375 1de6 07       		.byte	0x7
 4376 1de7 8B01     		.2byte	0x18b
 4377 1de9 0D010000 		.4byte	0x10d
 4378 1ded 0001     		.2byte	0x100
 4379 1def 15       		.uleb128 0x15
 4380 1df0 87420000 		.4byte	.LASF581
 4381 1df4 07       		.byte	0x7
 4382 1df5 8C01     		.2byte	0x18c
 4383 1df7 0D010000 		.4byte	0x10d
 4384 1dfb 0401     		.2byte	0x104
 4385 1dfd 15       		.uleb128 0x15
 4386 1dfe F5490000 		.4byte	.LASF582
 4387 1e02 07       		.byte	0x7
 4388 1e03 8D01     		.2byte	0x18d
 4389 1e05 0D010000 		.4byte	0x10d
 4390 1e09 0801     		.2byte	0x108
 4391 1e0b 15       		.uleb128 0x15
 4392 1e0c 4E0A0000 		.4byte	.LASF583
 4393 1e10 07       		.byte	0x7
 4394 1e11 8E01     		.2byte	0x18e
 4395 1e13 0D010000 		.4byte	0x10d
 4396 1e17 0C01     		.2byte	0x10c
 4397 1e19 15       		.uleb128 0x15
 4398 1e1a 0C520000 		.4byte	.LASF584
ARM GAS  C:\Users\JC\AppData\Local\Temp\ccNOiAvA.s 			page 108


 4399 1e1e 07       		.byte	0x7
 4400 1e1f 8F01     		.2byte	0x18f
 4401 1e21 5A1F0000 		.4byte	0x1f5a
 4402 1e25 1001     		.2byte	0x110
 4403 1e27 15       		.uleb128 0x15
 4404 1e28 03210000 		.4byte	.LASF585
 4405 1e2c 07       		.byte	0x7
 4406 1e2d 9001     		.2byte	0x190
 4407 1e2f 0D010000 		.4byte	0x10d
 4408 1e33 2001     		.2byte	0x120
 4409 1e35 15       		.uleb128 0x15
 4410 1e36 CA210000 		.4byte	.LASF586
 4411 1e3a 07       		.byte	0x7
 4412 1e3b 9101     		.2byte	0x191
 4413 1e3d 12010000 		.4byte	0x112
 4414 1e41 2401     		.2byte	0x124
 4415 1e43 15       		.uleb128 0x15
 4416 1e44 06230000 		.4byte	.LASF587
 4417 1e48 07       		.byte	0x7
 4418 1e49 9201     		.2byte	0x192
 4419 1e4b 0D010000 		.4byte	0x10d
 4420 1e4f 2801     		.2byte	0x128
 4421 1e51 15       		.uleb128 0x15
 4422 1e52 361E0000 		.4byte	.LASF588
 4423 1e56 07       		.byte	0x7
 4424 1e57 9301     		.2byte	0x193
 4425 1e59 0D010000 		.4byte	0x10d
 4426 1e5d 2C01     		.2byte	0x12c
 4427 1e5f 15       		.uleb128 0x15
 4428 1e60 D1140000 		.4byte	.LASF589
 4429 1e64 07       		.byte	0x7
 4430 1e65 9401     		.2byte	0x194
 4431 1e67 0D010000 		.4byte	0x10d
 4432 1e6b 3001     		.2byte	0x130
 4433 1e6d 15       		.uleb128 0x15
 4434 1e6e CB370000 		.4byte	.LASF590
 4435 1e72 07       		.byte	0x7
 4436 1e73 9501     		.2byte	0x195
 4437 1e75 0D010000 		.4byte	0x10d
 4438 1e79 3401     		.2byte	0x134
 4439 1e7b 15       		.uleb128 0x15
 4440 1e7c 8A290000 		.4byte	.LASF324
 4441 1e80 07       		.byte	0x7
 4442 1e81 9601     		.2byte	0x196
 4443 1e83 641F0000 		.4byte	0x1f64
 4444 1e87 3801     		.2byte	0x138
 4445 1e89 15       		.uleb128 0x15
 4446 1e8a 57480000 		.4byte	.LASF591
 4447 1e8e 07       		.byte	0x7
 4448 1e8f 9701     		.2byte	0x197
 4449 1e91 691F0000 		.4byte	0x1f69
 4450 1e95 4001     		.2byte	0x140
 4451 1e97 15       		.uleb128 0x15
 4452 1e98 D90F0000 		.4byte	.LASF592
 4453 1e9c 07       		.byte	0x7
 4454 1e9d 9801     		.2byte	0x198
 4455 1e9f 0D010000 		.4byte	0x10d
ARM GAS  C:\Users\JC\AppData\Local\Temp\ccNOiAvA.s 			page 109


 4456 1ea3 5001     		.2byte	0x150
 4457 1ea5 15       		.uleb128 0x15
 4458 1ea6 94290000 		.4byte	.LASF332
 4459 1eaa 07       		.byte	0x7
 4460 1eab 9901     		.2byte	0x199
 4461 1ead 841F0000 		.4byte	0x1f84
 4462 1eb1 5401     		.2byte	0x154
 4463 1eb3 15       		.uleb128 0x15
 4464 1eb4 F13D0000 		.4byte	.LASF593
 4465 1eb8 07       		.byte	0x7
 4466 1eb9 9A01     		.2byte	0x19a
 4467 1ebb 0D010000 		.4byte	0x10d
 4468 1ebf 000F     		.2byte	0xf00
 4469 1ec1 15       		.uleb128 0x15
 4470 1ec2 37100000 		.4byte	.LASF594
 4471 1ec6 07       		.byte	0x7
 4472 1ec7 9B01     		.2byte	0x19b
 4473 1ec9 0D010000 		.4byte	0x10d
 4474 1ecd 040F     		.2byte	0xf04
 4475 1ecf 15       		.uleb128 0x15
 4476 1ed0 063E0000 		.4byte	.LASF595
 4477 1ed4 07       		.byte	0x7
 4478 1ed5 9C01     		.2byte	0x19c
 4479 1ed7 0D010000 		.4byte	0x10d
 4480 1edb 080F     		.2byte	0xf08
 4481 1edd 15       		.uleb128 0x15
 4482 1ede 113E0000 		.4byte	.LASF596
 4483 1ee2 07       		.byte	0x7
 4484 1ee3 9D01     		.2byte	0x19d
 4485 1ee5 0D010000 		.4byte	0x10d
 4486 1ee9 0C0F     		.2byte	0xf0c
 4487 1eeb 15       		.uleb128 0x15
 4488 1eec 6E490000 		.4byte	.LASF597
 4489 1ef0 07       		.byte	0x7
 4490 1ef1 9E01     		.2byte	0x19e
 4491 1ef3 891F0000 		.4byte	0x1f89
 4492 1ef7 100F     		.2byte	0xf10
 4493 1ef9 15       		.uleb128 0x15
 4494 1efa 9E290000 		.4byte	.LASF336
 4495 1efe 07       		.byte	0x7
 4496 1eff 9F01     		.2byte	0x19f
 4497 1f01 931F0000 		.4byte	0x1f93
 4498 1f05 200F     		.2byte	0xf20
 4499 1f07 15       		.uleb128 0x15
 4500 1f08 1C3E0000 		.4byte	.LASF598
 4501 1f0c 07       		.byte	0x7
 4502 1f0d A001     		.2byte	0x1a0
 4503 1f0f 0D010000 		.4byte	0x10d
 4504 1f13 300F     		.2byte	0xf30
 4505 1f15 15       		.uleb128 0x15
 4506 1f16 273E0000 		.4byte	.LASF599
 4507 1f1a 07       		.byte	0x7
 4508 1f1b A101     		.2byte	0x1a1
 4509 1f1d 0D010000 		.4byte	0x10d
 4510 1f21 340F     		.2byte	0xf34
 4511 1f23 15       		.uleb128 0x15
 4512 1f24 A8290000 		.4byte	.LASF340
ARM GAS  C:\Users\JC\AppData\Local\Temp\ccNOiAvA.s 			page 110


 4513 1f28 07       		.byte	0x7
 4514 1f29 A201     		.2byte	0x1a2
 4515 1f2b AD1F0000 		.4byte	0x1fad
 4516 1f2f 380F     		.2byte	0xf38
 4517 1f31 00       		.byte	0
 4518 1f32 08       		.uleb128 0x8
 4519 1f33 DC010000 		.4byte	0x1dc
 4520 1f37 09       		.uleb128 0x9
 4521 1f38 321F0000 		.4byte	0x1f32
 4522 1f3c 08       		.uleb128 0x8
 4523 1f3d FC010000 		.4byte	0x1fc
 4524 1f41 09       		.uleb128 0x9
 4525 1f42 3C1F0000 		.4byte	0x1f3c
 4526 1f46 08       		.uleb128 0x8
 4527 1f47 A7010000 		.4byte	0x1a7
 4528 1f4b 09       		.uleb128 0x9
 4529 1f4c 461F0000 		.4byte	0x1f46
 4530 1f50 08       		.uleb128 0x8
 4531 1f51 A7010000 		.4byte	0x1a7
 4532 1f55 09       		.uleb128 0x9
 4533 1f56 501F0000 		.4byte	0x1f50
 4534 1f5a 08       		.uleb128 0x8
 4535 1f5b 57010000 		.4byte	0x157
 4536 1f5f 08       		.uleb128 0x8
 4537 1f60 A7010000 		.4byte	0x1a7
 4538 1f64 09       		.uleb128 0x9
 4539 1f65 5F1F0000 		.4byte	0x1f5f
 4540 1f69 08       		.uleb128 0x8
 4541 1f6a 57010000 		.4byte	0x157
 4542 1f6e 0A       		.uleb128 0xa
 4543 1f6f 12010000 		.4byte	0x112
 4544 1f73 7F1F0000 		.4byte	0x1f7f
 4545 1f77 0C       		.uleb128 0xc
 4546 1f78 B4000000 		.4byte	0xb4
 4547 1f7c 6A03     		.2byte	0x36a
 4548 1f7e 00       		.byte	0
 4549 1f7f 08       		.uleb128 0x8
 4550 1f80 6E1F0000 		.4byte	0x1f6e
 4551 1f84 09       		.uleb128 0x9
 4552 1f85 7F1F0000 		.4byte	0x1f7f
 4553 1f89 08       		.uleb128 0x8
 4554 1f8a 57010000 		.4byte	0x157
 4555 1f8e 08       		.uleb128 0x8
 4556 1f8f 37010000 		.4byte	0x137
 4557 1f93 09       		.uleb128 0x9
 4558 1f94 8E1F0000 		.4byte	0x1f8e
 4559 1f98 0A       		.uleb128 0xa
 4560 1f99 12010000 		.4byte	0x112
 4561 1f9d A81F0000 		.4byte	0x1fa8
 4562 1fa1 0B       		.uleb128 0xb
 4563 1fa2 B4000000 		.4byte	0xb4
 4564 1fa6 31       		.byte	0x31
 4565 1fa7 00       		.byte	0
 4566 1fa8 08       		.uleb128 0x8
 4567 1fa9 981F0000 		.4byte	0x1f98
 4568 1fad 09       		.uleb128 0x9
 4569 1fae A81F0000 		.4byte	0x1fa8
ARM GAS  C:\Users\JC\AppData\Local\Temp\ccNOiAvA.s 			page 111


 4570 1fb2 17       		.uleb128 0x17
 4571 1fb3 094B0000 		.4byte	.LASF600
 4572 1fb7 07       		.byte	0x7
 4573 1fb8 A301     		.2byte	0x1a3
 4574 1fba 1D1C0000 		.4byte	0x1c1d
 4575 1fbe 1A       		.uleb128 0x1a
 4576 1fbf 00000200 		.4byte	0x20000
 4577 1fc3 07       		.byte	0x7
 4578 1fc4 A801     		.2byte	0x1a8
 4579 1fc6 04200000 		.4byte	0x2004
 4580 1fca 1B       		.uleb128 0x1b
 4581 1fcb 52434200 		.ascii	"RCB\000"
 4582 1fcf 07       		.byte	0x7
 4583 1fd0 A901     		.2byte	0x1a9
 4584 1fd2 2A0C0000 		.4byte	0xc2a
 4585 1fd6 00       		.byte	0
 4586 1fd7 15       		.uleb128 0x15
 4587 1fd8 603E0000 		.4byte	.LASF271
 4588 1fdc 07       		.byte	0x7
 4589 1fdd AA01     		.2byte	0x1aa
 4590 1fdf 09200000 		.4byte	0x2009
 4591 1fe3 0002     		.2byte	0x200
 4592 1fe5 15       		.uleb128 0x15
 4593 1fe6 45000000 		.4byte	.LASF601
 4594 1fea 07       		.byte	0x7
 4595 1feb AB01     		.2byte	0x1ab
 4596 1fed 111C0000 		.4byte	0x1c11
 4597 1ff1 0010     		.2byte	0x1000
 4598 1ff3 16       		.uleb128 0x16
 4599 1ff4 6F4B0000 		.4byte	.LASF602
 4600 1ff8 07       		.byte	0x7
 4601 1ff9 AC01     		.2byte	0x1ac
 4602 1ffb B21F0000 		.4byte	0x1fb2
 4603 1fff 00F00100 		.4byte	0x1f000
 4604 2003 00       		.byte	0
 4605 2004 08       		.uleb128 0x8
 4606 2005 1D020000 		.4byte	0x21d
 4607 2009 09       		.uleb128 0x9
 4608 200a 04200000 		.4byte	0x2004
 4609 200e 17       		.uleb128 0x17
 4610 200f AD2A0000 		.4byte	.LASF603
 4611 2013 07       		.byte	0x7
 4612 2014 AD01     		.2byte	0x1ad
 4613 2016 BE1F0000 		.4byte	0x1fbe
 4614 201a 17       		.uleb128 0x17
 4615 201b E1190000 		.4byte	.LASF604
 4616 201f 08       		.byte	0x8
 4617 2020 4806     		.2byte	0x648
 4618 2022 0E200000 		.4byte	0x200e
 4619 2026 03       		.uleb128 0x3
 4620 2027 04       		.byte	0x4
 4621 2028 04       		.byte	0x4
 4622 2029 C72C0000 		.4byte	.LASF605
 4623 202d 03       		.uleb128 0x3
 4624 202e 08       		.byte	0x8
 4625 202f 04       		.byte	0x4
 4626 2030 611D0000 		.4byte	.LASF606
ARM GAS  C:\Users\JC\AppData\Local\Temp\ccNOiAvA.s 			page 112


 4627 2034 1C       		.uleb128 0x1c
 4628 2035 08       		.byte	0x8
 4629 2036 09       		.byte	0x9
 4630 2037 2D01     		.2byte	0x12d
 4631 2039 58200000 		.4byte	0x2058
 4632 203d 19       		.uleb128 0x19
 4633 203e 602D0000 		.4byte	.LASF607
 4634 2042 09       		.byte	0x9
 4635 2043 2E01     		.2byte	0x12e
 4636 2045 0B0A0000 		.4byte	0xa0b
 4637 2049 00       		.byte	0
 4638 204a 19       		.uleb128 0x19
 4639 204b 1C4D0000 		.4byte	.LASF608
 4640 204f 09       		.byte	0x9
 4641 2050 3201     		.2byte	0x132
 4642 2052 02010000 		.4byte	0x102
 4643 2056 04       		.byte	0x4
 4644 2057 00       		.byte	0
 4645 2058 17       		.uleb128 0x17
 4646 2059 E2330000 		.4byte	.LASF609
 4647 205d 09       		.byte	0x9
 4648 205e 3301     		.2byte	0x133
 4649 2060 34200000 		.4byte	0x2034
 4650 2064 1D       		.uleb128 0x1d
 4651 2065 04       		.byte	0x4
 4652 2066 2C000000 		.4byte	0x2c
 4653 206a 0A       		.byte	0xa
 4654 206b 1405     		.2byte	0x514
 4655 206d A5200000 		.4byte	0x20a5
 4656 2071 11       		.uleb128 0x11
 4657 2072 F8560000 		.4byte	.LASF610
 4658 2076 00       		.byte	0
 4659 2077 1E       		.uleb128 0x1e
 4660 2078 67130000 		.4byte	.LASF611
 4661 207c 01004200 		.4byte	0x420001
 4662 2080 1E       		.uleb128 0x1e
 4663 2081 F0240000 		.4byte	.LASF612
 4664 2085 02004200 		.4byte	0x420002
 4665 2089 1E       		.uleb128 0x1e
 4666 208a D2230000 		.4byte	.LASF613
 4667 208e 03004200 		.4byte	0x420003
 4668 2092 1E       		.uleb128 0x1e
 4669 2093 FB030000 		.4byte	.LASF614
 4670 2097 04004200 		.4byte	0x420004
 4671 209b 1E       		.uleb128 0x1e
 4672 209c E5060000 		.4byte	.LASF615
 4673 20a0 FF004200 		.4byte	0x4200ff
 4674 20a4 00       		.byte	0
 4675 20a5 17       		.uleb128 0x17
 4676 20a6 30580000 		.4byte	.LASF616
 4677 20aa 0A       		.byte	0xa
 4678 20ab 1C05     		.2byte	0x51c
 4679 20ad 64200000 		.4byte	0x2064
 4680 20b1 1D       		.uleb128 0x1d
 4681 20b2 01       		.byte	0x1
 4682 20b3 5E000000 		.4byte	0x5e
 4683 20b7 0A       		.byte	0xa
ARM GAS  C:\Users\JC\AppData\Local\Temp\ccNOiAvA.s 			page 113


 4684 20b8 2305     		.2byte	0x523
 4685 20ba CB200000 		.4byte	0x20cb
 4686 20be 11       		.uleb128 0x11
 4687 20bf 1E370000 		.4byte	.LASF617
 4688 20c3 00       		.byte	0
 4689 20c4 11       		.uleb128 0x11
 4690 20c5 B30D0000 		.4byte	.LASF618
 4691 20c9 01       		.byte	0x1
 4692 20ca 00       		.byte	0
 4693 20cb 1D       		.uleb128 0x1d
 4694 20cc 01       		.byte	0x1
 4695 20cd 5E000000 		.4byte	0x5e
 4696 20d1 0A       		.byte	0xa
 4697 20d2 B205     		.2byte	0x5b2
 4698 20d4 F7200000 		.4byte	0x20f7
 4699 20d8 11       		.uleb128 0x11
 4700 20d9 77470000 		.4byte	.LASF619
 4701 20dd 00       		.byte	0
 4702 20de 11       		.uleb128 0x11
 4703 20df 3E3A0000 		.4byte	.LASF620
 4704 20e3 01       		.byte	0x1
 4705 20e4 11       		.uleb128 0x11
 4706 20e5 68220000 		.4byte	.LASF621
 4707 20e9 02       		.byte	0x2
 4708 20ea 11       		.uleb128 0x11
 4709 20eb 03530000 		.4byte	.LASF622
 4710 20ef 03       		.byte	0x3
 4711 20f0 11       		.uleb128 0x11
 4712 20f1 4C2F0000 		.4byte	.LASF623
 4713 20f5 04       		.byte	0x4
 4714 20f6 00       		.byte	0
 4715 20f7 17       		.uleb128 0x17
 4716 20f8 AD000000 		.4byte	.LASF624
 4717 20fc 0A       		.byte	0xa
 4718 20fd B805     		.2byte	0x5b8
 4719 20ff CB200000 		.4byte	0x20cb
 4720 2103 1D       		.uleb128 0x1d
 4721 2104 01       		.byte	0x1
 4722 2105 5E000000 		.4byte	0x5e
 4723 2109 0A       		.byte	0xa
 4724 210a BC05     		.2byte	0x5bc
 4725 210c 29210000 		.4byte	0x2129
 4726 2110 11       		.uleb128 0x11
 4727 2111 7F560000 		.4byte	.LASF625
 4728 2115 01       		.byte	0x1
 4729 2116 11       		.uleb128 0x11
 4730 2117 1F430000 		.4byte	.LASF626
 4731 211b 02       		.byte	0x2
 4732 211c 11       		.uleb128 0x11
 4733 211d D14A0000 		.4byte	.LASF627
 4734 2121 04       		.byte	0x4
 4735 2122 11       		.uleb128 0x11
 4736 2123 74340000 		.4byte	.LASF628
 4737 2127 08       		.byte	0x8
 4738 2128 00       		.byte	0
 4739 2129 17       		.uleb128 0x17
 4740 212a 2E3D0000 		.4byte	.LASF629
ARM GAS  C:\Users\JC\AppData\Local\Temp\ccNOiAvA.s 			page 114


 4741 212e 0A       		.byte	0xa
 4742 212f CB05     		.2byte	0x5cb
 4743 2131 03210000 		.4byte	0x2103
 4744 2135 1C       		.uleb128 0x1c
 4745 2136 08       		.byte	0x8
 4746 2137 0A       		.byte	0xa
 4747 2138 E705     		.2byte	0x5e7
 4748 213a 59210000 		.4byte	0x2159
 4749 213e 19       		.uleb128 0x19
 4750 213f 1F2B0000 		.4byte	.LASF630
 4751 2143 0A       		.byte	0xa
 4752 2144 E905     		.2byte	0x5e9
 4753 2146 BB000000 		.4byte	0xbb
 4754 214a 00       		.byte	0
 4755 214b 19       		.uleb128 0x19
 4756 214c FF450000 		.4byte	.LASF631
 4757 2150 0A       		.byte	0xa
 4758 2151 EC05     		.2byte	0x5ec
 4759 2153 BB000000 		.4byte	0xbb
 4760 2157 04       		.byte	0x4
 4761 2158 00       		.byte	0
 4762 2159 17       		.uleb128 0x17
 4763 215a AB550000 		.4byte	.LASF632
 4764 215e 0A       		.byte	0xa
 4765 215f EF05     		.2byte	0x5ef
 4766 2161 35210000 		.4byte	0x2135
 4767 2165 17       		.uleb128 0x17
 4768 2166 CA0B0000 		.4byte	.LASF633
 4769 216a 0A       		.byte	0xa
 4770 216b F205     		.2byte	0x5f2
 4771 216d 71210000 		.4byte	0x2171
 4772 2171 06       		.uleb128 0x6
 4773 2172 04       		.byte	0x4
 4774 2173 77210000 		.4byte	0x2177
 4775 2177 1F       		.uleb128 0x1f
 4776 2178 A5200000 		.4byte	0x20a5
 4777 217c 8B210000 		.4byte	0x218b
 4778 2180 20       		.uleb128 0x20
 4779 2181 8B210000 		.4byte	0x218b
 4780 2185 20       		.uleb128 0x20
 4781 2186 29210000 		.4byte	0x2129
 4782 218a 00       		.byte	0
 4783 218b 06       		.uleb128 0x6
 4784 218c 04       		.byte	0x4
 4785 218d 59210000 		.4byte	0x2159
 4786 2191 21       		.uleb128 0x21
 4787 2192 D4370000 		.4byte	.LASF1073
 4788 2196 18       		.byte	0x18
 4789 2197 0A       		.byte	0xa
 4790 2198 F505     		.2byte	0x5f5
 4791 219a ED210000 		.4byte	0x21ed
 4792 219e 19       		.uleb128 0x19
 4793 219f BC310000 		.4byte	.LASF634
 4794 21a3 0A       		.byte	0xa
 4795 21a4 F705     		.2byte	0x5f7
 4796 21a6 65210000 		.4byte	0x2165
 4797 21aa 00       		.byte	0
ARM GAS  C:\Users\JC\AppData\Local\Temp\ccNOiAvA.s 			page 115


 4798 21ab 19       		.uleb128 0x19
 4799 21ac 9F310000 		.4byte	.LASF635
 4800 21b0 0A       		.byte	0xa
 4801 21b1 F805     		.2byte	0x5f8
 4802 21b3 F7200000 		.4byte	0x20f7
 4803 21b7 04       		.byte	0x4
 4804 21b8 19       		.uleb128 0x19
 4805 21b9 0B1F0000 		.4byte	.LASF636
 4806 21bd 0A       		.byte	0xa
 4807 21be F905     		.2byte	0x5f9
 4808 21c0 02010000 		.4byte	0x102
 4809 21c4 08       		.byte	0x8
 4810 21c5 19       		.uleb128 0x19
 4811 21c6 85370000 		.4byte	.LASF637
 4812 21ca 0A       		.byte	0xa
 4813 21cb 0106     		.2byte	0x601
 4814 21cd 8B210000 		.4byte	0x218b
 4815 21d1 0C       		.byte	0xc
 4816 21d2 19       		.uleb128 0x19
 4817 21d3 17170000 		.4byte	.LASF638
 4818 21d7 0A       		.byte	0xa
 4819 21d8 0406     		.2byte	0x604
 4820 21da ED210000 		.4byte	0x21ed
 4821 21de 10       		.byte	0x10
 4822 21df 19       		.uleb128 0x19
 4823 21e0 EC2A0000 		.4byte	.LASF639
 4824 21e4 0A       		.byte	0xa
 4825 21e5 0A06     		.2byte	0x60a
 4826 21e7 ED210000 		.4byte	0x21ed
 4827 21eb 14       		.byte	0x14
 4828 21ec 00       		.byte	0
 4829 21ed 06       		.uleb128 0x6
 4830 21ee 04       		.byte	0x4
 4831 21ef 91210000 		.4byte	0x2191
 4832 21f3 17       		.uleb128 0x17
 4833 21f4 2D260000 		.4byte	.LASF640
 4834 21f8 0A       		.byte	0xa
 4835 21f9 0F06     		.2byte	0x60f
 4836 21fb 91210000 		.4byte	0x2191
 4837 21ff 1D       		.uleb128 0x1d
 4838 2200 02       		.byte	0x2
 4839 2201 82000000 		.4byte	0x82
 4840 2205 0B       		.byte	0xb
 4841 2206 5401     		.2byte	0x154
 4842 2208 3F250000 		.4byte	0x253f
 4843 220c 11       		.uleb128 0x11
 4844 220d 3E140000 		.4byte	.LASF641
 4845 2211 00       		.byte	0
 4846 2212 22       		.uleb128 0x22
 4847 2213 05360000 		.4byte	.LASF642
 4848 2217 0010     		.2byte	0x1000
 4849 2219 22       		.uleb128 0x22
 4850 221a 87540000 		.4byte	.LASF643
 4851 221e 0110     		.2byte	0x1001
 4852 2220 22       		.uleb128 0x22
 4853 2221 BA250000 		.4byte	.LASF644
 4854 2225 0210     		.2byte	0x1002
ARM GAS  C:\Users\JC\AppData\Local\Temp\ccNOiAvA.s 			page 116


 4855 2227 22       		.uleb128 0x22
 4856 2228 A00A0000 		.4byte	.LASF645
 4857 222c 0310     		.2byte	0x1003
 4858 222e 22       		.uleb128 0x22
 4859 222f 50150000 		.4byte	.LASF646
 4860 2233 0410     		.2byte	0x1004
 4861 2235 22       		.uleb128 0x22
 4862 2236 66560000 		.4byte	.LASF647
 4863 223a 0510     		.2byte	0x1005
 4864 223c 22       		.uleb128 0x22
 4865 223d EE080000 		.4byte	.LASF648
 4866 2241 0020     		.2byte	0x2000
 4867 2243 22       		.uleb128 0x22
 4868 2244 BD030000 		.4byte	.LASF649
 4869 2248 0120     		.2byte	0x2001
 4870 224a 22       		.uleb128 0x22
 4871 224b D7250000 		.4byte	.LASF650
 4872 224f 0220     		.2byte	0x2002
 4873 2251 22       		.uleb128 0x22
 4874 2252 38540000 		.4byte	.LASF651
 4875 2256 0320     		.2byte	0x2003
 4876 2258 22       		.uleb128 0x22
 4877 2259 15040000 		.4byte	.LASF652
 4878 225d 0420     		.2byte	0x2004
 4879 225f 22       		.uleb128 0x22
 4880 2260 50370000 		.4byte	.LASF653
 4881 2264 0520     		.2byte	0x2005
 4882 2266 22       		.uleb128 0x22
 4883 2267 FF050000 		.4byte	.LASF654
 4884 226b 0620     		.2byte	0x2006
 4885 226d 22       		.uleb128 0x22
 4886 226e 2E080000 		.4byte	.LASF655
 4887 2272 0720     		.2byte	0x2007
 4888 2274 22       		.uleb128 0x22
 4889 2275 7B510000 		.4byte	.LASF656
 4890 2279 0820     		.2byte	0x2008
 4891 227b 22       		.uleb128 0x22
 4892 227c 090F0000 		.4byte	.LASF657
 4893 2280 0920     		.2byte	0x2009
 4894 2282 22       		.uleb128 0x22
 4895 2283 E0000000 		.4byte	.LASF658
 4896 2287 0A20     		.2byte	0x200a
 4897 2289 22       		.uleb128 0x22
 4898 228a FC260000 		.4byte	.LASF659
 4899 228e 0B20     		.2byte	0x200b
 4900 2290 22       		.uleb128 0x22
 4901 2291 34110000 		.4byte	.LASF660
 4902 2295 0C20     		.2byte	0x200c
 4903 2297 22       		.uleb128 0x22
 4904 2298 871A0000 		.4byte	.LASF661
 4905 229c 0D20     		.2byte	0x200d
 4906 229e 22       		.uleb128 0x22
 4907 229f 7B380000 		.4byte	.LASF662
 4908 22a3 0E20     		.2byte	0x200e
 4909 22a5 22       		.uleb128 0x22
 4910 22a6 7E460000 		.4byte	.LASF663
 4911 22aa 0F20     		.2byte	0x200f
ARM GAS  C:\Users\JC\AppData\Local\Temp\ccNOiAvA.s 			page 117


 4912 22ac 22       		.uleb128 0x22
 4913 22ad A9110000 		.4byte	.LASF664
 4914 22b1 1020     		.2byte	0x2010
 4915 22b3 22       		.uleb128 0x22
 4916 22b4 00260000 		.4byte	.LASF665
 4917 22b8 1120     		.2byte	0x2011
 4918 22ba 22       		.uleb128 0x22
 4919 22bb F3090000 		.4byte	.LASF666
 4920 22bf 1220     		.2byte	0x2012
 4921 22c1 22       		.uleb128 0x22
 4922 22c2 F9280000 		.4byte	.LASF667
 4923 22c6 1320     		.2byte	0x2013
 4924 22c8 22       		.uleb128 0x22
 4925 22c9 6B160000 		.4byte	.LASF668
 4926 22cd 1420     		.2byte	0x2014
 4927 22cf 22       		.uleb128 0x22
 4928 22d0 AB2C0000 		.4byte	.LASF669
 4929 22d4 1520     		.2byte	0x2015
 4930 22d6 22       		.uleb128 0x22
 4931 22d7 5C280000 		.4byte	.LASF670
 4932 22db 1620     		.2byte	0x2016
 4933 22dd 22       		.uleb128 0x22
 4934 22de 33290000 		.4byte	.LASF671
 4935 22e2 1720     		.2byte	0x2017
 4936 22e4 22       		.uleb128 0x22
 4937 22e5 AD390000 		.4byte	.LASF672
 4938 22e9 0030     		.2byte	0x3000
 4939 22eb 22       		.uleb128 0x22
 4940 22ec D8340000 		.4byte	.LASF673
 4941 22f0 0130     		.2byte	0x3001
 4942 22f2 22       		.uleb128 0x22
 4943 22f3 EE570000 		.4byte	.LASF674
 4944 22f7 0230     		.2byte	0x3002
 4945 22f9 22       		.uleb128 0x22
 4946 22fa 3B4C0000 		.4byte	.LASF675
 4947 22fe 0330     		.2byte	0x3003
 4948 2300 22       		.uleb128 0x22
 4949 2301 061A0000 		.4byte	.LASF676
 4950 2305 0430     		.2byte	0x3004
 4951 2307 22       		.uleb128 0x22
 4952 2308 AB3D0000 		.4byte	.LASF677
 4953 230c 0530     		.2byte	0x3005
 4954 230e 22       		.uleb128 0x22
 4955 230f 10070000 		.4byte	.LASF678
 4956 2313 0630     		.2byte	0x3006
 4957 2315 22       		.uleb128 0x22
 4958 2316 E2020000 		.4byte	.LASF679
 4959 231a 0730     		.2byte	0x3007
 4960 231c 22       		.uleb128 0x22
 4961 231d 82570000 		.4byte	.LASF680
 4962 2321 0830     		.2byte	0x3008
 4963 2323 22       		.uleb128 0x22
 4964 2324 B6500000 		.4byte	.LASF681
 4965 2328 0930     		.2byte	0x3009
 4966 232a 22       		.uleb128 0x22
 4967 232b CD3C0000 		.4byte	.LASF682
 4968 232f 0A30     		.2byte	0x300a
ARM GAS  C:\Users\JC\AppData\Local\Temp\ccNOiAvA.s 			page 118


 4969 2331 22       		.uleb128 0x22
 4970 2332 501C0000 		.4byte	.LASF683
 4971 2336 0B30     		.2byte	0x300b
 4972 2338 22       		.uleb128 0x22
 4973 2339 9D4B0000 		.4byte	.LASF684
 4974 233d 0C30     		.2byte	0x300c
 4975 233f 22       		.uleb128 0x22
 4976 2340 F14C0000 		.4byte	.LASF685
 4977 2344 1130     		.2byte	0x3011
 4978 2346 22       		.uleb128 0x22
 4979 2347 C6460000 		.4byte	.LASF686
 4980 234b 1230     		.2byte	0x3012
 4981 234d 22       		.uleb128 0x22
 4982 234e 182C0000 		.4byte	.LASF687
 4983 2352 1330     		.2byte	0x3013
 4984 2354 22       		.uleb128 0x22
 4985 2355 A5070000 		.4byte	.LASF688
 4986 2359 1430     		.2byte	0x3014
 4987 235b 22       		.uleb128 0x22
 4988 235c E4350000 		.4byte	.LASF689
 4989 2360 1530     		.2byte	0x3015
 4990 2362 22       		.uleb128 0x22
 4991 2363 76110000 		.4byte	.LASF690
 4992 2367 1630     		.2byte	0x3016
 4993 2369 22       		.uleb128 0x22
 4994 236a F7340000 		.4byte	.LASF691
 4995 236e 1730     		.2byte	0x3017
 4996 2370 22       		.uleb128 0x22
 4997 2371 20420000 		.4byte	.LASF692
 4998 2375 1830     		.2byte	0x3018
 4999 2377 22       		.uleb128 0x22
 5000 2378 232E0000 		.4byte	.LASF693
 5001 237c 1930     		.2byte	0x3019
 5002 237e 22       		.uleb128 0x22
 5003 237f F32B0000 		.4byte	.LASF694
 5004 2383 0040     		.2byte	0x4000
 5005 2385 22       		.uleb128 0x22
 5006 2386 28520000 		.4byte	.LASF695
 5007 238a 0140     		.2byte	0x4001
 5008 238c 22       		.uleb128 0x22
 5009 238d 7B410000 		.4byte	.LASF696
 5010 2391 0240     		.2byte	0x4002
 5011 2393 22       		.uleb128 0x22
 5012 2394 EE4D0000 		.4byte	.LASF697
 5013 2398 0340     		.2byte	0x4003
 5014 239a 22       		.uleb128 0x22
 5015 239b E6320000 		.4byte	.LASF698
 5016 239f 0440     		.2byte	0x4004
 5017 23a1 22       		.uleb128 0x22
 5018 23a2 FB4B0000 		.4byte	.LASF699
 5019 23a6 0540     		.2byte	0x4005
 5020 23a8 22       		.uleb128 0x22
 5021 23a9 7C100000 		.4byte	.LASF700
 5022 23ad 0640     		.2byte	0x4006
 5023 23af 22       		.uleb128 0x22
 5024 23b0 6F1F0000 		.4byte	.LASF701
 5025 23b4 0740     		.2byte	0x4007
ARM GAS  C:\Users\JC\AppData\Local\Temp\ccNOiAvA.s 			page 119


 5026 23b6 22       		.uleb128 0x22
 5027 23b7 70530000 		.4byte	.LASF702
 5028 23bb 0840     		.2byte	0x4008
 5029 23bd 22       		.uleb128 0x22
 5030 23be A0450000 		.4byte	.LASF703
 5031 23c2 0940     		.2byte	0x4009
 5032 23c4 22       		.uleb128 0x22
 5033 23c5 EF0D0000 		.4byte	.LASF704
 5034 23c9 0A40     		.2byte	0x400a
 5035 23cb 22       		.uleb128 0x22
 5036 23cc C4070000 		.4byte	.LASF705
 5037 23d0 0B40     		.2byte	0x400b
 5038 23d2 22       		.uleb128 0x22
 5039 23d3 19480000 		.4byte	.LASF706
 5040 23d7 0C40     		.2byte	0x400c
 5041 23d9 22       		.uleb128 0x22
 5042 23da 98340000 		.4byte	.LASF707
 5043 23de 0D40     		.2byte	0x400d
 5044 23e0 22       		.uleb128 0x22
 5045 23e1 15510000 		.4byte	.LASF708
 5046 23e5 0E40     		.2byte	0x400e
 5047 23e7 22       		.uleb128 0x22
 5048 23e8 94130000 		.4byte	.LASF709
 5049 23ec 0F40     		.2byte	0x400f
 5050 23ee 22       		.uleb128 0x22
 5051 23ef 0D030000 		.4byte	.LASF710
 5052 23f3 1040     		.2byte	0x4010
 5053 23f5 22       		.uleb128 0x22
 5054 23f6 A02E0000 		.4byte	.LASF711
 5055 23fa 1140     		.2byte	0x4011
 5056 23fc 22       		.uleb128 0x22
 5057 23fd 6F150000 		.4byte	.LASF712
 5058 2401 1240     		.2byte	0x4012
 5059 2403 22       		.uleb128 0x22
 5060 2404 07220000 		.4byte	.LASF713
 5061 2408 1340     		.2byte	0x4013
 5062 240a 22       		.uleb128 0x22
 5063 240b 88300000 		.4byte	.LASF714
 5064 240f 1440     		.2byte	0x4014
 5065 2411 22       		.uleb128 0x22
 5066 2412 58090000 		.4byte	.LASF715
 5067 2416 1540     		.2byte	0x4015
 5068 2418 22       		.uleb128 0x22
 5069 2419 033C0000 		.4byte	.LASF716
 5070 241d 1640     		.2byte	0x4016
 5071 241f 22       		.uleb128 0x22
 5072 2420 EC2C0000 		.4byte	.LASF717
 5073 2424 1740     		.2byte	0x4017
 5074 2426 22       		.uleb128 0x22
 5075 2427 981E0000 		.4byte	.LASF718
 5076 242b 1840     		.2byte	0x4018
 5077 242d 22       		.uleb128 0x22
 5078 242e 850D0000 		.4byte	.LASF719
 5079 2432 1940     		.2byte	0x4019
 5080 2434 22       		.uleb128 0x22
 5081 2435 38240000 		.4byte	.LASF720
 5082 2439 1A40     		.2byte	0x401a
ARM GAS  C:\Users\JC\AppData\Local\Temp\ccNOiAvA.s 			page 120


 5083 243b 22       		.uleb128 0x22
 5084 243c A42D0000 		.4byte	.LASF721
 5085 2440 0050     		.2byte	0x5000
 5086 2442 22       		.uleb128 0x22
 5087 2443 0C180000 		.4byte	.LASF722
 5088 2447 0150     		.2byte	0x5001
 5089 2449 22       		.uleb128 0x22
 5090 244a 78140000 		.4byte	.LASF723
 5091 244e 0250     		.2byte	0x5002
 5092 2450 22       		.uleb128 0x22
 5093 2451 314A0000 		.4byte	.LASF724
 5094 2455 0350     		.2byte	0x5003
 5095 2457 22       		.uleb128 0x22
 5096 2458 54450000 		.4byte	.LASF725
 5097 245c 0450     		.2byte	0x5004
 5098 245e 22       		.uleb128 0x22
 5099 245f A31C0000 		.4byte	.LASF726
 5100 2463 0550     		.2byte	0x5005
 5101 2465 22       		.uleb128 0x22
 5102 2466 1E270000 		.4byte	.LASF727
 5103 246a 0650     		.2byte	0x5006
 5104 246c 22       		.uleb128 0x22
 5105 246d DA1B0000 		.4byte	.LASF728
 5106 2471 0750     		.2byte	0x5007
 5107 2473 22       		.uleb128 0x22
 5108 2474 A8200000 		.4byte	.LASF729
 5109 2478 0850     		.2byte	0x5008
 5110 247a 22       		.uleb128 0x22
 5111 247b 1A280000 		.4byte	.LASF730
 5112 247f 0950     		.2byte	0x5009
 5113 2481 22       		.uleb128 0x22
 5114 2482 80310000 		.4byte	.LASF731
 5115 2486 0A50     		.2byte	0x500a
 5116 2488 22       		.uleb128 0x22
 5117 2489 D9220000 		.4byte	.LASF732
 5118 248d 0B50     		.2byte	0x500b
 5119 248f 22       		.uleb128 0x22
 5120 2490 4B560000 		.4byte	.LASF733
 5121 2494 0C50     		.2byte	0x500c
 5122 2496 22       		.uleb128 0x22
 5123 2497 600F0000 		.4byte	.LASF734
 5124 249b 0D50     		.2byte	0x500d
 5125 249d 22       		.uleb128 0x22
 5126 249e 37380000 		.4byte	.LASF735
 5127 24a2 0E50     		.2byte	0x500e
 5128 24a4 22       		.uleb128 0x22
 5129 24a5 BE520000 		.4byte	.LASF736
 5130 24a9 0F50     		.2byte	0x500f
 5131 24ab 22       		.uleb128 0x22
 5132 24ac 652B0000 		.4byte	.LASF737
 5133 24b0 1050     		.2byte	0x5010
 5134 24b2 22       		.uleb128 0x22
 5135 24b3 16310000 		.4byte	.LASF738
 5136 24b7 1150     		.2byte	0x5011
 5137 24b9 22       		.uleb128 0x22
 5138 24ba BE430000 		.4byte	.LASF739
 5139 24be 1250     		.2byte	0x5012
ARM GAS  C:\Users\JC\AppData\Local\Temp\ccNOiAvA.s 			page 121


 5140 24c0 22       		.uleb128 0x22
 5141 24c1 48020000 		.4byte	.LASF740
 5142 24c5 1350     		.2byte	0x5013
 5143 24c7 22       		.uleb128 0x22
 5144 24c8 4C490000 		.4byte	.LASF741
 5145 24cc 1450     		.2byte	0x5014
 5146 24ce 22       		.uleb128 0x22
 5147 24cf 8F160000 		.4byte	.LASF742
 5148 24d3 1550     		.2byte	0x5015
 5149 24d5 22       		.uleb128 0x22
 5150 24d6 AA050000 		.4byte	.LASF743
 5151 24da 1650     		.2byte	0x5016
 5152 24dc 22       		.uleb128 0x22
 5153 24dd 222F0000 		.4byte	.LASF744
 5154 24e1 1750     		.2byte	0x5017
 5155 24e3 22       		.uleb128 0x22
 5156 24e4 49200000 		.4byte	.LASF745
 5157 24e8 1850     		.2byte	0x5018
 5158 24ea 22       		.uleb128 0x22
 5159 24eb 870F0000 		.4byte	.LASF746
 5160 24ef 0060     		.2byte	0x6000
 5161 24f1 22       		.uleb128 0x22
 5162 24f2 231A0000 		.4byte	.LASF747
 5163 24f6 0160     		.2byte	0x6001
 5164 24f8 22       		.uleb128 0x22
 5165 24f9 66270000 		.4byte	.LASF748
 5166 24fd 0260     		.2byte	0x6002
 5167 24ff 22       		.uleb128 0x22
 5168 2500 20340000 		.4byte	.LASF749
 5169 2504 0360     		.2byte	0x6003
 5170 2506 22       		.uleb128 0x22
 5171 2507 39190000 		.4byte	.LASF750
 5172 250b 0460     		.2byte	0x6004
 5173 250d 22       		.uleb128 0x22
 5174 250e CC570000 		.4byte	.LASF751
 5175 2512 0560     		.2byte	0x6005
 5176 2514 22       		.uleb128 0x22
 5177 2515 D2410000 		.4byte	.LASF752
 5178 2519 0660     		.2byte	0x6006
 5179 251b 22       		.uleb128 0x22
 5180 251c 863C0000 		.4byte	.LASF753
 5181 2520 0760     		.2byte	0x6007
 5182 2522 22       		.uleb128 0x22
 5183 2523 333C0000 		.4byte	.LASF754
 5184 2527 0860     		.2byte	0x6008
 5185 2529 22       		.uleb128 0x22
 5186 252a 7F520000 		.4byte	.LASF755
 5187 252e 0960     		.2byte	0x6009
 5188 2530 22       		.uleb128 0x22
 5189 2531 56380000 		.4byte	.LASF756
 5190 2535 0A60     		.2byte	0x600a
 5191 2537 22       		.uleb128 0x22
 5192 2538 E0160000 		.4byte	.LASF757
 5193 253c FFFF     		.2byte	0xffff
 5194 253e 00       		.byte	0
 5195 253f 17       		.uleb128 0x17
 5196 2540 0E450000 		.4byte	.LASF758
ARM GAS  C:\Users\JC\AppData\Local\Temp\ccNOiAvA.s 			page 122


 5197 2544 0B       		.byte	0xb
 5198 2545 D604     		.2byte	0x4d6
 5199 2547 FF210000 		.4byte	0x21ff
 5200 254b 1D       		.uleb128 0x1d
 5201 254c 04       		.byte	0x4
 5202 254d 2C000000 		.4byte	0x2c
 5203 2551 0B       		.byte	0xb
 5204 2552 E004     		.2byte	0x4e0
 5205 2554 64260000 		.4byte	0x2664
 5206 2558 11       		.uleb128 0x11
 5207 2559 12460000 		.4byte	.LASF759
 5208 255d 00       		.byte	0
 5209 255e 1E       		.uleb128 0x1e
 5210 255f BC290000 		.4byte	.LASF760
 5211 2563 01001400 		.4byte	0x140001
 5212 2567 1E       		.uleb128 0x1e
 5213 2568 0C3F0000 		.4byte	.LASF761
 5214 256c 01001600 		.4byte	0x160001
 5215 2570 1E       		.uleb128 0x1e
 5216 2571 684A0000 		.4byte	.LASF762
 5217 2575 02001600 		.4byte	0x160002
 5218 2579 1E       		.uleb128 0x1e
 5219 257a A71B0000 		.4byte	.LASF763
 5220 257e 03001600 		.4byte	0x160003
 5221 2582 1E       		.uleb128 0x1e
 5222 2583 CF090000 		.4byte	.LASF764
 5223 2587 04001600 		.4byte	0x160004
 5224 258b 1E       		.uleb128 0x1e
 5225 258c F2330000 		.4byte	.LASF765
 5226 2590 05001600 		.4byte	0x160005
 5227 2594 1E       		.uleb128 0x1e
 5228 2595 65390000 		.4byte	.LASF766
 5229 2599 06001600 		.4byte	0x160006
 5230 259d 1E       		.uleb128 0x1e
 5231 259e 2F120000 		.4byte	.LASF767
 5232 25a2 07001600 		.4byte	0x160007
 5233 25a6 1E       		.uleb128 0x1e
 5234 25a7 16190000 		.4byte	.LASF768
 5235 25ab 08001600 		.4byte	0x160008
 5236 25af 1E       		.uleb128 0x1e
 5237 25b0 84360000 		.4byte	.LASF769
 5238 25b4 09001600 		.4byte	0x160009
 5239 25b8 1E       		.uleb128 0x1e
 5240 25b9 01300000 		.4byte	.LASF770
 5241 25bd 0A001600 		.4byte	0x16000a
 5242 25c1 1E       		.uleb128 0x1e
 5243 25c2 BC510000 		.4byte	.LASF771
 5244 25c6 0B001600 		.4byte	0x16000b
 5245 25ca 1E       		.uleb128 0x1e
 5246 25cb 11230000 		.4byte	.LASF772
 5247 25cf 0C001600 		.4byte	0x16000c
 5248 25d3 1E       		.uleb128 0x1e
 5249 25d4 FE1D0000 		.4byte	.LASF773
 5250 25d8 0D001600 		.4byte	0x16000d
 5251 25dc 1E       		.uleb128 0x1e
 5252 25dd 3A0F0000 		.4byte	.LASF774
 5253 25e1 0E001600 		.4byte	0x16000e
ARM GAS  C:\Users\JC\AppData\Local\Temp\ccNOiAvA.s 			page 123


 5254 25e5 1E       		.uleb128 0x1e
 5255 25e6 1B470000 		.4byte	.LASF775
 5256 25ea 0F001600 		.4byte	0x16000f
 5257 25ee 1E       		.uleb128 0x1e
 5258 25ef 7A4C0000 		.4byte	.LASF776
 5259 25f3 10001600 		.4byte	0x160010
 5260 25f7 1E       		.uleb128 0x1e
 5261 25f8 D52D0000 		.4byte	.LASF777
 5262 25fc 11001600 		.4byte	0x160011
 5263 2600 1E       		.uleb128 0x1e
 5264 2601 27440000 		.4byte	.LASF778
 5265 2605 12001600 		.4byte	0x160012
 5266 2609 1E       		.uleb128 0x1e
 5267 260a B7170000 		.4byte	.LASF779
 5268 260e 13001600 		.4byte	0x160013
 5269 2612 1E       		.uleb128 0x1e
 5270 2613 63260000 		.4byte	.LASF780
 5271 2617 14001600 		.4byte	0x160014
 5272 261b 1E       		.uleb128 0x1e
 5273 261c 15290000 		.4byte	.LASF781
 5274 2620 15001600 		.4byte	0x160015
 5275 2624 1E       		.uleb128 0x1e
 5276 2625 C93F0000 		.4byte	.LASF782
 5277 2629 16001600 		.4byte	0x160016
 5278 262d 1E       		.uleb128 0x1e
 5279 262e 61580000 		.4byte	.LASF783
 5280 2632 17001600 		.4byte	0x160017
 5281 2636 1E       		.uleb128 0x1e
 5282 2637 C22E0000 		.4byte	.LASF784
 5283 263b 18001600 		.4byte	0x160018
 5284 263f 1E       		.uleb128 0x1e
 5285 2640 91470000 		.4byte	.LASF785
 5286 2644 19001600 		.4byte	0x160019
 5287 2648 1E       		.uleb128 0x1e
 5288 2649 7D3A0000 		.4byte	.LASF786
 5289 264d FE001600 		.4byte	0x1600fe
 5290 2651 1E       		.uleb128 0x1e
 5291 2652 F42A0000 		.4byte	.LASF787
 5292 2656 FF001600 		.4byte	0x1600ff
 5293 265a 1E       		.uleb128 0x1e
 5294 265b 8F450000 		.4byte	.LASF788
 5295 265f FFFF1600 		.4byte	0x16ffff
 5296 2663 00       		.byte	0
 5297 2664 17       		.uleb128 0x17
 5298 2665 280C0000 		.4byte	.LASF789
 5299 2669 0B       		.byte	0xb
 5300 266a 4305     		.2byte	0x543
 5301 266c 4B250000 		.4byte	0x254b
 5302 2670 17       		.uleb128 0x17
 5303 2671 1C120000 		.4byte	.LASF790
 5304 2675 0B       		.byte	0xb
 5305 2676 4B05     		.2byte	0x54b
 5306 2678 7C260000 		.4byte	0x267c
 5307 267c 06       		.uleb128 0x6
 5308 267d 04       		.byte	0x4
 5309 267e 82260000 		.4byte	0x2682
 5310 2682 23       		.uleb128 0x23
ARM GAS  C:\Users\JC\AppData\Local\Temp\ccNOiAvA.s 			page 124


 5311 2683 92260000 		.4byte	0x2692
 5312 2687 20       		.uleb128 0x20
 5313 2688 3F250000 		.4byte	0x253f
 5314 268c 20       		.uleb128 0x20
 5315 268d BB000000 		.4byte	0xbb
 5316 2691 00       		.byte	0
 5317 2692 1C       		.uleb128 0x1c
 5318 2693 07       		.byte	0x7
 5319 2694 0B       		.byte	0xb
 5320 2695 6105     		.2byte	0x561
 5321 2697 B6260000 		.4byte	0x26b6
 5322 269b 19       		.uleb128 0x19
 5323 269c 79230000 		.4byte	.LASF791
 5324 26a0 0B       		.byte	0xb
 5325 26a1 6405     		.2byte	0x564
 5326 26a3 B6260000 		.4byte	0x26b6
 5327 26a7 00       		.byte	0
 5328 26a8 19       		.uleb128 0x19
 5329 26a9 9F310000 		.4byte	.LASF635
 5330 26ad 0B       		.byte	0xb
 5331 26ae 6705     		.2byte	0x567
 5332 26b0 D6000000 		.4byte	0xd6
 5333 26b4 06       		.byte	0x6
 5334 26b5 00       		.byte	0
 5335 26b6 0A       		.uleb128 0xa
 5336 26b7 D6000000 		.4byte	0xd6
 5337 26bb C6260000 		.4byte	0x26c6
 5338 26bf 0B       		.uleb128 0xb
 5339 26c0 B4000000 		.4byte	0xb4
 5340 26c4 05       		.byte	0x5
 5341 26c5 00       		.byte	0
 5342 26c6 17       		.uleb128 0x17
 5343 26c7 70370000 		.4byte	.LASF792
 5344 26cb 0B       		.byte	0xb
 5345 26cc 6905     		.2byte	0x569
 5346 26ce 92260000 		.4byte	0x2692
 5347 26d2 1C       		.uleb128 0x1c
 5348 26d3 06       		.byte	0x6
 5349 26d4 0B       		.byte	0xb
 5350 26d5 7005     		.2byte	0x570
 5351 26d7 10270000 		.4byte	0x2710
 5352 26db 19       		.uleb128 0x19
 5353 26dc B24F0000 		.4byte	.LASF793
 5354 26e0 0B       		.byte	0xb
 5355 26e1 7605     		.2byte	0x576
 5356 26e3 EC000000 		.4byte	0xec
 5357 26e7 00       		.byte	0
 5358 26e8 19       		.uleb128 0x19
 5359 26e9 733C0000 		.4byte	.LASF794
 5360 26ed 0B       		.byte	0xb
 5361 26ee 7C05     		.2byte	0x57c
 5362 26f0 EC000000 		.4byte	0xec
 5363 26f4 02       		.byte	0x2
 5364 26f5 19       		.uleb128 0x19
 5365 26f6 2C350000 		.4byte	.LASF795
 5366 26fa 0B       		.byte	0xb
 5367 26fb 8205     		.2byte	0x582
ARM GAS  C:\Users\JC\AppData\Local\Temp\ccNOiAvA.s 			page 125


 5368 26fd D6000000 		.4byte	0xd6
 5369 2701 04       		.byte	0x4
 5370 2702 19       		.uleb128 0x19
 5371 2703 5D010000 		.4byte	.LASF796
 5372 2707 0B       		.byte	0xb
 5373 2708 8805     		.2byte	0x588
 5374 270a D6000000 		.4byte	0xd6
 5375 270e 05       		.byte	0x5
 5376 270f 00       		.byte	0
 5377 2710 17       		.uleb128 0x17
 5378 2711 78350000 		.4byte	.LASF797
 5379 2715 0B       		.byte	0xb
 5380 2716 8A05     		.2byte	0x58a
 5381 2718 D2260000 		.4byte	0x26d2
 5382 271c 1C       		.uleb128 0x1c
 5383 271d 01       		.byte	0x1
 5384 271e 0B       		.byte	0xb
 5385 271f 8D05     		.2byte	0x58d
 5386 2721 33270000 		.4byte	0x2733
 5387 2725 19       		.uleb128 0x19
 5388 2726 270F0000 		.4byte	.LASF798
 5389 272a 0B       		.byte	0xb
 5390 272b 9405     		.2byte	0x594
 5391 272d D6000000 		.4byte	0xd6
 5392 2731 00       		.byte	0
 5393 2732 00       		.byte	0
 5394 2733 17       		.uleb128 0x17
 5395 2734 17390000 		.4byte	.LASF799
 5396 2738 0B       		.byte	0xb
 5397 2739 9605     		.2byte	0x596
 5398 273b 1C270000 		.4byte	0x271c
 5399 273f 1C       		.uleb128 0x1c
 5400 2740 01       		.byte	0x1
 5401 2741 0B       		.byte	0xb
 5402 2742 9A05     		.2byte	0x59a
 5403 2744 56270000 		.4byte	0x2756
 5404 2748 19       		.uleb128 0x19
 5405 2749 63320000 		.4byte	.LASF800
 5406 274d 0B       		.byte	0xb
 5407 274e 9D05     		.2byte	0x59d
 5408 2750 D6000000 		.4byte	0xd6
 5409 2754 00       		.byte	0
 5410 2755 00       		.byte	0
 5411 2756 17       		.uleb128 0x17
 5412 2757 4A3D0000 		.4byte	.LASF801
 5413 275b 0B       		.byte	0xb
 5414 275c 9F05     		.2byte	0x59f
 5415 275e 3F270000 		.4byte	0x273f
 5416 2762 1C       		.uleb128 0x1c
 5417 2763 01       		.byte	0x1
 5418 2764 0B       		.byte	0xb
 5419 2765 A205     		.2byte	0x5a2
 5420 2767 79270000 		.4byte	0x2779
 5421 276b 19       		.uleb128 0x19
 5422 276c BE450000 		.4byte	.LASF802
 5423 2770 0B       		.byte	0xb
 5424 2771 A605     		.2byte	0x5a6
ARM GAS  C:\Users\JC\AppData\Local\Temp\ccNOiAvA.s 			page 126


 5425 2773 D6000000 		.4byte	0xd6
 5426 2777 00       		.byte	0
 5427 2778 00       		.byte	0
 5428 2779 17       		.uleb128 0x17
 5429 277a 4A470000 		.4byte	.LASF803
 5430 277e 0B       		.byte	0xb
 5431 277f A805     		.2byte	0x5a8
 5432 2781 62270000 		.4byte	0x2762
 5433 2785 1C       		.uleb128 0x1c
 5434 2786 01       		.byte	0x1
 5435 2787 0B       		.byte	0xb
 5436 2788 AB05     		.2byte	0x5ab
 5437 278a 9C270000 		.4byte	0x279c
 5438 278e 19       		.uleb128 0x19
 5439 278f 03330000 		.4byte	.LASF804
 5440 2793 0B       		.byte	0xb
 5441 2794 AE05     		.2byte	0x5ae
 5442 2796 D6000000 		.4byte	0xd6
 5443 279a 00       		.byte	0
 5444 279b 00       		.byte	0
 5445 279c 17       		.uleb128 0x17
 5446 279d 96490000 		.4byte	.LASF805
 5447 27a1 0B       		.byte	0xb
 5448 27a2 B005     		.2byte	0x5b0
 5449 27a4 85270000 		.4byte	0x2785
 5450 27a8 1C       		.uleb128 0x1c
 5451 27a9 22       		.byte	0x22
 5452 27aa 0B       		.byte	0xb
 5453 27ab B305     		.2byte	0x5b3
 5454 27ad F3270000 		.4byte	0x27f3
 5455 27b1 19       		.uleb128 0x19
 5456 27b2 7B0F0000 		.4byte	.LASF806
 5457 27b6 0B       		.byte	0xb
 5458 27b7 C205     		.2byte	0x5c2
 5459 27b9 F3270000 		.4byte	0x27f3
 5460 27bd 00       		.byte	0
 5461 27be 19       		.uleb128 0x19
 5462 27bf DD420000 		.4byte	.LASF807
 5463 27c3 0B       		.byte	0xb
 5464 27c4 D505     		.2byte	0x5d5
 5465 27c6 03280000 		.4byte	0x2803
 5466 27ca 08       		.byte	0x8
 5467 27cb 19       		.uleb128 0x19
 5468 27cc F23F0000 		.4byte	.LASF808
 5469 27d0 0B       		.byte	0xb
 5470 27d1 DB05     		.2byte	0x5db
 5471 27d3 D6000000 		.4byte	0xd6
 5472 27d7 16       		.byte	0x16
 5473 27d8 19       		.uleb128 0x19
 5474 27d9 A5440000 		.4byte	.LASF809
 5475 27dd 0B       		.byte	0xb
 5476 27de E105     		.2byte	0x5e1
 5477 27e0 EC000000 		.4byte	0xec
 5478 27e4 18       		.byte	0x18
 5479 27e5 19       		.uleb128 0x19
 5480 27e6 1E000000 		.4byte	.LASF810
 5481 27ea 0B       		.byte	0xb
ARM GAS  C:\Users\JC\AppData\Local\Temp\ccNOiAvA.s 			page 127


 5482 27eb F005     		.2byte	0x5f0
 5483 27ed F3270000 		.4byte	0x27f3
 5484 27f1 1A       		.byte	0x1a
 5485 27f2 00       		.byte	0
 5486 27f3 0A       		.uleb128 0xa
 5487 27f4 EC000000 		.4byte	0xec
 5488 27f8 03280000 		.4byte	0x2803
 5489 27fc 0B       		.uleb128 0xb
 5490 27fd B4000000 		.4byte	0xb4
 5491 2801 03       		.byte	0x3
 5492 2802 00       		.byte	0
 5493 2803 0A       		.uleb128 0xa
 5494 2804 EC000000 		.4byte	0xec
 5495 2808 13280000 		.4byte	0x2813
 5496 280c 0B       		.uleb128 0xb
 5497 280d B4000000 		.4byte	0xb4
 5498 2811 06       		.byte	0x6
 5499 2812 00       		.byte	0
 5500 2813 17       		.uleb128 0x17
 5501 2814 12580000 		.4byte	.LASF811
 5502 2818 0B       		.byte	0xb
 5503 2819 F205     		.2byte	0x5f2
 5504 281b A8270000 		.4byte	0x27a8
 5505 281f 1C       		.uleb128 0x1c
 5506 2820 32       		.byte	0x32
 5507 2821 0B       		.byte	0xb
 5508 2822 F805     		.2byte	0x5f8
 5509 2824 9E280000 		.4byte	0x289e
 5510 2828 19       		.uleb128 0x19
 5511 2829 83270000 		.4byte	.LASF812
 5512 282d 0B       		.byte	0xb
 5513 282e FB05     		.2byte	0x5fb
 5514 2830 10270000 		.4byte	0x2710
 5515 2834 00       		.byte	0
 5516 2835 19       		.uleb128 0x19
 5517 2836 D3210000 		.4byte	.LASF813
 5518 283a 0B       		.byte	0xb
 5519 283b FE05     		.2byte	0x5fe
 5520 283d 33270000 		.4byte	0x2733
 5521 2841 06       		.byte	0x6
 5522 2842 19       		.uleb128 0x19
 5523 2843 962D0000 		.4byte	.LASF814
 5524 2847 0B       		.byte	0xb
 5525 2848 0106     		.2byte	0x601
 5526 284a 56270000 		.4byte	0x2756
 5527 284e 07       		.byte	0x7
 5528 284f 19       		.uleb128 0x19
 5529 2850 89000000 		.4byte	.LASF815
 5530 2854 0B       		.byte	0xb
 5531 2855 0406     		.2byte	0x604
 5532 2857 79270000 		.4byte	0x2779
 5533 285b 08       		.byte	0x8
 5534 285c 19       		.uleb128 0x19
 5535 285d 0F2B0000 		.4byte	.LASF816
 5536 2861 0B       		.byte	0xb
 5537 2862 0706     		.2byte	0x607
 5538 2864 9C270000 		.4byte	0x279c
ARM GAS  C:\Users\JC\AppData\Local\Temp\ccNOiAvA.s 			page 128


 5539 2868 09       		.byte	0x9
 5540 2869 19       		.uleb128 0x19
 5541 286a 1D2A0000 		.4byte	.LASF817
 5542 286e 0B       		.byte	0xb
 5543 286f 0A06     		.2byte	0x60a
 5544 2871 13280000 		.4byte	0x2813
 5545 2875 0A       		.byte	0xa
 5546 2876 19       		.uleb128 0x19
 5547 2877 13560000 		.4byte	.LASF818
 5548 287b 0B       		.byte	0xb
 5549 287c 1906     		.2byte	0x619
 5550 287e EC000000 		.4byte	0xec
 5551 2882 2C       		.byte	0x2c
 5552 2883 19       		.uleb128 0x19
 5553 2884 E5550000 		.4byte	.LASF819
 5554 2888 0B       		.byte	0xb
 5555 2889 1C06     		.2byte	0x61c
 5556 288b EC000000 		.4byte	0xec
 5557 288f 2E       		.byte	0x2e
 5558 2890 19       		.uleb128 0x19
 5559 2891 48360000 		.4byte	.LASF820
 5560 2895 0B       		.byte	0xb
 5561 2896 2206     		.2byte	0x622
 5562 2898 D6000000 		.4byte	0xd6
 5563 289c 30       		.byte	0x30
 5564 289d 00       		.byte	0
 5565 289e 17       		.uleb128 0x17
 5566 289f 50550000 		.4byte	.LASF821
 5567 28a3 0B       		.byte	0xb
 5568 28a4 2406     		.2byte	0x624
 5569 28a6 1F280000 		.4byte	0x281f
 5570 28aa 1C       		.uleb128 0x1c
 5571 28ab 04       		.byte	0x4
 5572 28ac 0B       		.byte	0xb
 5573 28ad 2806     		.2byte	0x628
 5574 28af CE280000 		.4byte	0x28ce
 5575 28b3 19       		.uleb128 0x19
 5576 28b4 86470000 		.4byte	.LASF822
 5577 28b8 0B       		.byte	0xb
 5578 28b9 2B06     		.2byte	0x62b
 5579 28bb EC000000 		.4byte	0xec
 5580 28bf 00       		.byte	0
 5581 28c0 19       		.uleb128 0x19
 5582 28c1 54330000 		.4byte	.LASF823
 5583 28c5 0B       		.byte	0xb
 5584 28c6 2E06     		.2byte	0x62e
 5585 28c8 EC000000 		.4byte	0xec
 5586 28cc 02       		.byte	0x2
 5587 28cd 00       		.byte	0
 5588 28ce 17       		.uleb128 0x17
 5589 28cf 664D0000 		.4byte	.LASF824
 5590 28d3 0B       		.byte	0xb
 5591 28d4 3006     		.2byte	0x630
 5592 28d6 AA280000 		.4byte	0x28aa
 5593 28da 1C       		.uleb128 0x1c
 5594 28db 14       		.byte	0x14
 5595 28dc 0B       		.byte	0xb
ARM GAS  C:\Users\JC\AppData\Local\Temp\ccNOiAvA.s 			page 129


 5596 28dd 4206     		.2byte	0x642
 5597 28df 32290000 		.4byte	0x2932
 5598 28e3 19       		.uleb128 0x19
 5599 28e4 13240000 		.4byte	.LASF825
 5600 28e8 0B       		.byte	0xb
 5601 28e9 4506     		.2byte	0x645
 5602 28eb 32290000 		.4byte	0x2932
 5603 28ef 00       		.byte	0
 5604 28f0 19       		.uleb128 0x19
 5605 28f1 0A370000 		.4byte	.LASF826
 5606 28f5 0B       		.byte	0xb
 5607 28f6 4806     		.2byte	0x648
 5608 28f8 38290000 		.4byte	0x2938
 5609 28fc 04       		.byte	0x4
 5610 28fd 19       		.uleb128 0x19
 5611 28fe 413E0000 		.4byte	.LASF827
 5612 2902 0B       		.byte	0xb
 5613 2903 4B06     		.2byte	0x64b
 5614 2905 EC000000 		.4byte	0xec
 5615 2909 08       		.byte	0x8
 5616 290a 19       		.uleb128 0x19
 5617 290b DB0E0000 		.4byte	.LASF828
 5618 290f 0B       		.byte	0xb
 5619 2910 4E06     		.2byte	0x64e
 5620 2912 D6000000 		.4byte	0xd6
 5621 2916 0A       		.byte	0xa
 5622 2917 19       		.uleb128 0x19
 5623 2918 C7360000 		.4byte	.LASF829
 5624 291c 0B       		.byte	0xb
 5625 291d 5206     		.2byte	0x652
 5626 291f 3E290000 		.4byte	0x293e
 5627 2923 0C       		.byte	0xc
 5628 2924 19       		.uleb128 0x19
 5629 2925 39010000 		.4byte	.LASF830
 5630 2929 0B       		.byte	0xb
 5631 292a 5506     		.2byte	0x655
 5632 292c 02010000 		.4byte	0x102
 5633 2930 10       		.byte	0x10
 5634 2931 00       		.byte	0
 5635 2932 06       		.uleb128 0x6
 5636 2933 04       		.byte	0x4
 5637 2934 D6000000 		.4byte	0xd6
 5638 2938 06       		.uleb128 0x6
 5639 2939 04       		.byte	0x4
 5640 293a CE280000 		.4byte	0x28ce
 5641 293e 06       		.uleb128 0x6
 5642 293f 04       		.byte	0x4
 5643 2940 44290000 		.4byte	0x2944
 5644 2944 09       		.uleb128 0x9
 5645 2945 D6000000 		.4byte	0xd6
 5646 2949 17       		.uleb128 0x17
 5647 294a D91D0000 		.4byte	.LASF831
 5648 294e 0B       		.byte	0xb
 5649 294f 5706     		.2byte	0x657
 5650 2951 DA280000 		.4byte	0x28da
 5651 2955 1C       		.uleb128 0x1c
 5652 2956 4C       		.byte	0x4c
ARM GAS  C:\Users\JC\AppData\Local\Temp\ccNOiAvA.s 			page 130


 5653 2957 0B       		.byte	0xb
 5654 2958 5B06     		.2byte	0x65b
 5655 295a 86290000 		.4byte	0x2986
 5656 295e 19       		.uleb128 0x19
 5657 295f A74C0000 		.4byte	.LASF832
 5658 2963 0B       		.byte	0xb
 5659 2964 5E06     		.2byte	0x65e
 5660 2966 70260000 		.4byte	0x2670
 5661 296a 00       		.byte	0
 5662 296b 19       		.uleb128 0x19
 5663 296c 46300000 		.4byte	.LASF833
 5664 2970 0B       		.byte	0xb
 5665 2971 6106     		.2byte	0x661
 5666 2973 49290000 		.4byte	0x2949
 5667 2977 04       		.byte	0x4
 5668 2978 19       		.uleb128 0x19
 5669 2979 92430000 		.4byte	.LASF834
 5670 297d 0B       		.byte	0xb
 5671 297e 6406     		.2byte	0x664
 5672 2980 9E280000 		.4byte	0x289e
 5673 2984 18       		.byte	0x18
 5674 2985 00       		.byte	0
 5675 2986 17       		.uleb128 0x17
 5676 2987 113D0000 		.4byte	.LASF835
 5677 298b 0B       		.byte	0xb
 5678 298c 6606     		.2byte	0x666
 5679 298e 55290000 		.4byte	0x2955
 5680 2992 1D       		.uleb128 0x1d
 5681 2993 01       		.byte	0x1
 5682 2994 4C000000 		.4byte	0x4c
 5683 2998 0B       		.byte	0xb
 5684 2999 7B06     		.2byte	0x67b
 5685 299b C4290000 		.4byte	0x29c4
 5686 299f 10       		.uleb128 0x10
 5687 29a0 F0130000 		.4byte	.LASF836
 5688 29a4 6C       		.sleb128 -20
 5689 29a5 10       		.uleb128 0x10
 5690 29a6 A9460000 		.4byte	.LASF837
 5691 29aa 70       		.sleb128 -16
 5692 29ab 10       		.uleb128 0x10
 5693 29ac D20D0000 		.4byte	.LASF838
 5694 29b0 74       		.sleb128 -12
 5695 29b1 10       		.uleb128 0x10
 5696 29b2 BD220000 		.4byte	.LASF839
 5697 29b6 7A       		.sleb128 -6
 5698 29b7 11       		.uleb128 0x11
 5699 29b8 A1150000 		.4byte	.LASF840
 5700 29bc 00       		.byte	0
 5701 29bd 11       		.uleb128 0x11
 5702 29be BF2D0000 		.4byte	.LASF841
 5703 29c2 04       		.byte	0x4
 5704 29c3 00       		.byte	0
 5705 29c4 17       		.uleb128 0x17
 5706 29c5 AF280000 		.4byte	.LASF842
 5707 29c9 0B       		.byte	0xb
 5708 29ca 8E06     		.2byte	0x68e
 5709 29cc 92290000 		.4byte	0x2992
ARM GAS  C:\Users\JC\AppData\Local\Temp\ccNOiAvA.s 			page 131


 5710 29d0 1D       		.uleb128 0x1d
 5711 29d1 01       		.byte	0x1
 5712 29d2 5E000000 		.4byte	0x5e
 5713 29d6 0B       		.byte	0xb
 5714 29d7 5507     		.2byte	0x755
 5715 29d9 F0290000 		.4byte	0x29f0
 5716 29dd 11       		.uleb128 0x11
 5717 29de 6E570000 		.4byte	.LASF843
 5718 29e2 01       		.byte	0x1
 5719 29e3 11       		.uleb128 0x11
 5720 29e4 EA370000 		.4byte	.LASF844
 5721 29e8 02       		.byte	0x2
 5722 29e9 11       		.uleb128 0x11
 5723 29ea F4310000 		.4byte	.LASF845
 5724 29ee FF       		.byte	0xff
 5725 29ef 00       		.byte	0
 5726 29f0 17       		.uleb128 0x17
 5727 29f1 3B2E0000 		.4byte	.LASF846
 5728 29f5 0B       		.byte	0xb
 5729 29f6 6607     		.2byte	0x766
 5730 29f8 D0290000 		.4byte	0x29d0
 5731 29fc 1D       		.uleb128 0x1d
 5732 29fd 01       		.byte	0x1
 5733 29fe 5E000000 		.4byte	0x5e
 5734 2a02 0B       		.byte	0xb
 5735 2a03 6C07     		.2byte	0x76c
 5736 2a05 342A0000 		.4byte	0x2a34
 5737 2a09 11       		.uleb128 0x11
 5738 2a0a 79480000 		.4byte	.LASF847
 5739 2a0e 01       		.byte	0x1
 5740 2a0f 11       		.uleb128 0x11
 5741 2a10 8F320000 		.4byte	.LASF848
 5742 2a14 02       		.byte	0x2
 5743 2a15 11       		.uleb128 0x11
 5744 2a16 7B250000 		.4byte	.LASF849
 5745 2a1a 03       		.byte	0x3
 5746 2a1b 11       		.uleb128 0x11
 5747 2a1c C8320000 		.4byte	.LASF850
 5748 2a20 04       		.byte	0x4
 5749 2a21 11       		.uleb128 0x11
 5750 2a22 54420000 		.4byte	.LASF851
 5751 2a26 05       		.byte	0x5
 5752 2a27 11       		.uleb128 0x11
 5753 2a28 4E0D0000 		.4byte	.LASF852
 5754 2a2c 06       		.byte	0x6
 5755 2a2d 11       		.uleb128 0x11
 5756 2a2e 9C170000 		.4byte	.LASF853
 5757 2a32 FF       		.byte	0xff
 5758 2a33 00       		.byte	0
 5759 2a34 17       		.uleb128 0x17
 5760 2a35 A4310000 		.4byte	.LASF854
 5761 2a39 0B       		.byte	0xb
 5762 2a3a 7407     		.2byte	0x774
 5763 2a3c FC290000 		.4byte	0x29fc
 5764 2a40 1D       		.uleb128 0x1d
 5765 2a41 01       		.byte	0x1
 5766 2a42 5E000000 		.4byte	0x5e
ARM GAS  C:\Users\JC\AppData\Local\Temp\ccNOiAvA.s 			page 132


 5767 2a46 0B       		.byte	0xb
 5768 2a47 7807     		.2byte	0x778
 5769 2a49 5A2A0000 		.4byte	0x2a5a
 5770 2a4d 11       		.uleb128 0x11
 5771 2a4e 25360000 		.4byte	.LASF855
 5772 2a52 01       		.byte	0x1
 5773 2a53 11       		.uleb128 0x11
 5774 2a54 204E0000 		.4byte	.LASF856
 5775 2a58 02       		.byte	0x2
 5776 2a59 00       		.byte	0
 5777 2a5a 1C       		.uleb128 0x1c
 5778 2a5b 02       		.byte	0x2
 5779 2a5c 0C       		.byte	0xc
 5780 2a5d 6401     		.2byte	0x164
 5781 2a5f 7E2A0000 		.4byte	0x2a7e
 5782 2a63 19       		.uleb128 0x19
 5783 2a64 6B240000 		.4byte	.LASF857
 5784 2a68 0C       		.byte	0xc
 5785 2a69 6E01     		.2byte	0x16e
 5786 2a6b D6000000 		.4byte	0xd6
 5787 2a6f 00       		.byte	0
 5788 2a70 19       		.uleb128 0x19
 5789 2a71 4B010000 		.4byte	.LASF858
 5790 2a75 0C       		.byte	0xc
 5791 2a76 7201     		.2byte	0x172
 5792 2a78 D6000000 		.4byte	0xd6
 5793 2a7c 01       		.byte	0x1
 5794 2a7d 00       		.byte	0
 5795 2a7e 17       		.uleb128 0x17
 5796 2a7f 821C0000 		.4byte	.LASF859
 5797 2a83 0C       		.byte	0xc
 5798 2a84 7401     		.2byte	0x174
 5799 2a86 5A2A0000 		.4byte	0x2a5a
 5800 2a8a 17       		.uleb128 0x17
 5801 2a8b A1400000 		.4byte	.LASF860
 5802 2a8f 0D       		.byte	0xd
 5803 2a90 7F01     		.2byte	0x17f
 5804 2a92 EC000000 		.4byte	0xec
 5805 2a96 0F       		.uleb128 0xf
 5806 2a97 01       		.byte	0x1
 5807 2a98 5E000000 		.4byte	0x5e
 5808 2a9c 0E       		.byte	0xe
 5809 2a9d D5       		.byte	0xd5
 5810 2a9e C12A0000 		.4byte	0x2ac1
 5811 2aa2 11       		.uleb128 0x11
 5812 2aa3 C4330000 		.4byte	.LASF861
 5813 2aa7 00       		.byte	0
 5814 2aa8 11       		.uleb128 0x11
 5815 2aa9 7B2A0000 		.4byte	.LASF862
 5816 2aad 01       		.byte	0x1
 5817 2aae 11       		.uleb128 0x11
 5818 2aaf 77490000 		.4byte	.LASF863
 5819 2ab3 02       		.byte	0x2
 5820 2ab4 11       		.uleb128 0x11
 5821 2ab5 D5380000 		.4byte	.LASF864
 5822 2ab9 03       		.byte	0x3
 5823 2aba 11       		.uleb128 0x11
ARM GAS  C:\Users\JC\AppData\Local\Temp\ccNOiAvA.s 			page 133


 5824 2abb DF2F0000 		.4byte	.LASF865
 5825 2abf 04       		.byte	0x4
 5826 2ac0 00       		.byte	0
 5827 2ac1 04       		.uleb128 0x4
 5828 2ac2 623F0000 		.4byte	.LASF866
 5829 2ac6 0E       		.byte	0xe
 5830 2ac7 E7       		.byte	0xe7
 5831 2ac8 962A0000 		.4byte	0x2a96
 5832 2acc 0F       		.uleb128 0xf
 5833 2acd 01       		.byte	0x1
 5834 2ace 5E000000 		.4byte	0x5e
 5835 2ad2 0E       		.byte	0xe
 5836 2ad3 EB       		.byte	0xeb
 5837 2ad4 3F2B0000 		.4byte	0x2b3f
 5838 2ad8 11       		.uleb128 0x11
 5839 2ad9 4B4F0000 		.4byte	.LASF867
 5840 2add 00       		.byte	0
 5841 2ade 11       		.uleb128 0x11
 5842 2adf 940E0000 		.4byte	.LASF868
 5843 2ae3 01       		.byte	0x1
 5844 2ae4 11       		.uleb128 0x11
 5845 2ae5 EE0C0000 		.4byte	.LASF869
 5846 2ae9 02       		.byte	0x2
 5847 2aea 11       		.uleb128 0x11
 5848 2aeb 40520000 		.4byte	.LASF870
 5849 2aef 03       		.byte	0x3
 5850 2af0 11       		.uleb128 0x11
 5851 2af1 B9150000 		.4byte	.LASF871
 5852 2af5 04       		.byte	0x4
 5853 2af6 11       		.uleb128 0x11
 5854 2af7 B1420000 		.4byte	.LASF872
 5855 2afb 05       		.byte	0x5
 5856 2afc 11       		.uleb128 0x11
 5857 2afd 94370000 		.4byte	.LASF873
 5858 2b01 06       		.byte	0x6
 5859 2b02 11       		.uleb128 0x11
 5860 2b03 24150000 		.4byte	.LASF874
 5861 2b07 07       		.byte	0x7
 5862 2b08 11       		.uleb128 0x11
 5863 2b09 F3110000 		.4byte	.LASF875
 5864 2b0d 08       		.byte	0x8
 5865 2b0e 11       		.uleb128 0x11
 5866 2b0f 93530000 		.4byte	.LASF876
 5867 2b13 09       		.byte	0x9
 5868 2b14 11       		.uleb128 0x11
 5869 2b15 FF0B0000 		.4byte	.LASF877
 5870 2b19 0A       		.byte	0xa
 5871 2b1a 11       		.uleb128 0x11
 5872 2b1b 21460000 		.4byte	.LASF878
 5873 2b1f 0B       		.byte	0xb
 5874 2b20 11       		.uleb128 0x11
 5875 2b21 7B3D0000 		.4byte	.LASF879
 5876 2b25 0C       		.byte	0xc
 5877 2b26 11       		.uleb128 0x11
 5878 2b27 F80A0000 		.4byte	.LASF880
 5879 2b2b 0D       		.byte	0xd
 5880 2b2c 11       		.uleb128 0x11
ARM GAS  C:\Users\JC\AppData\Local\Temp\ccNOiAvA.s 			page 134


 5881 2b2d D7540000 		.4byte	.LASF881
 5882 2b31 0E       		.byte	0xe
 5883 2b32 11       		.uleb128 0x11
 5884 2b33 783F0000 		.4byte	.LASF882
 5885 2b37 15       		.byte	0x15
 5886 2b38 11       		.uleb128 0x11
 5887 2b39 2A2D0000 		.4byte	.LASF883
 5888 2b3d 18       		.byte	0x18
 5889 2b3e 00       		.byte	0
 5890 2b3f 17       		.uleb128 0x17
 5891 2b40 310E0000 		.4byte	.LASF884
 5892 2b44 0E       		.byte	0xe
 5893 2b45 2801     		.2byte	0x128
 5894 2b47 CC2A0000 		.4byte	0x2acc
 5895 2b4b 17       		.uleb128 0x17
 5896 2b4c F00E0000 		.4byte	.LASF885
 5897 2b50 0E       		.byte	0xe
 5898 2b51 6601     		.2byte	0x166
 5899 2b53 C6260000 		.4byte	0x26c6
 5900 2b57 1C       		.uleb128 0x1c
 5901 2b58 06       		.byte	0x6
 5902 2b59 0E       		.byte	0xe
 5903 2b5a EA01     		.2byte	0x1ea
 5904 2b5c AF2B0000 		.4byte	0x2baf
 5905 2b60 19       		.uleb128 0x19
 5906 2b61 0E110000 		.4byte	.LASF886
 5907 2b65 0E       		.byte	0xe
 5908 2b66 F301     		.2byte	0x1f3
 5909 2b68 D6000000 		.4byte	0xd6
 5910 2b6c 00       		.byte	0
 5911 2b6d 19       		.uleb128 0x19
 5912 2b6e 12280000 		.4byte	.LASF887
 5913 2b72 0E       		.byte	0xe
 5914 2b73 F901     		.2byte	0x1f9
 5915 2b75 D6000000 		.4byte	0xd6
 5916 2b79 01       		.byte	0x1
 5917 2b7a 19       		.uleb128 0x19
 5918 2b7b 9E4C0000 		.4byte	.LASF888
 5919 2b7f 0E       		.byte	0xe
 5920 2b80 0002     		.2byte	0x200
 5921 2b82 D6000000 		.4byte	0xd6
 5922 2b86 02       		.byte	0x2
 5923 2b87 19       		.uleb128 0x19
 5924 2b88 EF2E0000 		.4byte	.LASF889
 5925 2b8c 0E       		.byte	0xe
 5926 2b8d 0402     		.2byte	0x204
 5927 2b8f 3F2B0000 		.4byte	0x2b3f
 5928 2b93 03       		.byte	0x3
 5929 2b94 19       		.uleb128 0x19
 5930 2b95 712C0000 		.4byte	.LASF890
 5931 2b99 0E       		.byte	0xe
 5932 2b9a 0E02     		.2byte	0x20e
 5933 2b9c D6000000 		.4byte	0xd6
 5934 2ba0 04       		.byte	0x4
 5935 2ba1 19       		.uleb128 0x19
 5936 2ba2 6B240000 		.4byte	.LASF857
 5937 2ba6 0E       		.byte	0xe
ARM GAS  C:\Users\JC\AppData\Local\Temp\ccNOiAvA.s 			page 135


 5938 2ba7 1102     		.2byte	0x211
 5939 2ba9 D6000000 		.4byte	0xd6
 5940 2bad 05       		.byte	0x5
 5941 2bae 00       		.byte	0
 5942 2baf 17       		.uleb128 0x17
 5943 2bb0 F44E0000 		.4byte	.LASF891
 5944 2bb4 0E       		.byte	0xe
 5945 2bb5 1302     		.2byte	0x213
 5946 2bb7 572B0000 		.4byte	0x2b57
 5947 2bbb 0D       		.uleb128 0xd
 5948 2bbc 0C       		.byte	0xc
 5949 2bbd 0F       		.byte	0xf
 5950 2bbe 71       		.byte	0x71
 5951 2bbf 242C0000 		.4byte	0x2c24
 5952 2bc3 0E       		.uleb128 0xe
 5953 2bc4 31330000 		.4byte	.LASF892
 5954 2bc8 0F       		.byte	0xf
 5955 2bc9 78       		.byte	0x78
 5956 2bca D6000000 		.4byte	0xd6
 5957 2bce 00       		.byte	0
 5958 2bcf 0E       		.uleb128 0xe
 5959 2bd0 164C0000 		.4byte	.LASF893
 5960 2bd4 0F       		.byte	0xf
 5961 2bd5 7E       		.byte	0x7e
 5962 2bd6 D6000000 		.4byte	0xd6
 5963 2bda 01       		.byte	0x1
 5964 2bdb 0E       		.uleb128 0xe
 5965 2bdc 18530000 		.4byte	.LASF894
 5966 2be0 0F       		.byte	0xf
 5967 2be1 85       		.byte	0x85
 5968 2be2 EC000000 		.4byte	0xec
 5969 2be6 02       		.byte	0x2
 5970 2be7 0E       		.uleb128 0xe
 5971 2be8 C6080000 		.4byte	.LASF895
 5972 2bec 0F       		.byte	0xf
 5973 2bed 8C       		.byte	0x8c
 5974 2bee EC000000 		.4byte	0xec
 5975 2bf2 04       		.byte	0x4
 5976 2bf3 0E       		.uleb128 0xe
 5977 2bf4 F0270000 		.4byte	.LASF896
 5978 2bf8 0F       		.byte	0xf
 5979 2bf9 94       		.byte	0x94
 5980 2bfa D6000000 		.4byte	0xd6
 5981 2bfe 06       		.byte	0x6
 5982 2bff 0E       		.uleb128 0xe
 5983 2c00 CB1C0000 		.4byte	.LASF897
 5984 2c04 0F       		.byte	0xf
 5985 2c05 9C       		.byte	0x9c
 5986 2c06 D6000000 		.4byte	0xd6
 5987 2c0a 07       		.byte	0x7
 5988 2c0b 0E       		.uleb128 0xe
 5989 2c0c CB0D0000 		.4byte	.LASF898
 5990 2c10 0F       		.byte	0xf
 5991 2c11 A0       		.byte	0xa0
 5992 2c12 EC000000 		.4byte	0xec
 5993 2c16 08       		.byte	0x8
 5994 2c17 0E       		.uleb128 0xe
ARM GAS  C:\Users\JC\AppData\Local\Temp\ccNOiAvA.s 			page 136


 5995 2c18 620C0000 		.4byte	.LASF899
 5996 2c1c 0F       		.byte	0xf
 5997 2c1d AA       		.byte	0xaa
 5998 2c1e D6000000 		.4byte	0xd6
 5999 2c22 0A       		.byte	0xa
 6000 2c23 00       		.byte	0
 6001 2c24 04       		.uleb128 0x4
 6002 2c25 A9040000 		.4byte	.LASF900
 6003 2c29 0F       		.byte	0xf
 6004 2c2a AC       		.byte	0xac
 6005 2c2b BB2B0000 		.4byte	0x2bbb
 6006 2c2f 0F       		.uleb128 0xf
 6007 2c30 01       		.byte	0x1
 6008 2c31 5E000000 		.4byte	0x5e
 6009 2c35 10       		.byte	0x10
 6010 2c36 3E       		.byte	0x3e
 6011 2c37 5A2C0000 		.4byte	0x2c5a
 6012 2c3b 11       		.uleb128 0x11
 6013 2c3c E7100000 		.4byte	.LASF901
 6014 2c40 00       		.byte	0
 6015 2c41 11       		.uleb128 0x11
 6016 2c42 833E0000 		.4byte	.LASF902
 6017 2c46 01       		.byte	0x1
 6018 2c47 11       		.uleb128 0x11
 6019 2c48 68050000 		.4byte	.LASF903
 6020 2c4c 02       		.byte	0x2
 6021 2c4d 11       		.uleb128 0x11
 6022 2c4e AE0F0000 		.4byte	.LASF904
 6023 2c52 03       		.byte	0x3
 6024 2c53 11       		.uleb128 0x11
 6025 2c54 7B1B0000 		.4byte	.LASF905
 6026 2c58 04       		.byte	0x4
 6027 2c59 00       		.byte	0
 6028 2c5a 04       		.uleb128 0x4
 6029 2c5b 513A0000 		.4byte	.LASF906
 6030 2c5f 10       		.byte	0x10
 6031 2c60 4E       		.byte	0x4e
 6032 2c61 2F2C0000 		.4byte	0x2c2f
 6033 2c65 0D       		.uleb128 0xd
 6034 2c66 10       		.byte	0x10
 6035 2c67 10       		.byte	0x10
 6036 2c68 56       		.byte	0x56
 6037 2c69 CE2C0000 		.4byte	0x2cce
 6038 2c6d 0E       		.uleb128 0xe
 6039 2c6e 6D140000 		.4byte	.LASF907
 6040 2c72 10       		.byte	0x10
 6041 2c73 5E       		.byte	0x5e
 6042 2c74 EC000000 		.4byte	0xec
 6043 2c78 00       		.byte	0
 6044 2c79 0E       		.uleb128 0xe
 6045 2c7a AE090000 		.4byte	.LASF908
 6046 2c7e 10       		.byte	0x10
 6047 2c7f 66       		.byte	0x66
 6048 2c80 EC000000 		.4byte	0xec
 6049 2c84 02       		.byte	0x2
 6050 2c85 0E       		.uleb128 0xe
 6051 2c86 0D040000 		.4byte	.LASF909
ARM GAS  C:\Users\JC\AppData\Local\Temp\ccNOiAvA.s 			page 137


 6052 2c8a 10       		.byte	0x10
 6053 2c8b 6F       		.byte	0x6f
 6054 2c8c 5A2C0000 		.4byte	0x2c5a
 6055 2c90 04       		.byte	0x4
 6056 2c91 0E       		.uleb128 0xe
 6057 2c92 F0270000 		.4byte	.LASF896
 6058 2c96 10       		.byte	0x10
 6059 2c97 77       		.byte	0x77
 6060 2c98 D6000000 		.4byte	0xd6
 6061 2c9c 05       		.byte	0x5
 6062 2c9d 0E       		.uleb128 0xe
 6063 2c9e 04080000 		.4byte	.LASF910
 6064 2ca2 10       		.byte	0x10
 6065 2ca3 7E       		.byte	0x7e
 6066 2ca4 D6000000 		.4byte	0xd6
 6067 2ca8 06       		.byte	0x6
 6068 2ca9 0E       		.uleb128 0xe
 6069 2caa 703D0000 		.4byte	.LASF911
 6070 2cae 10       		.byte	0x10
 6071 2caf 84       		.byte	0x84
 6072 2cb0 B6260000 		.4byte	0x26b6
 6073 2cb4 07       		.byte	0x7
 6074 2cb5 0E       		.uleb128 0xe
 6075 2cb6 41070000 		.4byte	.LASF912
 6076 2cba 10       		.byte	0x10
 6077 2cbb 8C       		.byte	0x8c
 6078 2cbc D6000000 		.4byte	0xd6
 6079 2cc0 0D       		.byte	0xd
 6080 2cc1 0E       		.uleb128 0xe
 6081 2cc2 4E240000 		.4byte	.LASF913
 6082 2cc6 10       		.byte	0x10
 6083 2cc7 98       		.byte	0x98
 6084 2cc8 D6000000 		.4byte	0xd6
 6085 2ccc 0E       		.byte	0xe
 6086 2ccd 00       		.byte	0
 6087 2cce 04       		.uleb128 0x4
 6088 2ccf 6C000000 		.4byte	.LASF914
 6089 2cd3 10       		.byte	0x10
 6090 2cd4 9A       		.byte	0x9a
 6091 2cd5 652C0000 		.4byte	0x2c65
 6092 2cd9 0D       		.uleb128 0xd
 6093 2cda 20       		.byte	0x20
 6094 2cdb 10       		.byte	0x10
 6095 2cdc 9D       		.byte	0x9d
 6096 2cdd FA2C0000 		.4byte	0x2cfa
 6097 2ce1 0E       		.uleb128 0xe
 6098 2ce2 B3580000 		.4byte	.LASF915
 6099 2ce6 10       		.byte	0x10
 6100 2ce7 A0       		.byte	0xa0
 6101 2ce8 FA2C0000 		.4byte	0x2cfa
 6102 2cec 00       		.byte	0
 6103 2ced 0E       		.uleb128 0xe
 6104 2cee E5510000 		.4byte	.LASF916
 6105 2cf2 10       		.byte	0x10
 6106 2cf3 A3       		.byte	0xa3
 6107 2cf4 D6000000 		.4byte	0xd6
 6108 2cf8 1F       		.byte	0x1f
ARM GAS  C:\Users\JC\AppData\Local\Temp\ccNOiAvA.s 			page 138


 6109 2cf9 00       		.byte	0
 6110 2cfa 0A       		.uleb128 0xa
 6111 2cfb D6000000 		.4byte	0xd6
 6112 2cff 0A2D0000 		.4byte	0x2d0a
 6113 2d03 0B       		.uleb128 0xb
 6114 2d04 B4000000 		.4byte	0xb4
 6115 2d08 1E       		.byte	0x1e
 6116 2d09 00       		.byte	0
 6117 2d0a 04       		.uleb128 0x4
 6118 2d0b 573C0000 		.4byte	.LASF917
 6119 2d0f 10       		.byte	0x10
 6120 2d10 A5       		.byte	0xa5
 6121 2d11 D92C0000 		.4byte	0x2cd9
 6122 2d15 0D       		.uleb128 0xd
 6123 2d16 20       		.byte	0x20
 6124 2d17 10       		.byte	0x10
 6125 2d18 A8       		.byte	0xa8
 6126 2d19 362D0000 		.4byte	0x2d36
 6127 2d1d 0E       		.uleb128 0xe
 6128 2d1e 7B280000 		.4byte	.LASF918
 6129 2d22 10       		.byte	0x10
 6130 2d23 AC       		.byte	0xac
 6131 2d24 FA2C0000 		.4byte	0x2cfa
 6132 2d28 00       		.byte	0
 6133 2d29 0E       		.uleb128 0xe
 6134 2d2a 2F3A0000 		.4byte	.LASF919
 6135 2d2e 10       		.byte	0x10
 6136 2d2f AF       		.byte	0xaf
 6137 2d30 D6000000 		.4byte	0xd6
 6138 2d34 1F       		.byte	0x1f
 6139 2d35 00       		.byte	0
 6140 2d36 04       		.uleb128 0x4
 6141 2d37 C5310000 		.4byte	.LASF920
 6142 2d3b 10       		.byte	0x10
 6143 2d3c B1       		.byte	0xb1
 6144 2d3d 152D0000 		.4byte	0x2d15
 6145 2d41 0D       		.uleb128 0xd
 6146 2d42 14       		.byte	0x14
 6147 2d43 10       		.byte	0x10
 6148 2d44 B4       		.byte	0xb4
 6149 2d45 862D0000 		.4byte	0x2d86
 6150 2d49 0E       		.uleb128 0xe
 6151 2d4a A5100000 		.4byte	.LASF921
 6152 2d4e 10       		.byte	0x10
 6153 2d4f BC       		.byte	0xbc
 6154 2d50 D6000000 		.4byte	0xd6
 6155 2d54 00       		.byte	0
 6156 2d55 0E       		.uleb128 0xe
 6157 2d56 8C0B0000 		.4byte	.LASF922
 6158 2d5a 10       		.byte	0x10
 6159 2d5b C1       		.byte	0xc1
 6160 2d5c 862D0000 		.4byte	0x2d86
 6161 2d60 04       		.byte	0x4
 6162 2d61 0E       		.uleb128 0xe
 6163 2d62 B3580000 		.4byte	.LASF915
 6164 2d66 10       		.byte	0x10
 6165 2d67 C3       		.byte	0xc3
ARM GAS  C:\Users\JC\AppData\Local\Temp\ccNOiAvA.s 			page 139


 6166 2d68 8C2D0000 		.4byte	0x2d8c
 6167 2d6c 08       		.byte	0x8
 6168 2d6d 0E       		.uleb128 0xe
 6169 2d6e 7B280000 		.4byte	.LASF918
 6170 2d72 10       		.byte	0x10
 6171 2d73 C5       		.byte	0xc5
 6172 2d74 922D0000 		.4byte	0x2d92
 6173 2d78 0C       		.byte	0xc
 6174 2d79 0E       		.uleb128 0xe
 6175 2d7a 71420000 		.4byte	.LASF923
 6176 2d7e 10       		.byte	0x10
 6177 2d7f CF       		.byte	0xcf
 6178 2d80 EC000000 		.4byte	0xec
 6179 2d84 10       		.byte	0x10
 6180 2d85 00       		.byte	0
 6181 2d86 06       		.uleb128 0x6
 6182 2d87 04       		.byte	0x4
 6183 2d88 CE2C0000 		.4byte	0x2cce
 6184 2d8c 06       		.uleb128 0x6
 6185 2d8d 04       		.byte	0x4
 6186 2d8e 0A2D0000 		.4byte	0x2d0a
 6187 2d92 06       		.uleb128 0x6
 6188 2d93 04       		.byte	0x4
 6189 2d94 362D0000 		.4byte	0x2d36
 6190 2d98 04       		.uleb128 0x4
 6191 2d99 AB3A0000 		.4byte	.LASF924
 6192 2d9d 10       		.byte	0x10
 6193 2d9e D1       		.byte	0xd1
 6194 2d9f 412D0000 		.4byte	0x2d41
 6195 2da3 0F       		.uleb128 0xf
 6196 2da4 01       		.byte	0x1
 6197 2da5 5E000000 		.4byte	0x5e
 6198 2da9 01       		.byte	0x1
 6199 2daa 69       		.byte	0x69
 6200 2dab C22D0000 		.4byte	0x2dc2
 6201 2daf 11       		.uleb128 0x11
 6202 2db0 A3540000 		.4byte	.LASF925
 6203 2db4 00       		.byte	0
 6204 2db5 11       		.uleb128 0x11
 6205 2db6 912C0000 		.4byte	.LASF926
 6206 2dba 01       		.byte	0x1
 6207 2dbb 11       		.uleb128 0x11
 6208 2dbc 38020000 		.4byte	.LASF927
 6209 2dc0 02       		.byte	0x2
 6210 2dc1 00       		.byte	0
 6211 2dc2 04       		.uleb128 0x4
 6212 2dc3 53230000 		.4byte	.LASF928
 6213 2dc7 01       		.byte	0x1
 6214 2dc8 70       		.byte	0x70
 6215 2dc9 A32D0000 		.4byte	0x2da3
 6216 2dcd 0F       		.uleb128 0xf
 6217 2dce 01       		.byte	0x1
 6218 2dcf 5E000000 		.4byte	0x5e
 6219 2dd3 01       		.byte	0x1
 6220 2dd4 7E       		.byte	0x7e
 6221 2dd5 F22D0000 		.4byte	0x2df2
 6222 2dd9 11       		.uleb128 0x11
ARM GAS  C:\Users\JC\AppData\Local\Temp\ccNOiAvA.s 			page 140


 6223 2dda B1210000 		.4byte	.LASF929
 6224 2dde 00       		.byte	0
 6225 2ddf 11       		.uleb128 0x11
 6226 2de0 35450000 		.4byte	.LASF930
 6227 2de4 01       		.byte	0x1
 6228 2de5 11       		.uleb128 0x11
 6229 2de6 551B0000 		.4byte	.LASF931
 6230 2dea 02       		.byte	0x2
 6231 2deb 11       		.uleb128 0x11
 6232 2dec 474E0000 		.4byte	.LASF932
 6233 2df0 03       		.byte	0x3
 6234 2df1 00       		.byte	0
 6235 2df2 04       		.uleb128 0x4
 6236 2df3 21100000 		.4byte	.LASF933
 6237 2df7 01       		.byte	0x1
 6238 2df8 83       		.byte	0x83
 6239 2df9 CD2D0000 		.4byte	0x2dcd
 6240 2dfd 0F       		.uleb128 0xf
 6241 2dfe 01       		.byte	0x1
 6242 2dff 5E000000 		.4byte	0x5e
 6243 2e03 01       		.byte	0x1
 6244 2e04 87       		.byte	0x87
 6245 2e05 3A2E0000 		.4byte	0x2e3a
 6246 2e09 11       		.uleb128 0x11
 6247 2e0a CD2C0000 		.4byte	.LASF934
 6248 2e0e 00       		.byte	0
 6249 2e0f 11       		.uleb128 0x11
 6250 2e10 411E0000 		.4byte	.LASF935
 6251 2e14 01       		.byte	0x1
 6252 2e15 11       		.uleb128 0x11
 6253 2e16 73450000 		.4byte	.LASF936
 6254 2e1a 02       		.byte	0x2
 6255 2e1b 11       		.uleb128 0x11
 6256 2e1c 4A460000 		.4byte	.LASF937
 6257 2e20 03       		.byte	0x3
 6258 2e21 11       		.uleb128 0x11
 6259 2e22 BA0A0000 		.4byte	.LASF938
 6260 2e26 04       		.byte	0x4
 6261 2e27 11       		.uleb128 0x11
 6262 2e28 44400000 		.4byte	.LASF939
 6263 2e2c 05       		.byte	0x5
 6264 2e2d 11       		.uleb128 0x11
 6265 2e2e B0480000 		.4byte	.LASF940
 6266 2e32 06       		.byte	0x6
 6267 2e33 11       		.uleb128 0x11
 6268 2e34 301F0000 		.4byte	.LASF941
 6269 2e38 07       		.byte	0x7
 6270 2e39 00       		.byte	0
 6271 2e3a 04       		.uleb128 0x4
 6272 2e3b D0200000 		.4byte	.LASF942
 6273 2e3f 01       		.byte	0x1
 6274 2e40 90       		.byte	0x90
 6275 2e41 FD2D0000 		.4byte	0x2dfd
 6276 2e45 0D       		.uleb128 0xd
 6277 2e46 0C       		.byte	0xc
 6278 2e47 01       		.byte	0x1
 6279 2e48 93       		.byte	0x93
ARM GAS  C:\Users\JC\AppData\Local\Temp\ccNOiAvA.s 			page 141


 6280 2e49 962E0000 		.4byte	0x2e96
 6281 2e4d 0E       		.uleb128 0xe
 6282 2e4e 7B580000 		.4byte	.LASF943
 6283 2e52 01       		.byte	0x1
 6284 2e53 96       		.byte	0x96
 6285 2e54 8A2A0000 		.4byte	0x2a8a
 6286 2e58 00       		.byte	0
 6287 2e59 0E       		.uleb128 0xe
 6288 2e5a 33430000 		.4byte	.LASF944
 6289 2e5e 01       		.byte	0x1
 6290 2e5f 99       		.byte	0x99
 6291 2e60 8A2A0000 		.4byte	0x2a8a
 6292 2e64 02       		.byte	0x2
 6293 2e65 0E       		.uleb128 0xe
 6294 2e66 F4550000 		.4byte	.LASF945
 6295 2e6a 01       		.byte	0x1
 6296 2e6b 9C       		.byte	0x9c
 6297 2e6c 8A2A0000 		.4byte	0x2a8a
 6298 2e70 04       		.byte	0x4
 6299 2e71 0E       		.uleb128 0xe
 6300 2e72 80390000 		.4byte	.LASF946
 6301 2e76 01       		.byte	0x1
 6302 2e77 9F       		.byte	0x9f
 6303 2e78 8A2A0000 		.4byte	0x2a8a
 6304 2e7c 06       		.byte	0x6
 6305 2e7d 0E       		.uleb128 0xe
 6306 2e7e EA1F0000 		.4byte	.LASF947
 6307 2e82 01       		.byte	0x1
 6308 2e83 A2       		.byte	0xa2
 6309 2e84 8A2A0000 		.4byte	0x2a8a
 6310 2e88 08       		.byte	0x8
 6311 2e89 0E       		.uleb128 0xe
 6312 2e8a 17110000 		.4byte	.LASF948
 6313 2e8e 01       		.byte	0x1
 6314 2e8f A5       		.byte	0xa5
 6315 2e90 8A2A0000 		.4byte	0x2a8a
 6316 2e94 0A       		.byte	0xa
 6317 2e95 00       		.byte	0
 6318 2e96 04       		.uleb128 0x4
 6319 2e97 CC240000 		.4byte	.LASF949
 6320 2e9b 01       		.byte	0x1
 6321 2e9c A6       		.byte	0xa6
 6322 2e9d 452E0000 		.4byte	0x2e45
 6323 2ea1 1C       		.uleb128 0x1c
 6324 2ea2 0E       		.byte	0xe
 6325 2ea3 01       		.byte	0x1
 6326 2ea4 2B01     		.2byte	0x12b
 6327 2ea6 062F0000 		.4byte	0x2f06
 6328 2eaa 19       		.uleb128 0x19
 6329 2eab C5040000 		.4byte	.LASF950
 6330 2eaf 01       		.byte	0x1
 6331 2eb0 2E01     		.2byte	0x12e
 6332 2eb2 EC000000 		.4byte	0xec
 6333 2eb6 00       		.byte	0
 6334 2eb7 19       		.uleb128 0x19
 6335 2eb8 45570000 		.4byte	.LASF951
 6336 2ebc 01       		.byte	0x1
ARM GAS  C:\Users\JC\AppData\Local\Temp\ccNOiAvA.s 			page 142


 6337 2ebd 3101     		.2byte	0x131
 6338 2ebf EC000000 		.4byte	0xec
 6339 2ec3 02       		.byte	0x2
 6340 2ec4 19       		.uleb128 0x19
 6341 2ec5 250A0000 		.4byte	.LASF952
 6342 2ec9 01       		.byte	0x1
 6343 2eca 3401     		.2byte	0x134
 6344 2ecc EC000000 		.4byte	0xec
 6345 2ed0 04       		.byte	0x4
 6346 2ed1 19       		.uleb128 0x19
 6347 2ed2 304B0000 		.4byte	.LASF953
 6348 2ed6 01       		.byte	0x1
 6349 2ed7 3701     		.2byte	0x137
 6350 2ed9 D6000000 		.4byte	0xd6
 6351 2edd 06       		.byte	0x6
 6352 2ede 19       		.uleb128 0x19
 6353 2edf BF410000 		.4byte	.LASF954
 6354 2ee3 01       		.byte	0x1
 6355 2ee4 3A01     		.2byte	0x13a
 6356 2ee6 EC000000 		.4byte	0xec
 6357 2eea 08       		.byte	0x8
 6358 2eeb 19       		.uleb128 0x19
 6359 2eec F83A0000 		.4byte	.LASF955
 6360 2ef0 01       		.byte	0x1
 6361 2ef1 3D01     		.2byte	0x13d
 6362 2ef3 EC000000 		.4byte	0xec
 6363 2ef7 0A       		.byte	0xa
 6364 2ef8 19       		.uleb128 0x19
 6365 2ef9 11340000 		.4byte	.LASF956
 6366 2efd 01       		.byte	0x1
 6367 2efe 4001     		.2byte	0x140
 6368 2f00 EC000000 		.4byte	0xec
 6369 2f04 0C       		.byte	0xc
 6370 2f05 00       		.byte	0
 6371 2f06 17       		.uleb128 0x17
 6372 2f07 22250000 		.4byte	.LASF957
 6373 2f0b 01       		.byte	0x1
 6374 2f0c 4101     		.2byte	0x141
 6375 2f0e A12E0000 		.4byte	0x2ea1
 6376 2f12 1C       		.uleb128 0x1c
 6377 2f13 16       		.byte	0x16
 6378 2f14 01       		.byte	0x1
 6379 2f15 4401     		.2byte	0x144
 6380 2f17 AB2F0000 		.4byte	0x2fab
 6381 2f1b 19       		.uleb128 0x19
 6382 2f1c CC470000 		.4byte	.LASF958
 6383 2f20 01       		.byte	0x1
 6384 2f21 4701     		.2byte	0x147
 6385 2f23 EC000000 		.4byte	0xec
 6386 2f27 00       		.byte	0
 6387 2f28 19       		.uleb128 0x19
 6388 2f29 75360000 		.4byte	.LASF959
 6389 2f2d 01       		.byte	0x1
 6390 2f2e 4A01     		.2byte	0x14a
 6391 2f30 EC000000 		.4byte	0xec
 6392 2f34 02       		.byte	0x2
 6393 2f35 19       		.uleb128 0x19
ARM GAS  C:\Users\JC\AppData\Local\Temp\ccNOiAvA.s 			page 143


 6394 2f36 9F2F0000 		.4byte	.LASF960
 6395 2f3a 01       		.byte	0x1
 6396 2f3b 4D01     		.2byte	0x14d
 6397 2f3d EC000000 		.4byte	0xec
 6398 2f41 04       		.byte	0x4
 6399 2f42 19       		.uleb128 0x19
 6400 2f43 C51F0000 		.4byte	.LASF961
 6401 2f47 01       		.byte	0x1
 6402 2f48 5001     		.2byte	0x150
 6403 2f4a D6000000 		.4byte	0xd6
 6404 2f4e 06       		.byte	0x6
 6405 2f4f 19       		.uleb128 0x19
 6406 2f50 9C230000 		.4byte	.LASF962
 6407 2f54 01       		.byte	0x1
 6408 2f55 5301     		.2byte	0x153
 6409 2f57 EC000000 		.4byte	0xec
 6410 2f5b 08       		.byte	0x8
 6411 2f5c 19       		.uleb128 0x19
 6412 2f5d 0B3B0000 		.4byte	.LASF963
 6413 2f61 01       		.byte	0x1
 6414 2f62 5601     		.2byte	0x156
 6415 2f64 EC000000 		.4byte	0xec
 6416 2f68 0A       		.byte	0xa
 6417 2f69 19       		.uleb128 0x19
 6418 2f6a 99110000 		.4byte	.LASF964
 6419 2f6e 01       		.byte	0x1
 6420 2f6f 5901     		.2byte	0x159
 6421 2f71 EC000000 		.4byte	0xec
 6422 2f75 0C       		.byte	0xc
 6423 2f76 19       		.uleb128 0x19
 6424 2f77 290B0000 		.4byte	.LASF965
 6425 2f7b 01       		.byte	0x1
 6426 2f7c 5C01     		.2byte	0x15c
 6427 2f7e EC000000 		.4byte	0xec
 6428 2f82 0E       		.byte	0xe
 6429 2f83 19       		.uleb128 0x19
 6430 2f84 B9440000 		.4byte	.LASF966
 6431 2f88 01       		.byte	0x1
 6432 2f89 5F01     		.2byte	0x15f
 6433 2f8b EC000000 		.4byte	0xec
 6434 2f8f 10       		.byte	0x10
 6435 2f90 19       		.uleb128 0x19
 6436 2f91 04430000 		.4byte	.LASF967
 6437 2f95 01       		.byte	0x1
 6438 2f96 6301     		.2byte	0x163
 6439 2f98 EC000000 		.4byte	0xec
 6440 2f9c 12       		.byte	0x12
 6441 2f9d 19       		.uleb128 0x19
 6442 2f9e 63480000 		.4byte	.LASF968
 6443 2fa2 01       		.byte	0x1
 6444 2fa3 6601     		.2byte	0x166
 6445 2fa5 EC000000 		.4byte	0xec
 6446 2fa9 14       		.byte	0x14
 6447 2faa 00       		.byte	0
 6448 2fab 17       		.uleb128 0x17
 6449 2fac 45260000 		.4byte	.LASF969
 6450 2fb0 01       		.byte	0x1
ARM GAS  C:\Users\JC\AppData\Local\Temp\ccNOiAvA.s 			page 144


 6451 2fb1 6701     		.2byte	0x167
 6452 2fb3 122F0000 		.4byte	0x2f12
 6453 2fb7 0D       		.uleb128 0xd
 6454 2fb8 08       		.byte	0x8
 6455 2fb9 11       		.byte	0x11
 6456 2fba D6       		.byte	0xd6
 6457 2fbb D82F0000 		.4byte	0x2fd8
 6458 2fbf 0E       		.uleb128 0xe
 6459 2fc0 7B220000 		.4byte	.LASF970
 6460 2fc4 11       		.byte	0x11
 6461 2fc5 D9       		.byte	0xd9
 6462 2fc6 EC000000 		.4byte	0xec
 6463 2fca 00       		.byte	0
 6464 2fcb 0E       		.uleb128 0xe
 6465 2fcc D9500000 		.4byte	.LASF971
 6466 2fd0 11       		.byte	0x11
 6467 2fd1 DE       		.byte	0xde
 6468 2fd2 BB000000 		.4byte	0xbb
 6469 2fd6 04       		.byte	0x4
 6470 2fd7 00       		.byte	0
 6471 2fd8 04       		.uleb128 0x4
 6472 2fd9 88220000 		.4byte	.LASF972
 6473 2fdd 11       		.byte	0x11
 6474 2fde E0       		.byte	0xe0
 6475 2fdf B72F0000 		.4byte	0x2fb7
 6476 2fe3 0D       		.uleb128 0xd
 6477 2fe4 08       		.byte	0x8
 6478 2fe5 11       		.byte	0x11
 6479 2fe6 E3       		.byte	0xe3
 6480 2fe7 04300000 		.4byte	0x3004
 6481 2feb 0E       		.uleb128 0xe
 6482 2fec 71520000 		.4byte	.LASF973
 6483 2ff0 11       		.byte	0x11
 6484 2ff1 E6       		.byte	0xe6
 6485 2ff2 EC000000 		.4byte	0xec
 6486 2ff6 00       		.byte	0
 6487 2ff7 0E       		.uleb128 0xe
 6488 2ff8 88200000 		.4byte	.LASF974
 6489 2ffc 11       		.byte	0x11
 6490 2ffd EB       		.byte	0xeb
 6491 2ffe 04300000 		.4byte	0x3004
 6492 3002 04       		.byte	0x4
 6493 3003 00       		.byte	0
 6494 3004 06       		.uleb128 0x6
 6495 3005 04       		.byte	0x4
 6496 3006 D82F0000 		.4byte	0x2fd8
 6497 300a 04       		.uleb128 0x4
 6498 300b C14B0000 		.4byte	.LASF975
 6499 300f 11       		.byte	0x11
 6500 3010 ED       		.byte	0xed
 6501 3011 E32F0000 		.4byte	0x2fe3
 6502 3015 24       		.uleb128 0x24
 6503 3016 08       		.byte	0x8
 6504 3017 11       		.byte	0x11
 6505 3018 F0       		.byte	0xf0
 6506 3019 34300000 		.4byte	0x3034
 6507 301d 25       		.uleb128 0x25
ARM GAS  C:\Users\JC\AppData\Local\Temp\ccNOiAvA.s 			page 145


 6508 301e 824F0000 		.4byte	.LASF976
 6509 3022 11       		.byte	0x11
 6510 3023 F6       		.byte	0xf6
 6511 3024 0A300000 		.4byte	0x300a
 6512 3028 25       		.uleb128 0x25
 6513 3029 5E240000 		.4byte	.LASF977
 6514 302d 11       		.byte	0x11
 6515 302e F9       		.byte	0xf9
 6516 302f EC000000 		.4byte	0xec
 6517 3033 00       		.byte	0
 6518 3034 04       		.uleb128 0x4
 6519 3035 F3060000 		.4byte	.LASF978
 6520 3039 11       		.byte	0x11
 6521 303a FB       		.byte	0xfb
 6522 303b 15300000 		.4byte	0x3015
 6523 303f 0D       		.uleb128 0xd
 6524 3040 14       		.byte	0x14
 6525 3041 11       		.byte	0x11
 6526 3042 FE       		.byte	0xfe
 6527 3043 89300000 		.4byte	0x3089
 6528 3047 19       		.uleb128 0x19
 6529 3048 E22A0000 		.4byte	.LASF979
 6530 304c 11       		.byte	0x11
 6531 304d 0101     		.2byte	0x101
 6532 304f EC000000 		.4byte	0xec
 6533 3053 00       		.byte	0
 6534 3054 19       		.uleb128 0x19
 6535 3055 9B1C0000 		.4byte	.LASF980
 6536 3059 11       		.byte	0x11
 6537 305a 0701     		.2byte	0x107
 6538 305c EC000000 		.4byte	0xec
 6539 3060 02       		.byte	0x2
 6540 3061 19       		.uleb128 0x19
 6541 3062 FA1A0000 		.4byte	.LASF981
 6542 3066 11       		.byte	0x11
 6543 3067 1501     		.2byte	0x115
 6544 3069 02010000 		.4byte	0x102
 6545 306d 04       		.byte	0x4
 6546 306e 19       		.uleb128 0x19
 6547 306f 0F4F0000 		.4byte	.LASF982
 6548 3073 11       		.byte	0x11
 6549 3074 1801     		.2byte	0x118
 6550 3076 EC000000 		.4byte	0xec
 6551 307a 08       		.byte	0x8
 6552 307b 19       		.uleb128 0x19
 6553 307c 0F530000 		.4byte	.LASF983
 6554 3080 11       		.byte	0x11
 6555 3081 2101     		.2byte	0x121
 6556 3083 34300000 		.4byte	0x3034
 6557 3087 0C       		.byte	0xc
 6558 3088 00       		.byte	0
 6559 3089 17       		.uleb128 0x17
 6560 308a F51E0000 		.4byte	.LASF984
 6561 308e 11       		.byte	0x11
 6562 308f 2301     		.2byte	0x123
 6563 3091 3F300000 		.4byte	0x303f
 6564 3095 1C       		.uleb128 0x1c
ARM GAS  C:\Users\JC\AppData\Local\Temp\ccNOiAvA.s 			page 146


 6565 3096 08       		.byte	0x8
 6566 3097 11       		.byte	0x11
 6567 3098 2601     		.2byte	0x126
 6568 309a C6300000 		.4byte	0x30c6
 6569 309e 19       		.uleb128 0x19
 6570 309f D5270000 		.4byte	.LASF985
 6571 30a3 11       		.byte	0x11
 6572 30a4 2901     		.2byte	0x129
 6573 30a6 C6300000 		.4byte	0x30c6
 6574 30aa 00       		.byte	0
 6575 30ab 19       		.uleb128 0x19
 6576 30ac 54250000 		.4byte	.LASF986
 6577 30b0 11       		.byte	0x11
 6578 30b1 2C01     		.2byte	0x12c
 6579 30b3 EC000000 		.4byte	0xec
 6580 30b7 04       		.byte	0x4
 6581 30b8 19       		.uleb128 0x19
 6582 30b9 323E0000 		.4byte	.LASF987
 6583 30bd 11       		.byte	0x11
 6584 30be 2F01     		.2byte	0x12f
 6585 30c0 EC000000 		.4byte	0xec
 6586 30c4 06       		.byte	0x6
 6587 30c5 00       		.byte	0
 6588 30c6 06       		.uleb128 0x6
 6589 30c7 04       		.byte	0x4
 6590 30c8 CC300000 		.4byte	0x30cc
 6591 30cc 09       		.uleb128 0x9
 6592 30cd 89300000 		.4byte	0x3089
 6593 30d1 17       		.uleb128 0x17
 6594 30d2 C72A0000 		.4byte	.LASF988
 6595 30d6 11       		.byte	0x11
 6596 30d7 3101     		.2byte	0x131
 6597 30d9 95300000 		.4byte	0x3095
 6598 30dd 0D       		.uleb128 0xd
 6599 30de 06       		.byte	0x6
 6600 30df 12       		.byte	0x12
 6601 30e0 87       		.byte	0x87
 6602 30e1 0A310000 		.4byte	0x310a
 6603 30e5 0E       		.uleb128 0xe
 6604 30e6 7B580000 		.4byte	.LASF943
 6605 30ea 12       		.byte	0x12
 6606 30eb 89       		.byte	0x89
 6607 30ec 8A2A0000 		.4byte	0x2a8a
 6608 30f0 00       		.byte	0
 6609 30f1 0E       		.uleb128 0xe
 6610 30f2 53050000 		.4byte	.LASF989
 6611 30f6 12       		.byte	0x12
 6612 30f7 8A       		.byte	0x8a
 6613 30f8 8A2A0000 		.4byte	0x2a8a
 6614 30fc 02       		.byte	0x2
 6615 30fd 0E       		.uleb128 0xe
 6616 30fe 35550000 		.4byte	.LASF990
 6617 3102 12       		.byte	0x12
 6618 3103 8B       		.byte	0x8b
 6619 3104 8A2A0000 		.4byte	0x2a8a
 6620 3108 04       		.byte	0x4
 6621 3109 00       		.byte	0
ARM GAS  C:\Users\JC\AppData\Local\Temp\ccNOiAvA.s 			page 147


 6622 310a 04       		.uleb128 0x4
 6623 310b CE4D0000 		.4byte	.LASF991
 6624 310f 12       		.byte	0x12
 6625 3110 8C       		.byte	0x8c
 6626 3111 DD300000 		.4byte	0x30dd
 6627 3115 04       		.uleb128 0x4
 6628 3116 B03E0000 		.4byte	.LASF992
 6629 311a 13       		.byte	0x13
 6630 311b 40       		.byte	0x40
 6631 311c 20310000 		.4byte	0x3120
 6632 3120 06       		.uleb128 0x6
 6633 3121 04       		.byte	0x4
 6634 3122 26310000 		.4byte	0x3126
 6635 3126 23       		.uleb128 0x23
 6636 3127 36310000 		.4byte	0x3136
 6637 312b 20       		.uleb128 0x20
 6638 312c 02010000 		.4byte	0x102
 6639 3130 20       		.uleb128 0x20
 6640 3131 BB000000 		.4byte	0xbb
 6641 3135 00       		.byte	0
 6642 3136 03       		.uleb128 0x3
 6643 3137 01       		.byte	0x1
 6644 3138 02       		.byte	0x2
 6645 3139 BF1F0000 		.4byte	.LASF993
 6646 313d 18       		.uleb128 0x18
 6647 313e ED10     		.2byte	0x10ed
 6648 3140 13       		.byte	0x13
 6649 3141 DE01     		.2byte	0x1de
 6650 3143 7F310000 		.4byte	0x317f
 6651 3147 19       		.uleb128 0x19
 6652 3148 033D0000 		.4byte	.LASF994
 6653 314c 13       		.byte	0x13
 6654 314d E101     		.2byte	0x1e1
 6655 314f 7F310000 		.4byte	0x317f
 6656 3153 00       		.byte	0
 6657 3154 15       		.uleb128 0x15
 6658 3155 62510000 		.4byte	.LASF995
 6659 3159 13       		.byte	0x13
 6660 315a E401     		.2byte	0x1e4
 6661 315c 90310000 		.4byte	0x3190
 6662 3160 9610     		.2byte	0x1096
 6663 3162 15       		.uleb128 0x15
 6664 3163 D6160000 		.4byte	.LASF996
 6665 3167 13       		.byte	0x13
 6666 3168 E701     		.2byte	0x1e7
 6667 316a D6000000 		.4byte	0xd6
 6668 316e EB10     		.2byte	0x10eb
 6669 3170 15       		.uleb128 0x15
 6670 3171 D93A0000 		.4byte	.LASF997
 6671 3175 13       		.byte	0x13
 6672 3176 EA01     		.2byte	0x1ea
 6673 3178 D6000000 		.4byte	0xd6
 6674 317c EC10     		.2byte	0x10ec
 6675 317e 00       		.byte	0
 6676 317f 0A       		.uleb128 0xa
 6677 3180 D6000000 		.4byte	0xd6
 6678 3184 90310000 		.4byte	0x3190
ARM GAS  C:\Users\JC\AppData\Local\Temp\ccNOiAvA.s 			page 148


 6679 3188 0C       		.uleb128 0xc
 6680 3189 B4000000 		.4byte	0xb4
 6681 318d 9510     		.2byte	0x1095
 6682 318f 00       		.byte	0
 6683 3190 0A       		.uleb128 0xa
 6684 3191 D6000000 		.4byte	0xd6
 6685 3195 A6310000 		.4byte	0x31a6
 6686 3199 0B       		.uleb128 0xb
 6687 319a B4000000 		.4byte	0xb4
 6688 319e 10       		.byte	0x10
 6689 319f 0B       		.uleb128 0xb
 6690 31a0 B4000000 		.4byte	0xb4
 6691 31a4 04       		.byte	0x4
 6692 31a5 00       		.byte	0
 6693 31a6 17       		.uleb128 0x17
 6694 31a7 97140000 		.4byte	.LASF998
 6695 31ab 13       		.byte	0x13
 6696 31ac EB01     		.2byte	0x1eb
 6697 31ae 3D310000 		.4byte	0x313d
 6698 31b2 1C       		.uleb128 0x1c
 6699 31b3 08       		.byte	0x8
 6700 31b4 13       		.byte	0x13
 6701 31b5 EE01     		.2byte	0x1ee
 6702 31b7 0A320000 		.4byte	0x320a
 6703 31bb 19       		.uleb128 0x19
 6704 31bc 34280000 		.4byte	.LASF999
 6705 31c0 13       		.byte	0x13
 6706 31c1 F101     		.2byte	0x1f1
 6707 31c3 C4290000 		.4byte	0x29c4
 6708 31c7 00       		.byte	0
 6709 31c8 19       		.uleb128 0x19
 6710 31c9 D4510000 		.4byte	.LASF1000
 6711 31cd 13       		.byte	0x13
 6712 31ce F401     		.2byte	0x1f4
 6713 31d0 C4290000 		.4byte	0x29c4
 6714 31d4 01       		.byte	0x1
 6715 31d5 19       		.uleb128 0x19
 6716 31d6 42100000 		.4byte	.LASF1001
 6717 31da 13       		.byte	0x13
 6718 31db F701     		.2byte	0x1f7
 6719 31dd C12A0000 		.4byte	0x2ac1
 6720 31e1 02       		.byte	0x2
 6721 31e2 19       		.uleb128 0x19
 6722 31e3 C9560000 		.4byte	.LASF1002
 6723 31e7 13       		.byte	0x13
 6724 31e8 FA01     		.2byte	0x1fa
 6725 31ea D6000000 		.4byte	0xd6
 6726 31ee 03       		.byte	0x3
 6727 31ef 19       		.uleb128 0x19
 6728 31f0 FE3F0000 		.4byte	.LASF1003
 6729 31f4 13       		.byte	0x13
 6730 31f5 FD01     		.2byte	0x1fd
 6731 31f7 D6000000 		.4byte	0xd6
 6732 31fb 04       		.byte	0x4
 6733 31fc 19       		.uleb128 0x19
 6734 31fd 18210000 		.4byte	.LASF1004
 6735 3201 13       		.byte	0x13
ARM GAS  C:\Users\JC\AppData\Local\Temp\ccNOiAvA.s 			page 149


 6736 3202 0002     		.2byte	0x200
 6737 3204 EC000000 		.4byte	0xec
 6738 3208 06       		.byte	0x6
 6739 3209 00       		.byte	0
 6740 320a 17       		.uleb128 0x17
 6741 320b 14520000 		.4byte	.LASF1005
 6742 320f 13       		.byte	0x13
 6743 3210 0102     		.2byte	0x201
 6744 3212 B2310000 		.4byte	0x31b2
 6745 3216 1C       		.uleb128 0x1c
 6746 3217 3C       		.byte	0x3c
 6747 3218 13       		.byte	0x13
 6748 3219 0502     		.2byte	0x205
 6749 321b E3320000 		.4byte	0x32e3
 6750 321f 19       		.uleb128 0x19
 6751 3220 681D0000 		.4byte	.LASF1006
 6752 3224 13       		.byte	0x13
 6753 3225 0902     		.2byte	0x209
 6754 3227 E3320000 		.4byte	0x32e3
 6755 322b 00       		.byte	0
 6756 322c 19       		.uleb128 0x19
 6757 322d B64C0000 		.4byte	.LASF1007
 6758 3231 13       		.byte	0x13
 6759 3232 0C02     		.2byte	0x20c
 6760 3234 E9320000 		.4byte	0x32e9
 6761 3238 04       		.byte	0x4
 6762 3239 19       		.uleb128 0x19
 6763 323a FC140000 		.4byte	.LASF1008
 6764 323e 13       		.byte	0x13
 6765 323f 0F02     		.2byte	0x20f
 6766 3241 EF320000 		.4byte	0x32ef
 6767 3245 08       		.byte	0x8
 6768 3246 19       		.uleb128 0x19
 6769 3247 AB250000 		.4byte	.LASF1009
 6770 324b 13       		.byte	0x13
 6771 324c 1202     		.2byte	0x212
 6772 324e F5320000 		.4byte	0x32f5
 6773 3252 0C       		.byte	0xc
 6774 3253 19       		.uleb128 0x19
 6775 3254 792D0000 		.4byte	.LASF1010
 6776 3258 13       		.byte	0x13
 6777 3259 1502     		.2byte	0x215
 6778 325b FB320000 		.4byte	0x32fb
 6779 325f 10       		.byte	0x10
 6780 3260 19       		.uleb128 0x19
 6781 3261 E13B0000 		.4byte	.LASF1011
 6782 3265 13       		.byte	0x13
 6783 3266 1802     		.2byte	0x218
 6784 3268 06330000 		.4byte	0x3306
 6785 326c 14       		.byte	0x14
 6786 326d 19       		.uleb128 0x19
 6787 326e DE050000 		.4byte	.LASF1012
 6788 3272 13       		.byte	0x13
 6789 3273 1B02     		.2byte	0x21b
 6790 3275 11330000 		.4byte	0x3311
 6791 3279 18       		.byte	0x18
 6792 327a 19       		.uleb128 0x19
ARM GAS  C:\Users\JC\AppData\Local\Temp\ccNOiAvA.s 			page 150


 6793 327b 832C0000 		.4byte	.LASF1013
 6794 327f 13       		.byte	0x13
 6795 3280 1E02     		.2byte	0x21e
 6796 3282 32290000 		.4byte	0x2932
 6797 3286 1C       		.byte	0x1c
 6798 3287 19       		.uleb128 0x19
 6799 3288 0A4A0000 		.4byte	.LASF1014
 6800 328c 13       		.byte	0x13
 6801 328d 2102     		.2byte	0x221
 6802 328f C6300000 		.4byte	0x30c6
 6803 3293 20       		.byte	0x20
 6804 3294 19       		.uleb128 0x19
 6805 3295 CA1E0000 		.4byte	.LASF1015
 6806 3299 13       		.byte	0x13
 6807 329a 2402     		.2byte	0x224
 6808 329c 1C330000 		.4byte	0x331c
 6809 32a0 24       		.byte	0x24
 6810 32a1 19       		.uleb128 0x19
 6811 32a2 540E0000 		.4byte	.LASF1016
 6812 32a6 13       		.byte	0x13
 6813 32a7 2702     		.2byte	0x227
 6814 32a9 22330000 		.4byte	0x3322
 6815 32ad 28       		.byte	0x28
 6816 32ae 19       		.uleb128 0x19
 6817 32af B2140000 		.4byte	.LASF1017
 6818 32b3 13       		.byte	0x13
 6819 32b4 2B02     		.2byte	0x22b
 6820 32b6 15310000 		.4byte	0x3115
 6821 32ba 2C       		.byte	0x2c
 6822 32bb 19       		.uleb128 0x19
 6823 32bc 741C0000 		.4byte	.LASF1018
 6824 32c0 13       		.byte	0x13
 6825 32c1 2E02     		.2byte	0x22e
 6826 32c3 2D330000 		.4byte	0x332d
 6827 32c7 30       		.byte	0x30
 6828 32c8 19       		.uleb128 0x19
 6829 32c9 A53F0000 		.4byte	.LASF1019
 6830 32cd 13       		.byte	0x13
 6831 32ce 3202     		.2byte	0x232
 6832 32d0 33330000 		.4byte	0x3333
 6833 32d4 34       		.byte	0x34
 6834 32d5 19       		.uleb128 0x19
 6835 32d6 1D2A0000 		.4byte	.LASF817
 6836 32da 13       		.byte	0x13
 6837 32db 3502     		.2byte	0x235
 6838 32dd 3E330000 		.4byte	0x333e
 6839 32e1 38       		.byte	0x38
 6840 32e2 00       		.byte	0
 6841 32e3 06       		.uleb128 0x6
 6842 32e4 04       		.byte	0x4
 6843 32e5 982D0000 		.4byte	0x2d98
 6844 32e9 06       		.uleb128 0x6
 6845 32ea 04       		.byte	0x4
 6846 32eb 062F0000 		.4byte	0x2f06
 6847 32ef 06       		.uleb128 0x6
 6848 32f0 04       		.byte	0x4
 6849 32f1 242C0000 		.4byte	0x2c24
ARM GAS  C:\Users\JC\AppData\Local\Temp\ccNOiAvA.s 			page 151


 6850 32f5 06       		.uleb128 0x6
 6851 32f6 04       		.byte	0x4
 6852 32f7 AB2F0000 		.4byte	0x2fab
 6853 32fb 06       		.uleb128 0x6
 6854 32fc 04       		.byte	0x4
 6855 32fd 01330000 		.4byte	0x3301
 6856 3301 09       		.uleb128 0x9
 6857 3302 A6310000 		.4byte	0x31a6
 6858 3306 06       		.uleb128 0x6
 6859 3307 04       		.byte	0x4
 6860 3308 0C330000 		.4byte	0x330c
 6861 330c 09       		.uleb128 0x9
 6862 330d 0A310000 		.4byte	0x310a
 6863 3311 06       		.uleb128 0x6
 6864 3312 04       		.byte	0x4
 6865 3313 17330000 		.4byte	0x3317
 6866 3317 09       		.uleb128 0x9
 6867 3318 962E0000 		.4byte	0x2e96
 6868 331c 06       		.uleb128 0x6
 6869 331d 04       		.byte	0x4
 6870 331e AF2B0000 		.4byte	0x2baf
 6871 3322 06       		.uleb128 0x6
 6872 3323 04       		.byte	0x4
 6873 3324 28330000 		.4byte	0x3328
 6874 3328 09       		.uleb128 0x9
 6875 3329 0A320000 		.4byte	0x320a
 6876 332d 06       		.uleb128 0x6
 6877 332e 04       		.byte	0x4
 6878 332f 4B2B0000 		.4byte	0x2b4b
 6879 3333 06       		.uleb128 0x6
 6880 3334 04       		.byte	0x4
 6881 3335 39330000 		.4byte	0x3339
 6882 3339 09       		.uleb128 0x9
 6883 333a 58200000 		.4byte	0x2058
 6884 333e 06       		.uleb128 0x6
 6885 333f 04       		.byte	0x4
 6886 3340 13280000 		.4byte	0x2813
 6887 3344 17       		.uleb128 0x17
 6888 3345 0D140000 		.4byte	.LASF1020
 6889 3349 13       		.byte	0x13
 6890 334a 4C02     		.2byte	0x24c
 6891 334c 16320000 		.4byte	0x3216
 6892 3350 17       		.uleb128 0x17
 6893 3351 D1080000 		.4byte	.LASF1021
 6894 3355 13       		.byte	0x13
 6895 3356 4F02     		.2byte	0x24f
 6896 3358 C4000000 		.4byte	0xc4
 6897 335c 0F       		.uleb128 0xf
 6898 335d 04       		.byte	0x4
 6899 335e 2C000000 		.4byte	0x2c
 6900 3362 14       		.byte	0x14
 6901 3363 47       		.byte	0x47
 6902 3364 B7330000 		.4byte	0x33b7
 6903 3368 11       		.uleb128 0x11
 6904 3369 D31E0000 		.4byte	.LASF1022
 6905 336d 00       		.byte	0
 6906 336e 1E       		.uleb128 0x1e
ARM GAS  C:\Users\JC\AppData\Local\Temp\ccNOiAvA.s 			page 152


 6907 336f 13500000 		.4byte	.LASF1023
 6908 3373 01018A00 		.4byte	0x8a0101
 6909 3377 1E       		.uleb128 0x1e
 6910 3378 5A360000 		.4byte	.LASF1024
 6911 337c 02018A00 		.4byte	0x8a0102
 6912 3380 1E       		.uleb128 0x1e
 6913 3381 36490000 		.4byte	.LASF1025
 6914 3385 03018A00 		.4byte	0x8a0103
 6915 3389 1E       		.uleb128 0x1e
 6916 338a B0560000 		.4byte	.LASF1026
 6917 338e 04018A00 		.4byte	0x8a0104
 6918 3392 1E       		.uleb128 0x1e
 6919 3393 F7530000 		.4byte	.LASF1027
 6920 3397 02018800 		.4byte	0x880102
 6921 339b 1E       		.uleb128 0x1e
 6922 339c 63110000 		.4byte	.LASF1028
 6923 33a0 03018800 		.4byte	0x880103
 6924 33a4 1E       		.uleb128 0x1e
 6925 33a5 95190000 		.4byte	.LASF1029
 6926 33a9 01018800 		.4byte	0x880101
 6927 33ad 1E       		.uleb128 0x1e
 6928 33ae 54530000 		.4byte	.LASF1030
 6929 33b2 00018800 		.4byte	0x880100
 6930 33b6 00       		.byte	0
 6931 33b7 26       		.uleb128 0x26
 6932 33b8 BB0C0000 		.4byte	.LASF1074
 6933 33bc 01       		.byte	0x1
 6934 33bd F902     		.2byte	0x2f9
 6935 33bf 00000000 		.4byte	.LFB171
 6936 33c3 20000000 		.4byte	.LFE171-.LFB171
 6937 33c7 01       		.uleb128 0x1
 6938 33c8 9C       		.byte	0x9c
 6939 33c9 DD330000 		.4byte	0x33dd
 6940 33cd 27       		.uleb128 0x27
 6941 33ce 9E430000 		.4byte	.LASF1031
 6942 33d2 01       		.byte	0x1
 6943 33d3 F902     		.2byte	0x2f9
 6944 33d5 F22D0000 		.4byte	0x2df2
 6945 33d9 02       		.uleb128 0x2
 6946 33da 91       		.byte	0x91
 6947 33db 77       		.sleb128 -9
 6948 33dc 00       		.byte	0
 6949 33dd 28       		.uleb128 0x28
 6950 33de 01250000 		.4byte	.LASF1043
 6951 33e2 02       		.byte	0x2
 6952 33e3 5F       		.byte	0x5f
 6953 33e4 00000000 		.4byte	.LFB256
 6954 33e8 14000000 		.4byte	.LFE256-.LFB256
 6955 33ec 01       		.uleb128 0x1
 6956 33ed 9C       		.byte	0x9c
 6957 33ee 29       		.uleb128 0x29
 6958 33ef AD380000 		.4byte	.LASF1033
 6959 33f3 02       		.byte	0x2
 6960 33f4 85       		.byte	0x85
 6961 33f5 64260000 		.4byte	0x2664
 6962 33f9 00000000 		.4byte	.LFB257
 6963 33fd 8C000000 		.4byte	.LFE257-.LFB257
ARM GAS  C:\Users\JC\AppData\Local\Temp\ccNOiAvA.s 			page 153


 6964 3401 01       		.uleb128 0x1
 6965 3402 9C       		.byte	0x9c
 6966 3403 24340000 		.4byte	0x3424
 6967 3407 2A       		.uleb128 0x2a
 6968 3408 94060000 		.4byte	.LASF1032
 6969 340c 02       		.byte	0x2
 6970 340d 85       		.byte	0x85
 6971 340e 24340000 		.4byte	0x3424
 6972 3412 02       		.uleb128 0x2
 6973 3413 91       		.byte	0x91
 6974 3414 6C       		.sleb128 -20
 6975 3415 2B       		.uleb128 0x2b
 6976 3416 09560000 		.4byte	.LASF1035
 6977 341a 02       		.byte	0x2
 6978 341b 87       		.byte	0x87
 6979 341c 64260000 		.4byte	0x2664
 6980 3420 02       		.uleb128 0x2
 6981 3421 91       		.byte	0x91
 6982 3422 74       		.sleb128 -12
 6983 3423 00       		.byte	0
 6984 3424 06       		.uleb128 0x6
 6985 3425 04       		.byte	0x4
 6986 3426 44330000 		.4byte	0x3344
 6987 342a 2C       		.uleb128 0x2c
 6988 342b 89580000 		.4byte	.LASF1034
 6989 342f 02       		.byte	0x2
 6990 3430 0D01     		.2byte	0x10d
 6991 3432 64260000 		.4byte	0x2664
 6992 3436 00000000 		.4byte	.LFB258
 6993 343a 68010000 		.4byte	.LFE258-.LFB258
 6994 343e 01       		.uleb128 0x1
 6995 343f 9C       		.byte	0x9c
 6996 3440 8D340000 		.4byte	0x348d
 6997 3444 2D       		.uleb128 0x2d
 6998 3445 09560000 		.4byte	.LASF1035
 6999 3449 02       		.byte	0x2
 7000 344a 0F01     		.2byte	0x10f
 7001 344c 64260000 		.4byte	0x2664
 7002 3450 02       		.uleb128 0x2
 7003 3451 91       		.byte	0x91
 7004 3452 64       		.sleb128 -28
 7005 3453 2D       		.uleb128 0x2d
 7006 3454 5C2C0000 		.4byte	.LASF1036
 7007 3458 02       		.byte	0x2
 7008 3459 1301     		.2byte	0x113
 7009 345b 8D340000 		.4byte	0x348d
 7010 345f 02       		.uleb128 0x2
 7011 3460 91       		.byte	0x91
 7012 3461 50       		.sleb128 -48
 7013 3462 2D       		.uleb128 0x2d
 7014 3463 950B0000 		.4byte	.LASF1037
 7015 3467 02       		.byte	0x2
 7016 3468 1D01     		.2byte	0x11d
 7017 346a 86290000 		.4byte	0x2986
 7018 346e 03       		.uleb128 0x3
 7019 346f 91       		.byte	0x91
 7020 3470 847F     		.sleb128 -124
ARM GAS  C:\Users\JC\AppData\Local\Temp\ccNOiAvA.s 			page 154


 7021 3472 2E       		.uleb128 0x2e
 7022 3473 16010000 		.4byte	.LBB2
 7023 3477 20000000 		.4byte	.LBE2-.LBB2
 7024 347b 2D       		.uleb128 0x2d
 7025 347c A4430000 		.4byte	.LASF1038
 7026 3480 02       		.byte	0x2
 7027 3481 9801     		.2byte	0x198
 7028 3483 D1300000 		.4byte	0x30d1
 7029 3487 03       		.uleb128 0x3
 7030 3488 91       		.byte	0x91
 7031 3489 FC7E     		.sleb128 -132
 7032 348b 00       		.byte	0
 7033 348c 00       		.byte	0
 7034 348d 0A       		.uleb128 0xa
 7035 348e CE280000 		.4byte	0x28ce
 7036 3492 9D340000 		.4byte	0x349d
 7037 3496 0B       		.uleb128 0xb
 7038 3497 B4000000 		.4byte	0xb4
 7039 349b 04       		.byte	0x4
 7040 349c 00       		.byte	0
 7041 349d 2C       		.uleb128 0x2c
 7042 349e 473F0000 		.4byte	.LASF1039
 7043 34a2 02       		.byte	0x2
 7044 34a3 D001     		.2byte	0x1d0
 7045 34a5 64260000 		.4byte	0x2664
 7046 34a9 00000000 		.4byte	.LFB259
 7047 34ad 16000000 		.4byte	.LFE259-.LFB259
 7048 34b1 01       		.uleb128 0x1
 7049 34b2 9C       		.byte	0x9c
 7050 34b3 C7340000 		.4byte	0x34c7
 7051 34b7 2D       		.uleb128 0x2d
 7052 34b8 09560000 		.4byte	.LASF1035
 7053 34bc 02       		.byte	0x2
 7054 34bd D201     		.2byte	0x1d2
 7055 34bf 64260000 		.4byte	0x2664
 7056 34c3 02       		.uleb128 0x2
 7057 34c4 91       		.byte	0x91
 7058 34c5 74       		.sleb128 -12
 7059 34c6 00       		.byte	0
 7060 34c7 2F       		.uleb128 0x2f
 7061 34c8 10540000 		.4byte	.LASF1075
 7062 34cc 02       		.byte	0x2
 7063 34cd 0802     		.2byte	0x208
 7064 34cf 00000000 		.4byte	.LFB260
 7065 34d3 24000000 		.4byte	.LFE260-.LFB260
 7066 34d7 01       		.uleb128 0x1
 7067 34d8 9C       		.byte	0x9c
 7068 34d9 ED340000 		.4byte	0x34ed
 7069 34dd 27       		.uleb128 0x27
 7070 34de 763E0000 		.4byte	.LASF1040
 7071 34e2 02       		.byte	0x2
 7072 34e3 0802     		.2byte	0x208
 7073 34e5 02010000 		.4byte	0x102
 7074 34e9 02       		.uleb128 0x2
 7075 34ea 91       		.byte	0x91
 7076 34eb 74       		.sleb128 -12
 7077 34ec 00       		.byte	0
ARM GAS  C:\Users\JC\AppData\Local\Temp\ccNOiAvA.s 			page 155


 7078 34ed 30       		.uleb128 0x30
 7079 34ee DD400000 		.4byte	.LASF1041
 7080 34f2 02       		.byte	0x2
 7081 34f3 C702     		.2byte	0x2c7
 7082 34f5 64260000 		.4byte	0x2664
 7083 34f9 00000000 		.4byte	.LFB261
 7084 34fd 34000000 		.4byte	.LFE261-.LFB261
 7085 3501 01       		.uleb128 0x1
 7086 3502 9C       		.byte	0x9c
 7087 3503 26350000 		.4byte	0x3526
 7088 3507 27       		.uleb128 0x27
 7089 3508 20450000 		.4byte	.LASF1042
 7090 350c 02       		.byte	0x2
 7091 350d C702     		.2byte	0x2c7
 7092 350f 50330000 		.4byte	0x3350
 7093 3513 02       		.uleb128 0x2
 7094 3514 91       		.byte	0x91
 7095 3515 6C       		.sleb128 -20
 7096 3516 2D       		.uleb128 0x2d
 7097 3517 09560000 		.4byte	.LASF1035
 7098 351b 02       		.byte	0x2
 7099 351c C902     		.2byte	0x2c9
 7100 351e 64260000 		.4byte	0x2664
 7101 3522 02       		.uleb128 0x2
 7102 3523 91       		.byte	0x91
 7103 3524 74       		.sleb128 -12
 7104 3525 00       		.byte	0
 7105 3526 31       		.uleb128 0x31
 7106 3527 4B000000 		.4byte	.LASF1044
 7107 352b 02       		.byte	0x2
 7108 352c DD02     		.2byte	0x2dd
 7109 352e 00000000 		.4byte	.LFB262
 7110 3532 18000000 		.4byte	.LFE262-.LFB262
 7111 3536 01       		.uleb128 0x1
 7112 3537 9C       		.byte	0x9c
 7113 3538 2C       		.uleb128 0x2c
 7114 3539 2C500000 		.4byte	.LASF1045
 7115 353d 02       		.byte	0x2
 7116 353e 0903     		.2byte	0x309
 7117 3540 A5200000 		.4byte	0x20a5
 7118 3544 00000000 		.4byte	.LFB263
 7119 3548 04010000 		.4byte	.LFE263-.LFB263
 7120 354c 01       		.uleb128 0x1
 7121 354d 9C       		.byte	0x9c
 7122 354e C9350000 		.4byte	0x35c9
 7123 3552 27       		.uleb128 0x27
 7124 3553 85370000 		.4byte	.LASF637
 7125 3557 02       		.byte	0x2
 7126 3558 0903     		.2byte	0x309
 7127 355a 8B210000 		.4byte	0x218b
 7128 355e 02       		.uleb128 0x2
 7129 355f 91       		.byte	0x91
 7130 3560 64       		.sleb128 -28
 7131 3561 27       		.uleb128 0x27
 7132 3562 33530000 		.4byte	.LASF1046
 7133 3566 02       		.byte	0x2
 7134 3567 0A03     		.2byte	0x30a
ARM GAS  C:\Users\JC\AppData\Local\Temp\ccNOiAvA.s 			page 156


 7135 3569 29210000 		.4byte	0x2129
 7136 356d 02       		.uleb128 0x2
 7137 356e 91       		.byte	0x91
 7138 356f 63       		.sleb128 -29
 7139 3570 2D       		.uleb128 0x2d
 7140 3571 45410000 		.4byte	.LASF1047
 7141 3575 02       		.byte	0x2
 7142 3576 0E03     		.2byte	0x30e
 7143 3578 A5200000 		.4byte	0x20a5
 7144 357c 02       		.uleb128 0x2
 7145 357d 91       		.byte	0x91
 7146 357e 74       		.sleb128 -12
 7147 357f 2D       		.uleb128 0x2d
 7148 3580 57270000 		.4byte	.LASF1048
 7149 3584 02       		.byte	0x2
 7150 3585 0F03     		.2byte	0x30f
 7151 3587 02010000 		.4byte	0x102
 7152 358b 05       		.uleb128 0x5
 7153 358c 03       		.byte	0x3
 7154 358d 14000000 		.4byte	interruptState.14640
 7155 3591 2D       		.uleb128 0x2d
 7156 3592 13370000 		.4byte	.LASF1049
 7157 3596 02       		.byte	0x2
 7158 3597 1003     		.2byte	0x310
 7159 3599 342A0000 		.4byte	0x2a34
 7160 359d 02       		.uleb128 0x2
 7161 359e 91       		.byte	0x91
 7162 359f 72       		.sleb128 -14
 7163 35a0 2D       		.uleb128 0x2d
 7164 35a1 202D0000 		.4byte	.LASF1050
 7165 35a5 02       		.byte	0x2
 7166 35a6 1303     		.2byte	0x313
 7167 35a8 F0290000 		.4byte	0x29f0
 7168 35ac 02       		.uleb128 0x2
 7169 35ad 91       		.byte	0x91
 7170 35ae 73       		.sleb128 -13
 7171 35af 2E       		.uleb128 0x2e
 7172 35b0 4A000000 		.4byte	.LBB3
 7173 35b4 84000000 		.4byte	.LBE3-.LBB3
 7174 35b8 2D       		.uleb128 0x2d
 7175 35b9 590B0000 		.4byte	.LASF1051
 7176 35bd 02       		.byte	0x2
 7177 35be 3503     		.2byte	0x335
 7178 35c0 64260000 		.4byte	0x2664
 7179 35c4 02       		.uleb128 0x2
 7180 35c5 91       		.byte	0x91
 7181 35c6 6C       		.sleb128 -20
 7182 35c7 00       		.byte	0
 7183 35c8 00       		.byte	0
 7184 35c9 2B       		.uleb128 0x2b
 7185 35ca A00C0000 		.4byte	.LASF1052
 7186 35ce 02       		.byte	0x2
 7187 35cf 38       		.byte	0x38
 7188 35d0 59210000 		.4byte	0x2159
 7189 35d4 05       		.uleb128 0x5
 7190 35d5 03       		.byte	0x3
 7191 35d6 0C000000 		.4byte	bleDeepSleepCallbackParams
ARM GAS  C:\Users\JC\AppData\Local\Temp\ccNOiAvA.s 			page 157


 7192 35da 2B       		.uleb128 0x2b
 7193 35db 3F250000 		.4byte	.LASF1053
 7194 35df 02       		.byte	0x2
 7195 35e0 39       		.byte	0x39
 7196 35e1 F3210000 		.4byte	0x21f3
 7197 35e5 05       		.uleb128 0x5
 7198 35e6 03       		.byte	0x3
 7199 35e7 00000000 		.4byte	bleDeepSleepCallback
 7200 35eb 32       		.uleb128 0x32
 7201 35ec 97150000 		.4byte	.LASF1054
 7202 35f0 05       		.byte	0x5
 7203 35f1 A7       		.byte	0xa7
 7204 35f2 F6350000 		.4byte	0x35f6
 7205 35f6 06       		.uleb128 0x6
 7206 35f7 04       		.byte	0x4
 7207 35f8 FC350000 		.4byte	0x35fc
 7208 35fc 09       		.uleb128 0x9
 7209 35fd 3F060000 		.4byte	0x63f
 7210 3601 33       		.uleb128 0x33
 7211 3602 A0380000 		.4byte	.LASF1055
 7212 3606 15       		.byte	0x15
 7213 3607 F907     		.2byte	0x7f9
 7214 3609 0D360000 		.4byte	0x360d
 7215 360d 08       		.uleb128 0x8
 7216 360e F7000000 		.4byte	0xf7
 7217 3612 33       		.uleb128 0x33
 7218 3613 271C0000 		.4byte	.LASF1056
 7219 3617 01       		.byte	0x1
 7220 3618 1802     		.2byte	0x218
 7221 361a C7010000 		.4byte	0x1c7
 7222 361e 33       		.uleb128 0x33
 7223 361f 8B1E0000 		.4byte	.LASF1057
 7224 3623 01       		.byte	0x1
 7225 3624 1B02     		.2byte	0x21b
 7226 3626 C22D0000 		.4byte	0x2dc2
 7227 362a 33       		.uleb128 0x33
 7228 362b 91330000 		.4byte	.LASF1058
 7229 362f 01       		.byte	0x1
 7230 3630 2202     		.2byte	0x222
 7231 3632 F22D0000 		.4byte	0x2df2
 7232 3636 0A       		.uleb128 0xa
 7233 3637 7E2A0000 		.4byte	0x2a7e
 7234 363b 46360000 		.4byte	0x3646
 7235 363f 0B       		.uleb128 0xb
 7236 3640 B4000000 		.4byte	0xb4
 7237 3644 00       		.byte	0
 7238 3645 00       		.byte	0
 7239 3646 33       		.uleb128 0x33
 7240 3647 2F070000 		.4byte	.LASF1059
 7241 364b 01       		.byte	0x1
 7242 364c 2C02     		.2byte	0x22c
 7243 364e 36360000 		.4byte	0x3636
 7244 3652 0A       		.uleb128 0xa
 7245 3653 3A2E0000 		.4byte	0x2e3a
 7246 3657 62360000 		.4byte	0x3662
 7247 365b 0B       		.uleb128 0xb
 7248 365c B4000000 		.4byte	0xb4
ARM GAS  C:\Users\JC\AppData\Local\Temp\ccNOiAvA.s 			page 158


 7249 3660 00       		.byte	0
 7250 3661 00       		.byte	0
 7251 3662 33       		.uleb128 0x33
 7252 3663 9B060000 		.4byte	.LASF1060
 7253 3667 01       		.byte	0x1
 7254 3668 2D02     		.2byte	0x22d
 7255 366a 52360000 		.4byte	0x3652
 7256 366e 33       		.uleb128 0x33
 7257 366f E81C0000 		.4byte	.LASF1061
 7258 3673 01       		.byte	0x1
 7259 3674 5202     		.2byte	0x252
 7260 3676 D6000000 		.4byte	0xd6
 7261 367a 0A       		.uleb128 0xa
 7262 367b D6000000 		.4byte	0xd6
 7263 367f 8A360000 		.4byte	0x368a
 7264 3683 0B       		.uleb128 0xb
 7265 3684 B4000000 		.4byte	0xb4
 7266 3688 00       		.byte	0
 7267 3689 00       		.byte	0
 7268 368a 33       		.uleb128 0x33
 7269 368b 0E100000 		.4byte	.LASF1062
 7270 368f 01       		.byte	0x1
 7271 3690 5902     		.2byte	0x259
 7272 3692 7A360000 		.4byte	0x367a
 7273 3696 34       		.uleb128 0x34
 7274 3697 EE3E0000 		.4byte	.LASF1063
 7275 369b 02       		.byte	0x2
 7276 369c 2E       		.byte	0x2e
 7277 369d 50330000 		.4byte	0x3350
 7278 36a1 05       		.uleb128 0x5
 7279 36a2 03       		.byte	0x3
 7280 36a3 00000000 		.4byte	Cy_BLE_HostRegisteredCallback
 7281 36a7 34       		.uleb128 0x34
 7282 36a8 E40A0000 		.4byte	.LASF1064
 7283 36ac 02       		.byte	0x2
 7284 36ad 2B       		.byte	0x2b
 7285 36ae 15310000 		.4byte	0x3115
 7286 36b2 05       		.uleb128 0x5
 7287 36b3 03       		.byte	0x3
 7288 36b4 00000000 		.4byte	Cy_BLE_ApplCallback
 7289 36b8 0A       		.uleb128 0xa
 7290 36b9 D6000000 		.4byte	0xd6
 7291 36bd C9360000 		.4byte	0x36c9
 7292 36c1 0C       		.uleb128 0xc
 7293 36c2 B4000000 		.4byte	0xb4
 7294 36c6 0F29     		.2byte	0x290f
 7295 36c8 00       		.byte	0
 7296 36c9 34       		.uleb128 0x34
 7297 36ca C2340000 		.4byte	.LASF1065
 7298 36ce 02       		.byte	0x2
 7299 36cf 26       		.byte	0x26
 7300 36d0 B8360000 		.4byte	0x36b8
 7301 36d4 05       		.uleb128 0x5
 7302 36d5 03       		.byte	0x3
 7303 36d6 00000000 		.4byte	cy_ble_stackMemoryRam
 7304 36da 34       		.uleb128 0x34
 7305 36db 3F1C0000 		.4byte	.LASF1066
ARM GAS  C:\Users\JC\AppData\Local\Temp\ccNOiAvA.s 			page 159


 7306 36df 02       		.byte	0x2
 7307 36e0 33       		.byte	0x33
 7308 36e1 24340000 		.4byte	0x3424
 7309 36e5 05       		.uleb128 0x5
 7310 36e6 03       		.byte	0x3
 7311 36e7 00000000 		.4byte	cy_ble_configPtr
 7312 36eb 0A       		.uleb128 0xa
 7313 36ec C7010000 		.4byte	0x1c7
 7314 36f0 FB360000 		.4byte	0x36fb
 7315 36f4 0B       		.uleb128 0xb
 7316 36f5 B4000000 		.4byte	0xb4
 7317 36f9 00       		.byte	0
 7318 36fa 00       		.byte	0
 7319 36fb 33       		.uleb128 0x33
 7320 36fc 6E310000 		.4byte	.LASF1067
 7321 3700 16       		.byte	0x16
 7322 3701 7309     		.2byte	0x973
 7323 3703 07370000 		.4byte	0x3707
 7324 3707 08       		.uleb128 0x8
 7325 3708 EB360000 		.4byte	0x36eb
 7326 370c 33       		.uleb128 0x33
 7327 370d 874A0000 		.4byte	.LASF1068
 7328 3711 16       		.byte	0x16
 7329 3712 7409     		.2byte	0x974
 7330 3714 0D010000 		.4byte	0x10d
 7331 3718 33       		.uleb128 0x33
 7332 3719 B8540000 		.4byte	.LASF1069
 7333 371d 16       		.byte	0x16
 7334 371e 7709     		.2byte	0x977
 7335 3720 D6000000 		.4byte	0xd6
 7336 3724 00       		.byte	0
 7337              		.section	.debug_abbrev,"",%progbits
 7338              	.Ldebug_abbrev0:
 7339 0000 01       		.uleb128 0x1
 7340 0001 11       		.uleb128 0x11
 7341 0002 01       		.byte	0x1
 7342 0003 25       		.uleb128 0x25
 7343 0004 0E       		.uleb128 0xe
 7344 0005 13       		.uleb128 0x13
 7345 0006 0B       		.uleb128 0xb
 7346 0007 03       		.uleb128 0x3
 7347 0008 0E       		.uleb128 0xe
 7348 0009 1B       		.uleb128 0x1b
 7349 000a 0E       		.uleb128 0xe
 7350 000b 55       		.uleb128 0x55
 7351 000c 17       		.uleb128 0x17
 7352 000d 11       		.uleb128 0x11
 7353 000e 01       		.uleb128 0x1
 7354 000f 10       		.uleb128 0x10
 7355 0010 17       		.uleb128 0x17
 7356 0011 00       		.byte	0
 7357 0012 00       		.byte	0
 7358 0013 02       		.uleb128 0x2
 7359 0014 24       		.uleb128 0x24
 7360 0015 00       		.byte	0
 7361 0016 0B       		.uleb128 0xb
 7362 0017 0B       		.uleb128 0xb
ARM GAS  C:\Users\JC\AppData\Local\Temp\ccNOiAvA.s 			page 160


 7363 0018 3E       		.uleb128 0x3e
 7364 0019 0B       		.uleb128 0xb
 7365 001a 03       		.uleb128 0x3
 7366 001b 08       		.uleb128 0x8
 7367 001c 00       		.byte	0
 7368 001d 00       		.byte	0
 7369 001e 03       		.uleb128 0x3
 7370 001f 24       		.uleb128 0x24
 7371 0020 00       		.byte	0
 7372 0021 0B       		.uleb128 0xb
 7373 0022 0B       		.uleb128 0xb
 7374 0023 3E       		.uleb128 0x3e
 7375 0024 0B       		.uleb128 0xb
 7376 0025 03       		.uleb128 0x3
 7377 0026 0E       		.uleb128 0xe
 7378 0027 00       		.byte	0
 7379 0028 00       		.byte	0
 7380 0029 04       		.uleb128 0x4
 7381 002a 16       		.uleb128 0x16
 7382 002b 00       		.byte	0
 7383 002c 03       		.uleb128 0x3
 7384 002d 0E       		.uleb128 0xe
 7385 002e 3A       		.uleb128 0x3a
 7386 002f 0B       		.uleb128 0xb
 7387 0030 3B       		.uleb128 0x3b
 7388 0031 0B       		.uleb128 0xb
 7389 0032 49       		.uleb128 0x49
 7390 0033 13       		.uleb128 0x13
 7391 0034 00       		.byte	0
 7392 0035 00       		.byte	0
 7393 0036 05       		.uleb128 0x5
 7394 0037 0F       		.uleb128 0xf
 7395 0038 00       		.byte	0
 7396 0039 0B       		.uleb128 0xb
 7397 003a 0B       		.uleb128 0xb
 7398 003b 00       		.byte	0
 7399 003c 00       		.byte	0
 7400 003d 06       		.uleb128 0x6
 7401 003e 0F       		.uleb128 0xf
 7402 003f 00       		.byte	0
 7403 0040 0B       		.uleb128 0xb
 7404 0041 0B       		.uleb128 0xb
 7405 0042 49       		.uleb128 0x49
 7406 0043 13       		.uleb128 0x13
 7407 0044 00       		.byte	0
 7408 0045 00       		.byte	0
 7409 0046 07       		.uleb128 0x7
 7410 0047 15       		.uleb128 0x15
 7411 0048 00       		.byte	0
 7412 0049 27       		.uleb128 0x27
 7413 004a 19       		.uleb128 0x19
 7414 004b 00       		.byte	0
 7415 004c 00       		.byte	0
 7416 004d 08       		.uleb128 0x8
 7417 004e 35       		.uleb128 0x35
 7418 004f 00       		.byte	0
 7419 0050 49       		.uleb128 0x49
ARM GAS  C:\Users\JC\AppData\Local\Temp\ccNOiAvA.s 			page 161


 7420 0051 13       		.uleb128 0x13
 7421 0052 00       		.byte	0
 7422 0053 00       		.byte	0
 7423 0054 09       		.uleb128 0x9
 7424 0055 26       		.uleb128 0x26
 7425 0056 00       		.byte	0
 7426 0057 49       		.uleb128 0x49
 7427 0058 13       		.uleb128 0x13
 7428 0059 00       		.byte	0
 7429 005a 00       		.byte	0
 7430 005b 0A       		.uleb128 0xa
 7431 005c 01       		.uleb128 0x1
 7432 005d 01       		.byte	0x1
 7433 005e 49       		.uleb128 0x49
 7434 005f 13       		.uleb128 0x13
 7435 0060 01       		.uleb128 0x1
 7436 0061 13       		.uleb128 0x13
 7437 0062 00       		.byte	0
 7438 0063 00       		.byte	0
 7439 0064 0B       		.uleb128 0xb
 7440 0065 21       		.uleb128 0x21
 7441 0066 00       		.byte	0
 7442 0067 49       		.uleb128 0x49
 7443 0068 13       		.uleb128 0x13
 7444 0069 2F       		.uleb128 0x2f
 7445 006a 0B       		.uleb128 0xb
 7446 006b 00       		.byte	0
 7447 006c 00       		.byte	0
 7448 006d 0C       		.uleb128 0xc
 7449 006e 21       		.uleb128 0x21
 7450 006f 00       		.byte	0
 7451 0070 49       		.uleb128 0x49
 7452 0071 13       		.uleb128 0x13
 7453 0072 2F       		.uleb128 0x2f
 7454 0073 05       		.uleb128 0x5
 7455 0074 00       		.byte	0
 7456 0075 00       		.byte	0
 7457 0076 0D       		.uleb128 0xd
 7458 0077 13       		.uleb128 0x13
 7459 0078 01       		.byte	0x1
 7460 0079 0B       		.uleb128 0xb
 7461 007a 0B       		.uleb128 0xb
 7462 007b 3A       		.uleb128 0x3a
 7463 007c 0B       		.uleb128 0xb
 7464 007d 3B       		.uleb128 0x3b
 7465 007e 0B       		.uleb128 0xb
 7466 007f 01       		.uleb128 0x1
 7467 0080 13       		.uleb128 0x13
 7468 0081 00       		.byte	0
 7469 0082 00       		.byte	0
 7470 0083 0E       		.uleb128 0xe
 7471 0084 0D       		.uleb128 0xd
 7472 0085 00       		.byte	0
 7473 0086 03       		.uleb128 0x3
 7474 0087 0E       		.uleb128 0xe
 7475 0088 3A       		.uleb128 0x3a
 7476 0089 0B       		.uleb128 0xb
ARM GAS  C:\Users\JC\AppData\Local\Temp\ccNOiAvA.s 			page 162


 7477 008a 3B       		.uleb128 0x3b
 7478 008b 0B       		.uleb128 0xb
 7479 008c 49       		.uleb128 0x49
 7480 008d 13       		.uleb128 0x13
 7481 008e 38       		.uleb128 0x38
 7482 008f 0B       		.uleb128 0xb
 7483 0090 00       		.byte	0
 7484 0091 00       		.byte	0
 7485 0092 0F       		.uleb128 0xf
 7486 0093 04       		.uleb128 0x4
 7487 0094 01       		.byte	0x1
 7488 0095 0B       		.uleb128 0xb
 7489 0096 0B       		.uleb128 0xb
 7490 0097 49       		.uleb128 0x49
 7491 0098 13       		.uleb128 0x13
 7492 0099 3A       		.uleb128 0x3a
 7493 009a 0B       		.uleb128 0xb
 7494 009b 3B       		.uleb128 0x3b
 7495 009c 0B       		.uleb128 0xb
 7496 009d 01       		.uleb128 0x1
 7497 009e 13       		.uleb128 0x13
 7498 009f 00       		.byte	0
 7499 00a0 00       		.byte	0
 7500 00a1 10       		.uleb128 0x10
 7501 00a2 28       		.uleb128 0x28
 7502 00a3 00       		.byte	0
 7503 00a4 03       		.uleb128 0x3
 7504 00a5 0E       		.uleb128 0xe
 7505 00a6 1C       		.uleb128 0x1c
 7506 00a7 0D       		.uleb128 0xd
 7507 00a8 00       		.byte	0
 7508 00a9 00       		.byte	0
 7509 00aa 11       		.uleb128 0x11
 7510 00ab 28       		.uleb128 0x28
 7511 00ac 00       		.byte	0
 7512 00ad 03       		.uleb128 0x3
 7513 00ae 0E       		.uleb128 0xe
 7514 00af 1C       		.uleb128 0x1c
 7515 00b0 0B       		.uleb128 0xb
 7516 00b1 00       		.byte	0
 7517 00b2 00       		.byte	0
 7518 00b3 12       		.uleb128 0x12
 7519 00b4 13       		.uleb128 0x13
 7520 00b5 01       		.byte	0x1
 7521 00b6 0B       		.uleb128 0xb
 7522 00b7 05       		.uleb128 0x5
 7523 00b8 3A       		.uleb128 0x3a
 7524 00b9 0B       		.uleb128 0xb
 7525 00ba 3B       		.uleb128 0x3b
 7526 00bb 0B       		.uleb128 0xb
 7527 00bc 01       		.uleb128 0x1
 7528 00bd 13       		.uleb128 0x13
 7529 00be 00       		.byte	0
 7530 00bf 00       		.byte	0
 7531 00c0 13       		.uleb128 0x13
 7532 00c1 0D       		.uleb128 0xd
 7533 00c2 00       		.byte	0
ARM GAS  C:\Users\JC\AppData\Local\Temp\ccNOiAvA.s 			page 163


 7534 00c3 03       		.uleb128 0x3
 7535 00c4 0E       		.uleb128 0xe
 7536 00c5 3A       		.uleb128 0x3a
 7537 00c6 0B       		.uleb128 0xb
 7538 00c7 3B       		.uleb128 0x3b
 7539 00c8 0B       		.uleb128 0xb
 7540 00c9 49       		.uleb128 0x49
 7541 00ca 13       		.uleb128 0x13
 7542 00cb 38       		.uleb128 0x38
 7543 00cc 05       		.uleb128 0x5
 7544 00cd 00       		.byte	0
 7545 00ce 00       		.byte	0
 7546 00cf 14       		.uleb128 0x14
 7547 00d0 13       		.uleb128 0x13
 7548 00d1 01       		.byte	0x1
 7549 00d2 0B       		.uleb128 0xb
 7550 00d3 06       		.uleb128 0x6
 7551 00d4 3A       		.uleb128 0x3a
 7552 00d5 0B       		.uleb128 0xb
 7553 00d6 3B       		.uleb128 0x3b
 7554 00d7 0B       		.uleb128 0xb
 7555 00d8 01       		.uleb128 0x1
 7556 00d9 13       		.uleb128 0x13
 7557 00da 00       		.byte	0
 7558 00db 00       		.byte	0
 7559 00dc 15       		.uleb128 0x15
 7560 00dd 0D       		.uleb128 0xd
 7561 00de 00       		.byte	0
 7562 00df 03       		.uleb128 0x3
 7563 00e0 0E       		.uleb128 0xe
 7564 00e1 3A       		.uleb128 0x3a
 7565 00e2 0B       		.uleb128 0xb
 7566 00e3 3B       		.uleb128 0x3b
 7567 00e4 05       		.uleb128 0x5
 7568 00e5 49       		.uleb128 0x49
 7569 00e6 13       		.uleb128 0x13
 7570 00e7 38       		.uleb128 0x38
 7571 00e8 05       		.uleb128 0x5
 7572 00e9 00       		.byte	0
 7573 00ea 00       		.byte	0
 7574 00eb 16       		.uleb128 0x16
 7575 00ec 0D       		.uleb128 0xd
 7576 00ed 00       		.byte	0
 7577 00ee 03       		.uleb128 0x3
 7578 00ef 0E       		.uleb128 0xe
 7579 00f0 3A       		.uleb128 0x3a
 7580 00f1 0B       		.uleb128 0xb
 7581 00f2 3B       		.uleb128 0x3b
 7582 00f3 05       		.uleb128 0x5
 7583 00f4 49       		.uleb128 0x49
 7584 00f5 13       		.uleb128 0x13
 7585 00f6 38       		.uleb128 0x38
 7586 00f7 06       		.uleb128 0x6
 7587 00f8 00       		.byte	0
 7588 00f9 00       		.byte	0
 7589 00fa 17       		.uleb128 0x17
 7590 00fb 16       		.uleb128 0x16
ARM GAS  C:\Users\JC\AppData\Local\Temp\ccNOiAvA.s 			page 164


 7591 00fc 00       		.byte	0
 7592 00fd 03       		.uleb128 0x3
 7593 00fe 0E       		.uleb128 0xe
 7594 00ff 3A       		.uleb128 0x3a
 7595 0100 0B       		.uleb128 0xb
 7596 0101 3B       		.uleb128 0x3b
 7597 0102 05       		.uleb128 0x5
 7598 0103 49       		.uleb128 0x49
 7599 0104 13       		.uleb128 0x13
 7600 0105 00       		.byte	0
 7601 0106 00       		.byte	0
 7602 0107 18       		.uleb128 0x18
 7603 0108 13       		.uleb128 0x13
 7604 0109 01       		.byte	0x1
 7605 010a 0B       		.uleb128 0xb
 7606 010b 05       		.uleb128 0x5
 7607 010c 3A       		.uleb128 0x3a
 7608 010d 0B       		.uleb128 0xb
 7609 010e 3B       		.uleb128 0x3b
 7610 010f 05       		.uleb128 0x5
 7611 0110 01       		.uleb128 0x1
 7612 0111 13       		.uleb128 0x13
 7613 0112 00       		.byte	0
 7614 0113 00       		.byte	0
 7615 0114 19       		.uleb128 0x19
 7616 0115 0D       		.uleb128 0xd
 7617 0116 00       		.byte	0
 7618 0117 03       		.uleb128 0x3
 7619 0118 0E       		.uleb128 0xe
 7620 0119 3A       		.uleb128 0x3a
 7621 011a 0B       		.uleb128 0xb
 7622 011b 3B       		.uleb128 0x3b
 7623 011c 05       		.uleb128 0x5
 7624 011d 49       		.uleb128 0x49
 7625 011e 13       		.uleb128 0x13
 7626 011f 38       		.uleb128 0x38
 7627 0120 0B       		.uleb128 0xb
 7628 0121 00       		.byte	0
 7629 0122 00       		.byte	0
 7630 0123 1A       		.uleb128 0x1a
 7631 0124 13       		.uleb128 0x13
 7632 0125 01       		.byte	0x1
 7633 0126 0B       		.uleb128 0xb
 7634 0127 06       		.uleb128 0x6
 7635 0128 3A       		.uleb128 0x3a
 7636 0129 0B       		.uleb128 0xb
 7637 012a 3B       		.uleb128 0x3b
 7638 012b 05       		.uleb128 0x5
 7639 012c 01       		.uleb128 0x1
 7640 012d 13       		.uleb128 0x13
 7641 012e 00       		.byte	0
 7642 012f 00       		.byte	0
 7643 0130 1B       		.uleb128 0x1b
 7644 0131 0D       		.uleb128 0xd
 7645 0132 00       		.byte	0
 7646 0133 03       		.uleb128 0x3
 7647 0134 08       		.uleb128 0x8
ARM GAS  C:\Users\JC\AppData\Local\Temp\ccNOiAvA.s 			page 165


 7648 0135 3A       		.uleb128 0x3a
 7649 0136 0B       		.uleb128 0xb
 7650 0137 3B       		.uleb128 0x3b
 7651 0138 05       		.uleb128 0x5
 7652 0139 49       		.uleb128 0x49
 7653 013a 13       		.uleb128 0x13
 7654 013b 38       		.uleb128 0x38
 7655 013c 0B       		.uleb128 0xb
 7656 013d 00       		.byte	0
 7657 013e 00       		.byte	0
 7658 013f 1C       		.uleb128 0x1c
 7659 0140 13       		.uleb128 0x13
 7660 0141 01       		.byte	0x1
 7661 0142 0B       		.uleb128 0xb
 7662 0143 0B       		.uleb128 0xb
 7663 0144 3A       		.uleb128 0x3a
 7664 0145 0B       		.uleb128 0xb
 7665 0146 3B       		.uleb128 0x3b
 7666 0147 05       		.uleb128 0x5
 7667 0148 01       		.uleb128 0x1
 7668 0149 13       		.uleb128 0x13
 7669 014a 00       		.byte	0
 7670 014b 00       		.byte	0
 7671 014c 1D       		.uleb128 0x1d
 7672 014d 04       		.uleb128 0x4
 7673 014e 01       		.byte	0x1
 7674 014f 0B       		.uleb128 0xb
 7675 0150 0B       		.uleb128 0xb
 7676 0151 49       		.uleb128 0x49
 7677 0152 13       		.uleb128 0x13
 7678 0153 3A       		.uleb128 0x3a
 7679 0154 0B       		.uleb128 0xb
 7680 0155 3B       		.uleb128 0x3b
 7681 0156 05       		.uleb128 0x5
 7682 0157 01       		.uleb128 0x1
 7683 0158 13       		.uleb128 0x13
 7684 0159 00       		.byte	0
 7685 015a 00       		.byte	0
 7686 015b 1E       		.uleb128 0x1e
 7687 015c 28       		.uleb128 0x28
 7688 015d 00       		.byte	0
 7689 015e 03       		.uleb128 0x3
 7690 015f 0E       		.uleb128 0xe
 7691 0160 1C       		.uleb128 0x1c
 7692 0161 06       		.uleb128 0x6
 7693 0162 00       		.byte	0
 7694 0163 00       		.byte	0
 7695 0164 1F       		.uleb128 0x1f
 7696 0165 15       		.uleb128 0x15
 7697 0166 01       		.byte	0x1
 7698 0167 27       		.uleb128 0x27
 7699 0168 19       		.uleb128 0x19
 7700 0169 49       		.uleb128 0x49
 7701 016a 13       		.uleb128 0x13
 7702 016b 01       		.uleb128 0x1
 7703 016c 13       		.uleb128 0x13
 7704 016d 00       		.byte	0
ARM GAS  C:\Users\JC\AppData\Local\Temp\ccNOiAvA.s 			page 166


 7705 016e 00       		.byte	0
 7706 016f 20       		.uleb128 0x20
 7707 0170 05       		.uleb128 0x5
 7708 0171 00       		.byte	0
 7709 0172 49       		.uleb128 0x49
 7710 0173 13       		.uleb128 0x13
 7711 0174 00       		.byte	0
 7712 0175 00       		.byte	0
 7713 0176 21       		.uleb128 0x21
 7714 0177 13       		.uleb128 0x13
 7715 0178 01       		.byte	0x1
 7716 0179 03       		.uleb128 0x3
 7717 017a 0E       		.uleb128 0xe
 7718 017b 0B       		.uleb128 0xb
 7719 017c 0B       		.uleb128 0xb
 7720 017d 3A       		.uleb128 0x3a
 7721 017e 0B       		.uleb128 0xb
 7722 017f 3B       		.uleb128 0x3b
 7723 0180 05       		.uleb128 0x5
 7724 0181 01       		.uleb128 0x1
 7725 0182 13       		.uleb128 0x13
 7726 0183 00       		.byte	0
 7727 0184 00       		.byte	0
 7728 0185 22       		.uleb128 0x22
 7729 0186 28       		.uleb128 0x28
 7730 0187 00       		.byte	0
 7731 0188 03       		.uleb128 0x3
 7732 0189 0E       		.uleb128 0xe
 7733 018a 1C       		.uleb128 0x1c
 7734 018b 05       		.uleb128 0x5
 7735 018c 00       		.byte	0
 7736 018d 00       		.byte	0
 7737 018e 23       		.uleb128 0x23
 7738 018f 15       		.uleb128 0x15
 7739 0190 01       		.byte	0x1
 7740 0191 27       		.uleb128 0x27
 7741 0192 19       		.uleb128 0x19
 7742 0193 01       		.uleb128 0x1
 7743 0194 13       		.uleb128 0x13
 7744 0195 00       		.byte	0
 7745 0196 00       		.byte	0
 7746 0197 24       		.uleb128 0x24
 7747 0198 17       		.uleb128 0x17
 7748 0199 01       		.byte	0x1
 7749 019a 0B       		.uleb128 0xb
 7750 019b 0B       		.uleb128 0xb
 7751 019c 3A       		.uleb128 0x3a
 7752 019d 0B       		.uleb128 0xb
 7753 019e 3B       		.uleb128 0x3b
 7754 019f 0B       		.uleb128 0xb
 7755 01a0 01       		.uleb128 0x1
 7756 01a1 13       		.uleb128 0x13
 7757 01a2 00       		.byte	0
 7758 01a3 00       		.byte	0
 7759 01a4 25       		.uleb128 0x25
 7760 01a5 0D       		.uleb128 0xd
 7761 01a6 00       		.byte	0
ARM GAS  C:\Users\JC\AppData\Local\Temp\ccNOiAvA.s 			page 167


 7762 01a7 03       		.uleb128 0x3
 7763 01a8 0E       		.uleb128 0xe
 7764 01a9 3A       		.uleb128 0x3a
 7765 01aa 0B       		.uleb128 0xb
 7766 01ab 3B       		.uleb128 0x3b
 7767 01ac 0B       		.uleb128 0xb
 7768 01ad 49       		.uleb128 0x49
 7769 01ae 13       		.uleb128 0x13
 7770 01af 00       		.byte	0
 7771 01b0 00       		.byte	0
 7772 01b1 26       		.uleb128 0x26
 7773 01b2 2E       		.uleb128 0x2e
 7774 01b3 01       		.byte	0x1
 7775 01b4 03       		.uleb128 0x3
 7776 01b5 0E       		.uleb128 0xe
 7777 01b6 3A       		.uleb128 0x3a
 7778 01b7 0B       		.uleb128 0xb
 7779 01b8 3B       		.uleb128 0x3b
 7780 01b9 05       		.uleb128 0x5
 7781 01ba 27       		.uleb128 0x27
 7782 01bb 19       		.uleb128 0x19
 7783 01bc 11       		.uleb128 0x11
 7784 01bd 01       		.uleb128 0x1
 7785 01be 12       		.uleb128 0x12
 7786 01bf 06       		.uleb128 0x6
 7787 01c0 40       		.uleb128 0x40
 7788 01c1 18       		.uleb128 0x18
 7789 01c2 9742     		.uleb128 0x2117
 7790 01c4 19       		.uleb128 0x19
 7791 01c5 01       		.uleb128 0x1
 7792 01c6 13       		.uleb128 0x13
 7793 01c7 00       		.byte	0
 7794 01c8 00       		.byte	0
 7795 01c9 27       		.uleb128 0x27
 7796 01ca 05       		.uleb128 0x5
 7797 01cb 00       		.byte	0
 7798 01cc 03       		.uleb128 0x3
 7799 01cd 0E       		.uleb128 0xe
 7800 01ce 3A       		.uleb128 0x3a
 7801 01cf 0B       		.uleb128 0xb
 7802 01d0 3B       		.uleb128 0x3b
 7803 01d1 05       		.uleb128 0x5
 7804 01d2 49       		.uleb128 0x49
 7805 01d3 13       		.uleb128 0x13
 7806 01d4 02       		.uleb128 0x2
 7807 01d5 18       		.uleb128 0x18
 7808 01d6 00       		.byte	0
 7809 01d7 00       		.byte	0
 7810 01d8 28       		.uleb128 0x28
 7811 01d9 2E       		.uleb128 0x2e
 7812 01da 00       		.byte	0
 7813 01db 3F       		.uleb128 0x3f
 7814 01dc 19       		.uleb128 0x19
 7815 01dd 03       		.uleb128 0x3
 7816 01de 0E       		.uleb128 0xe
 7817 01df 3A       		.uleb128 0x3a
 7818 01e0 0B       		.uleb128 0xb
ARM GAS  C:\Users\JC\AppData\Local\Temp\ccNOiAvA.s 			page 168


 7819 01e1 3B       		.uleb128 0x3b
 7820 01e2 0B       		.uleb128 0xb
 7821 01e3 27       		.uleb128 0x27
 7822 01e4 19       		.uleb128 0x19
 7823 01e5 11       		.uleb128 0x11
 7824 01e6 01       		.uleb128 0x1
 7825 01e7 12       		.uleb128 0x12
 7826 01e8 06       		.uleb128 0x6
 7827 01e9 40       		.uleb128 0x40
 7828 01ea 18       		.uleb128 0x18
 7829 01eb 9642     		.uleb128 0x2116
 7830 01ed 19       		.uleb128 0x19
 7831 01ee 00       		.byte	0
 7832 01ef 00       		.byte	0
 7833 01f0 29       		.uleb128 0x29
 7834 01f1 2E       		.uleb128 0x2e
 7835 01f2 01       		.byte	0x1
 7836 01f3 3F       		.uleb128 0x3f
 7837 01f4 19       		.uleb128 0x19
 7838 01f5 03       		.uleb128 0x3
 7839 01f6 0E       		.uleb128 0xe
 7840 01f7 3A       		.uleb128 0x3a
 7841 01f8 0B       		.uleb128 0xb
 7842 01f9 3B       		.uleb128 0x3b
 7843 01fa 0B       		.uleb128 0xb
 7844 01fb 27       		.uleb128 0x27
 7845 01fc 19       		.uleb128 0x19
 7846 01fd 49       		.uleb128 0x49
 7847 01fe 13       		.uleb128 0x13
 7848 01ff 11       		.uleb128 0x11
 7849 0200 01       		.uleb128 0x1
 7850 0201 12       		.uleb128 0x12
 7851 0202 06       		.uleb128 0x6
 7852 0203 40       		.uleb128 0x40
 7853 0204 18       		.uleb128 0x18
 7854 0205 9642     		.uleb128 0x2116
 7855 0207 19       		.uleb128 0x19
 7856 0208 01       		.uleb128 0x1
 7857 0209 13       		.uleb128 0x13
 7858 020a 00       		.byte	0
 7859 020b 00       		.byte	0
 7860 020c 2A       		.uleb128 0x2a
 7861 020d 05       		.uleb128 0x5
 7862 020e 00       		.byte	0
 7863 020f 03       		.uleb128 0x3
 7864 0210 0E       		.uleb128 0xe
 7865 0211 3A       		.uleb128 0x3a
 7866 0212 0B       		.uleb128 0xb
 7867 0213 3B       		.uleb128 0x3b
 7868 0214 0B       		.uleb128 0xb
 7869 0215 49       		.uleb128 0x49
 7870 0216 13       		.uleb128 0x13
 7871 0217 02       		.uleb128 0x2
 7872 0218 18       		.uleb128 0x18
 7873 0219 00       		.byte	0
 7874 021a 00       		.byte	0
 7875 021b 2B       		.uleb128 0x2b
ARM GAS  C:\Users\JC\AppData\Local\Temp\ccNOiAvA.s 			page 169


 7876 021c 34       		.uleb128 0x34
 7877 021d 00       		.byte	0
 7878 021e 03       		.uleb128 0x3
 7879 021f 0E       		.uleb128 0xe
 7880 0220 3A       		.uleb128 0x3a
 7881 0221 0B       		.uleb128 0xb
 7882 0222 3B       		.uleb128 0x3b
 7883 0223 0B       		.uleb128 0xb
 7884 0224 49       		.uleb128 0x49
 7885 0225 13       		.uleb128 0x13
 7886 0226 02       		.uleb128 0x2
 7887 0227 18       		.uleb128 0x18
 7888 0228 00       		.byte	0
 7889 0229 00       		.byte	0
 7890 022a 2C       		.uleb128 0x2c
 7891 022b 2E       		.uleb128 0x2e
 7892 022c 01       		.byte	0x1
 7893 022d 3F       		.uleb128 0x3f
 7894 022e 19       		.uleb128 0x19
 7895 022f 03       		.uleb128 0x3
 7896 0230 0E       		.uleb128 0xe
 7897 0231 3A       		.uleb128 0x3a
 7898 0232 0B       		.uleb128 0xb
 7899 0233 3B       		.uleb128 0x3b
 7900 0234 05       		.uleb128 0x5
 7901 0235 27       		.uleb128 0x27
 7902 0236 19       		.uleb128 0x19
 7903 0237 49       		.uleb128 0x49
 7904 0238 13       		.uleb128 0x13
 7905 0239 11       		.uleb128 0x11
 7906 023a 01       		.uleb128 0x1
 7907 023b 12       		.uleb128 0x12
 7908 023c 06       		.uleb128 0x6
 7909 023d 40       		.uleb128 0x40
 7910 023e 18       		.uleb128 0x18
 7911 023f 9642     		.uleb128 0x2116
 7912 0241 19       		.uleb128 0x19
 7913 0242 01       		.uleb128 0x1
 7914 0243 13       		.uleb128 0x13
 7915 0244 00       		.byte	0
 7916 0245 00       		.byte	0
 7917 0246 2D       		.uleb128 0x2d
 7918 0247 34       		.uleb128 0x34
 7919 0248 00       		.byte	0
 7920 0249 03       		.uleb128 0x3
 7921 024a 0E       		.uleb128 0xe
 7922 024b 3A       		.uleb128 0x3a
 7923 024c 0B       		.uleb128 0xb
 7924 024d 3B       		.uleb128 0x3b
 7925 024e 05       		.uleb128 0x5
 7926 024f 49       		.uleb128 0x49
 7927 0250 13       		.uleb128 0x13
 7928 0251 02       		.uleb128 0x2
 7929 0252 18       		.uleb128 0x18
 7930 0253 00       		.byte	0
 7931 0254 00       		.byte	0
 7932 0255 2E       		.uleb128 0x2e
ARM GAS  C:\Users\JC\AppData\Local\Temp\ccNOiAvA.s 			page 170


 7933 0256 0B       		.uleb128 0xb
 7934 0257 01       		.byte	0x1
 7935 0258 11       		.uleb128 0x11
 7936 0259 01       		.uleb128 0x1
 7937 025a 12       		.uleb128 0x12
 7938 025b 06       		.uleb128 0x6
 7939 025c 00       		.byte	0
 7940 025d 00       		.byte	0
 7941 025e 2F       		.uleb128 0x2f
 7942 025f 2E       		.uleb128 0x2e
 7943 0260 01       		.byte	0x1
 7944 0261 3F       		.uleb128 0x3f
 7945 0262 19       		.uleb128 0x19
 7946 0263 03       		.uleb128 0x3
 7947 0264 0E       		.uleb128 0xe
 7948 0265 3A       		.uleb128 0x3a
 7949 0266 0B       		.uleb128 0xb
 7950 0267 3B       		.uleb128 0x3b
 7951 0268 05       		.uleb128 0x5
 7952 0269 27       		.uleb128 0x27
 7953 026a 19       		.uleb128 0x19
 7954 026b 11       		.uleb128 0x11
 7955 026c 01       		.uleb128 0x1
 7956 026d 12       		.uleb128 0x12
 7957 026e 06       		.uleb128 0x6
 7958 026f 40       		.uleb128 0x40
 7959 0270 18       		.uleb128 0x18
 7960 0271 9742     		.uleb128 0x2117
 7961 0273 19       		.uleb128 0x19
 7962 0274 01       		.uleb128 0x1
 7963 0275 13       		.uleb128 0x13
 7964 0276 00       		.byte	0
 7965 0277 00       		.byte	0
 7966 0278 30       		.uleb128 0x30
 7967 0279 2E       		.uleb128 0x2e
 7968 027a 01       		.byte	0x1
 7969 027b 3F       		.uleb128 0x3f
 7970 027c 19       		.uleb128 0x19
 7971 027d 03       		.uleb128 0x3
 7972 027e 0E       		.uleb128 0xe
 7973 027f 3A       		.uleb128 0x3a
 7974 0280 0B       		.uleb128 0xb
 7975 0281 3B       		.uleb128 0x3b
 7976 0282 05       		.uleb128 0x5
 7977 0283 27       		.uleb128 0x27
 7978 0284 19       		.uleb128 0x19
 7979 0285 49       		.uleb128 0x49
 7980 0286 13       		.uleb128 0x13
 7981 0287 11       		.uleb128 0x11
 7982 0288 01       		.uleb128 0x1
 7983 0289 12       		.uleb128 0x12
 7984 028a 06       		.uleb128 0x6
 7985 028b 40       		.uleb128 0x40
 7986 028c 18       		.uleb128 0x18
 7987 028d 9742     		.uleb128 0x2117
 7988 028f 19       		.uleb128 0x19
 7989 0290 01       		.uleb128 0x1
ARM GAS  C:\Users\JC\AppData\Local\Temp\ccNOiAvA.s 			page 171


 7990 0291 13       		.uleb128 0x13
 7991 0292 00       		.byte	0
 7992 0293 00       		.byte	0
 7993 0294 31       		.uleb128 0x31
 7994 0295 2E       		.uleb128 0x2e
 7995 0296 00       		.byte	0
 7996 0297 3F       		.uleb128 0x3f
 7997 0298 19       		.uleb128 0x19
 7998 0299 03       		.uleb128 0x3
 7999 029a 0E       		.uleb128 0xe
 8000 029b 3A       		.uleb128 0x3a
 8001 029c 0B       		.uleb128 0xb
 8002 029d 3B       		.uleb128 0x3b
 8003 029e 05       		.uleb128 0x5
 8004 029f 27       		.uleb128 0x27
 8005 02a0 19       		.uleb128 0x19
 8006 02a1 11       		.uleb128 0x11
 8007 02a2 01       		.uleb128 0x1
 8008 02a3 12       		.uleb128 0x12
 8009 02a4 06       		.uleb128 0x6
 8010 02a5 40       		.uleb128 0x40
 8011 02a6 18       		.uleb128 0x18
 8012 02a7 9742     		.uleb128 0x2117
 8013 02a9 19       		.uleb128 0x19
 8014 02aa 00       		.byte	0
 8015 02ab 00       		.byte	0
 8016 02ac 32       		.uleb128 0x32
 8017 02ad 34       		.uleb128 0x34
 8018 02ae 00       		.byte	0
 8019 02af 03       		.uleb128 0x3
 8020 02b0 0E       		.uleb128 0xe
 8021 02b1 3A       		.uleb128 0x3a
 8022 02b2 0B       		.uleb128 0xb
 8023 02b3 3B       		.uleb128 0x3b
 8024 02b4 0B       		.uleb128 0xb
 8025 02b5 49       		.uleb128 0x49
 8026 02b6 13       		.uleb128 0x13
 8027 02b7 3F       		.uleb128 0x3f
 8028 02b8 19       		.uleb128 0x19
 8029 02b9 3C       		.uleb128 0x3c
 8030 02ba 19       		.uleb128 0x19
 8031 02bb 00       		.byte	0
 8032 02bc 00       		.byte	0
 8033 02bd 33       		.uleb128 0x33
 8034 02be 34       		.uleb128 0x34
 8035 02bf 00       		.byte	0
 8036 02c0 03       		.uleb128 0x3
 8037 02c1 0E       		.uleb128 0xe
 8038 02c2 3A       		.uleb128 0x3a
 8039 02c3 0B       		.uleb128 0xb
 8040 02c4 3B       		.uleb128 0x3b
 8041 02c5 05       		.uleb128 0x5
 8042 02c6 49       		.uleb128 0x49
 8043 02c7 13       		.uleb128 0x13
 8044 02c8 3F       		.uleb128 0x3f
 8045 02c9 19       		.uleb128 0x19
 8046 02ca 3C       		.uleb128 0x3c
ARM GAS  C:\Users\JC\AppData\Local\Temp\ccNOiAvA.s 			page 172


 8047 02cb 19       		.uleb128 0x19
 8048 02cc 00       		.byte	0
 8049 02cd 00       		.byte	0
 8050 02ce 34       		.uleb128 0x34
 8051 02cf 34       		.uleb128 0x34
 8052 02d0 00       		.byte	0
 8053 02d1 03       		.uleb128 0x3
 8054 02d2 0E       		.uleb128 0xe
 8055 02d3 3A       		.uleb128 0x3a
 8056 02d4 0B       		.uleb128 0xb
 8057 02d5 3B       		.uleb128 0x3b
 8058 02d6 0B       		.uleb128 0xb
 8059 02d7 49       		.uleb128 0x49
 8060 02d8 13       		.uleb128 0x13
 8061 02d9 3F       		.uleb128 0x3f
 8062 02da 19       		.uleb128 0x19
 8063 02db 02       		.uleb128 0x2
 8064 02dc 18       		.uleb128 0x18
 8065 02dd 00       		.byte	0
 8066 02de 00       		.byte	0
 8067 02df 00       		.byte	0
 8068              		.section	.debug_aranges,"",%progbits
 8069 0000 5C000000 		.4byte	0x5c
 8070 0004 0200     		.2byte	0x2
 8071 0006 00000000 		.4byte	.Ldebug_info0
 8072 000a 04       		.byte	0x4
 8073 000b 00       		.byte	0
 8074 000c 0000     		.2byte	0
 8075 000e 0000     		.2byte	0
 8076 0010 00000000 		.4byte	.LFB171
 8077 0014 20000000 		.4byte	.LFE171-.LFB171
 8078 0018 00000000 		.4byte	.LFB256
 8079 001c 14000000 		.4byte	.LFE256-.LFB256
 8080 0020 00000000 		.4byte	.LFB257
 8081 0024 8C000000 		.4byte	.LFE257-.LFB257
 8082 0028 00000000 		.4byte	.LFB258
 8083 002c 68010000 		.4byte	.LFE258-.LFB258
 8084 0030 00000000 		.4byte	.LFB259
 8085 0034 16000000 		.4byte	.LFE259-.LFB259
 8086 0038 00000000 		.4byte	.LFB260
 8087 003c 24000000 		.4byte	.LFE260-.LFB260
 8088 0040 00000000 		.4byte	.LFB261
 8089 0044 34000000 		.4byte	.LFE261-.LFB261
 8090 0048 00000000 		.4byte	.LFB262
 8091 004c 18000000 		.4byte	.LFE262-.LFB262
 8092 0050 00000000 		.4byte	.LFB263
 8093 0054 04010000 		.4byte	.LFE263-.LFB263
 8094 0058 00000000 		.4byte	0
 8095 005c 00000000 		.4byte	0
 8096              		.section	.debug_ranges,"",%progbits
 8097              	.Ldebug_ranges0:
 8098 0000 00000000 		.4byte	.LFB171
 8099 0004 20000000 		.4byte	.LFE171
 8100 0008 00000000 		.4byte	.LFB256
 8101 000c 14000000 		.4byte	.LFE256
 8102 0010 00000000 		.4byte	.LFB257
 8103 0014 8C000000 		.4byte	.LFE257
ARM GAS  C:\Users\JC\AppData\Local\Temp\ccNOiAvA.s 			page 173


 8104 0018 00000000 		.4byte	.LFB258
 8105 001c 68010000 		.4byte	.LFE258
 8106 0020 00000000 		.4byte	.LFB259
 8107 0024 16000000 		.4byte	.LFE259
 8108 0028 00000000 		.4byte	.LFB260
 8109 002c 24000000 		.4byte	.LFE260
 8110 0030 00000000 		.4byte	.LFB261
 8111 0034 34000000 		.4byte	.LFE261
 8112 0038 00000000 		.4byte	.LFB262
 8113 003c 18000000 		.4byte	.LFE262
 8114 0040 00000000 		.4byte	.LFB263
 8115 0044 04010000 		.4byte	.LFE263
 8116 0048 00000000 		.4byte	0
 8117 004c 00000000 		.4byte	0
 8118              		.section	.debug_line,"",%progbits
 8119              	.Ldebug_line0:
 8120 0000 5F050000 		.section	.debug_str,"MS",%progbits,1
 8120      02002204 
 8120      00000201 
 8120      FB0E0D00 
 8120      01010101 
 8121              	.LASF366:
 8122 0000 44415441 		.ascii	"DATA_LIST_SENT_UPDATE__STATUS\000"
 8122      5F4C4953 
 8122      545F5345 
 8122      4E545F55 
 8122      50444154 
 8123              	.LASF810:
 8124 001e 6C646F56 		.ascii	"ldoVoltageTable\000"
 8124      6F6C7461 
 8124      67655461 
 8124      626C6500 
 8125              	.LASF30:
 8126 002e 6770696F 		.ascii	"gpioBase\000"
 8126      42617365 
 8126      00
 8127              	.LASF1:
 8128 0037 6C6F6E67 		.ascii	"long long int\000"
 8128      206C6F6E 
 8128      6720696E 
 8128      7400
 8129              	.LASF601:
 8130 0045 424C454C 		.ascii	"BLELL\000"
 8130      4C00
 8131              	.LASF1044:
 8132 004b 43795F42 		.ascii	"Cy_BLE_UnRegisterAppHostCallback\000"
 8132      4C455F55 
 8132      6E526567 
 8132      69737465 
 8132      72417070 
 8133              	.LASF914:
 8134 006c 63795F73 		.ascii	"cy_stc_ble_gapp_disc_param_t\000"
 8134      74635F62 
 8134      6C655F67 
 8134      6170705F 
 8134      64697363 
 8135              	.LASF815:
ARM GAS  C:\Users\JC\AppData\Local\Temp\ccNOiAvA.s 			page 174


 8136 0089 626F6E64 		.ascii	"bondListConfig\000"
 8136      4C697374 
 8136      436F6E66 
 8136      696700
 8137              	.LASF164:
 8138 0098 7363625F 		.ascii	"scb_2_interrupt_IRQn\000"
 8138      325F696E 
 8138      74657272 
 8138      7570745F 
 8138      4952516E 
 8139              	.LASF624:
 8140 00ad 63795F65 		.ascii	"cy_en_syspm_callback_type_t\000"
 8140      6E5F7379 
 8140      73706D5F 
 8140      63616C6C 
 8140      6261636B 
 8141              	.LASF254:
 8142 00c9 7564625F 		.ascii	"udb_interrupts_11_IRQn\000"
 8142      696E7465 
 8142      72727570 
 8142      74735F31 
 8142      315F4952 
 8143              	.LASF658:
 8144 00e0 43595F42 		.ascii	"CY_BLE_EVT_GET_PEER_RPA_COMPLETE\000"
 8144      4C455F45 
 8144      56545F47 
 8144      45545F50 
 8144      4545525F 
 8145              	.LASF14:
 8146 0101 6C6F6E67 		.ascii	"long unsigned int\000"
 8146      20756E73 
 8146      69676E65 
 8146      6420696E 
 8146      7400
 8147              	.LASF166:
 8148 0113 7363625F 		.ascii	"scb_4_interrupt_IRQn\000"
 8148      345F696E 
 8148      74657272 
 8148      7570745F 
 8148      4952516E 
 8149              	.LASF58:
 8150 0128 73797350 		.ascii	"sysPmSimoPresent\000"
 8150      6D53696D 
 8150      6F507265 
 8150      73656E74 
 8150      00
 8151              	.LASF830:
 8152 0139 626C6553 		.ascii	"bleStackFlashSize\000"
 8152      7461636B 
 8152      466C6173 
 8152      6853697A 
 8152      6500
 8153              	.LASF858:
 8154 014b 61747449 		.ascii	"attId\000"
 8154      6400
 8155              	.LASF45:
 8156 0151 63707573 		.ascii	"cpussDwChNr\000"
ARM GAS  C:\Users\JC\AppData\Local\Temp\ccNOiAvA.s 			page 175


 8156      73447743 
 8156      684E7200 
 8157              	.LASF796:
 8158 015d 646C654E 		.ascii	"dleNumRxBuffer\000"
 8158      756D5278 
 8158      42756666 
 8158      657200
 8159              	.LASF342:
 8160 016c 52455345 		.ascii	"RESERVED10\000"
 8160      52564544 
 8160      313000
 8161              	.LASF347:
 8162 0177 52455345 		.ascii	"RESERVED11\000"
 8162      52564544 
 8162      313100
 8163              	.LASF349:
 8164 0182 52455345 		.ascii	"RESERVED12\000"
 8164      52564544 
 8164      313200
 8165              	.LASF351:
 8166 018d 52455345 		.ascii	"RESERVED13\000"
 8166      52564544 
 8166      313300
 8167              	.LASF353:
 8168 0198 52455345 		.ascii	"RESERVED14\000"
 8168      52564544 
 8168      313400
 8169              	.LASF355:
 8170 01a3 52455345 		.ascii	"RESERVED15\000"
 8170      52564544 
 8170      313500
 8171              	.LASF371:
 8172 01ae 52455345 		.ascii	"RESERVED16\000"
 8172      52564544 
 8172      313600
 8173              	.LASF373:
 8174 01b9 52455345 		.ascii	"RESERVED17\000"
 8174      52564544 
 8174      313700
 8175              	.LASF376:
 8176 01c4 52455345 		.ascii	"RESERVED18\000"
 8176      52564544 
 8176      313800
 8177              	.LASF380:
 8178 01cf 52455345 		.ascii	"RESERVED19\000"
 8178      52564544 
 8178      313900
 8179              	.LASF310:
 8180 01da 5343414E 		.ascii	"SCAN_NEXT_INSTANT\000"
 8180      5F4E4558 
 8180      545F494E 
 8180      5354414E 
 8180      5400
 8181              	.LASF168:
 8182 01ec 7363625F 		.ascii	"scb_6_interrupt_IRQn\000"
 8182      365F696E 
 8182      74657272 
ARM GAS  C:\Users\JC\AppData\Local\Temp\ccNOiAvA.s 			page 176


 8182      7570745F 
 8182      4952516E 
 8183              	.LASF129:
 8184 0201 696F7373 		.ascii	"ioss_interrupts_gpio_8_IRQn\000"
 8184      5F696E74 
 8184      65727275 
 8184      7074735F 
 8184      6770696F 
 8185              	.LASF230:
 8186 021d 74637077 		.ascii	"tcpwm_1_interrupts_11_IRQn\000"
 8186      6D5F315F 
 8186      696E7465 
 8186      72727570 
 8186      74735F31 
 8187              	.LASF927:
 8188 0238 43595F42 		.ascii	"CY_BLE_STATE_ON\000"
 8188      4C455F53 
 8188      54415445 
 8188      5F4F4E00 
 8189              	.LASF740:
 8190 0248 43595F42 		.ascii	"CY_BLE_EVT_GATTC_HANDLE_VALUE_IND\000"
 8190      4C455F45 
 8190      56545F47 
 8190      41545443 
 8190      5F48414E 
 8191              	.LASF382:
 8192 026a 52455345 		.ascii	"RESERVED20\000"
 8192      52564544 
 8192      323000
 8193              	.LASF384:
 8194 0275 52455345 		.ascii	"RESERVED21\000"
 8194      52564544 
 8194      323100
 8195              	.LASF394:
 8196 0280 52455345 		.ascii	"RESERVED22\000"
 8196      52564544 
 8196      323200
 8197              	.LASF400:
 8198 028b 52455345 		.ascii	"RESERVED23\000"
 8198      52564544 
 8198      323300
 8199              	.LASF406:
 8200 0296 52455345 		.ascii	"RESERVED24\000"
 8200      52564544 
 8200      323400
 8201              	.LASF417:
 8202 02a1 52455345 		.ascii	"RESERVED25\000"
 8202      52564544 
 8202      323500
 8203              	.LASF426:
 8204 02ac 52455345 		.ascii	"RESERVED26\000"
 8204      52564544 
 8204      323600
 8205              	.LASF428:
 8206 02b7 52455345 		.ascii	"RESERVED27\000"
 8206      52564544 
 8206      323700
ARM GAS  C:\Users\JC\AppData\Local\Temp\ccNOiAvA.s 			page 177


 8207              	.LASF139:
 8208 02c2 7363625F 		.ascii	"scb_8_interrupt_IRQn\000"
 8208      385F696E 
 8208      74657272 
 8208      7570745F 
 8208      4952516E 
 8209              	.LASF437:
 8210 02d7 52455345 		.ascii	"RESERVED29\000"
 8210      52564544 
 8210      323900
 8211              	.LASF679:
 8212 02e2 43595F42 		.ascii	"CY_BLE_EVT_GET_CLK_CONFIG_COMPLETE\000"
 8212      4C455F45 
 8212      56545F47 
 8212      45545F43 
 8212      4C4B5F43 
 8213              	.LASF287:
 8214 0305 54585F43 		.ascii	"TX_CTRL\000"
 8214      54524C00 
 8215              	.LASF710:
 8216 030d 43595F42 		.ascii	"CY_BLE_EVT_GAP_ENHANCE_CONN_COMPLETE\000"
 8216      4C455F45 
 8216      56545F47 
 8216      41505F45 
 8216      4E48414E 
 8217              	.LASF159:
 8218 0332 63707573 		.ascii	"cpuss_interrupts_ipc_13_IRQn\000"
 8218      735F696E 
 8218      74657272 
 8218      75707473 
 8218      5F697063 
 8219              	.LASF450:
 8220 034f 52455345 		.ascii	"RESERVED30\000"
 8220      52564544 
 8220      333000
 8221              	.LASF462:
 8222 035a 52455345 		.ascii	"RESERVED31\000"
 8222      52564544 
 8222      333100
 8223              	.LASF466:
 8224 0365 52455345 		.ascii	"RESERVED32\000"
 8224      52564544 
 8224      333200
 8225              	.LASF468:
 8226 0370 52455345 		.ascii	"RESERVED33\000"
 8226      52564544 
 8226      333300
 8227              	.LASF474:
 8228 037b 52455345 		.ascii	"RESERVED34\000"
 8228      52564544 
 8228      333400
 8229              	.LASF476:
 8230 0386 52455345 		.ascii	"RESERVED35\000"
 8230      52564544 
 8230      333500
 8231              	.LASF478:
 8232 0391 52455345 		.ascii	"RESERVED36\000"
ARM GAS  C:\Users\JC\AppData\Local\Temp\ccNOiAvA.s 			page 178


 8232      52564544 
 8232      333600
 8233              	.LASF480:
 8234 039c 52455345 		.ascii	"RESERVED37\000"
 8234      52564544 
 8234      333700
 8235              	.LASF482:
 8236 03a7 52455345 		.ascii	"RESERVED38\000"
 8236      52564544 
 8236      333800
 8237              	.LASF484:
 8238 03b2 52455345 		.ascii	"RESERVED39\000"
 8238      52564544 
 8238      333900
 8239              	.LASF649:
 8240 03bd 43595F42 		.ascii	"CY_BLE_EVT_WRITE_AUTH_PAYLOAD_TO_COMPLETE\000"
 8240      4C455F45 
 8240      56545F57 
 8240      52495445 
 8240      5F415554 
 8241              	.LASF375:
 8242 03e7 57494E44 		.ascii	"WINDOW_WIDEN_WINOFF\000"
 8242      4F575F57 
 8242      4944454E 
 8242      5F57494E 
 8242      4F464600 
 8243              	.LASF614:
 8244 03fb 43595F53 		.ascii	"CY_SYSPM_CANCELED\000"
 8244      5953504D 
 8244      5F43414E 
 8244      43454C45 
 8244      4400
 8245              	.LASF909:
 8246 040d 61647654 		.ascii	"advType\000"
 8246      79706500 
 8247              	.LASF652:
 8248 0415 43595F42 		.ascii	"CY_BLE_EVT_LE_SET_EVENT_MASK_COMPLETE\000"
 8248      4C455F45 
 8248      56545F4C 
 8248      455F5345 
 8248      545F4556 
 8249              	.LASF486:
 8250 043b 52455345 		.ascii	"RESERVED40\000"
 8250      52564544 
 8250      343000
 8251              	.LASF488:
 8252 0446 52455345 		.ascii	"RESERVED41\000"
 8252      52564544 
 8252      343100
 8253              	.LASF493:
 8254 0451 52455345 		.ascii	"RESERVED42\000"
 8254      52564544 
 8254      343200
 8255              	.LASF506:
 8256 045c 52455345 		.ascii	"RESERVED43\000"
 8256      52564544 
 8256      343300
ARM GAS  C:\Users\JC\AppData\Local\Temp\ccNOiAvA.s 			page 179


 8257              	.LASF510:
 8258 0467 52455345 		.ascii	"RESERVED44\000"
 8258      52564544 
 8258      343400
 8259              	.LASF512:
 8260 0472 52455345 		.ascii	"RESERVED45\000"
 8260      52564544 
 8260      343500
 8261              	.LASF516:
 8262 047d 52455345 		.ascii	"RESERVED46\000"
 8262      52564544 
 8262      343600
 8263              	.LASF520:
 8264 0488 52455345 		.ascii	"RESERVED47\000"
 8264      52564544 
 8264      343700
 8265              	.LASF524:
 8266 0493 52455345 		.ascii	"RESERVED48\000"
 8266      52564544 
 8266      343800
 8267              	.LASF528:
 8268 049e 52455345 		.ascii	"RESERVED49\000"
 8268      52564544 
 8268      343900
 8269              	.LASF900:
 8270 04a9 63795F73 		.ascii	"cy_stc_ble_gapc_disc_info_t\000"
 8270      74635F62 
 8270      6C655F67 
 8270      6170635F 
 8270      64697363 
 8271              	.LASF950:
 8272 04c5 66617374 		.ascii	"fastAdvIntervalMin\000"
 8272      41647649 
 8272      6E746572 
 8272      76616C4D 
 8272      696E00
 8273              	.LASF341:
 8274 04d8 57414B45 		.ascii	"WAKEUP_CONFIG\000"
 8274      55505F43 
 8274      4F4E4649 
 8274      4700
 8275              	.LASF532:
 8276 04e6 52455345 		.ascii	"RESERVED50\000"
 8276      52564544 
 8276      353000
 8277              	.LASF535:
 8278 04f1 52455345 		.ascii	"RESERVED51\000"
 8278      52564544 
 8278      353100
 8279              	.LASF539:
 8280 04fc 52455345 		.ascii	"RESERVED52\000"
 8280      52564544 
 8280      353200
 8281              	.LASF541:
 8282 0507 52455345 		.ascii	"RESERVED53\000"
 8282      52564544 
 8282      353300
ARM GAS  C:\Users\JC\AppData\Local\Temp\ccNOiAvA.s 			page 180


 8283              	.LASF543:
 8284 0512 52455345 		.ascii	"RESERVED54\000"
 8284      52564544 
 8284      353400
 8285              	.LASF545:
 8286 051d 52455345 		.ascii	"RESERVED55\000"
 8286      52564544 
 8286      353500
 8287              	.LASF547:
 8288 0528 52455345 		.ascii	"RESERVED56\000"
 8288      52564544 
 8288      353600
 8289              	.LASF51:
 8290 0533 73727373 		.ascii	"srssNumPll\000"
 8290      4E756D50 
 8290      6C6C00
 8291              	.LASF551:
 8292 053e 52455345 		.ascii	"RESERVED58\000"
 8292      52564544 
 8292      353800
 8293              	.LASF337:
 8294 0549 434F4E4E 		.ascii	"CONN_INTR\000"
 8294      5F494E54 
 8294      5200
 8295              	.LASF989:
 8296 0553 73657276 		.ascii	"serviceChangedHandle\000"
 8296      69636543 
 8296      68616E67 
 8296      65644861 
 8296      6E646C65 
 8297              	.LASF903:
 8298 0568 43595F42 		.ascii	"CY_BLE_GAPP_SCANNABLE_UNDIRECTED_ADV\000"
 8298      4C455F47 
 8298      4150505F 
 8298      5343414E 
 8298      4E41424C 
 8299              	.LASF185:
 8300 058d 63707573 		.ascii	"cpuss_interrupts_dw0_14_IRQn\000"
 8300      735F696E 
 8300      74657272 
 8300      75707473 
 8300      5F647730 
 8301              	.LASF743:
 8302 05aa 43595F42 		.ascii	"CY_BLE_EVT_GATTC_STOP_CMD_COMPLETE\000"
 8302      4C455F45 
 8302      56545F47 
 8302      41545443 
 8302      5F53544F 
 8303              	.LASF75:
 8304 05cd 64775374 		.ascii	"dwStatusChIdxPos\000"
 8304      61747573 
 8304      43684964 
 8304      78506F73 
 8304      00
 8305              	.LASF1012:
 8306 05de 67617073 		.ascii	"gaps\000"
 8306      00
ARM GAS  C:\Users\JC\AppData\Local\Temp\ccNOiAvA.s 			page 181


 8307              	.LASF140:
 8308 05e3 73727373 		.ascii	"srss_interrupt_mcwdt_0_IRQn\000"
 8308      5F696E74 
 8308      65727275 
 8308      70745F6D 
 8308      63776474 
 8309              	.LASF654:
 8310 05ff 43595F42 		.ascii	"CY_BLE_EVT_SET_DATA_LENGTH_COMPLETE\000"
 8310      4C455F45 
 8310      56545F53 
 8310      45545F44 
 8310      4154415F 
 8311              	.LASF217:
 8312 0623 74637077 		.ascii	"tcpwm_0_interrupts_6_IRQn\000"
 8312      6D5F305F 
 8312      696E7465 
 8312      72727570 
 8312      74735F36 
 8313              	.LASF393:
 8314 063d 4445565F 		.ascii	"DEV_PUB_ADDR_H\000"
 8314      5055425F 
 8314      41444452 
 8314      5F4800
 8315              	.LASF391:
 8316 064c 4445565F 		.ascii	"DEV_PUB_ADDR_L\000"
 8316      5055425F 
 8316      41444452 
 8316      5F4C00
 8317              	.LASF392:
 8318 065b 4445565F 		.ascii	"DEV_PUB_ADDR_M\000"
 8318      5055425F 
 8318      41444452 
 8318      5F4D00
 8319              	.LASF252:
 8320 066a 7564625F 		.ascii	"udb_interrupts_9_IRQn\000"
 8320      696E7465 
 8320      72727570 
 8320      74735F39 
 8320      5F495251 
 8321              	.LASF23:
 8322 0680 75696E74 		.ascii	"uint32_t\000"
 8322      33325F74 
 8322      00
 8323              	.LASF469:
 8324 0689 4C4C5F43 		.ascii	"LL_CONTROL\000"
 8324      4F4E5452 
 8324      4F4C00
 8325              	.LASF1032:
 8326 0694 636F6E66 		.ascii	"config\000"
 8326      696700
 8327              	.LASF1060:
 8328 069b 63795F62 		.ascii	"cy_ble_connState\000"
 8328      6C655F63 
 8328      6F6E6E53 
 8328      74617465 
 8328      00
 8329              	.LASF267:
ARM GAS  C:\Users\JC\AppData\Local\Temp\ccNOiAvA.s 			page 182


 8330 06ac 70617373 		.ascii	"pass_interrupt_dacs_IRQn\000"
 8330      5F696E74 
 8330      65727275 
 8330      70745F64 
 8330      6163735F 
 8331              	.LASF399:
 8332 06c5 434F4E4E 		.ascii	"CONN_CONFIG\000"
 8332      5F434F4E 
 8332      46494700 
 8333              	.LASF93:
 8334 06d1 6770696F 		.ascii	"gpioPrtCfgSioOffset\000"
 8334      50727443 
 8334      66675369 
 8334      6F4F6666 
 8334      73657400 
 8335              	.LASF615:
 8336 06e5 43595F53 		.ascii	"CY_SYSPM_FAIL\000"
 8336      5953504D 
 8336      5F464149 
 8336      4C00
 8337              	.LASF978:
 8338 06f3 63795F73 		.ascii	"cy_stc_ble_gatts_att_value_t\000"
 8338      74635F62 
 8338      6C655F67 
 8338      61747473 
 8338      5F617474 
 8339              	.LASF678:
 8340 0710 43595F42 		.ascii	"CY_BLE_EVT_SET_TX_PWR_COMPLETE\000"
 8340      4C455F45 
 8340      56545F53 
 8340      45545F54 
 8340      585F5057 
 8341              	.LASF1059:
 8342 072f 63795F62 		.ascii	"cy_ble_connHandle\000"
 8342      6C655F63 
 8342      6F6E6E48 
 8342      616E646C 
 8342      6500
 8343              	.LASF912:
 8344 0741 61647643 		.ascii	"advChannelMap\000"
 8344      68616E6E 
 8344      656C4D61 
 8344      7000
 8345              	.LASF143:
 8346 074f 73727373 		.ascii	"srss_interrupt_IRQn\000"
 8346      5F696E74 
 8346      65727275 
 8346      70745F49 
 8346      52516E00 
 8347              	.LASF362:
 8348 0763 434F4E4E 		.ascii	"CONN_CE_INSTANT\000"
 8348      5F43455F 
 8348      494E5354 
 8348      414E5400 
 8349              	.LASF126:
 8350 0773 696F7373 		.ascii	"ioss_interrupts_gpio_5_IRQn\000"
 8350      5F696E74 
ARM GAS  C:\Users\JC\AppData\Local\Temp\ccNOiAvA.s 			page 183


 8350      65727275 
 8350      7074735F 
 8350      6770696F 
 8351              	.LASF24:
 8352 078f 63707573 		.ascii	"cpussBase\000"
 8352      73426173 
 8352      6500
 8353              	.LASF2:
 8354 0799 6C6F6E67 		.ascii	"long double\000"
 8354      20646F75 
 8354      626C6500 
 8355              	.LASF688:
 8356 07a5 43595F42 		.ascii	"CY_BLE_EVT_RADIO_VOLTAGE_LEVEL\000"
 8356      4C455F45 
 8356      56545F52 
 8356      4144494F 
 8356      5F564F4C 
 8357              	.LASF705:
 8358 07c4 43595F42 		.ascii	"CY_BLE_EVT_GAPC_SCAN_START_STOP\000"
 8358      4C455F45 
 8358      56545F47 
 8358      4150435F 
 8358      5343414E 
 8359              	.LASF210:
 8360 07e4 63707573 		.ascii	"cpuss_interrupts_cm4_cti_1_IRQn\000"
 8360      735F696E 
 8360      74657272 
 8360      75707473 
 8360      5F636D34 
 8361              	.LASF910:
 8362 0804 64697265 		.ascii	"directAddrType\000"
 8362      63744164 
 8362      64725479 
 8362      706500
 8363              	.LASF507:
 8364 0813 4D4D4D53 		.ascii	"MMMS_MASTER_CREATE_BT_CAPT\000"
 8364      5F4D4153 
 8364      5445525F 
 8364      43524541 
 8364      54455F42 
 8365              	.LASF655:
 8366 082e 43595F42 		.ascii	"CY_BLE_EVT_SET_SUGGESTED_DATA_LENGTH_COMPLETE\000"
 8366      4C455F45 
 8366      56545F53 
 8366      45545F53 
 8366      55474745 
 8367              	.LASF455:
 8368 085c 57494E5F 		.ascii	"WIN_MIN_STEP_SIZE\000"
 8368      4D494E5F 
 8368      53544550 
 8368      5F53495A 
 8368      4500
 8369              	.LASF79:
 8370 086e 70657269 		.ascii	"periTrGrOffset\000"
 8370      54724772 
 8370      4F666673 
 8370      657400
ARM GAS  C:\Users\JC\AppData\Local\Temp\ccNOiAvA.s 			page 184


 8371              	.LASF208:
 8372 087d 63707573 		.ascii	"cpuss_interrupts_cm0_cti_1_IRQn\000"
 8372      735F696E 
 8372      74657272 
 8372      75707473 
 8372      5F636D30 
 8373              	.LASF526:
 8374 089d 434F4E4E 		.ascii	"CONN_4_DATA_LIST_ACK\000"
 8374      5F345F44 
 8374      4154415F 
 8374      4C495354 
 8374      5F41434B 
 8375              	.LASF81:
 8376 08b2 70657269 		.ascii	"periDivCmdDivSelMsk\000"
 8376      44697643 
 8376      6D644469 
 8376      7653656C 
 8376      4D736B00 
 8377              	.LASF895:
 8378 08c6 7363616E 		.ascii	"scanWindow\000"
 8378      57696E64 
 8378      6F7700
 8379              	.LASF1021:
 8380 08d1 63795F62 		.ascii	"cy_ble_app_notify_callback_t\000"
 8380      6C655F61 
 8380      70705F6E 
 8380      6F746966 
 8380      795F6361 
 8381              	.LASF648:
 8382 08ee 43595F42 		.ascii	"CY_BLE_EVT_HARDWARE_ERROR\000"
 8382      4C455F45 
 8382      56545F48 
 8382      41524457 
 8382      4152455F 
 8383              	.LASF156:
 8384 0908 63707573 		.ascii	"cpuss_interrupts_ipc_10_IRQn\000"
 8384      735F696E 
 8384      74657272 
 8384      75707473 
 8384      5F697063 
 8385              	.LASF69:
 8386 0925 666C6173 		.ascii	"flashCtlMainWs3Freq\000"
 8386      6843746C 
 8386      4D61696E 
 8386      57733346 
 8386      72657100 
 8387              	.LASF514:
 8388 0939 434F4E4E 		.ascii	"CONN_1_DATA_LIST_ACK\000"
 8388      5F315F44 
 8388      4154415F 
 8388      4C495354 
 8388      5F41434B 
 8389              	.LASF326:
 8390 094e 574C5F45 		.ascii	"WL_ENABLE\000"
 8390      4E41424C 
 8390      4500
 8391              	.LASF715:
ARM GAS  C:\Users\JC\AppData\Local\Temp\ccNOiAvA.s 			page 185


 8392 0958 43595F42 		.ascii	"CY_BLE_EVT_GAP_RESOLVE_DEVICE_COMPLETE\000"
 8392      4C455F45 
 8392      56545F47 
 8392      41505F52 
 8392      45534F4C 
 8393              	.LASF533:
 8394 097f 434F4E4E 		.ascii	"CONN_PARAM_NEXT_SUP_TO\000"
 8394      5F504152 
 8394      414D5F4E 
 8394      4558545F 
 8394      5355505F 
 8395              	.LASF395:
 8396 0996 4F464653 		.ascii	"OFFSET_TO_FIRST_INSTANT\000"
 8396      45545F54 
 8396      4F5F4649 
 8396      5253545F 
 8396      494E5354 
 8397              	.LASF908:
 8398 09ae 61647649 		.ascii	"advIntvMax\000"
 8398      6E74764D 
 8398      617800
 8399              	.LASF517:
 8400 09b9 434F4E4E 		.ascii	"CONN_2_DATA_LIST_SENT\000"
 8400      5F325F44 
 8400      4154415F 
 8400      4C495354 
 8400      5F53454E 
 8401              	.LASF764:
 8402 09cf 43595F42 		.ascii	"CY_BLE_ERROR_INSUFFICIENT_RESOURCES\000"
 8402      4C455F45 
 8402      52524F52 
 8402      5F494E53 
 8402      55464649 
 8403              	.LASF666:
 8404 09f3 43595F42 		.ascii	"CY_BLE_EVT_REMOVE_DEVICE_FROM_WHITE_LIST_COMPLETE\000"
 8404      4C455F45 
 8404      56545F52 
 8404      454D4F56 
 8404      455F4445 
 8405              	.LASF952:
 8406 0a25 66617374 		.ascii	"fastAdvTimeOut\000"
 8406      41647654 
 8406      696D654F 
 8406      757400
 8407              	.LASF226:
 8408 0a34 74637077 		.ascii	"tcpwm_1_interrupts_7_IRQn\000"
 8408      6D5F315F 
 8408      696E7465 
 8408      72727570 
 8408      74735F37 
 8409              	.LASF583:
 8410 0a4e 49565F53 		.ascii	"IV_SLAVE0\000"
 8410      4C415645 
 8410      3000
 8411              	.LASF36:
 8412 0a58 64775665 		.ascii	"dwVersion\000"
 8412      7273696F 
ARM GAS  C:\Users\JC\AppData\Local\Temp\ccNOiAvA.s 			page 186


 8412      6E00
 8413              	.LASF263:
 8414 0a62 736D6966 		.ascii	"smif_interrupt_IRQn\000"
 8414      5F696E74 
 8414      65727275 
 8414      70745F49 
 8414      52516E00 
 8415              	.LASF296:
 8416 0a76 5243424C 		.ascii	"RCBLL\000"
 8416      4C00
 8417              	.LASF525:
 8418 0a7c 434F4E4E 		.ascii	"CONN_4_DATA_LIST_SENT\000"
 8418      5F345F44 
 8418      4154415F 
 8418      4C495354 
 8418      5F53454E 
 8419              	.LASF44:
 8420 0a92 63707573 		.ascii	"cpussIpcIrqNr\000"
 8420      73497063 
 8420      4972714E 
 8420      7200
 8421              	.LASF645:
 8422 0aa0 43595F42 		.ascii	"CY_BLE_EVT_MEMORY_REQUEST\000"
 8422      4C455F45 
 8422      56545F4D 
 8422      454D4F52 
 8422      595F5245 
 8423              	.LASF938:
 8424 0aba 43595F42 		.ascii	"CY_BLE_CONN_STATE_CLIENT_INCL_DISCOVERING\000"
 8424      4C455F43 
 8424      4F4E4E5F 
 8424      53544154 
 8424      455F434C 
 8425              	.LASF1064:
 8426 0ae4 43795F42 		.ascii	"Cy_BLE_ApplCallback\000"
 8426      4C455F41 
 8426      70706C43 
 8426      616C6C62 
 8426      61636B00 
 8427              	.LASF880:
 8428 0af8 43595F42 		.ascii	"CY_BLE_GAP_AUTH_ERROR_BR_EDR_PAIRING_IN_PROGRESS\000"
 8428      4C455F47 
 8428      41505F41 
 8428      5554485F 
 8428      4552524F 
 8429              	.LASF965:
 8430 0b29 67617063 		.ascii	"gapcConnectionIntervalMin\000"
 8430      436F6E6E 
 8430      65637469 
 8430      6F6E496E 
 8430      74657276 
 8431              	.LASF99:
 8432 0b43 63707573 		.ascii	"cpussTrimRamCtlOffset\000"
 8432      73547269 
 8432      6D52616D 
 8432      43746C4F 
 8432      66667365 
ARM GAS  C:\Users\JC\AppData\Local\Temp\ccNOiAvA.s 			page 187


 8433              	.LASF1051:
 8434 0b59 72657449 		.ascii	"retIsControllerActive\000"
 8434      73436F6E 
 8434      74726F6C 
 8434      6C657241 
 8434      63746976 
 8435              	.LASF182:
 8436 0b6f 63707573 		.ascii	"cpuss_interrupts_dw0_11_IRQn\000"
 8436      735F696E 
 8436      74657272 
 8436      75707473 
 8436      5F647730 
 8437              	.LASF922:
 8438 0b8c 61647650 		.ascii	"advParam\000"
 8438      6172616D 
 8438      00
 8439              	.LASF1037:
 8440 0b95 73746163 		.ascii	"stackInitParam\000"
 8440      6B496E69 
 8440      74506172 
 8440      616D00
 8441              	.LASF569:
 8442 0ba4 4D495343 		.ascii	"MISC_EN_CTRL\000"
 8442      5F454E5F 
 8442      4354524C 
 8442      00
 8443              	.LASF279:
 8444 0bb1 52414449 		.ascii	"RADIO_REG4_ADDR\000"
 8444      4F5F5245 
 8444      47345F41 
 8444      44445200 
 8445              	.LASF489:
 8446 0bc1 4E495F54 		.ascii	"NI_TIMER\000"
 8446      494D4552 
 8446      00
 8447              	.LASF633:
 8448 0bca 43795F53 		.ascii	"Cy_SysPmCallback\000"
 8448      7973506D 
 8448      43616C6C 
 8448      6261636B 
 8448      00
 8449              	.LASF313:
 8450 0bdb 494E4954 		.ascii	"INIT_PARAM\000"
 8450      5F504152 
 8450      414D00
 8451              	.LASF479:
 8452 0be6 434F4E4E 		.ascii	"CONN_TXMEM_BASE_ADDR_DLE\000"
 8452      5F54584D 
 8452      454D5F42 
 8452      4153455F 
 8452      41444452 
 8453              	.LASF877:
 8454 0bff 43595F42 		.ascii	"CY_BLE_GAP_AUTH_ERROR_INVALID_PARAMETERS\000"
 8454      4C455F47 
 8454      41505F41 
 8454      5554485F 
 8454      4552524F 
ARM GAS  C:\Users\JC\AppData\Local\Temp\ccNOiAvA.s 			page 188


 8455              	.LASF789:
 8456 0c28 63795F65 		.ascii	"cy_en_ble_api_result_t\000"
 8456      6E5F626C 
 8456      655F6170 
 8456      695F7265 
 8456      73756C74 
 8457              	.LASF492:
 8458 0c3f 4E495F41 		.ascii	"NI_ABORT\000"
 8458      424F5254 
 8458      00
 8459              	.LASF214:
 8460 0c48 74637077 		.ascii	"tcpwm_0_interrupts_3_IRQn\000"
 8460      6D5F305F 
 8460      696E7465 
 8460      72727570 
 8460      74735F33 
 8461              	.LASF899:
 8462 0c62 66696C74 		.ascii	"filterDuplicates\000"
 8462      65724475 
 8462      706C6963 
 8462      61746573 
 8462      00
 8463              	.LASF477:
 8464 0c73 434F4E4E 		.ascii	"CONN_RXMEM_BASE_ADDR_DLE\000"
 8464      5F52584D 
 8464      454D5F42 
 8464      4153455F 
 8464      41444452 
 8465              	.LASF497:
 8466 0c8c 42545F53 		.ascii	"BT_SLOT_CAPT_STATUS\000"
 8466      4C4F545F 
 8466      43415054 
 8466      5F535441 
 8466      54555300 
 8467              	.LASF1052:
 8468 0ca0 626C6544 		.ascii	"bleDeepSleepCallbackParams\000"
 8468      65657053 
 8468      6C656570 
 8468      43616C6C 
 8468      6261636B 
 8469              	.LASF1074:
 8470 0cbb 43795F42 		.ascii	"Cy_BLE_SetAdvertisementState\000"
 8470      4C455F53 
 8470      65744164 
 8470      76657274 
 8470      6973656D 
 8471              	.LASF249:
 8472 0cd8 7564625F 		.ascii	"udb_interrupts_6_IRQn\000"
 8472      696E7465 
 8472      72727570 
 8472      74735F36 
 8472      5F495251 
 8473              	.LASF869:
 8474 0cee 43595F42 		.ascii	"CY_BLE_GAP_AUTH_ERROR_OOB_DATA_NOT_AVAILABLE\000"
 8474      4C455F47 
 8474      41505F41 
 8474      5554485F 
ARM GAS  C:\Users\JC\AppData\Local\Temp\ccNOiAvA.s 			page 189


 8474      4552524F 
 8475              	.LASF420:
 8476 0d1b 50454552 		.ascii	"PEER_ADDR_INIT_H\000"
 8476      5F414444 
 8476      525F494E 
 8476      49545F48 
 8476      00
 8477              	.LASF418:
 8478 0d2c 50454552 		.ascii	"PEER_ADDR_INIT_L\000"
 8478      5F414444 
 8478      525F494E 
 8478      49545F4C 
 8478      00
 8479              	.LASF419:
 8480 0d3d 50454552 		.ascii	"PEER_ADDR_INIT_M\000"
 8480      5F414444 
 8480      525F494E 
 8480      49545F4D 
 8480      00
 8481              	.LASF852:
 8482 0d4e 43595F42 		.ascii	"CY_BLE_BLESS_STATE_STOPPED\000"
 8482      4C455F42 
 8482      4C455353 
 8482      5F535441 
 8482      54455F53 
 8483              	.LASF195:
 8484 0d69 63707573 		.ascii	"cpuss_interrupts_dw1_8_IRQn\000"
 8484      735F696E 
 8484      74657272 
 8484      75707473 
 8484      5F647731 
 8485              	.LASF719:
 8486 0d85 43595F42 		.ascii	"CY_BLE_EVT_GAPP_UPDATE_ADV_SCAN_DATA_COMPLETE\000"
 8486      4C455F45 
 8486      56545F47 
 8486      4150505F 
 8486      55504441 
 8487              	.LASF618:
 8488 0db3 43595F53 		.ascii	"CY_SYSPM_WAIT_FOR_EVENT\000"
 8488      5953504D 
 8488      5F574149 
 8488      545F464F 
 8488      525F4556 
 8489              	.LASF898:
 8490 0dcb 7363616E 		.ascii	"scanTo\000"
 8490      546F00
 8491              	.LASF838:
 8492 0dd2 43595F42 		.ascii	"CY_BLE_LL_PWR_LVL_NEG_12_DBM\000"
 8492      4C455F4C 
 8492      4C5F5057 
 8492      525F4C56 
 8492      4C5F4E45 
 8493              	.LASF704:
 8494 0def 43595F42 		.ascii	"CY_BLE_EVT_GAP_CONNECTION_UPDATE_COMPLETE\000"
 8494      4C455F45 
 8494      56545F47 
 8494      41505F43 
ARM GAS  C:\Users\JC\AppData\Local\Temp\ccNOiAvA.s 			page 190


 8494      4F4E4E45 
 8495              	.LASF401:
 8496 0e19 434F4E4E 		.ascii	"CONN_PARAM1\000"
 8496      5F504152 
 8496      414D3100 
 8497              	.LASF402:
 8498 0e25 434F4E4E 		.ascii	"CONN_PARAM2\000"
 8498      5F504152 
 8498      414D3200 
 8499              	.LASF884:
 8500 0e31 63795F65 		.ascii	"cy_en_ble_gap_auth_failed_reason_t\000"
 8500      6E5F626C 
 8500      655F6761 
 8500      705F6175 
 8500      74685F66 
 8501              	.LASF1016:
 8502 0e54 70617261 		.ascii	"params\000"
 8502      6D7300
 8503              	.LASF200:
 8504 0e5b 63707573 		.ascii	"cpuss_interrupts_dw1_13_IRQn\000"
 8504      735F696E 
 8504      74657272 
 8504      75707473 
 8504      5F647731 
 8505              	.LASF153:
 8506 0e78 63707573 		.ascii	"cpuss_interrupts_ipc_7_IRQn\000"
 8506      735F696E 
 8506      74657272 
 8506      75707473 
 8506      5F697063 
 8507              	.LASF868:
 8508 0e94 43595F42 		.ascii	"CY_BLE_GAP_AUTH_ERROR_PASSKEY_ENTRY_FAILED\000"
 8508      4C455F47 
 8508      41505F41 
 8508      5554485F 
 8508      4552524F 
 8509              	.LASF123:
 8510 0ebf 696F7373 		.ascii	"ioss_interrupts_gpio_2_IRQn\000"
 8510      5F696E74 
 8510      65727275 
 8510      7074735F 
 8510      6770696F 
 8511              	.LASF828:
 8512 0edb 746F7461 		.ascii	"totalDataBufferPools\000"
 8512      6C446174 
 8512      61427566 
 8512      66657250 
 8512      6F6F6C73 
 8513              	.LASF885:
 8514 0ef0 63795F73 		.ascii	"cy_stc_ble_gap_bd_addr_t\000"
 8514      74635F62 
 8514      6C655F67 
 8514      61705F62 
 8514      645F6164 
 8515              	.LASF657:
 8516 0f09 43595F42 		.ascii	"CY_BLE_EVT_DATA_LENGTH_CHANGE\000"
 8516      4C455F45 
ARM GAS  C:\Users\JC\AppData\Local\Temp\ccNOiAvA.s 			page 191


 8516      56545F44 
 8516      4154415F 
 8516      4C454E47 
 8517              	.LASF798:
 8518 0f27 6C326361 		.ascii	"l2capBufferPerConn\000"
 8518      70427566 
 8518      66657250 
 8518      6572436F 
 8518      6E6E00
 8519              	.LASF774:
 8520 0f3a 43595F42 		.ascii	"CY_BLE_ERROR_L2CAP_PSM_NOT_REGISTERED\000"
 8520      4C455F45 
 8520      52524F52 
 8520      5F4C3243 
 8520      41505F50 
 8521              	.LASF734:
 8522 0f60 43595F42 		.ascii	"CY_BLE_EVT_GATTC_WRITE_RSP\000"
 8522      4C455F45 
 8522      56545F47 
 8522      41545443 
 8522      5F575249 
 8523              	.LASF806:
 8524 0f7b 6C6F6275 		.ascii	"lobuffTable\000"
 8524      66665461 
 8524      626C6500 
 8525              	.LASF746:
 8526 0f87 43595F42 		.ascii	"CY_BLE_EVT_L2CAP_CONN_PARAM_UPDATE_REQ\000"
 8526      4C455F45 
 8526      56545F4C 
 8526      32434150 
 8526      5F434F4E 
 8527              	.LASF904:
 8528 0fae 43595F42 		.ascii	"CY_BLE_GAPP_NON_CONNECTABLE_UNDIRECTED_ADV\000"
 8528      4C455F47 
 8528      4150505F 
 8528      4E4F4E5F 
 8528      434F4E4E 
 8529              	.LASF592:
 8530 0fd9 454E435F 		.ascii	"ENC_MEM_BASE_ADDR\000"
 8530      4D454D5F 
 8530      42415345 
 8530      5F414444 
 8530      5200
 8531              	.LASF264:
 8532 0feb 7573625F 		.ascii	"usb_interrupt_hi_IRQn\000"
 8532      696E7465 
 8532      72727570 
 8532      745F6869 
 8532      5F495251 
 8533              	.LASF120:
 8534 1001 53797354 		.ascii	"SysTick_IRQn\000"
 8534      69636B5F 
 8534      4952516E 
 8534      00
 8535              	.LASF1062:
 8536 100e 63795F62 		.ascii	"cy_ble_peerBonding\000"
 8536      6C655F70 
ARM GAS  C:\Users\JC\AppData\Local\Temp\ccNOiAvA.s 			page 192


 8536      65657242 
 8536      6F6E6469 
 8536      6E6700
 8537              	.LASF933:
 8538 1021 63795F65 		.ascii	"cy_en_ble_adv_state_t\000"
 8538      6E5F626C 
 8538      655F6164 
 8538      765F7374 
 8538      6174655F 
 8539              	.LASF594:
 8540 1037 5452494D 		.ascii	"TRIM_LDO_1\000"
 8540      5F4C444F 
 8540      5F3100
 8541              	.LASF1001:
 8542 1042 73656375 		.ascii	"securityIoCapability\000"
 8542      72697479 
 8542      496F4361 
 8542      70616269 
 8542      6C697479 
 8543              	.LASF101:
 8544 1057 63707573 		.ascii	"cpussSysTickCtlOffset\000"
 8544      73537973 
 8544      5469636B 
 8544      43746C4F 
 8544      66667365 
 8545              	.LASF451:
 8546 106d 5044555F 		.ascii	"PDU_RESP_TIMER\000"
 8546      52455350 
 8546      5F54494D 
 8546      455200
 8547              	.LASF700:
 8548 107c 43595F42 		.ascii	"CY_BLE_EVT_GAPP_ADVERTISEMENT_START_STOP\000"
 8548      4C455F45 
 8548      56545F47 
 8548      4150505F 
 8548      41445645 
 8549              	.LASF921:
 8550 10a5 64697363 		.ascii	"discMode\000"
 8550      4D6F6465 
 8550      00
 8551              	.LASF133:
 8552 10ae 696F7373 		.ascii	"ioss_interrupts_gpio_12_IRQn\000"
 8552      5F696E74 
 8552      65727275 
 8552      7074735F 
 8552      6770696F 
 8553              	.LASF180:
 8554 10cb 63707573 		.ascii	"cpuss_interrupts_dw0_9_IRQn\000"
 8554      735F696E 
 8554      74657272 
 8554      75707473 
 8554      5F647730 
 8555              	.LASF901:
 8556 10e7 43595F42 		.ascii	"CY_BLE_GAPP_CONNECTABLE_UNDIRECTED_ADV\000"
 8556      4C455F47 
 8556      4150505F 
 8556      434F4E4E 
ARM GAS  C:\Users\JC\AppData\Local\Temp\ccNOiAvA.s 			page 193


 8556      45435441 
 8557              	.LASF886:
 8558 110e 73656375 		.ascii	"security\000"
 8558      72697479 
 8558      00
 8559              	.LASF948:
 8560 1117 7265736F 		.ascii	"resolvablePrivateAddressOnly\000"
 8560      6C766162 
 8560      6C655072 
 8560      69766174 
 8560      65416464 
 8561              	.LASF660:
 8562 1134 43595F42 		.ascii	"CY_BLE_EVT_SET_RPA_TO_COMPLETE\000"
 8562      4C455F45 
 8562      56545F53 
 8562      45545F52 
 8562      50415F54 
 8563              	.LASF276:
 8564 1153 52414449 		.ascii	"RADIO_REG1_ADDR\000"
 8564      4F5F5245 
 8564      47315F41 
 8564      44445200 
 8565              	.LASF1028:
 8566 1163 43595F49 		.ascii	"CY_IPC_SEMA_LOCKED\000"
 8566      50435F53 
 8566      454D415F 
 8566      4C4F434B 
 8566      454400
 8567              	.LASF690:
 8568 1176 43595F42 		.ascii	"CY_BLE_EVT_SET_EVENT_MASK_COMPLETE\000"
 8568      4C455F45 
 8568      56545F53 
 8568      45545F45 
 8568      56454E54 
 8569              	.LASF964:
 8570 1199 736C6F77 		.ascii	"slowScanTimeOut\000"
 8570      5363616E 
 8570      54696D65 
 8570      4F757400 
 8571              	.LASF664:
 8572 11a9 43595F42 		.ascii	"CY_BLE_EVT_REMOVE_DEVICE_FROM_RPA_LIST_COMPLETE\000"
 8572      4C455F45 
 8572      56545F52 
 8572      454D4F56 
 8572      455F4445 
 8573              	.LASF211:
 8574 11d9 74637077 		.ascii	"tcpwm_0_interrupts_0_IRQn\000"
 8574      6D5F305F 
 8574      696E7465 
 8574      72727570 
 8574      74735F30 
 8575              	.LASF875:
 8576 11f3 43595F42 		.ascii	"CY_BLE_GAP_AUTH_ERROR_UNSPECIFIED_REASON\000"
 8576      4C455F47 
 8576      41505F41 
 8576      5554485F 
 8576      4552524F 
ARM GAS  C:\Users\JC\AppData\Local\Temp\ccNOiAvA.s 			page 194


 8577              	.LASF790:
 8578 121c 63795F62 		.ascii	"cy_ble_app_ev_cb_t\000"
 8578      6C655F61 
 8578      70705F65 
 8578      765F6362 
 8578      5F7400
 8579              	.LASF767:
 8580 122f 43595F42 		.ascii	"CY_BLE_ERROR_NO_DEVICE_ENTITY\000"
 8580      4C455F45 
 8580      52524F52 
 8580      5F4E4F5F 
 8580      44455649 
 8581              	.LASF40:
 8582 124d 69706356 		.ascii	"ipcVersion\000"
 8582      65727369 
 8582      6F6E00
 8583              	.LASF83:
 8584 1258 70657269 		.ascii	"periDivCmdPaDivSelPos\000"
 8584      44697643 
 8584      6D645061 
 8584      44697653 
 8584      656C506F 
 8585              	.LASF305:
 8586 126e 5343414E 		.ascii	"SCAN_INTERVAL\000"
 8586      5F494E54 
 8586      45525641 
 8586      4C00
 8587              	.LASF41:
 8588 127c 70657269 		.ascii	"periVersion\000"
 8588      56657273 
 8588      696F6E00 
 8589              	.LASF5:
 8590 1288 5F5F7569 		.ascii	"__uint8_t\000"
 8590      6E74385F 
 8590      7400
 8591              	.LASF387:
 8592 1292 4144565F 		.ascii	"ADV_CH_TX_POWER_LVL_LS\000"
 8592      43485F54 
 8592      585F504F 
 8592      5745525F 
 8592      4C564C5F 
 8593              	.LASF331:
 8594 12a9 44415441 		.ascii	"DATA_CHANNELS_H0\000"
 8594      5F434841 
 8594      4E4E454C 
 8594      535F4830 
 8594      00
 8595              	.LASF335:
 8596 12ba 44415441 		.ascii	"DATA_CHANNELS_H1\000"
 8596      5F434841 
 8596      4E4E454C 
 8596      535F4831 
 8596      00
 8597              	.LASF246:
 8598 12cb 7564625F 		.ascii	"udb_interrupts_3_IRQn\000"
 8598      696E7465 
 8598      72727570 
ARM GAS  C:\Users\JC\AppData\Local\Temp\ccNOiAvA.s 			page 195


 8598      74735F33 
 8598      5F495251 
 8599              	.LASF209:
 8600 12e1 63707573 		.ascii	"cpuss_interrupts_cm4_cti_0_IRQn\000"
 8600      735F696E 
 8600      74657272 
 8600      75707473 
 8600      5F636D34 
 8601              	.LASF319:
 8602 1301 44455649 		.ascii	"DEVICE_RAND_ADDR_H\000"
 8602      43455F52 
 8602      414E445F 
 8602      41444452 
 8602      5F4800
 8603              	.LASF499:
 8604 1314 55535F4F 		.ascii	"US_OFFSET_STATUS\000"
 8604      46465345 
 8604      545F5354 
 8604      41545553 
 8604      00
 8605              	.LASF317:
 8606 1325 44455649 		.ascii	"DEVICE_RAND_ADDR_L\000"
 8606      43455F52 
 8606      414E445F 
 8606      41444452 
 8606      5F4C00
 8607              	.LASF318:
 8608 1338 44455649 		.ascii	"DEVICE_RAND_ADDR_M\000"
 8608      43455F52 
 8608      414E445F 
 8608      41444452 
 8608      5F4D00
 8609              	.LASF192:
 8610 134b 63707573 		.ascii	"cpuss_interrupts_dw1_5_IRQn\000"
 8610      735F696E 
 8610      74657272 
 8610      75707473 
 8610      5F647731 
 8611              	.LASF611:
 8612 1367 43595F53 		.ascii	"CY_SYSPM_BAD_PARAM\000"
 8612      5953504D 
 8612      5F424144 
 8612      5F504152 
 8612      414D00
 8613              	.LASF223:
 8614 137a 74637077 		.ascii	"tcpwm_1_interrupts_4_IRQn\000"
 8614      6D5F315F 
 8614      696E7465 
 8614      72727570 
 8614      74735F34 
 8615              	.LASF709:
 8616 1394 43595F42 		.ascii	"CY_BLE_EVT_GAP_OOB_GENERATED_NOTIFICATION\000"
 8616      4C455F45 
 8616      56545F47 
 8616      41505F4F 
 8616      4F425F47 
 8617              	.LASF388:
ARM GAS  C:\Users\JC\AppData\Local\Temp\ccNOiAvA.s 			page 196


 8618 13be 4144565F 		.ascii	"ADV_CH_TX_POWER_LVL_MS\000"
 8618      43485F54 
 8618      585F504F 
 8618      5745525F 
 8618      4C564C5F 
 8619              	.LASF237:
 8620 13d5 74637077 		.ascii	"tcpwm_1_interrupts_18_IRQn\000"
 8620      6D5F315F 
 8620      696E7465 
 8620      72727570 
 8620      74735F31 
 8621              	.LASF836:
 8622 13f0 43595F42 		.ascii	"CY_BLE_LL_PWR_LVL_NEG_20_DBM\000"
 8622      4C455F4C 
 8622      4C5F5057 
 8622      525F4C56 
 8622      4C5F4E45 
 8623              	.LASF1020:
 8624 140d 63795F73 		.ascii	"cy_stc_ble_config_t\000"
 8624      74635F62 
 8624      6C655F63 
 8624      6F6E6669 
 8624      675F7400 
 8625              	.LASF197:
 8626 1421 63707573 		.ascii	"cpuss_interrupts_dw1_10_IRQn\000"
 8626      735F696E 
 8626      74657272 
 8626      75707473 
 8626      5F647731 
 8627              	.LASF641:
 8628 143e 43595F42 		.ascii	"CY_BLE_EVT_INVALID\000"
 8628      4C455F45 
 8628      56545F49 
 8628      4E56414C 
 8628      494400
 8629              	.LASF150:
 8630 1451 63707573 		.ascii	"cpuss_interrupts_ipc_4_IRQn\000"
 8630      735F696E 
 8630      74657272 
 8630      75707473 
 8630      5F697063 
 8631              	.LASF907:
 8632 146d 61647649 		.ascii	"advIntvMin\000"
 8632      6E74764D 
 8632      696E00
 8633              	.LASF723:
 8634 1478 43595F42 		.ascii	"CY_BLE_EVT_GATT_DISCONNECT_IND\000"
 8634      4C455F45 
 8634      56545F47 
 8634      4154545F 
 8634      44495343 
 8635              	.LASF998:
 8636 1497 63795F73 		.ascii	"cy_stc_ble_flash_storage_t\000"
 8636      74635F62 
 8636      6C655F66 
 8636      6C617368 
 8636      5F73746F 
ARM GAS  C:\Users\JC\AppData\Local\Temp\ccNOiAvA.s 			page 197


 8637              	.LASF1017:
 8638 14b2 63616C6C 		.ascii	"callbackFunc\000"
 8638      6261636B 
 8638      46756E63 
 8638      00
 8639              	.LASF405:
 8640 14bf 52454345 		.ascii	"RECEIVE_TRIG_CTRL\000"
 8640      4956455F 
 8640      54524947 
 8640      5F435452 
 8640      4C00
 8641              	.LASF589:
 8642 14d1 454E435F 		.ascii	"ENC_INTR_EN\000"
 8642      494E5452 
 8642      5F454E00 
 8643              	.LASF540:
 8644 14dd 434F4E4E 		.ascii	"CONN_RX_PKT_CNTR\000"
 8644      5F52585F 
 8644      504B545F 
 8644      434E5452 
 8644      00
 8645              	.LASF505:
 8646 14ee 4541524C 		.ascii	"EARLY_INTR_NI\000"
 8646      595F494E 
 8646      54525F4E 
 8646      4900
 8647              	.LASF1008:
 8648 14fc 64697363 		.ascii	"discoveryInfo\000"
 8648      6F766572 
 8648      79496E66 
 8648      6F00
 8649              	.LASF220:
 8650 150a 74637077 		.ascii	"tcpwm_1_interrupts_1_IRQn\000"
 8650      6D5F315F 
 8650      696E7465 
 8650      72727570 
 8650      74735F31 
 8651              	.LASF874:
 8652 1524 43595F42 		.ascii	"CY_BLE_GAP_AUTH_ERROR_COMMAND_NOT_SUPPORTED\000"
 8652      4C455F47 
 8652      41505F41 
 8652      5554485F 
 8652      4552524F 
 8653              	.LASF646:
 8654 1550 43595F42 		.ascii	"CY_BLE_EVT_PENDING_FLASH_WRITE\000"
 8654      4C455F45 
 8654      56545F50 
 8654      454E4449 
 8654      4E475F46 
 8655              	.LASF712:
 8656 156f 43595F42 		.ascii	"CY_BLE_EVT_GAP_SMP_NEGOTIATED_AUTH_INFO\000"
 8656      4C455F45 
 8656      56545F47 
 8656      41505F53 
 8656      4D505F4E 
 8657              	.LASF1054:
 8658 1597 63795F64 		.ascii	"cy_device\000"
ARM GAS  C:\Users\JC\AppData\Local\Temp\ccNOiAvA.s 			page 198


 8658      65766963 
 8658      6500
 8659              	.LASF840:
 8660 15a1 43595F42 		.ascii	"CY_BLE_LL_PWR_LVL_0_DBM\000"
 8660      4C455F4C 
 8660      4C5F5057 
 8660      525F4C56 
 8660      4C5F305F 
 8661              	.LASF871:
 8662 15b9 43595F42 		.ascii	"CY_BLE_GAP_AUTH_ERROR_CONFIRM_VALUE_NOT_MATCH\000"
 8662      4C455F47 
 8662      41505F41 
 8662      5554485F 
 8662      4552524F 
 8663              	.LASF536:
 8664 15e7 48575F4C 		.ascii	"HW_LOAD_OFFSET\000"
 8664      4F41445F 
 8664      4F464653 
 8664      455400
 8665              	.LASF112:
 8666 15f6 4E6F6E4D 		.ascii	"NonMaskableInt_IRQn\000"
 8666      61736B61 
 8666      626C6549 
 8666      6E745F49 
 8666      52516E00 
 8667              	.LASF329:
 8668 160a 44415441 		.ascii	"DATA_CHANNELS_L0\000"
 8668      5F434841 
 8668      4E4E454C 
 8668      535F4C30 
 8668      00
 8669              	.LASF299:
 8670 161b 4556454E 		.ascii	"EVENT_INTR\000"
 8670      545F494E 
 8670      545200
 8671              	.LASF483:
 8672 1626 434F4E4E 		.ascii	"CONN_2_PARAM_MEM_BASE_ADDR\000"
 8672      5F325F50 
 8672      4152414D 
 8672      5F4D454D 
 8672      5F424153 
 8673              	.LASF105:
 8674 1641 63707573 		.ascii	"cpussRam0Ctl0\000"
 8674      7352616D 
 8674      3043746C 
 8674      3000
 8675              	.LASF177:
 8676 164f 63707573 		.ascii	"cpuss_interrupts_dw0_6_IRQn\000"
 8676      735F696E 
 8676      74657272 
 8676      75707473 
 8676      5F647730 
 8677              	.LASF668:
 8678 166b 43595F42 		.ascii	"CY_BLE_EVT_SET_DEFAULT_PHY_COMPLETE\000"
 8678      4C455F45 
 8678      56545F53 
 8678      45545F44 
ARM GAS  C:\Users\JC\AppData\Local\Temp\ccNOiAvA.s 			page 199


 8678      45464155 
 8679              	.LASF742:
 8680 168f 43595F42 		.ascii	"CY_BLE_EVT_GATTS_DATA_SIGNED_CMD_REQ\000"
 8680      4C455F45 
 8680      56545F47 
 8680      41545453 
 8680      5F444154 
 8681              	.LASF330:
 8682 16b4 44415441 		.ascii	"DATA_CHANNELS_M0\000"
 8682      5F434841 
 8682      4E4E454C 
 8682      535F4D30 
 8682      00
 8683              	.LASF334:
 8684 16c5 44415441 		.ascii	"DATA_CHANNELS_M1\000"
 8684      5F434841 
 8684      4E4E454C 
 8684      535F4D31 
 8684      00
 8685              	.LASF996:
 8686 16d6 63636364 		.ascii	"cccdCount\000"
 8686      436F756E 
 8686      7400
 8687              	.LASF757:
 8688 16e0 43595F42 		.ascii	"CY_BLE_EVT_MAX\000"
 8688      4C455F45 
 8688      56545F4D 
 8688      415800
 8689              	.LASF365:
 8690 16ef 434F4E4E 		.ascii	"CONN_CE_COUNTER\000"
 8690      5F43455F 
 8690      434F554E 
 8690      54455200 
 8691              	.LASF398:
 8692 16ff 494E4954 		.ascii	"INIT_CONFIG\000"
 8692      5F434F4E 
 8692      46494700 
 8693              	.LASF397:
 8694 170b 5343414E 		.ascii	"SCAN_CONFIG\000"
 8694      5F434F4E 
 8694      46494700 
 8695              	.LASF638:
 8696 1717 70726576 		.ascii	"prevItm\000"
 8696      49746D00 
 8697              	.LASF258:
 8698 171f 7564625F 		.ascii	"udb_interrupts_15_IRQn\000"
 8698      696E7465 
 8698      72727570 
 8698      74735F31 
 8698      355F4952 
 8699              	.LASF102:
 8700 1736 63707573 		.ascii	"cpussCm0NmiCtlOffset\000"
 8700      73436D30 
 8700      4E6D6943 
 8700      746C4F66 
 8700      66736574 
 8701              	.LASF268:
ARM GAS  C:\Users\JC\AppData\Local\Temp\ccNOiAvA.s 			page 200


 8702 174b 756E636F 		.ascii	"unconnected_IRQn\000"
 8702      6E6E6563 
 8702      7465645F 
 8702      4952516E 
 8702      00
 8703              	.LASF70:
 8704 175c 666C6173 		.ascii	"flashCtlMainWs4Freq\000"
 8704      6843746C 
 8704      4D61696E 
 8704      57733446 
 8704      72657100 
 8705              	.LASF473:
 8706 1770 52534C56 		.ascii	"RSLV_LIST_ENABLE\000"
 8706      5F4C4953 
 8706      545F454E 
 8706      41424C45 
 8706      00
 8707              	.LASF241:
 8708 1781 74637077 		.ascii	"tcpwm_1_interrupts_22_IRQn\000"
 8708      6D5F315F 
 8708      696E7465 
 8708      72727570 
 8708      74735F32 
 8709              	.LASF853:
 8710 179c 43595F42 		.ascii	"CY_BLE_BLESS_STATE_INVALID\000"
 8710      4C455F42 
 8710      4C455353 
 8710      5F535441 
 8710      54455F49 
 8711              	.LASF779:
 8712 17b7 43595F42 		.ascii	"CY_BLE_ERROR_FLASH_WRITE\000"
 8712      4C455F45 
 8712      52524F52 
 8712      5F464C41 
 8712      53485F57 
 8713              	.LASF243:
 8714 17d0 7564625F 		.ascii	"udb_interrupts_0_IRQn\000"
 8714      696E7465 
 8714      72727570 
 8714      74735F30 
 8714      5F495251 
 8715              	.LASF560:
 8716 17e6 42545F43 		.ascii	"BT_CLOCK_CAPT\000"
 8716      4C4F434B 
 8716      5F434150 
 8716      5400
 8717              	.LASF259:
 8718 17f4 70617373 		.ascii	"pass_interrupt_sar_IRQn\000"
 8718      5F696E74 
 8718      65727275 
 8718      70745F73 
 8718      61725F49 
 8719              	.LASF722:
 8720 180c 43595F42 		.ascii	"CY_BLE_EVT_GATT_CONNECT_IND\000"
 8720      4C455F45 
 8720      56545F47 
 8720      4154545F 
ARM GAS  C:\Users\JC\AppData\Local\Temp\ccNOiAvA.s 			page 201


 8720      434F4E4E 
 8721              	.LASF261:
 8722 1828 61756469 		.ascii	"audioss_interrupt_pdm_IRQn\000"
 8722      6F73735F 
 8722      696E7465 
 8722      72727570 
 8722      745F7064 
 8723              	.LASF82:
 8724 1843 70657269 		.ascii	"periDivCmdTypeSelPos\000"
 8724      44697643 
 8724      6D645479 
 8724      70655365 
 8724      6C506F73 
 8725              	.LASF438:
 8726 1858 434F4E4E 		.ascii	"CONN_REQ_WORD0\000"
 8726      5F524551 
 8726      5F574F52 
 8726      443000
 8727              	.LASF439:
 8728 1867 434F4E4E 		.ascii	"CONN_REQ_WORD1\000"
 8728      5F524551 
 8728      5F574F52 
 8728      443100
 8729              	.LASF440:
 8730 1876 434F4E4E 		.ascii	"CONN_REQ_WORD2\000"
 8730      5F524551 
 8730      5F574F52 
 8730      443200
 8731              	.LASF441:
 8732 1885 434F4E4E 		.ascii	"CONN_REQ_WORD3\000"
 8732      5F524551 
 8732      5F574F52 
 8732      443300
 8733              	.LASF442:
 8734 1894 434F4E4E 		.ascii	"CONN_REQ_WORD4\000"
 8734      5F524551 
 8734      5F574F52 
 8734      443400
 8735              	.LASF443:
 8736 18a3 434F4E4E 		.ascii	"CONN_REQ_WORD5\000"
 8736      5F524551 
 8736      5F574F52 
 8736      443500
 8737              	.LASF444:
 8738 18b2 434F4E4E 		.ascii	"CONN_REQ_WORD6\000"
 8738      5F524551 
 8738      5F574F52 
 8738      443600
 8739              	.LASF445:
 8740 18c1 434F4E4E 		.ascii	"CONN_REQ_WORD7\000"
 8740      5F524551 
 8740      5F574F52 
 8740      443700
 8741              	.LASF446:
 8742 18d0 434F4E4E 		.ascii	"CONN_REQ_WORD8\000"
 8742      5F524551 
 8742      5F574F52 
ARM GAS  C:\Users\JC\AppData\Local\Temp\ccNOiAvA.s 			page 202


 8742      443800
 8743              	.LASF447:
 8744 18df 434F4E4E 		.ascii	"CONN_REQ_WORD9\000"
 8744      5F524551 
 8744      5F574F52 
 8744      443900
 8745              	.LASF189:
 8746 18ee 63707573 		.ascii	"cpuss_interrupts_dw1_2_IRQn\000"
 8746      735F696E 
 8746      74657272 
 8746      75707473 
 8746      5F647731 
 8747              	.LASF338:
 8748 190a 434F4E4E 		.ascii	"CONN_STATUS\000"
 8748      5F535441 
 8748      54555300 
 8749              	.LASF768:
 8750 1916 43595F42 		.ascii	"CY_BLE_ERROR_DEVICE_ALREADY_EXISTS\000"
 8750      4C455F45 
 8750      52524F52 
 8750      5F444556 
 8750      4943455F 
 8751              	.LASF750:
 8752 1939 43595F42 		.ascii	"CY_BLE_EVT_L2CAP_CBFC_CONN_CNF\000"
 8752      4C455F45 
 8752      56545F4C 
 8752      32434150 
 8752      5F434246 
 8753              	.LASF570:
 8754 1958 45465553 		.ascii	"EFUSE_CONFIG\000"
 8754      455F434F 
 8754      4E464947 
 8754      00
 8755              	.LASF348:
 8756 1965 504F435F 		.ascii	"POC_REG__TIM_CONTROL\000"
 8756      5245475F 
 8756      5F54494D 
 8756      5F434F4E 
 8756      54524F4C 
 8757              	.LASF234:
 8758 197a 74637077 		.ascii	"tcpwm_1_interrupts_15_IRQn\000"
 8758      6D5F315F 
 8758      696E7465 
 8758      72727570 
 8758      74735F31 
 8759              	.LASF1029:
 8760 1995 43595F49 		.ascii	"CY_IPC_SEMA_STATUS_LOCKED\000"
 8760      50435F53 
 8760      454D415F 
 8760      53544154 
 8760      55535F4C 
 8761              	.LASF515:
 8762 19af 434F4E4E 		.ascii	"CONN_1_CE_DATA_LIST_CFG\000"
 8762      5F315F43 
 8762      455F4441 
 8762      54415F4C 
 8762      4953545F 
ARM GAS  C:\Users\JC\AppData\Local\Temp\ccNOiAvA.s 			page 203


 8763              	.LASF73:
 8764 19c7 64774368 		.ascii	"dwChCtlPrioPos\000"
 8764      43746C50 
 8764      72696F50 
 8764      6F7300
 8765              	.LASF568:
 8766 19d6 48564C44 		.ascii	"HVLDO_CTRL\000"
 8766      4F5F4354 
 8766      524C00
 8767              	.LASF604:
 8768 19e1 424C455F 		.ascii	"BLE_Type\000"
 8768      54797065 
 8768      00
 8769              	.LASF147:
 8770 19ea 63707573 		.ascii	"cpuss_interrupts_ipc_1_IRQn\000"
 8770      735F696E 
 8770      74657272 
 8770      75707473 
 8770      5F697063 
 8771              	.LASF676:
 8772 1a06 43595F42 		.ascii	"CY_BLE_EVT_GET_RSSI_COMPLETE\000"
 8772      4C455F45 
 8772      56545F47 
 8772      45545F52 
 8772      5353495F 
 8773              	.LASF747:
 8774 1a23 43595F42 		.ascii	"CY_BLE_EVT_L2CAP_CONN_PARAM_UPDATE_RSP\000"
 8774      4C455F45 
 8774      56545F4C 
 8774      32434150 
 8774      5F434F4E 
 8775              	.LASF43:
 8776 1a4a 63707573 		.ascii	"cpussIpcNr\000"
 8776      73497063 
 8776      4E7200
 8777              	.LASF433:
 8778 1a55 434F4E4E 		.ascii	"CONN_UPDATE_NEW_INTERVAL\000"
 8778      5F555044 
 8778      4154455F 
 8778      4E45575F 
 8778      494E5445 
 8779              	.LASF357:
 8780 1a6e 5355505F 		.ascii	"SUP_TIMEOUT\000"
 8780      54494D45 
 8780      4F555400 
 8781              	.LASF54:
 8782 1a7a 736D6966 		.ascii	"smifDeviceNr\000"
 8782      44657669 
 8782      63654E72 
 8782      00
 8783              	.LASF661:
 8784 1a87 43595F42 		.ascii	"CY_BLE_EVT_SET_RPA_ENABLE_COMPLETE\000"
 8784      4C455F45 
 8784      56545F53 
 8784      45545F52 
 8784      50415F45 
 8785              	.LASF370:
ARM GAS  C:\Users\JC\AppData\Local\Temp\ccNOiAvA.s 			page 204


 8786 1aaa 434F4E4E 		.ascii	"CONN_EXT_INTR_MASK\000"
 8786      5F455854 
 8786      5F494E54 
 8786      525F4D41 
 8786      534B00
 8787              	.LASF265:
 8788 1abd 7573625F 		.ascii	"usb_interrupt_med_IRQn\000"
 8788      696E7465 
 8788      72727570 
 8788      745F6D65 
 8788      645F4952 
 8789              	.LASF559:
 8790 1ad4 4C4C5F50 		.ascii	"LL_PKT_RSSI_CH_ENERGY\000"
 8790      4B545F52 
 8790      5353495F 
 8790      43485F45 
 8790      4E455247 
 8791              	.LASF364:
 8792 1aea 4E455854 		.ascii	"NEXT_CE_INSTANT\000"
 8792      5F43455F 
 8792      494E5354 
 8792      414E5400 
 8793              	.LASF981:
 8794 1afa 7065726D 		.ascii	"permission\000"
 8794      69737369 
 8794      6F6E00
 8795              	.LASF86:
 8796 1b05 70657269 		.ascii	"periDiv16CtlOffset\000"
 8796      44697631 
 8796      3643746C 
 8796      4F666673 
 8796      657400
 8797              	.LASF283:
 8798 1b18 4350555F 		.ascii	"CPU_READ_REG\000"
 8798      52454144 
 8798      5F524547 
 8798      00
 8799              	.LASF368:
 8800 1b25 43455F43 		.ascii	"CE_CNFG_STS_REGISTER_EXT\000"
 8800      4E46475F 
 8800      5354535F 
 8800      52454749 
 8800      53544552 
 8801              	.LASF460:
 8802 1b3e 4C455F50 		.ascii	"LE_PING_TIMER_NEXT_EXP\000"
 8802      494E475F 
 8802      54494D45 
 8802      525F4E45 
 8802      58545F45 
 8803              	.LASF931:
 8804 1b55 43595F42 		.ascii	"CY_BLE_ADV_STATE_ADVERTISING\000"
 8804      4C455F41 
 8804      44565F53 
 8804      54415445 
 8804      5F414456 
 8805              	.LASF303:
 8806 1b72 4144565F 		.ascii	"ADV_INTR\000"
ARM GAS  C:\Users\JC\AppData\Local\Temp\ccNOiAvA.s 			page 205


 8806      494E5452 
 8806      00
 8807              	.LASF905:
 8808 1b7b 43595F42 		.ascii	"CY_BLE_GAPP_CONNECTABLE_LOW_DC_DIRECTED_ADV\000"
 8808      4C455F47 
 8808      4150505F 
 8808      434F4E4E 
 8808      45435441 
 8809              	.LASF763:
 8810 1ba7 43595F42 		.ascii	"CY_BLE_ERROR_MEMORY_ALLOCATION_FAILED\000"
 8810      4C455F45 
 8810      52524F52 
 8810      5F4D454D 
 8810      4F52595F 
 8811              	.LASF344:
 8812 1bcd 434C4F43 		.ascii	"CLOCK_CONFIG\000"
 8812      4B5F434F 
 8812      4E464947 
 8812      00
 8813              	.LASF728:
 8814 1bda 43595F42 		.ascii	"CY_BLE_EVT_GATTC_FIND_INFO_RSP\000"
 8814      4C455F45 
 8814      56545F47 
 8814      41545443 
 8814      5F46494E 
 8815              	.LASF72:
 8816 1bf9 64774368 		.ascii	"dwChSize\000"
 8816      53697A65 
 8816      00
 8817              	.LASF174:
 8818 1c02 63707573 		.ascii	"cpuss_interrupts_dw0_3_IRQn\000"
 8818      735F696E 
 8818      74657272 
 8818      75707473 
 8818      5F647730 
 8819              	.LASF26:
 8820 1c1e 70657269 		.ascii	"periBase\000"
 8820      42617365 
 8820      00
 8821              	.LASF1056:
 8822 1c27 63795F62 		.ascii	"cy_ble_eventHandlerFlag\000"
 8822      6C655F65 
 8822      76656E74 
 8822      48616E64 
 8822      6C657246 
 8823              	.LASF1066:
 8824 1c3f 63795F62 		.ascii	"cy_ble_configPtr\000"
 8824      6C655F63 
 8824      6F6E6669 
 8824      67507472 
 8824      00
 8825              	.LASF683:
 8826 1c50 43595F42 		.ascii	"CY_BLE_EVT_AES_CCM_ENCRYPT_COMPLETE\000"
 8826      4C455F45 
 8826      56545F41 
 8826      45535F43 
 8826      434D5F45 
ARM GAS  C:\Users\JC\AppData\Local\Temp\ccNOiAvA.s 			page 206


 8827              	.LASF1018:
 8828 1c74 64657669 		.ascii	"deviceAddress\000"
 8828      63654164 
 8828      64726573 
 8828      7300
 8829              	.LASF859:
 8830 1c82 63795F73 		.ascii	"cy_stc_ble_conn_handle_t\000"
 8830      74635F62 
 8830      6C655F63 
 8830      6F6E6E5F 
 8830      68616E64 
 8831              	.LASF980:
 8832 1c9b 61747454 		.ascii	"attType\000"
 8832      79706500 
 8833              	.LASF726:
 8834 1ca3 43595F42 		.ascii	"CY_BLE_EVT_GATTC_READ_BY_GROUP_TYPE_RSP\000"
 8834      4C455F45 
 8834      56545F47 
 8834      41545443 
 8834      5F524541 
 8835              	.LASF897:
 8836 1ccb 7363616E 		.ascii	"scanFilterPolicy\000"
 8836      46696C74 
 8836      6572506F 
 8836      6C696379 
 8836      00
 8837              	.LASF427:
 8838 1cdc 44504C4C 		.ascii	"DPLL_CONFIG\000"
 8838      5F434F4E 
 8838      46494700 
 8839              	.LASF1061:
 8840 1ce8 63795F62 		.ascii	"cy_ble_pendingFlashWrite\000"
 8840      6C655F70 
 8840      656E6469 
 8840      6E67466C 
 8840      61736857 
 8841              	.LASF35:
 8842 1d01 63727970 		.ascii	"cryptoVersion\000"
 8842      746F5665 
 8842      7273696F 
 8842      6E00
 8843              	.LASF463:
 8844 1d0f 54585F45 		.ascii	"TX_EN_EXT_DELAY\000"
 8844      4E5F4558 
 8844      545F4445 
 8844      4C415900 
 8845              	.LASF363:
 8846 1d1f 43455F43 		.ascii	"CE_CNFG_STS_REGISTER\000"
 8846      4E46475F 
 8846      5354535F 
 8846      52454749 
 8846      53544552 
 8847              	.LASF255:
 8848 1d34 7564625F 		.ascii	"udb_interrupts_12_IRQn\000"
 8848      696E7465 
 8848      72727570 
 8848      74735F31 
ARM GAS  C:\Users\JC\AppData\Local\Temp\ccNOiAvA.s 			page 207


 8848      325F4952 
 8849              	.LASF9:
 8850 1d4b 5F5F7569 		.ascii	"__uint16_t\000"
 8850      6E743136 
 8850      5F7400
 8851              	.LASF396:
 8852 1d56 4144565F 		.ascii	"ADV_CONFIG\000"
 8852      434F4E46 
 8852      494700
 8853              	.LASF606:
 8854 1d61 646F7562 		.ascii	"double\000"
 8854      6C6500
 8855              	.LASF1006:
 8856 1d68 64697363 		.ascii	"discoveryModeInfo\000"
 8856      6F766572 
 8856      794D6F64 
 8856      65496E66 
 8856      6F00
 8857              	.LASF92:
 8858 1d7a 6770696F 		.ascii	"gpioPrtCfgOutOffset\000"
 8858      50727443 
 8858      66674F75 
 8858      744F6666 
 8858      73657400 
 8859              	.LASF84:
 8860 1d8e 70657269 		.ascii	"periDivCmdPaTypeSelPos\000"
 8860      44697643 
 8860      6D645061 
 8860      54797065 
 8860      53656C50 
 8861              	.LASF327:
 8862 1da5 5452414E 		.ascii	"TRANSMIT_WINDOW_OFFSET\000"
 8862      534D4954 
 8862      5F57494E 
 8862      444F575F 
 8862      4F464653 
 8863              	.LASF85:
 8864 1dbc 70657269 		.ascii	"periDiv8CtlOffset\000"
 8864      44697638 
 8864      43746C4F 
 8864      66667365 
 8864      7400
 8865              	.LASF339:
 8866 1dce 434F4E4E 		.ascii	"CONN_INDEX\000"
 8866      5F494E44 
 8866      455800
 8867              	.LASF831:
 8868 1dd9 63795F73 		.ascii	"cy_stc_ble_stack_mgr_mem_cfg_param_t\000"
 8868      74635F62 
 8868      6C655F73 
 8868      7461636B 
 8868      5F6D6772 
 8869              	.LASF773:
 8870 1dfe 43595F42 		.ascii	"CY_BLE_ERROR_L2CAP_PSM_ALREADY_REGISTERED\000"
 8870      4C455F45 
 8870      52524F52 
 8870      5F4C3243 
ARM GAS  C:\Users\JC\AppData\Local\Temp\ccNOiAvA.s 			page 208


 8870      41505F50 
 8871              	.LASF358:
 8872 1e28 534C4156 		.ascii	"SLAVE_LATENCY\000"
 8872      455F4C41 
 8872      54454E43 
 8872      5900
 8873              	.LASF588:
 8874 1e36 454E435F 		.ascii	"ENC_CONFIG\000"
 8874      434F4E46 
 8874      494700
 8875              	.LASF935:
 8876 1e41 43595F42 		.ascii	"CY_BLE_CONN_STATE_CLIENT_DISCONNECTED_DISCOVERED\000"
 8876      4C455F43 
 8876      4F4E4E5F 
 8876      53544154 
 8876      455F434C 
 8877              	.LASF511:
 8878 1e72 4D4D4D53 		.ascii	"MMMS_DATA_MEM_DESCRIPTOR\000"
 8878      5F444154 
 8878      415F4D45 
 8878      4D5F4445 
 8878      53435249 
 8879              	.LASF1057:
 8880 1e8b 63795F62 		.ascii	"cy_ble_state\000"
 8880      6C655F73 
 8880      74617465 
 8880      00
 8881              	.LASF718:
 8882 1e98 43595F42 		.ascii	"CY_BLE_EVT_GAP_CONN_ESTB\000"
 8882      4C455F45 
 8882      56545F47 
 8882      41505F43 
 8882      4F4E4E5F 
 8883              	.LASF461:
 8884 1eb1 4C455F50 		.ascii	"LE_PING_TIMER_WRAP_COUNT\000"
 8884      494E475F 
 8884      54494D45 
 8884      525F5752 
 8884      41505F43 
 8885              	.LASF1015:
 8886 1eca 61757468 		.ascii	"authInfo\000"
 8886      496E666F 
 8886      00
 8887              	.LASF1022:
 8888 1ed3 43595F49 		.ascii	"CY_IPC_SEMA_SUCCESS\000"
 8888      50435F53 
 8888      454D415F 
 8888      53554343 
 8888      45535300 
 8889              	.LASF37:
 8890 1ee7 666C6173 		.ascii	"flashcVersion\000"
 8890      68635665 
 8890      7273696F 
 8890      6E00
 8891              	.LASF984:
 8892 1ef5 63795F73 		.ascii	"cy_stc_ble_gatts_db_t\000"
 8892      74635F62 
ARM GAS  C:\Users\JC\AppData\Local\Temp\ccNOiAvA.s 			page 209


 8892      6C655F67 
 8892      61747473 
 8892      5F64625F 
 8893              	.LASF636:
 8894 1f0b 736B6970 		.ascii	"skipMode\000"
 8894      4D6F6465 
 8894      00
 8895              	.LASF130:
 8896 1f14 696F7373 		.ascii	"ioss_interrupts_gpio_9_IRQn\000"
 8896      5F696E74 
 8896      65727275 
 8896      7074735F 
 8896      6770696F 
 8897              	.LASF941:
 8898 1f30 43595F42 		.ascii	"CY_BLE_CONN_STATE_CLIENT_DISCOVERED\000"
 8898      4C455F43 
 8898      4F4E4E5F 
 8898      53544154 
 8898      455F434C 
 8899              	.LASF231:
 8900 1f54 74637077 		.ascii	"tcpwm_1_interrupts_12_IRQn\000"
 8900      6D5F315F 
 8900      696E7465 
 8900      72727570 
 8900      74735F31 
 8901              	.LASF701:
 8902 1f6f 43595F42 		.ascii	"CY_BLE_EVT_GAP_DEVICE_CONNECTED\000"
 8902      4C455F45 
 8902      56545F47 
 8902      41505F44 
 8902      45564943 
 8903              	.LASF571:
 8904 1f8f 45465553 		.ascii	"EFUSE_TIM_CTRL1\000"
 8904      455F5449 
 8904      4D5F4354 
 8904      524C3100 
 8905              	.LASF572:
 8906 1f9f 45465553 		.ascii	"EFUSE_TIM_CTRL2\000"
 8906      455F5449 
 8906      4D5F4354 
 8906      524C3200 
 8907              	.LASF573:
 8908 1faf 45465553 		.ascii	"EFUSE_TIM_CTRL3\000"
 8908      455F5449 
 8908      4D5F4354 
 8908      524C3300 
 8909              	.LASF993:
 8910 1fbf 5F426F6F 		.ascii	"_Bool\000"
 8910      6C00
 8911              	.LASF961:
 8912 1fc5 736C6F77 		.ascii	"slowScanEnabled\000"
 8912      5363616E 
 8912      456E6162 
 8912      6C656400 
 8913              	.LASF96:
 8914 1fd5 63707573 		.ascii	"cpussCm4StatusOffset\000"
 8914      73436D34 
ARM GAS  C:\Users\JC\AppData\Local\Temp\ccNOiAvA.s 			page 210


 8914      53746174 
 8914      75734F66 
 8914      66736574 
 8915              	.LASF947:
 8916 1fea 63656E74 		.ascii	"centralAddrResolutionCharHandle\000"
 8916      72616C41 
 8916      64647252 
 8916      65736F6C 
 8916      7574696F 
 8917              	.LASF145:
 8918 200a 626C6573 		.ascii	"bless_interrupt_IRQn\000"
 8918      735F696E 
 8918      74657272 
 8918      7570745F 
 8918      4952516E 
 8919              	.LASF160:
 8920 201f 63707573 		.ascii	"cpuss_interrupts_ipc_14_IRQn\000"
 8920      735F696E 
 8920      74657272 
 8920      75707473 
 8920      5F697063 
 8921              	.LASF562:
 8922 203c 4D545F44 		.ascii	"MT_DELAY_CFG\000"
 8922      454C4159 
 8922      5F434647 
 8922      00
 8923              	.LASF745:
 8924 2049 43595F42 		.ascii	"CY_BLE_EVT_GATTC_LONG_PROCEDURE_END\000"
 8924      4C455F45 
 8924      56545F47 
 8924      41545443 
 8924      5F4C4F4E 
 8925              	.LASF360:
 8926 206d 5044555F 		.ascii	"PDU_ACCESS_ADDR_L_REGISTER\000"
 8926      41434345 
 8926      53535F41 
 8926      4444525F 
 8926      4C5F5245 
 8927              	.LASF974:
 8928 2088 61747447 		.ascii	"attGenericValLen\000"
 8928      656E6572 
 8928      69635661 
 8928      6C4C656E 
 8928      00
 8929              	.LASF498:
 8930 2099 55535F43 		.ascii	"US_CAPT_STATUS\000"
 8930      4150545F 
 8930      53544154 
 8930      555300
 8931              	.LASF729:
 8932 20a8 43595F42 		.ascii	"CY_BLE_EVT_GATTC_FIND_BY_TYPE_VALUE_RSP\000"
 8932      4C455F45 
 8932      56545F47 
 8932      41545443 
 8932      5F46494E 
 8933              	.LASF942:
 8934 20d0 63795F65 		.ascii	"cy_en_ble_conn_state_t\000"
ARM GAS  C:\Users\JC\AppData\Local\Temp\ccNOiAvA.s 			page 211


 8934      6E5F626C 
 8934      655F636F 
 8934      6E6E5F73 
 8934      74617465 
 8935              	.LASF171:
 8936 20e7 63707573 		.ascii	"cpuss_interrupts_dw0_0_IRQn\000"
 8936      735F696E 
 8936      74657272 
 8936      75707473 
 8936      5F647730 
 8937              	.LASF585:
 8938 2103 4D49435F 		.ascii	"MIC_IN0\000"
 8938      494E3000 
 8939              	.LASF34:
 8940 210b 63707573 		.ascii	"cpussVersion\000"
 8940      73566572 
 8940      73696F6E 
 8940      00
 8941              	.LASF1004:
 8942 2118 67617474 		.ascii	"gattDbIndexCount\000"
 8942      4462496E 
 8942      64657843 
 8942      6F756E74 
 8942      00
 8943              	.LASF503:
 8944 2129 55535F43 		.ascii	"US_COUNTER\000"
 8944      4F554E54 
 8944      455200
 8945              	.LASF104:
 8946 2134 63707573 		.ascii	"cpussRomCtl\000"
 8946      73526F6D 
 8946      43746C00 
 8947              	.LASF186:
 8948 2140 63707573 		.ascii	"cpuss_interrupts_dw0_15_IRQn\000"
 8948      735F696E 
 8948      74657272 
 8948      75707473 
 8948      5F647730 
 8949              	.LASF218:
 8950 215d 74637077 		.ascii	"tcpwm_0_interrupts_7_IRQn\000"
 8950      6D5F305F 
 8950      696E7465 
 8950      72727570 
 8950      74735F37 
 8951              	.LASF141:
 8952 2177 73727373 		.ascii	"srss_interrupt_mcwdt_1_IRQn\000"
 8952      5F696E74 
 8952      65727275 
 8952      70745F6D 
 8952      63776474 
 8953              	.LASF203:
 8954 2193 63707573 		.ascii	"cpuss_interrupts_fault_0_IRQn\000"
 8954      735F696E 
 8954      74657272 
 8954      75707473 
 8954      5F666175 
 8955              	.LASF929:
ARM GAS  C:\Users\JC\AppData\Local\Temp\ccNOiAvA.s 			page 212


 8956 21b1 43595F42 		.ascii	"CY_BLE_ADV_STATE_STOPPED\000"
 8956      4C455F41 
 8956      44565F53 
 8956      54415445 
 8956      5F53544F 
 8957              	.LASF586:
 8958 21ca 4D49435F 		.ascii	"MIC_OUT0\000"
 8958      4F555430 
 8958      00
 8959              	.LASF813:
 8960 21d3 6C326361 		.ascii	"l2capConfig\000"
 8960      70436F6E 
 8960      66696700 
 8961              	.LASF280:
 8962 21df 52414449 		.ascii	"RADIO_REG5_ADDR\000"
 8962      4F5F5245 
 8962      47355F41 
 8962      44445200 
 8963              	.LASF52:
 8964 21ef 73727373 		.ascii	"srssNumHfroot\000"
 8964      4E756D48 
 8964      66726F6F 
 8964      7400
 8965              	.LASF309:
 8966 21fd 5343414E 		.ascii	"SCAN_INTR\000"
 8966      5F494E54 
 8966      5200
 8967              	.LASF713:
 8968 2207 43595F42 		.ascii	"CY_BLE_EVT_GAP_DEVICE_ADDR_GEN_COMPLETE\000"
 8968      4C455F45 
 8968      56545F47 
 8968      41505F44 
 8968      45564943 
 8969              	.LASF62:
 8970 222f 666C6173 		.ascii	"flashPipeRequired\000"
 8970      68506970 
 8970      65526571 
 8970      75697265 
 8970      6400
 8971              	.LASF356:
 8972 2241 434F4E4E 		.ascii	"CONN_INTERVAL\000"
 8972      5F494E54 
 8972      45525641 
 8972      4C00
 8973              	.LASF301:
 8974 224f 4144565F 		.ascii	"ADV_PARAMS\000"
 8974      50415241 
 8974      4D5300
 8975              	.LASF106:
 8976 225a 63707573 		.ascii	"cpussRam1Ctl0\000"
 8976      7352616D 
 8976      3143746C 
 8976      3000
 8977              	.LASF621:
 8978 2268 43595F53 		.ascii	"CY_SYSPM_HIBERNATE\000"
 8978      5953504D 
 8978      5F484942 
ARM GAS  C:\Users\JC\AppData\Local\Temp\ccNOiAvA.s 			page 213


 8978      45524E41 
 8978      544500
 8979              	.LASF970:
 8980 227b 61637475 		.ascii	"actualLength\000"
 8980      616C4C65 
 8980      6E677468 
 8980      00
 8981              	.LASF972:
 8982 2288 63795F73 		.ascii	"cy_stc_ble_gatts_att_gen_val_len_t\000"
 8982      74635F62 
 8982      6C655F67 
 8982      61747473 
 8982      5F617474 
 8983              	.LASF295:
 8984 22ab 52585F46 		.ascii	"RX_FIFO_RD_SILENT\000"
 8984      49464F5F 
 8984      52445F53 
 8984      494C454E 
 8984      5400
 8985              	.LASF839:
 8986 22bd 43595F42 		.ascii	"CY_BLE_LL_PWR_LVL_NEG_6_DBM\000"
 8986      4C455F4C 
 8986      4C5F5057 
 8986      525F4C56 
 8986      4C5F4E45 
 8987              	.LASF732:
 8988 22d9 43595F42 		.ascii	"CY_BLE_EVT_GATTC_READ_MULTI_RSP\000"
 8988      4C455F45 
 8988      56545F47 
 8988      41545443 
 8988      5F524541 
 8989              	.LASF504:
 8990 22f9 55535F43 		.ascii	"US_CAPT_PREV\000"
 8990      4150545F 
 8990      50524556 
 8990      00
 8991              	.LASF587:
 8992 2306 454E435F 		.ascii	"ENC_PARAMS\000"
 8992      50415241 
 8992      4D5300
 8993              	.LASF772:
 8994 2311 43595F42 		.ascii	"CY_BLE_ERROR_L2CAP_PSM_WRONG_ENCODING\000"
 8994      4C455F45 
 8994      52524F52 
 8994      5F4C3243 
 8994      41505F50 
 8995              	.LASF60:
 8996 2337 63727970 		.ascii	"cryptoMemSize\000"
 8996      746F4D65 
 8996      6D53697A 
 8996      6500
 8997              	.LASF345:
 8998 2345 54494D5F 		.ascii	"TIM_COUNTER_L\000"
 8998      434F554E 
 8998      5445525F 
 8998      4C00
 8999              	.LASF928:
ARM GAS  C:\Users\JC\AppData\Local\Temp\ccNOiAvA.s 			page 214


 9000 2353 63795F65 		.ascii	"cy_en_ble_state_t\000"
 9000      6E5F626C 
 9000      655F7374 
 9000      6174655F 
 9000      7400
 9001              	.LASF530:
 9002 2365 4D4D4D53 		.ascii	"MMMS_ADVCH_NI_VALID\000"
 9002      5F414456 
 9002      43485F4E 
 9002      495F5641 
 9002      4C494400 
 9003              	.LASF791:
 9004 2379 62644164 		.ascii	"bdAddr\000"
 9004      647200
 9005              	.LASF127:
 9006 2380 696F7373 		.ascii	"ioss_interrupts_gpio_6_IRQn\000"
 9006      5F696E74 
 9006      65727275 
 9006      7074735F 
 9006      6770696F 
 9007              	.LASF962:
 9008 239c 736C6F77 		.ascii	"slowScanInterval\000"
 9008      5363616E 
 9008      496E7465 
 9008      7276616C 
 9008      00
 9009              	.LASF65:
 9010 23ad 666C6173 		.ascii	"flashEraseDelay\000"
 9010      68457261 
 9010      73654465 
 9010      6C617900 
 9011              	.LASF475:
 9012 23bd 574C5F43 		.ascii	"WL_CONNECTION_STATUS\000"
 9012      4F4E4E45 
 9012      4354494F 
 9012      4E5F5354 
 9012      41545553 
 9013              	.LASF613:
 9014 23d2 43595F53 		.ascii	"CY_SYSPM_INVALID_STATE\000"
 9014      5953504D 
 9014      5F494E56 
 9014      414C4944 
 9014      5F535441 
 9015              	.LASF575:
 9016 23e9 45465553 		.ascii	"EFUSE_RDATA_H\000"
 9016      455F5244 
 9016      4154415F 
 9016      4800
 9017              	.LASF436:
 9018 23f7 434F4E4E 		.ascii	"CONN_UPDATE_NEW_SL_INTERVAL\000"
 9018      5F555044 
 9018      4154455F 
 9018      4E45575F 
 9018      534C5F49 
 9019              	.LASF825:
 9020 2413 6D656D6F 		.ascii	"memoryHeapPtr\000"
 9020      72794865 
ARM GAS  C:\Users\JC\AppData\Local\Temp\ccNOiAvA.s 			page 215


 9020      61705074 
 9020      7200
 9021              	.LASF574:
 9022 2421 45465553 		.ascii	"EFUSE_RDATA_L\000"
 9022      455F5244 
 9022      4154415F 
 9022      4C00
 9023              	.LASF4:
 9024 242f 5F5F696E 		.ascii	"__int8_t\000"
 9024      74385F74 
 9024      00
 9025              	.LASF720:
 9026 2438 43595F42 		.ascii	"CY_BLE_EVT_GAP_ADV_TX\000"
 9026      4C455F45 
 9026      56545F47 
 9026      41505F41 
 9026      44565F54 
 9027              	.LASF913:
 9028 244e 61647646 		.ascii	"advFilterPolicy\000"
 9028      696C7465 
 9028      72506F6C 
 9028      69637900 
 9029              	.LASF977:
 9030 245e 61747456 		.ascii	"attValueUuid\000"
 9030      616C7565 
 9030      55756964 
 9030      00
 9031              	.LASF857:
 9032 246b 62644861 		.ascii	"bdHandle\000"
 9032      6E646C65 
 9032      00
 9033              	.LASF116:
 9034 2474 55736167 		.ascii	"UsageFault_IRQn\000"
 9034      65466175 
 9034      6C745F49 
 9034      52516E00 
 9035              	.LASF378:
 9036 2484 44544D5F 		.ascii	"DTM_RX_PKT_COUNT\000"
 9036      52585F50 
 9036      4B545F43 
 9036      4F554E54 
 9036      00
 9037              	.LASF157:
 9038 2495 63707573 		.ascii	"cpuss_interrupts_ipc_11_IRQn\000"
 9038      735F696E 
 9038      74657272 
 9038      75707473 
 9038      5F697063 
 9039              	.LASF227:
 9040 24b2 74637077 		.ascii	"tcpwm_1_interrupts_8_IRQn\000"
 9040      6D5F315F 
 9040      696E7465 
 9040      72727570 
 9040      74735F38 
 9041              	.LASF949:
 9042 24cc 63795F73 		.ascii	"cy_stc_ble_gaps_t\000"
 9042      74635F62 
ARM GAS  C:\Users\JC\AppData\Local\Temp\ccNOiAvA.s 			page 216


 9042      6C655F67 
 9042      6170735F 
 9042      7400
 9043              	.LASF118:
 9044 24de 44656275 		.ascii	"DebugMonitor_IRQn\000"
 9044      674D6F6E 
 9044      69746F72 
 9044      5F495251 
 9044      6E00
 9045              	.LASF612:
 9046 24f0 43595F53 		.ascii	"CY_SYSPM_TIMEOUT\000"
 9046      5953504D 
 9046      5F54494D 
 9046      454F5554 
 9046      00
 9047              	.LASF1043:
 9048 2501 43795F42 		.ascii	"Cy_BLE_UnregisterHostPMCallbacks\000"
 9048      4C455F55 
 9048      6E726567 
 9048      69737465 
 9048      72486F73 
 9049              	.LASF957:
 9050 2522 63795F73 		.ascii	"cy_stc_ble_gapp_adv_params_t\000"
 9050      74635F62 
 9050      6C655F67 
 9050      6170705F 
 9050      6164765F 
 9051              	.LASF1053:
 9052 253f 626C6544 		.ascii	"bleDeepSleepCallback\000"
 9052      65657053 
 9052      6C656570 
 9052      43616C6C 
 9052      6261636B 
 9053              	.LASF986:
 9054 2554 67617474 		.ascii	"gattDbTotalEntries\000"
 9054      4462546F 
 9054      74616C45 
 9054      6E747269 
 9054      657300
 9055              	.LASF452:
 9056 2567 4E455854 		.ascii	"NEXT_RESP_TIMER_EXP\000"
 9056      5F524553 
 9056      505F5449 
 9056      4D45525F 
 9056      45585000 
 9057              	.LASF849:
 9058 257b 43595F42 		.ascii	"CY_BLE_BLESS_STATE_ECO_ON\000"
 9058      4C455F42 
 9058      4C455353 
 9058      5F535441 
 9058      54455F45 
 9059              	.LASF100:
 9060 2595 63707573 		.ascii	"cpussTrimRomCtlOffset\000"
 9060      73547269 
 9060      6D526F6D 
 9060      43746C4F 
 9060      66667365 
ARM GAS  C:\Users\JC\AppData\Local\Temp\ccNOiAvA.s 			page 217


 9061              	.LASF1009:
 9062 25ab 67617063 		.ascii	"gapcScanParams\000"
 9062      5363616E 
 9062      50617261 
 9062      6D7300
 9063              	.LASF644:
 9064 25ba 43595F42 		.ascii	"CY_BLE_EVT_STACK_BUSY_STATUS\000"
 9064      4C455F45 
 9064      56545F53 
 9064      5441434B 
 9064      5F425553 
 9065              	.LASF650:
 9066 25d7 43595F42 		.ascii	"CY_BLE_EVT_READ_AUTH_PAYLOAD_TO_COMPLETE\000"
 9066      4C455F45 
 9066      56545F52 
 9066      4541445F 
 9066      41555448 
 9067              	.LASF665:
 9068 2600 43595F42 		.ascii	"CY_BLE_EVT_ADD_DEVICE_TO_WHITE_LIST_COMPLETE\000"
 9068      4C455F45 
 9068      56545F41 
 9068      44445F44 
 9068      45564943 
 9069              	.LASF640:
 9070 262d 63795F73 		.ascii	"cy_stc_syspm_callback_t\000"
 9070      74635F73 
 9070      7973706D 
 9070      5F63616C 
 9070      6C626163 
 9071              	.LASF969:
 9072 2645 63795F73 		.ascii	"cy_stc_ble_gapc_scan_params_t\000"
 9072      74635F62 
 9072      6C655F67 
 9072      6170635F 
 9072      7363616E 
 9073              	.LASF780:
 9074 2663 43595F42 		.ascii	"CY_BLE_ERROR_MIC_AUTH_FAILED\000"
 9074      4C455F45 
 9074      52524F52 
 9074      5F4D4943 
 9074      5F415554 
 9075              	.LASF183:
 9076 2680 63707573 		.ascii	"cpuss_interrupts_dw0_12_IRQn\000"
 9076      735F696E 
 9076      74657272 
 9076      75707473 
 9076      5F647730 
 9077              	.LASF501:
 9078 269d 4541524C 		.ascii	"EARLY_INTR_STATUS\000"
 9078      595F494E 
 9078      54525F53 
 9078      54415455 
 9078      5300
 9079              	.LASF1071:
 9080 26af 47656E65 		.ascii	"Generated_Source\\PSoC6\\pdl\\middleware\\ble\\cy_b"
 9080      72617465 
 9080      645F536F 
ARM GAS  C:\Users\JC\AppData\Local\Temp\ccNOiAvA.s 			page 218


 9080      75726365 
 9080      5C50536F 
 9081 26dd 6C652E63 		.ascii	"le.c\000"
 9081      00
 9082              	.LASF215:
 9083 26e2 74637077 		.ascii	"tcpwm_0_interrupts_4_IRQn\000"
 9083      6D5F305F 
 9083      696E7465 
 9083      72727570 
 9083      74735F34 
 9084              	.LASF659:
 9085 26fc 43595F42 		.ascii	"CY_BLE_EVT_GET_LOCAL_RPA_COMPLETE\000"
 9085      4C455F45 
 9085      56545F47 
 9085      45545F4C 
 9085      4F43414C 
 9086              	.LASF727:
 9087 271e 43595F42 		.ascii	"CY_BLE_EVT_GATTC_READ_BY_TYPE_RSP\000"
 9087      4C455F45 
 9087      56545F47 
 9087      41545443 
 9087      5F524541 
 9088              	.LASF424:
 9089 2740 494E4954 		.ascii	"INIT_WINDOW_TIMER_CTRL\000"
 9089      5F57494E 
 9089      444F575F 
 9089      54494D45 
 9089      525F4354 
 9090              	.LASF1048:
 9091 2757 696E7465 		.ascii	"interruptState\000"
 9091      72727570 
 9091      74537461 
 9091      746500
 9092              	.LASF748:
 9093 2766 43595F42 		.ascii	"CY_BLE_EVT_L2CAP_COMMAND_REJ\000"
 9093      4C455F45 
 9093      56545F4C 
 9093      32434150 
 9093      5F434F4D 
 9094              	.LASF812:
 9095 2783 646C6543 		.ascii	"dleConfig\000"
 9095      6F6E6669 
 9095      6700
 9096              	.LASF275:
 9097 278d 494E5452 		.ascii	"INTR_MASKED\000"
 9097      5F4D4153 
 9097      4B454400 
 9098              	.LASF416:
 9099 2799 4C4C5F44 		.ascii	"LL_DBG_10\000"
 9099      42475F31 
 9099      3000
 9100              	.LASF273:
 9101 27a3 494E5452 		.ascii	"INTR_SET\000"
 9101      5F534554 
 9101      00
 9102              	.LASF170:
 9103 27ac 6373645F 		.ascii	"csd_interrupt_IRQn\000"
ARM GAS  C:\Users\JC\AppData\Local\Temp\ccNOiAvA.s 			page 219


 9103      696E7465 
 9103      72727570 
 9103      745F4952 
 9103      516E00
 9104              	.LASF250:
 9105 27bf 7564625F 		.ascii	"udb_interrupts_7_IRQn\000"
 9105      696E7465 
 9105      72727570 
 9105      74735F37 
 9105      5F495251 
 9106              	.LASF985:
 9107 27d5 67617474 		.ascii	"gattDbPtr\000"
 9107      44625074 
 9107      7200
 9108              	.LASF76:
 9109 27df 64775374 		.ascii	"dwStatusChIdxMsk\000"
 9109      61747573 
 9109      43684964 
 9109      784D736B 
 9109      00
 9110              	.LASF896:
 9111 27f0 6F776E41 		.ascii	"ownAddrType\000"
 9111      64647254 
 9111      79706500 
 9112              	.LASF138:
 9113 27fc 6C70636F 		.ascii	"lpcomp_interrupt_IRQn\000"
 9113      6D705F69 
 9113      6E746572 
 9113      72757074 
 9113      5F495251 
 9114              	.LASF887:
 9115 2812 626F6E64 		.ascii	"bonding\000"
 9115      696E6700 
 9116              	.LASF730:
 9117 281a 43595F42 		.ascii	"CY_BLE_EVT_GATTC_READ_RSP\000"
 9117      4C455F45 
 9117      56545F47 
 9117      41545443 
 9117      5F524541 
 9118              	.LASF999:
 9119 2834 7478506F 		.ascii	"txPowerLevelAdv\000"
 9119      7765724C 
 9119      6576656C 
 9119      41647600 
 9120              	.LASF519:
 9121 2844 434F4E4E 		.ascii	"CONN_2_CE_DATA_LIST_CFG\000"
 9121      5F325F43 
 9121      455F4441 
 9121      54415F4C 
 9121      4953545F 
 9122              	.LASF670:
 9123 285c 43595F42 		.ascii	"CY_BLE_EVT_PHY_UPDATE_COMPLETE\000"
 9123      4C455F45 
 9123      56545F50 
 9123      48595F55 
 9123      50444154 
 9124              	.LASF918:
ARM GAS  C:\Users\JC\AppData\Local\Temp\ccNOiAvA.s 			page 220


 9125 287b 7363616E 		.ascii	"scanRspData\000"
 9125      52737044 
 9125      61746100 
 9126              	.LASF196:
 9127 2887 63707573 		.ascii	"cpuss_interrupts_dw1_9_IRQn\000"
 9127      735F696E 
 9127      74657272 
 9127      75707473 
 9127      5F647731 
 9128              	.LASF453:
 9129 28a3 4E455854 		.ascii	"NEXT_SUP_TO\000"
 9129      5F535550 
 9129      5F544F00 
 9130              	.LASF842:
 9131 28af 63795F65 		.ascii	"cy_en_ble_bless_pwr_lvl_t\000"
 9131      6E5F626C 
 9131      655F626C 
 9131      6573735F 
 9131      7077725F 
 9132              	.LASF10:
 9133 28c9 73686F72 		.ascii	"short unsigned int\000"
 9133      7420756E 
 9133      7369676E 
 9133      65642069 
 9133      6E7400
 9134              	.LASF546:
 9135 28dc 52534C56 		.ascii	"RSLV_LIST_PEER_RPA_BASE_ADDR\000"
 9135      5F4C4953 
 9135      545F5045 
 9135      45525F52 
 9135      50415F42 
 9136              	.LASF667:
 9137 28f9 43595F42 		.ascii	"CY_BLE_EVT_GET_PHY_COMPLETE\000"
 9137      4C455F45 
 9137      56545F47 
 9137      45545F50 
 9137      48595F43 
 9138              	.LASF781:
 9139 2915 43595F42 		.ascii	"CY_BLE_ERROR_HARDWARE_FAILURE\000"
 9139      4C455F45 
 9139      52524F52 
 9139      5F484152 
 9139      44574152 
 9140              	.LASF671:
 9141 2933 43595F42 		.ascii	"CY_BLE_EVT_SET_PRIVACY_MODE_COMPLETE\000"
 9141      4C455F45 
 9141      56545F53 
 9141      45545F50 
 9141      52495641 
 9142              	.LASF281:
 9143 2958 52455345 		.ascii	"RESERVED1\000"
 9143      52564544 
 9143      3100
 9144              	.LASF284:
 9145 2962 52455345 		.ascii	"RESERVED2\000"
 9145      52564544 
 9145      3200
ARM GAS  C:\Users\JC\AppData\Local\Temp\ccNOiAvA.s 			page 221


 9146              	.LASF308:
 9147 296c 52455345 		.ascii	"RESERVED3\000"
 9147      52564544 
 9147      3300
 9148              	.LASF314:
 9149 2976 52455345 		.ascii	"RESERVED4\000"
 9149      52564544 
 9149      3400
 9150              	.LASF320:
 9151 2980 52455345 		.ascii	"RESERVED5\000"
 9151      52564544 
 9151      3500
 9152              	.LASF324:
 9153 298a 52455345 		.ascii	"RESERVED6\000"
 9153      52564544 
 9153      3600
 9154              	.LASF332:
 9155 2994 52455345 		.ascii	"RESERVED7\000"
 9155      52564544 
 9155      3700
 9156              	.LASF336:
 9157 299e 52455345 		.ascii	"RESERVED8\000"
 9157      52564544 
 9157      3800
 9158              	.LASF340:
 9159 29a8 52455345 		.ascii	"RESERVED9\000"
 9159      52564544 
 9159      3900
 9160              	.LASF7:
 9161 29b2 5F5F696E 		.ascii	"__int16_t\000"
 9161      7431365F 
 9161      7400
 9162              	.LASF760:
 9163 29bc 43595F42 		.ascii	"CY_BLE_INFO_FLASH_WRITE_IN_PROGRESS\000"
 9163      4C455F49 
 9163      4E464F5F 
 9163      464C4153 
 9163      485F5752 
 9164              	.LASF1072:
 9165 29e0 443A5C74 		.ascii	"D:\\thesis\\VDAC_Saw_Export.cydsn\000"
 9165      68657369 
 9165      735C5644 
 9165      41435F53 
 9165      61775F45 
 9166              	.LASF201:
 9167 2a00 63707573 		.ascii	"cpuss_interrupts_dw1_14_IRQn\000"
 9167      735F696E 
 9167      74657272 
 9167      75707473 
 9167      5F647731 
 9168              	.LASF817:
 9169 2a1d 70614361 		.ascii	"paCalConfig\000"
 9169      6C436F6E 
 9169      66696700 
 9170              	.LASF566:
 9171 2a29 4D545F53 		.ascii	"MT_STATUS\000"
 9171      54415455 
ARM GAS  C:\Users\JC\AppData\Local\Temp\ccNOiAvA.s 			page 222


 9171      5300
 9172              	.LASF558:
 9173 2a33 4558545F 		.ascii	"EXT_PA_LNA_CTRL\000"
 9173      50415F4C 
 9173      4E415F43 
 9173      54524C00 
 9174              	.LASF154:
 9175 2a43 63707573 		.ascii	"cpuss_interrupts_ipc_8_IRQn\000"
 9175      735F696E 
 9175      74657272 
 9175      75707473 
 9175      5F697063 
 9176              	.LASF124:
 9177 2a5f 696F7373 		.ascii	"ioss_interrupts_gpio_3_IRQn\000"
 9177      5F696E74 
 9177      65727275 
 9177      7074735F 
 9177      6770696F 
 9178              	.LASF862:
 9179 2a7b 43595F42 		.ascii	"CY_BLE_GAP_IOCAP_DISPLAY_YESNO\000"
 9179      4C455F47 
 9179      41505F49 
 9179      4F434150 
 9179      5F444953 
 9180              	.LASF454:
 9181 2a9a 4C4C485F 		.ascii	"LLH_FEATURE_CONFIG\000"
 9181      46454154 
 9181      5552455F 
 9181      434F4E46 
 9181      494700
 9182              	.LASF603:
 9183 2aad 424C455F 		.ascii	"BLE_V1_Type\000"
 9183      56315F54 
 9183      79706500 
 9184              	.LASF115:
 9185 2ab9 42757346 		.ascii	"BusFault_IRQn\000"
 9185      61756C74 
 9185      5F495251 
 9185      6E00
 9186              	.LASF988:
 9187 2ac7 63795F73 		.ascii	"cy_stc_ble_gatts_db_info_t\000"
 9187      74635F62 
 9187      6C655F67 
 9187      61747473 
 9187      5F64625F 
 9188              	.LASF979:
 9189 2ae2 61747448 		.ascii	"attHandle\000"
 9189      616E646C 
 9189      6500
 9190              	.LASF639:
 9191 2aec 6E657874 		.ascii	"nextItm\000"
 9191      49746D00 
 9192              	.LASF787:
 9193 2af4 43595F42 		.ascii	"CY_BLE_ERROR_INVALID_STATE\000"
 9193      4C455F45 
 9193      52524F52 
 9193      5F494E56 
ARM GAS  C:\Users\JC\AppData\Local\Temp\ccNOiAvA.s 			page 223


 9193      414C4944 
 9194              	.LASF816:
 9195 2b0f 77686974 		.ascii	"whiteListConfig\000"
 9195      654C6973 
 9195      74436F6E 
 9195      66696700 
 9196              	.LASF630:
 9197 2b1f 62617365 		.ascii	"base\000"
 9197      00
 9198              	.LASF567:
 9199 2b24 5057525F 		.ascii	"PWR_CTRL_SM_ST\000"
 9199      4354524C 
 9199      5F534D5F 
 9199      535400
 9200              	.LASF55:
 9201 2b33 70617373 		.ascii	"passSarChannels\000"
 9201      53617243 
 9201      68616E6E 
 9201      656C7300 
 9202              	.LASF19:
 9203 2b43 75696E74 		.ascii	"uint8_t\000"
 9203      385F7400 
 9204              	.LASF224:
 9205 2b4b 74637077 		.ascii	"tcpwm_1_interrupts_5_IRQn\000"
 9205      6D5F315F 
 9205      696E7465 
 9205      72727570 
 9205      74735F35 
 9206              	.LASF737:
 9207 2b65 43595F42 		.ascii	"CY_BLE_EVT_GATTS_EXEC_WRITE_REQ\000"
 9207      4C455F45 
 9207      56545F47 
 9207      41545453 
 9207      5F455845 
 9208              	.LASF293:
 9209 2b85 52585F46 		.ascii	"RX_FIFO_STATUS\000"
 9209      49464F5F 
 9209      53544154 
 9209      555300
 9210              	.LASF379:
 9211 2b94 4C455F52 		.ascii	"LE_RF_TEST_MODE_EXT\000"
 9211      465F5445 
 9211      53545F4D 
 9211      4F44455F 
 9211      45585400 
 9212              	.LASF346:
 9213 2ba8 57414B45 		.ascii	"WAKEUP_CONFIG_EXTD\000"
 9213      55505F43 
 9213      4F4E4649 
 9213      475F4558 
 9213      544400
 9214              	.LASF142:
 9215 2bbb 73727373 		.ascii	"srss_interrupt_backup_IRQn\000"
 9215      5F696E74 
 9215      65727275 
 9215      70745F62 
 9215      61636B75 
ARM GAS  C:\Users\JC\AppData\Local\Temp\ccNOiAvA.s 			page 224


 9216              	.LASF134:
 9217 2bd6 696F7373 		.ascii	"ioss_interrupts_gpio_13_IRQn\000"
 9217      5F696E74 
 9217      65727275 
 9217      7074735F 
 9217      6770696F 
 9218              	.LASF694:
 9219 2bf3 43595F42 		.ascii	"CY_BLE_EVT_GAPC_SCAN_PROGRESS_RESULT\000"
 9219      4C455F45 
 9219      56545F47 
 9219      4150435F 
 9219      5343414E 
 9220              	.LASF687:
 9221 2c18 43595F42 		.ascii	"CY_BLE_EVT_RADIO_TEMPERATURE\000"
 9221      4C455F45 
 9221      56545F52 
 9221      4144494F 
 9221      5F54454D 
 9222              	.LASF260:
 9223 2c35 61756469 		.ascii	"audioss_interrupt_i2s_IRQn\000"
 9223      6F73735F 
 9223      696E7465 
 9223      72727570 
 9223      745F6932 
 9224              	.LASF312:
 9225 2c50 494E4954 		.ascii	"INIT_WINDOW\000"
 9225      5F57494E 
 9225      444F5700 
 9226              	.LASF1036:
 9227 2c5c 63795F62 		.ascii	"cy_ble_stackDataBuff\000"
 9227      6C655F73 
 9227      7461636B 
 9227      44617461 
 9227      42756666 
 9228              	.LASF890:
 9229 2c71 70616972 		.ascii	"pairingProperties\000"
 9229      696E6750 
 9229      726F7065 
 9229      72746965 
 9229      7300
 9230              	.LASF1013:
 9231 2c83 61747456 		.ascii	"attValuesCCCD\000"
 9231      616C7565 
 9231      73434343 
 9231      4400
 9232              	.LASF926:
 9233 2c91 43595F42 		.ascii	"CY_BLE_STATE_INITIALIZING\000"
 9233      4C455F53 
 9233      54415445 
 9233      5F494E49 
 9233      5449414C 
 9234              	.LASF669:
 9235 2cab 43595F42 		.ascii	"CY_BLE_EVT_SET_PHY_COMPLETE\000"
 9235      4C455F45 
 9235      56545F53 
 9235      45545F50 
 9235      48595F43 
ARM GAS  C:\Users\JC\AppData\Local\Temp\ccNOiAvA.s 			page 225


 9236              	.LASF605:
 9237 2cc7 666C6F61 		.ascii	"float\000"
 9237      7400
 9238              	.LASF934:
 9239 2ccd 43595F42 		.ascii	"CY_BLE_CONN_STATE_DISCONNECTED\000"
 9239      4C455F43 
 9239      4F4E4E5F 
 9239      53544154 
 9239      455F4449 
 9240              	.LASF717:
 9241 2cec 43595F42 		.ascii	"CY_BLE_EVT_GAP_CREATE_CONN_CANCEL_COMPLETE\000"
 9241      4C455F45 
 9241      56545F47 
 9241      41505F43 
 9241      52454154 
 9242              	.LASF31:
 9243 2d17 70617373 		.ascii	"passBase\000"
 9243      42617365 
 9243      00
 9244              	.LASF1050:
 9245 2d20 736C6565 		.ascii	"sleepMode\000"
 9245      704D6F64 
 9245      6500
 9246              	.LASF883:
 9247 2d2a 43595F42 		.ascii	"CY_BLE_GAP_AUTH_ERROR_LINK_DISCONNECTED\000"
 9247      4C455F47 
 9247      41505F41 
 9247      5554485F 
 9247      4552524F 
 9248              	.LASF6:
 9249 2d52 756E7369 		.ascii	"unsigned char\000"
 9249      676E6564 
 9249      20636861 
 9249      7200
 9250              	.LASF607:
 9251 2d60 696E7472 		.ascii	"intrSrc\000"
 9251      53726300 
 9252              	.LASF538:
 9253 2d68 4D4D4D53 		.ascii	"MMMS_RX_PKT_CNTR\000"
 9253      5F52585F 
 9253      504B545F 
 9253      434E5452 
 9253      00
 9254              	.LASF1010:
 9255 2d79 666C6173 		.ascii	"flashStorage\000"
 9255      6853746F 
 9255      72616765 
 9255      00
 9256              	.LASF277:
 9257 2d86 52414449 		.ascii	"RADIO_REG2_ADDR\000"
 9257      4F5F5245 
 9257      47325F41 
 9257      44445200 
 9258              	.LASF814:
 9259 2d96 70726976 		.ascii	"privacyConfig\000"
 9259      61637943 
 9259      6F6E6669 
ARM GAS  C:\Users\JC\AppData\Local\Temp\ccNOiAvA.s 			page 226


 9259      6700
 9260              	.LASF721:
 9261 2da4 43595F42 		.ascii	"CY_BLE_EVT_GATTC_ERROR_RSP\000"
 9261      4C455F45 
 9261      56545F47 
 9261      41545443 
 9261      5F455252 
 9262              	.LASF841:
 9263 2dbf 43595F42 		.ascii	"CY_BLE_LL_PWR_LVL_MAX\000"
 9263      4C455F4C 
 9263      4C5F5057 
 9263      525F4C56 
 9263      4C5F4D41 
 9264              	.LASF777:
 9265 2dd5 43595F42 		.ascii	"CY_BLE_ERROR_UNSUPPORTED_FEATURE_OR_PARAMETER_VALUE"
 9265      4C455F45 
 9265      52524F52 
 9265      5F554E53 
 9265      5550504F 
 9266 2e08 00       		.ascii	"\000"
 9267              	.LASF212:
 9268 2e09 74637077 		.ascii	"tcpwm_0_interrupts_1_IRQn\000"
 9268      6D5F305F 
 9268      696E7465 
 9268      72727570 
 9268      74735F31 
 9269              	.LASF693:
 9270 2e23 43595F42 		.ascii	"CY_BLE_EVT_HCI_PKT_RCVD\000"
 9270      4C455F45 
 9270      56545F48 
 9270      43495F50 
 9270      4B545F52 
 9271              	.LASF846:
 9272 2e3b 63795F65 		.ascii	"cy_en_ble_lp_mode_t\000"
 9272      6E5F626C 
 9272      655F6C70 
 9272      5F6D6F64 
 9272      655F7400 
 9273              	.LASF407:
 9274 2e4f 4C4C5F44 		.ascii	"LL_DBG_1\000"
 9274      42475F31 
 9274      00
 9275              	.LASF408:
 9276 2e58 4C4C5F44 		.ascii	"LL_DBG_2\000"
 9276      42475F32 
 9276      00
 9277              	.LASF409:
 9278 2e61 4C4C5F44 		.ascii	"LL_DBG_3\000"
 9278      42475F33 
 9278      00
 9279              	.LASF410:
 9280 2e6a 4C4C5F44 		.ascii	"LL_DBG_4\000"
 9280      42475F34 
 9280      00
 9281              	.LASF411:
 9282 2e73 4C4C5F44 		.ascii	"LL_DBG_5\000"
 9282      42475F35 
ARM GAS  C:\Users\JC\AppData\Local\Temp\ccNOiAvA.s 			page 227


 9282      00
 9283              	.LASF412:
 9284 2e7c 4C4C5F44 		.ascii	"LL_DBG_6\000"
 9284      42475F36 
 9284      00
 9285              	.LASF413:
 9286 2e85 4C4C5F44 		.ascii	"LL_DBG_7\000"
 9286      42475F37 
 9286      00
 9287              	.LASF414:
 9288 2e8e 4C4C5F44 		.ascii	"LL_DBG_8\000"
 9288      42475F38 
 9288      00
 9289              	.LASF415:
 9290 2e97 4C4C5F44 		.ascii	"LL_DBG_9\000"
 9290      42475F39 
 9290      00
 9291              	.LASF711:
 9292 2ea0 43595F42 		.ascii	"CY_BLE_EVT_GAPC_DIRECT_ADV_REPORT\000"
 9292      4C455F45 
 9292      56545F47 
 9292      4150435F 
 9292      44495245 
 9293              	.LASF784:
 9294 2ec2 43595F42 		.ascii	"CY_BLE_ERROR_IND_DISABLED\000"
 9294      4C455F45 
 9294      52524F52 
 9294      5F494E44 
 9294      5F444953 
 9295              	.LASF458:
 9296 2edc 4C455F50 		.ascii	"LE_PING_TIMER_ADDR\000"
 9296      494E475F 
 9296      54494D45 
 9296      525F4144 
 9296      445200
 9297              	.LASF889:
 9298 2eef 61757468 		.ascii	"authErr\000"
 9298      45727200 
 9299              	.LASF163:
 9300 2ef7 7363625F 		.ascii	"scb_1_interrupt_IRQn\000"
 9300      315F696E 
 9300      74657272 
 9300      7570745F 
 9300      4952516E 
 9301              	.LASF247:
 9302 2f0c 7564625F 		.ascii	"udb_interrupts_4_IRQn\000"
 9302      696E7465 
 9302      72727570 
 9302      74735F34 
 9302      5F495251 
 9303              	.LASF744:
 9304 2f22 43595F42 		.ascii	"CY_BLE_EVT_GATTS_READ_CHAR_VAL_ACCESS_REQ\000"
 9304      4C455F45 
 9304      56545F47 
 9304      41545453 
 9304      5F524541 
 9305              	.LASF623:
ARM GAS  C:\Users\JC\AppData\Local\Temp\ccNOiAvA.s 			page 228


 9306 2f4c 43595F53 		.ascii	"CY_SYSPM_ULP\000"
 9306      5953504D 
 9306      5F554C50 
 9306      00
 9307              	.LASF61:
 9308 2f59 666C6173 		.ascii	"flashRwwRequired\000"
 9308      68527777 
 9308      52657175 
 9308      69726564 
 9308      00
 9309              	.LASF193:
 9310 2f6a 63707573 		.ascii	"cpuss_interrupts_dw1_6_IRQn\000"
 9310      735F696E 
 9310      74657272 
 9310      75707473 
 9310      5F647731 
 9311              	.LASF500:
 9312 2f86 41434355 		.ascii	"ACCU_WINDOW_WIDEN_STATUS\000"
 9312      5F57494E 
 9312      444F575F 
 9312      57494445 
 9312      4E5F5354 
 9313              	.LASF960:
 9314 2f9f 66617374 		.ascii	"fastScanTimeOut\000"
 9314      5363616E 
 9314      54696D65 
 9314      4F757400 
 9315              	.LASF165:
 9316 2faf 7363625F 		.ascii	"scb_3_interrupt_IRQn\000"
 9316      335F696E 
 9316      74657272 
 9316      7570745F 
 9316      4952516E 
 9317              	.LASF494:
 9318 2fc4 434F4E4E 		.ascii	"CONN_NI_STATUS\000"
 9318      5F4E495F 
 9318      53544154 
 9318      555300
 9319              	.LASF306:
 9320 2fd3 5343414E 		.ascii	"SCAN_WINDOW\000"
 9320      5F57494E 
 9320      444F5700 
 9321              	.LASF865:
 9322 2fdf 43595F42 		.ascii	"CY_BLE_GAP_IOCAP_KEYBOARD_DISPLAY\000"
 9322      4C455F47 
 9322      41505F49 
 9322      4F434150 
 9322      5F4B4559 
 9323              	.LASF770:
 9324 3001 43595F42 		.ascii	"CY_BLE_ERROR_GAP_ROLE\000"
 9324      4C455F45 
 9324      52524F52 
 9324      5F474150 
 9324      5F524F4C 
 9325              	.LASF425:
 9326 3017 434F4E4E 		.ascii	"CONN_CONFIG_EXT\000"
 9326      5F434F4E 
ARM GAS  C:\Users\JC\AppData\Local\Temp\ccNOiAvA.s 			page 229


 9326      4649475F 
 9326      45585400 
 9327              	.LASF529:
 9328 3027 4D4D4D53 		.ascii	"MMMS_ADVCH_NI_ENABLE\000"
 9328      5F414456 
 9328      43485F4E 
 9328      495F454E 
 9328      41424C45 
 9329              	.LASF315:
 9330 303c 494E4954 		.ascii	"INIT_INTR\000"
 9330      5F494E54 
 9330      5200
 9331              	.LASF833:
 9332 3046 6D656D50 		.ascii	"memParam\000"
 9332      6172616D 
 9332      00
 9333              	.LASF432:
 9334 304f 52455345 		.ascii	"RESERVED28\000"
 9334      52564544 
 9334      323800
 9335              	.LASF167:
 9336 305a 7363625F 		.ascii	"scb_5_interrupt_IRQn\000"
 9336      355F696E 
 9336      74657272 
 9336      7570745F 
 9336      4952516E 
 9337              	.LASF136:
 9338 306f 696F7373 		.ascii	"ioss_interrupt_gpio_IRQn\000"
 9338      5F696E74 
 9338      65727275 
 9338      70745F67 
 9338      70696F5F 
 9339              	.LASF714:
 9340 3088 43595F42 		.ascii	"CY_BLE_EVT_GAP_KEYS_GEN_COMPLETE\000"
 9340      4C455F45 
 9340      56545F47 
 9340      41505F4B 
 9340      4559535F 
 9341              	.LASF238:
 9342 30a9 74637077 		.ascii	"tcpwm_1_interrupts_19_IRQn\000"
 9342      6D5F315F 
 9342      696E7465 
 9342      72727570 
 9342      74735F31 
 9343              	.LASF198:
 9344 30c4 63707573 		.ascii	"cpuss_interrupts_dw1_11_IRQn\000"
 9344      735F696E 
 9344      74657272 
 9344      75707473 
 9344      5F647731 
 9345              	.LASF550:
 9346 30e1 52534C56 		.ascii	"RSLV_LIST_TX_INIT_RPA_BASE_ADDR\000"
 9346      5F4C4953 
 9346      545F5458 
 9346      5F494E49 
 9346      545F5250 
 9347              	.LASF169:
ARM GAS  C:\Users\JC\AppData\Local\Temp\ccNOiAvA.s 			page 230


 9348 3101 7363625F 		.ascii	"scb_7_interrupt_IRQn\000"
 9348      375F696E 
 9348      74657272 
 9348      7570745F 
 9348      4952516E 
 9349              	.LASF738:
 9350 3116 43595F42 		.ascii	"CY_BLE_EVT_GATTC_EXEC_WRITE_RSP\000"
 9350      4C455F45 
 9350      56545F47 
 9350      41545443 
 9350      5F455845 
 9351              	.LASF151:
 9352 3136 63707573 		.ascii	"cpuss_interrupts_ipc_5_IRQn\000"
 9352      735F696E 
 9352      74657272 
 9352      75707473 
 9352      5F697063 
 9353              	.LASF121:
 9354 3152 696F7373 		.ascii	"ioss_interrupts_gpio_0_IRQn\000"
 9354      5F696E74 
 9354      65727275 
 9354      7074735F 
 9354      6770696F 
 9355              	.LASF1067:
 9356 316e 63795F62 		.ascii	"cy_ble_busyStatus\000"
 9356      6C655F62 
 9356      75737953 
 9356      74617475 
 9356      7300
 9357              	.LASF731:
 9358 3180 43595F42 		.ascii	"CY_BLE_EVT_GATTC_READ_BLOB_RSP\000"
 9358      4C455F45 
 9358      56545F47 
 9358      41545443 
 9358      5F524541 
 9359              	.LASF635:
 9360 319f 74797065 		.ascii	"type\000"
 9360      00
 9361              	.LASF854:
 9362 31a4 63795F65 		.ascii	"cy_en_ble_bless_state_t\000"
 9362      6E5F626C 
 9362      655F626C 
 9362      6573735F 
 9362      73746174 
 9363              	.LASF634:
 9364 31bc 63616C6C 		.ascii	"callback\000"
 9364      6261636B 
 9364      00
 9365              	.LASF920:
 9366 31c5 63795F73 		.ascii	"cy_stc_ble_gapp_scan_rsp_data_t\000"
 9366      74635F62 
 9366      6C655F67 
 9366      6170705F 
 9366      7363616E 
 9367              	.LASF113:
 9368 31e5 48617264 		.ascii	"HardFault_IRQn\000"
 9368      4661756C 
ARM GAS  C:\Users\JC\AppData\Local\Temp\ccNOiAvA.s 			page 231


 9368      745F4952 
 9368      516E00
 9369              	.LASF845:
 9370 31f4 43595F42 		.ascii	"CY_BLE_BLESS_INVALID\000"
 9370      4C455F42 
 9370      4C455353 
 9370      5F494E56 
 9370      414C4944 
 9371              	.LASF95:
 9372 3209 63707573 		.ascii	"cpussCm4ClockCtlOffset\000"
 9372      73436D34 
 9372      436C6F63 
 9372      6B43746C 
 9372      4F666673 
 9373              	.LASF74:
 9374 3220 64774368 		.ascii	"dwChCtlPreemptablePos\000"
 9374      43746C50 
 9374      7265656D 
 9374      70746162 
 9374      6C65506F 
 9375              	.LASF542:
 9376 3236 57484954 		.ascii	"WHITELIST_BASE_ADDR\000"
 9376      454C4953 
 9376      545F4241 
 9376      53455F41 
 9376      44445200 
 9377              	.LASF534:
 9378 324a 434F4E4E 		.ascii	"CONN_PARAM_ACC_WIN_WIDEN\000"
 9378      5F504152 
 9378      414D5F41 
 9378      43435F57 
 9378      494E5F57 
 9379              	.LASF800:
 9380 3263 7265736F 		.ascii	"resolvingListSize\000"
 9380      6C76696E 
 9380      674C6973 
 9380      7453697A 
 9380      6500
 9381              	.LASF221:
 9382 3275 74637077 		.ascii	"tcpwm_1_interrupts_2_IRQn\000"
 9382      6D5F315F 
 9382      696E7465 
 9382      72727570 
 9382      74735F32 
 9383              	.LASF848:
 9384 328f 43595F42 		.ascii	"CY_BLE_BLESS_STATE_EVENT_CLOSE\000"
 9384      4C455F42 
 9384      4C455353 
 9384      5F535441 
 9384      54455F45 
 9385              	.LASF502:
 9386 32ae 4D4D4D53 		.ascii	"MMMS_CONFIG\000"
 9386      5F434F4E 
 9386      46494700 
 9387              	.LASF107:
 9388 32ba 63707573 		.ascii	"cpussRam2Ctl0\000"
 9388      7352616D 
ARM GAS  C:\Users\JC\AppData\Local\Temp\ccNOiAvA.s 			page 232


 9388      3243746C 
 9388      3000
 9389              	.LASF850:
 9390 32c8 43595F42 		.ascii	"CY_BLE_BLESS_STATE_ECO_STABLE\000"
 9390      4C455F42 
 9390      4C455353 
 9390      5F535441 
 9390      54455F45 
 9391              	.LASF698:
 9392 32e6 43595F42 		.ascii	"CY_BLE_EVT_GAP_AUTH_COMPLETE\000"
 9392      4C455F45 
 9392      56545F47 
 9392      41505F41 
 9392      5554485F 
 9393              	.LASF804:
 9394 3303 77686974 		.ascii	"whiteListSize\000"
 9394      654C6973 
 9394      7453697A 
 9394      6500
 9395              	.LASF207:
 9396 3311 63707573 		.ascii	"cpuss_interrupts_cm0_cti_0_IRQn\000"
 9396      735F696E 
 9396      74657272 
 9396      75707473 
 9396      5F636D30 
 9397              	.LASF892:
 9398 3331 64697363 		.ascii	"discProcedure\000"
 9398      50726F63 
 9398      65647572 
 9398      6500
 9399              	.LASF49:
 9400 333f 63707573 		.ascii	"cpussNotConnectedIrq\000"
 9400      734E6F74 
 9400      436F6E6E 
 9400      65637465 
 9400      64497271 
 9401              	.LASF823:
 9402 3354 62756666 		.ascii	"bufferUnits\000"
 9402      6572556E 
 9402      69747300 
 9403              	.LASF131:
 9404 3360 696F7373 		.ascii	"ioss_interrupts_gpio_10_IRQn\000"
 9404      5F696E74 
 9404      65727275 
 9404      7074735F 
 9404      6770696F 
 9405              	.LASF554:
 9406 337d 5854414C 		.ascii	"XTAL_CLK_DIV_CONFIG\000"
 9406      5F434C4B 
 9406      5F444956 
 9406      5F434F4E 
 9406      46494700 
 9407              	.LASF1058:
 9408 3391 63795F62 		.ascii	"cy_ble_advState\000"
 9408      6C655F61 
 9408      64765374 
 9408      61746500 
ARM GAS  C:\Users\JC\AppData\Local\Temp\ccNOiAvA.s 			page 233


 9409              	.LASF286:
 9410 33a1 53544154 		.ascii	"STATUS\000"
 9410      555300
 9411              	.LASF178:
 9412 33a8 63707573 		.ascii	"cpuss_interrupts_dw0_7_IRQn\000"
 9412      735F696E 
 9412      74657272 
 9412      75707473 
 9412      5F647730 
 9413              	.LASF861:
 9414 33c4 43595F42 		.ascii	"CY_BLE_GAP_IOCAP_DISPLAY_ONLY\000"
 9414      4C455F47 
 9414      41505F49 
 9414      4F434150 
 9414      5F444953 
 9415              	.LASF609:
 9416 33e2 63795F73 		.ascii	"cy_stc_sysint_t\000"
 9416      74635F73 
 9416      7973696E 
 9416      745F7400 
 9417              	.LASF765:
 9418 33f2 43595F42 		.ascii	"CY_BLE_ERROR_OOB_NOT_AVAILABLE\000"
 9418      4C455F45 
 9418      52524F52 
 9418      5F4F4F42 
 9418      5F4E4F54 
 9419              	.LASF956:
 9420 3411 736C6F77 		.ascii	"slowAdvTimeOut\000"
 9420      41647654 
 9420      696D654F 
 9420      757400
 9421              	.LASF749:
 9422 3420 43595F42 		.ascii	"CY_BLE_EVT_L2CAP_CBFC_CONN_IND\000"
 9422      4C455F45 
 9422      56545F4C 
 9422      32434150 
 9422      5F434246 
 9423              	.LASF13:
 9424 343f 5F5F7569 		.ascii	"__uint32_t\000"
 9424      6E743332 
 9424      5F7400
 9425              	.LASF242:
 9426 344a 74637077 		.ascii	"tcpwm_1_interrupts_23_IRQn\000"
 9426      6D5F315F 
 9426      696E7465 
 9426      72727570 
 9426      74735F32 
 9427              	.LASF579:
 9428 3465 4449565F 		.ascii	"DIV_BY_625_STS\000"
 9428      42595F36 
 9428      32355F53 
 9428      545300
 9429              	.LASF628:
 9430 3474 43595F53 		.ascii	"CY_SYSPM_AFTER_TRANSITION\000"
 9430      5953504D 
 9430      5F414654 
 9430      45525F54 
ARM GAS  C:\Users\JC\AppData\Local\Temp\ccNOiAvA.s 			page 234


 9430      52414E53 
 9431              	.LASF555:
 9432 348e 494E5452 		.ascii	"INTR_STAT\000"
 9432      5F535441 
 9432      5400
 9433              	.LASF707:
 9434 3498 43595F42 		.ascii	"CY_BLE_EVT_GAP_NUMERIC_COMPARISON_REQUEST\000"
 9434      4C455F45 
 9434      56545F47 
 9434      41505F4E 
 9434      554D4552 
 9435              	.LASF1065:
 9436 34c2 63795F62 		.ascii	"cy_ble_stackMemoryRam\000"
 9436      6C655F73 
 9436      7461636B 
 9436      4D656D6F 
 9436      72795261 
 9437              	.LASF673:
 9438 34d8 43595F42 		.ascii	"CY_BLE_EVT_SOFT_RESET_COMPLETE\000"
 9438      4C455F45 
 9438      56545F53 
 9438      4F46545F 
 9438      52455345 
 9439              	.LASF691:
 9440 34f7 43595F42 		.ascii	"CY_BLE_EVT_SET_CE_LENGTH_COMPLETE\000"
 9440      4C455F45 
 9440      56545F53 
 9440      45545F43 
 9440      455F4C45 
 9441              	.LASF430:
 9442 3519 494E4954 		.ascii	"INIT_WINDOW_OFFSET\000"
 9442      5F57494E 
 9442      444F575F 
 9442      4F464653 
 9442      455400
 9443              	.LASF795:
 9444 352c 646C654E 		.ascii	"dleNumTxBuffer\000"
 9444      756D5478 
 9444      42756666 
 9444      657200
 9445              	.LASF549:
 9446 353b 52455345 		.ascii	"RESERVED57\000"
 9446      52564544 
 9446      353700
 9447              	.LASF563:
 9448 3546 4D545F44 		.ascii	"MT_DELAY_CFG2\000"
 9448      454C4159 
 9448      5F434647 
 9448      3200
 9449              	.LASF564:
 9450 3554 4D545F44 		.ascii	"MT_DELAY_CFG3\000"
 9450      454C4159 
 9450      5F434647 
 9450      3300
 9451              	.LASF244:
 9452 3562 7564625F 		.ascii	"udb_interrupts_1_IRQn\000"
 9452      696E7465 
ARM GAS  C:\Users\JC\AppData\Local\Temp\ccNOiAvA.s 			page 235


 9452      72727570 
 9452      74735F31 
 9452      5F495251 
 9453              	.LASF797:
 9454 3578 63795F73 		.ascii	"cy_stc_ble_dle_config_param_t\000"
 9454      74635F62 
 9454      6C655F64 
 9454      6C655F63 
 9454      6F6E6669 
 9455              	.LASF485:
 9456 3596 434F4E4E 		.ascii	"CONN_3_PARAM_MEM_BASE_ADDR\000"
 9456      5F335F50 
 9456      4152414D 
 9456      5F4D454D 
 9456      5F424153 
 9457              	.LASF290:
 9458 35b1 54585F46 		.ascii	"TX_FIFO_WR\000"
 9458      49464F5F 
 9458      575200
 9459              	.LASF557:
 9460 35bc 4C465F43 		.ascii	"LF_CLK_CTRL\000"
 9460      4C4B5F43 
 9460      54524C00 
 9461              	.LASF190:
 9462 35c8 63707573 		.ascii	"cpuss_interrupts_dw1_3_IRQn\000"
 9462      735F696E 
 9462      74657272 
 9462      75707473 
 9462      5F647731 
 9463              	.LASF689:
 9464 35e4 43595F42 		.ascii	"CY_BLE_EVT_AES_CMAC_GEN_COMPLETE\000"
 9464      4C455F45 
 9464      56545F41 
 9464      45535F43 
 9464      4D41435F 
 9465              	.LASF642:
 9466 3605 43595F42 		.ascii	"CY_BLE_EVT_STACK_ON\000"
 9466      4C455F45 
 9466      56545F53 
 9466      5441434B 
 9466      5F4F4E00 
 9467              	.LASF38:
 9468 3619 6770696F 		.ascii	"gpioVersion\000"
 9468      56657273 
 9468      696F6E00 
 9469              	.LASF855:
 9470 3625 43595F42 		.ascii	"CY_BLE_CONTROLLER_SLEEP_MODE_SLEEP\000"
 9470      4C455F43 
 9470      4F4E5452 
 9470      4F4C4C45 
 9470      525F534C 
 9471              	.LASF820:
 9472 3648 6D617842 		.ascii	"maxBleConnections\000"
 9472      6C65436F 
 9472      6E6E6563 
 9472      74696F6E 
 9472      7300
ARM GAS  C:\Users\JC\AppData\Local\Temp\ccNOiAvA.s 			page 236


 9473              	.LASF1024:
 9474 365a 43595F49 		.ascii	"CY_IPC_SEMA_ERROR_UNLOCKED\000"
 9474      50435F53 
 9474      454D415F 
 9474      4552524F 
 9474      525F554E 
 9475              	.LASF959:
 9476 3675 66617374 		.ascii	"fastScanWindow\000"
 9476      5363616E 
 9476      57696E64 
 9476      6F7700
 9477              	.LASF769:
 9478 3684 43595F42 		.ascii	"CY_BLE_ERROR_REPEATED_ATTEMPTS\000"
 9478      4C455F45 
 9478      52524F52 
 9478      5F524550 
 9478      45415445 
 9479              	.LASF537:
 9480 36a3 4144565F 		.ascii	"ADV_RAND\000"
 9480      52414E44 
 9480      00
 9481              	.LASF235:
 9482 36ac 74637077 		.ascii	"tcpwm_1_interrupts_16_IRQn\000"
 9482      6D5F315F 
 9482      696E7465 
 9482      72727570 
 9482      74735F31 
 9483              	.LASF829:
 9484 36c7 626C6553 		.ascii	"bleStackFlashPointer\000"
 9484      7461636B 
 9484      466C6173 
 9484      68506F69 
 9484      6E746572 
 9485              	.LASF464:
 9486 36dc 54585F52 		.ascii	"TX_RX_SYNTH_DELAY\000"
 9486      585F5359 
 9486      4E54485F 
 9486      44454C41 
 9486      5900
 9487              	.LASF148:
 9488 36ee 63707573 		.ascii	"cpuss_interrupts_ipc_2_IRQn\000"
 9488      735F696E 
 9488      74657272 
 9488      75707473 
 9488      5F697063 
 9489              	.LASF826:
 9490 370a 64617461 		.ascii	"dataBuff\000"
 9490      42756666 
 9490      00
 9491              	.LASF1049:
 9492 3713 626C6573 		.ascii	"blessState\000"
 9492      73537461 
 9492      746500
 9493              	.LASF617:
 9494 371e 43595F53 		.ascii	"CY_SYSPM_WAIT_FOR_INTERRUPT\000"
 9494      5953504D 
 9494      5F574149 
ARM GAS  C:\Users\JC\AppData\Local\Temp\ccNOiAvA.s 			page 237


 9494      545F464F 
 9494      525F494E 
 9495              	.LASF513:
 9496 373a 434F4E4E 		.ascii	"CONN_1_DATA_LIST_SENT\000"
 9496      5F315F44 
 9496      4154415F 
 9496      4C495354 
 9496      5F53454E 
 9497              	.LASF653:
 9498 3750 43595F42 		.ascii	"CY_BLE_EVT_LE_PING_AUTH_TIMEOUT\000"
 9498      4C455F45 
 9498      56545F4C 
 9498      455F5049 
 9498      4E475F41 
 9499              	.LASF792:
 9500 3770 63795F73 		.ascii	"cy_stc_ble_bd_addr_t\000"
 9500      74635F62 
 9500      6C655F62 
 9500      645F6164 
 9500      64725F74 
 9501              	.LASF637:
 9502 3785 63616C6C 		.ascii	"callbackParams\000"
 9502      6261636B 
 9502      50617261 
 9502      6D7300
 9503              	.LASF873:
 9504 3794 43595F42 		.ascii	"CY_BLE_GAP_AUTH_ERROR_INSUFFICIENT_ENCRYPTION_KEY_S"
 9504      4C455F47 
 9504      41505F41 
 9504      5554485F 
 9504      4552524F 
 9505 37c7 495A4500 		.ascii	"IZE\000"
 9506              	.LASF590:
 9507 37cb 454E435F 		.ascii	"ENC_INTR\000"
 9507      494E5452 
 9507      00
 9508              	.LASF1073:
 9509 37d4 63795F73 		.ascii	"cy_stc_syspm_callback\000"
 9509      74635F73 
 9509      7973706D 
 9509      5F63616C 
 9509      6C626163 
 9510              	.LASF844:
 9511 37ea 43595F42 		.ascii	"CY_BLE_BLESS_DEEPSLEEP\000"
 9511      4C455F42 
 9511      4C455353 
 9511      5F444545 
 9511      50534C45 
 9512              	.LASF521:
 9513 3801 434F4E4E 		.ascii	"CONN_3_DATA_LIST_SENT\000"
 9513      5F335F44 
 9513      4154415F 
 9513      4C495354 
 9513      5F53454E 
 9514              	.LASF553:
 9515 3817 44444654 		.ascii	"DDFT_CONFIG\000"
 9515      5F434F4E 
ARM GAS  C:\Users\JC\AppData\Local\Temp\ccNOiAvA.s 			page 238


 9515      46494700 
 9516              	.LASF531:
 9517 3823 4D4D4D53 		.ascii	"MMMS_ADVCH_NI_ABORT\000"
 9517      5F414456 
 9517      43485F4E 
 9517      495F4142 
 9517      4F525400 
 9518              	.LASF735:
 9519 3837 43595F42 		.ascii	"CY_BLE_EVT_GATTS_WRITE_CMD_REQ\000"
 9519      4C455F45 
 9519      56545F47 
 9519      41545453 
 9519      5F575249 
 9520              	.LASF756:
 9521 3856 43595F42 		.ascii	"CY_BLE_EVT_L2CAP_CBFC_DATA_WRITE_IND\000"
 9521      4C455F45 
 9521      56545F4C 
 9521      32434150 
 9521      5F434246 
 9522              	.LASF662:
 9523 387b 43595F42 		.ascii	"CY_BLE_EVT_SET_HOST_CHANNEL_COMPLETE\000"
 9523      4C455F45 
 9523      56545F53 
 9523      45545F48 
 9523      4F53545F 
 9524              	.LASF1055:
 9525 38a0 49544D5F 		.ascii	"ITM_RxBuffer\000"
 9525      52784275 
 9525      66666572 
 9525      00
 9526              	.LASF1033:
 9527 38ad 43795F42 		.ascii	"Cy_BLE_Init\000"
 9527      4C455F49 
 9527      6E697400 
 9528              	.LASF175:
 9529 38b9 63707573 		.ascii	"cpuss_interrupts_dw0_4_IRQn\000"
 9529      735F696E 
 9529      74657272 
 9529      75707473 
 9529      5F647730 
 9530              	.LASF864:
 9531 38d5 43595F42 		.ascii	"CY_BLE_GAP_IOCAP_NOINPUT_NOOUTPUT\000"
 9531      4C455F47 
 9531      41505F49 
 9531      4F434150 
 9531      5F4E4F49 
 9532              	.LASF459:
 9533 38f7 4C455F50 		.ascii	"LE_PING_TIMER_OFFSET\000"
 9533      494E475F 
 9533      54494D45 
 9533      525F4F46 
 9533      46534554 
 9534              	.LASF71:
 9535 390c 64774368 		.ascii	"dwChOffset\000"
 9535      4F666673 
 9535      657400
 9536              	.LASF799:
ARM GAS  C:\Users\JC\AppData\Local\Temp\ccNOiAvA.s 			page 239


 9537 3917 63795F73 		.ascii	"cy_stc_ble_l2cap_config_param_t\000"
 9537      74635F62 
 9537      6C655F6C 
 9537      32636170 
 9537      5F636F6E 
 9538              	.LASF59:
 9539 3937 70726F74 		.ascii	"protBusMasterMask\000"
 9539      4275734D 
 9539      61737465 
 9539      724D6173 
 9539      6B00
 9540              	.LASF205:
 9541 3949 63707573 		.ascii	"cpuss_interrupt_crypto_IRQn\000"
 9541      735F696E 
 9541      74657272 
 9541      7570745F 
 9541      63727970 
 9542              	.LASF766:
 9543 3965 43595F42 		.ascii	"CY_BLE_ERROR_NO_CONNECTION\000"
 9543      4C455F45 
 9543      52524F52 
 9543      5F4E4F5F 
 9543      434F4E4E 
 9544              	.LASF946:
 9545 3980 70726566 		.ascii	"prefConnParamCharHandle\000"
 9545      436F6E6E 
 9545      50617261 
 9545      6D436861 
 9545      7248616E 
 9546              	.LASF89:
 9547 3998 6770696F 		.ascii	"gpioPrtIntrCfgOffset\000"
 9547      50727449 
 9547      6E747243 
 9547      66674F66 
 9547      66736574 
 9548              	.LASF672:
 9549 39ad 43595F42 		.ascii	"CY_BLE_EVT_LL_CNTRL_PROC_PENDING_COMPLETE\000"
 9549      4C455F45 
 9549      56545F4C 
 9549      4C5F434E 
 9549      54524C5F 
 9550              	.LASF291:
 9551 39d7 52585F43 		.ascii	"RX_CTRL\000"
 9551      54524C00 
 9552              	.LASF77:
 9553 39df 70657269 		.ascii	"periTrCmdOffset\000"
 9553      5472436D 
 9553      644F6666 
 9553      73657400 
 9554              	.LASF39:
 9555 39ef 6873696F 		.ascii	"hsiomVersion\000"
 9555      6D566572 
 9555      73696F6E 
 9555      00
 9556              	.LASF239:
 9557 39fc 74637077 		.ascii	"tcpwm_1_interrupts_20_IRQn\000"
 9557      6D5F315F 
ARM GAS  C:\Users\JC\AppData\Local\Temp\ccNOiAvA.s 			page 240


 9557      696E7465 
 9557      72727570 
 9557      74735F32 
 9558              	.LASF523:
 9559 3a17 434F4E4E 		.ascii	"CONN_3_CE_DATA_LIST_CFG\000"
 9559      5F335F43 
 9559      455F4441 
 9559      54415F4C 
 9559      4953545F 
 9560              	.LASF919:
 9561 3a2f 7363616E 		.ascii	"scanRspDataLen\000"
 9561      52737044 
 9561      6174614C 
 9561      656E00
 9562              	.LASF620:
 9563 3a3e 43595F53 		.ascii	"CY_SYSPM_DEEPSLEEP\000"
 9563      5953504D 
 9563      5F444545 
 9563      50534C45 
 9563      455000
 9564              	.LASF906:
 9565 3a51 63795F65 		.ascii	"cy_en_ble_gapp_adv_t\000"
 9565      6E5F626C 
 9565      655F6761 
 9565      70705F61 
 9565      64765F74 
 9566              	.LASF256:
 9567 3a66 7564625F 		.ascii	"udb_interrupts_13_IRQn\000"
 9567      696E7465 
 9567      72727570 
 9567      74735F31 
 9567      335F4952 
 9568              	.LASF786:
 9569 3a7d 43595F42 		.ascii	"CY_BLE_ERROR_CONTROLLER_BUSY\000"
 9569      4C455F45 
 9569      52524F52 
 9569      5F434F4E 
 9569      54524F4C 
 9570              	.LASF457:
 9571 3a9a 534C5F43 		.ascii	"SL_CONN_INTERVAL\000"
 9571      4F4E4E5F 
 9571      494E5445 
 9571      5256414C 
 9571      00
 9572              	.LASF924:
 9573 3aab 63795F73 		.ascii	"cy_stc_ble_gapp_disc_mode_info_t\000"
 9573      74635F62 
 9573      6C655F67 
 9573      6170705F 
 9573      64697363 
 9574              	.LASF300:
 9575 3acc 4556454E 		.ascii	"EVENT_ENABLE\000"
 9575      545F454E 
 9575      41424C45 
 9575      00
 9576              	.LASF997:
 9577 3ad9 626F756E 		.ascii	"boundedDevCount\000"
ARM GAS  C:\Users\JC\AppData\Local\Temp\ccNOiAvA.s 			page 241


 9577      64656444 
 9577      6576436F 
 9577      756E7400 
 9578              	.LASF50:
 9579 3ae9 73727373 		.ascii	"srssNumClkpath\000"
 9579      4E756D43 
 9579      6C6B7061 
 9579      746800
 9580              	.LASF955:
 9581 3af8 736C6F77 		.ascii	"slowAdvIntervalMax\000"
 9581      41647649 
 9581      6E746572 
 9581      76616C4D 
 9581      617800
 9582              	.LASF963:
 9583 3b0b 736C6F77 		.ascii	"slowScanWindow\000"
 9583      5363616E 
 9583      57696E64 
 9583      6F7700
 9584              	.LASF66:
 9585 3b1a 666C6173 		.ascii	"flashCtlMainWs0Freq\000"
 9585      6843746C 
 9585      4D61696E 
 9585      57733046 
 9585      72657100 
 9586              	.LASF1070:
 9587 3b2e 474E5520 		.ascii	"GNU C11 5.4.1 20160609 (release) [ARM/embedded-5-br"
 9587      43313120 
 9587      352E342E 
 9587      31203230 
 9587      31363036 
 9588 3b61 616E6368 		.ascii	"anch revision 237715] -mcpu=cortex-m4 -mfloat-abi=s"
 9588      20726576 
 9588      6973696F 
 9588      6E203233 
 9588      37373135 
 9589 3b94 6F667466 		.ascii	"oftfp -mfpu=fpv4-sp-d16 -mthumb -g -O0 -ffunction-s"
 9589      70202D6D 
 9589      6670753D 
 9589      66707634 
 9589      2D73702D 
 9590 3bc7 65637469 		.ascii	"ections -ffat-lto-objects\000"
 9590      6F6E7320 
 9590      2D666661 
 9590      742D6C74 
 9590      6F2D6F62 
 9591              	.LASF1011:
 9592 3be1 67617474 		.ascii	"gatts\000"
 9592      7300
 9593              	.LASF187:
 9594 3be7 63707573 		.ascii	"cpuss_interrupts_dw1_0_IRQn\000"
 9594      735F696E 
 9594      74657272 
 9594      75707473 
 9594      5F647731 
 9595              	.LASF716:
 9596 3c03 43595F42 		.ascii	"CY_BLE_EVT_GAP_GEN_SET_LOCAL_P256_KEYS_COMPLETE\000"
ARM GAS  C:\Users\JC\AppData\Local\Temp\ccNOiAvA.s 			page 242


 9596      4C455F45 
 9596      56545F47 
 9596      41505F47 
 9596      454E5F53 
 9597              	.LASF754:
 9598 3c33 43595F42 		.ascii	"CY_BLE_EVT_L2CAP_CBFC_RX_CREDIT_IND\000"
 9598      4C455F45 
 9598      56545F4C 
 9598      32434150 
 9598      5F434246 
 9599              	.LASF917:
 9600 3c57 63795F73 		.ascii	"cy_stc_ble_gapp_disc_data_t\000"
 9600      74635F62 
 9600      6C655F67 
 9600      6170705F 
 9600      64697363 
 9601              	.LASF794:
 9602 3c73 646C654D 		.ascii	"dleMaxRxCapability\000"
 9602      61785278 
 9602      43617061 
 9602      62696C69 
 9602      747900
 9603              	.LASF753:
 9604 3c86 43595F42 		.ascii	"CY_BLE_EVT_L2CAP_CBFC_DATA_READ\000"
 9604      4C455F45 
 9604      56545F4C 
 9604      32434150 
 9604      5F434246 
 9605              	.LASF565:
 9606 3ca6 4D545F56 		.ascii	"MT_VIO_CTRL\000"
 9606      494F5F43 
 9606      54524C00 
 9607              	.LASF232:
 9608 3cb2 74637077 		.ascii	"tcpwm_1_interrupts_13_IRQn\000"
 9608      6D5F315F 
 9608      696E7465 
 9608      72727570 
 9608      74735F31 
 9609              	.LASF682:
 9610 3ccd 43595F42 		.ascii	"CY_BLE_EVT_AES_ENCRYPT_COMPLETE\000"
 9610      4C455F45 
 9610      56545F41 
 9610      45535F45 
 9610      4E435259 
 9611              	.LASF285:
 9612 3ced 424C455F 		.ascii	"BLE_RCB_RCBLL_V1_Type\000"
 9612      5243425F 
 9612      5243424C 
 9612      4C5F5631 
 9612      5F547970 
 9613              	.LASF994:
 9614 3d03 73746163 		.ascii	"stackFlashptr\000"
 9614      6B466C61 
 9614      73687074 
 9614      7200
 9615              	.LASF835:
 9616 3d11 63795F73 		.ascii	"cy_stc_ble_stack_init_info_t\000"
ARM GAS  C:\Users\JC\AppData\Local\Temp\ccNOiAvA.s 			page 243


 9616      74635F62 
 9616      6C655F73 
 9616      7461636B 
 9616      5F696E69 
 9617              	.LASF629:
 9618 3d2e 63795F65 		.ascii	"cy_en_syspm_callback_mode_t\000"
 9618      6E5F7379 
 9618      73706D5F 
 9618      63616C6C 
 9618      6261636B 
 9619              	.LASF801:
 9620 3d4a 63795F73 		.ascii	"cy_stc_ble_privacy_1_2_config_param_t\000"
 9620      74635F62 
 9620      6C655F70 
 9620      72697661 
 9620      63795F31 
 9621              	.LASF911:
 9622 3d70 64697265 		.ascii	"directAddr\000"
 9622      63744164 
 9622      647200
 9623              	.LASF879:
 9624 3d7b 43595F42 		.ascii	"CY_BLE_GAP_AUTH_ERROR_NUMERIC_COMPARISON_FAILED\000"
 9624      4C455F47 
 9624      41505F41 
 9624      5554485F 
 9624      4552524F 
 9625              	.LASF677:
 9626 3dab 43595F42 		.ascii	"CY_BLE_EVT_GET_TX_PWR_COMPLETE\000"
 9626      4C455F45 
 9626      56545F47 
 9626      45545F54 
 9626      585F5057 
 9627              	.LASF8:
 9628 3dca 73686F72 		.ascii	"short int\000"
 9628      7420696E 
 9628      7400
 9629              	.LASF161:
 9630 3dd4 63707573 		.ascii	"cpuss_interrupts_ipc_15_IRQn\000"
 9630      735F696E 
 9630      74657272 
 9630      75707473 
 9630      5F697063 
 9631              	.LASF593:
 9632 3df1 5452494D 		.ascii	"TRIM_LDO_0\000"
 9632      5F4C444F 
 9632      5F3000
 9633              	.LASF467:
 9634 3dfc 4C4C5F43 		.ascii	"LL_CONFIG\000"
 9634      4F4E4649 
 9634      4700
 9635              	.LASF595:
 9636 3e06 5452494D 		.ascii	"TRIM_LDO_2\000"
 9636      5F4C444F 
 9636      5F3200
 9637              	.LASF596:
 9638 3e11 5452494D 		.ascii	"TRIM_LDO_3\000"
 9638      5F4C444F 
ARM GAS  C:\Users\JC\AppData\Local\Temp\ccNOiAvA.s 			page 244


 9638      5F3300
 9639              	.LASF598:
 9640 3e1c 5452494D 		.ascii	"TRIM_LDO_4\000"
 9640      5F4C444F 
 9640      5F3400
 9641              	.LASF599:
 9642 3e27 5452494D 		.ascii	"TRIM_LDO_5\000"
 9642      5F4C444F 
 9642      5F3500
 9643              	.LASF987:
 9644 3e32 67617474 		.ascii	"gattDbMaxValue\000"
 9644      44624D61 
 9644      7856616C 
 9644      756500
 9645              	.LASF827:
 9646 3e41 746F7461 		.ascii	"totalHeapSz\000"
 9646      6C486561 
 9646      70537A00 
 9647              	.LASF495:
 9648 3e4d 4E455854 		.ascii	"NEXT_SUP_TO_STATUS\000"
 9648      5F535550 
 9648      5F544F5F 
 9648      53544154 
 9648      555300
 9649              	.LASF271:
 9650 3e60 52455345 		.ascii	"RESERVED\000"
 9650      52564544 
 9650      00
 9651              	.LASF292:
 9652 3e69 52585F46 		.ascii	"RX_FIFO_CTRL\000"
 9652      49464F5F 
 9652      4354524C 
 9652      00
 9653              	.LASF1040:
 9654 3e76 636F6E74 		.ascii	"controlValue\000"
 9654      726F6C56 
 9654      616C7565 
 9654      00
 9655              	.LASF902:
 9656 3e83 43595F42 		.ascii	"CY_BLE_GAPP_CONNECTABLE_HIGH_DC_DIRECTED_ADV\000"
 9656      4C455F47 
 9656      4150505F 
 9656      434F4E4E 
 9656      45435441 
 9657              	.LASF992:
 9658 3eb0 63795F62 		.ascii	"cy_ble_callback_t\000"
 9658      6C655F63 
 9658      616C6C62 
 9658      61636B5F 
 9658      7400
 9659              	.LASF367:
 9660 3ec2 44415441 		.ascii	"DATA_LIST_ACK_UPDATE__STATUS\000"
 9660      5F4C4953 
 9660      545F4143 
 9660      4B5F5550 
 9660      44415445 
 9661              	.LASF578:
ARM GAS  C:\Users\JC\AppData\Local\Temp\ccNOiAvA.s 			page 245


 9662 3edf 4449565F 		.ascii	"DIV_BY_625_CFG\000"
 9662      42595F36 
 9662      32355F43 
 9662      464700
 9663              	.LASF1063:
 9664 3eee 43795F42 		.ascii	"Cy_BLE_HostRegisteredCallback\000"
 9664      4C455F48 
 9664      6F737452 
 9664      65676973 
 9664      74657265 
 9665              	.LASF761:
 9666 3f0c 43595F42 		.ascii	"CY_BLE_ERROR_INVALID_PARAMETER\000"
 9666      4C455F45 
 9666      52524F52 
 9666      5F494E56 
 9666      414C4944 
 9667              	.LASF172:
 9668 3f2b 63707573 		.ascii	"cpuss_interrupts_dw0_1_IRQn\000"
 9668      735F696E 
 9668      74657272 
 9668      75707473 
 9668      5F647730 
 9669              	.LASF1039:
 9670 3f47 43795F42 		.ascii	"Cy_BLE_Disable\000"
 9670      4C455F44 
 9670      69736162 
 9670      6C6500
 9671              	.LASF429:
 9672 3f56 494E4954 		.ascii	"INIT_NI_VAL\000"
 9672      5F4E495F 
 9672      56414C00 
 9673              	.LASF866:
 9674 3f62 63795F65 		.ascii	"cy_en_ble_gap_iocap_t\000"
 9674      6E5F626C 
 9674      655F6761 
 9674      705F696F 
 9674      6361705F 
 9675              	.LASF882:
 9676 3f78 43595F42 		.ascii	"CY_BLE_GAP_AUTH_ERROR_AUTHENTICATION_TIMEOUT\000"
 9676      4C455F47 
 9676      41505F41 
 9676      5554485F 
 9676      4552524F 
 9677              	.LASF1019:
 9678 3fa5 626C6573 		.ascii	"blessIsrConfig\000"
 9678      73497372 
 9678      436F6E66 
 9678      696700
 9679              	.LASF325:
 9680 3fb4 574C5F41 		.ascii	"WL_ADDR_TYPE\000"
 9680      4444525F 
 9680      54595045 
 9680      00
 9681              	.LASF32:
 9682 3fc1 69706342 		.ascii	"ipcBase\000"
 9682      61736500 
 9683              	.LASF782:
ARM GAS  C:\Users\JC\AppData\Local\Temp\ccNOiAvA.s 			page 246


 9684 3fc9 43595F42 		.ascii	"CY_BLE_ERROR_GATT_DB_INVALID_ATTR_HANDLE\000"
 9684      4C455F45 
 9684      52524F52 
 9684      5F474154 
 9684      545F4442 
 9685              	.LASF808:
 9686 3ff2 6C6F6275 		.ascii	"lobuffLimit\000"
 9686      66664C69 
 9686      6D697400 
 9687              	.LASF1003:
 9688 3ffe 73696C69 		.ascii	"siliconDeviceAddressEnabled\000"
 9688      636F6E44 
 9688      65766963 
 9688      65416464 
 9688      72657373 
 9689              	.LASF522:
 9690 401a 434F4E4E 		.ascii	"CONN_3_DATA_LIST_ACK\000"
 9690      5F335F44 
 9690      4154415F 
 9690      4C495354 
 9690      5F41434B 
 9691              	.LASF88:
 9692 402f 70657269 		.ascii	"periDiv24_5CtlOffset\000"
 9692      44697632 
 9692      345F3543 
 9692      746C4F66 
 9692      66736574 
 9693              	.LASF939:
 9694 4044 43595F42 		.ascii	"CY_BLE_CONN_STATE_CLIENT_CHAR_DISCOVERING\000"
 9694      4C455F43 
 9694      4F4E4E5F 
 9694      53544154 
 9694      455F434C 
 9695              	.LASF204:
 9696 406e 63707573 		.ascii	"cpuss_interrupts_fault_1_IRQn\000"
 9696      735F696E 
 9696      74657272 
 9696      75707473 
 9696      5F666175 
 9697              	.LASF302:
 9698 408c 4144565F 		.ascii	"ADV_INTERVAL_TIMEOUT\000"
 9698      494E5445 
 9698      5256414C 
 9698      5F54494D 
 9698      454F5554 
 9699              	.LASF860:
 9700 40a1 63795F62 		.ascii	"cy_ble_gatt_db_attr_handle_t\000"
 9700      6C655F67 
 9700      6174745F 
 9700      64625F61 
 9700      7474725F 
 9701              	.LASF544:
 9702 40be 52534C56 		.ascii	"RSLV_LIST_PEER_IDNTT_BASE_ADDR\000"
 9702      5F4C4953 
 9702      545F5045 
 9702      45525F49 
 9702      444E5454 
ARM GAS  C:\Users\JC\AppData\Local\Temp\ccNOiAvA.s 			page 247


 9703              	.LASF1041:
 9704 40dd 43795F42 		.ascii	"Cy_BLE_RegisterAppHostCallback\000"
 9704      4C455F52 
 9704      65676973 
 9704      74657241 
 9704      7070486F 
 9705              	.LASF508:
 9706 40fc 4D4D4D53 		.ascii	"MMMS_SLAVE_CREATE_BT_CAPT\000"
 9706      5F534C41 
 9706      56455F43 
 9706      52454154 
 9706      455F4254 
 9707              	.LASF206:
 9708 4116 63707573 		.ascii	"cpuss_interrupt_fm_IRQn\000"
 9708      735F696E 
 9708      74657272 
 9708      7570745F 
 9708      666D5F49 
 9709              	.LASF253:
 9710 412e 7564625F 		.ascii	"udb_interrupts_10_IRQn\000"
 9710      696E7465 
 9710      72727570 
 9710      74735F31 
 9710      305F4952 
 9711              	.LASF1047:
 9712 4145 72657456 		.ascii	"retVal\000"
 9712      616C00
 9713              	.LASF274:
 9714 414c 494E5452 		.ascii	"INTR_MASK\000"
 9714      5F4D4153 
 9714      4B00
 9715              	.LASF98:
 9716 4156 63707573 		.ascii	"cpussCm4PwrCtlOffset\000"
 9716      73436D34 
 9716      50777243 
 9716      746C4F66 
 9716      66736574 
 9717              	.LASF63:
 9718 416b 666C6173 		.ascii	"flashWriteDelay\000"
 9718      68577269 
 9718      74654465 
 9718      6C617900 
 9719              	.LASF696:
 9720 417b 43595F42 		.ascii	"CY_BLE_EVT_GAP_PASSKEY_ENTRY_REQUEST\000"
 9720      4C455F45 
 9720      56545F47 
 9720      41505F50 
 9720      4153534B 
 9721              	.LASF266:
 9722 41a0 7573625F 		.ascii	"usb_interrupt_lo_IRQn\000"
 9722      696E7465 
 9722      72727570 
 9722      745F6C6F 
 9722      5F495251 
 9723              	.LASF12:
 9724 41b6 6C6F6E67 		.ascii	"long int\000"
 9724      20696E74 
ARM GAS  C:\Users\JC\AppData\Local\Temp\ccNOiAvA.s 			page 248


 9724      00
 9725              	.LASF954:
 9726 41bf 736C6F77 		.ascii	"slowAdvIntervalMin\000"
 9726      41647649 
 9726      6E746572 
 9726      76616C4D 
 9726      696E00
 9727              	.LASF752:
 9728 41d2 43595F42 		.ascii	"CY_BLE_EVT_L2CAP_CBFC_DISCONN_CNF\000"
 9728      4C455F45 
 9728      56545F4C 
 9728      32434150 
 9728      5F434246 
 9729              	.LASF352:
 9730 41f4 4144565F 		.ascii	"ADV_SCN_RSP_TX_FIFO\000"
 9730      53434E5F 
 9730      5253505F 
 9730      54585F46 
 9730      49464F00 
 9731              	.LASF11:
 9732 4208 5F5F696E 		.ascii	"__int32_t\000"
 9732      7433325F 
 9732      7400
 9733              	.LASF386:
 9734 4212 4144565F 		.ascii	"ADV_ACCADDR_H\000"
 9734      41434341 
 9734      4444525F 
 9734      4800
 9735              	.LASF692:
 9736 4220 43595F42 		.ascii	"CY_BLE_EVT_SET_CONN_PRIORITY_COMPLETE\000"
 9736      4C455F45 
 9736      56545F53 
 9736      45545F43 
 9736      4F4E4E5F 
 9737              	.LASF385:
 9738 4246 4144565F 		.ascii	"ADV_ACCADDR_L\000"
 9738      41434341 
 9738      4444525F 
 9738      4C00
 9739              	.LASF851:
 9740 4254 43595F42 		.ascii	"CY_BLE_BLESS_STATE_DEEPSLEEP\000"
 9740      4C455F42 
 9740      4C455353 
 9740      5F535441 
 9740      54455F44 
 9741              	.LASF923:
 9742 4271 61647654 		.ascii	"advTo\000"
 9742      6F00
 9743              	.LASF580:
 9744 4277 5041434B 		.ascii	"PACKET_COUNTER0\000"
 9744      45545F43 
 9744      4F554E54 
 9744      45523000 
 9745              	.LASF581:
 9746 4287 5041434B 		.ascii	"PACKET_COUNTER2\000"
 9746      45545F43 
 9746      4F554E54 
ARM GAS  C:\Users\JC\AppData\Local\Temp\ccNOiAvA.s 			page 249


 9746      45523200 
 9747              	.LASF289:
 9748 4297 54585F46 		.ascii	"TX_FIFO_STATUS\000"
 9748      49464F5F 
 9748      53544154 
 9748      555300
 9749              	.LASF48:
 9750 42a6 63707573 		.ascii	"cpussFmIrq\000"
 9750      73466D49 
 9750      727100
 9751              	.LASF872:
 9752 42b1 43595F42 		.ascii	"CY_BLE_GAP_AUTH_ERROR_PAIRING_NOT_SUPPORTED\000"
 9752      4C455F47 
 9752      41505F41 
 9752      5554485F 
 9752      4552524F 
 9753              	.LASF807:
 9754 42dd 74617267 		.ascii	"targetTable\000"
 9754      65745461 
 9754      626C6500 
 9755              	.LASF229:
 9756 42e9 74637077 		.ascii	"tcpwm_1_interrupts_10_IRQn\000"
 9756      6D5F315F 
 9756      696E7465 
 9756      72727570 
 9756      74735F31 
 9757              	.LASF967:
 9758 4304 67617063 		.ascii	"gapcConnectionSlaveLatency\000"
 9758      436F6E6E 
 9758      65637469 
 9758      6F6E536C 
 9758      6176654C 
 9759              	.LASF626:
 9760 431f 43595F53 		.ascii	"CY_SYSPM_CHECK_FAIL\000"
 9760      5953504D 
 9760      5F434845 
 9760      434B5F46 
 9760      41494C00 
 9761              	.LASF944:
 9762 4333 64657669 		.ascii	"deviceNameCharHandle\000"
 9762      63654E61 
 9762      6D654368 
 9762      61724861 
 9762      6E646C65 
 9763              	.LASF128:
 9764 4348 696F7373 		.ascii	"ioss_interrupts_gpio_7_IRQn\000"
 9764      5F696E74 
 9764      65727275 
 9764      7074735F 
 9764      6770696F 
 9765              	.LASF403:
 9766 4364 434F4E4E 		.ascii	"CONN_INTR_MASK\000"
 9766      5F494E54 
 9766      525F4D41 
 9766      534B00
 9767              	.LASF556:
 9768 4373 4C4C5F43 		.ascii	"LL_CLK_EN\000"
ARM GAS  C:\Users\JC\AppData\Local\Temp\ccNOiAvA.s 			page 250


 9768      4C4B5F45 
 9768      4E00
 9769              	.LASF404:
 9770 437d 534C4156 		.ascii	"SLAVE_TIMING_CONTROL\000"
 9770      455F5449 
 9770      4D494E47 
 9770      5F434F4E 
 9770      54524F4C 
 9771              	.LASF834:
 9772 4392 73746163 		.ascii	"stackConfig\000"
 9772      6B436F6E 
 9772      66696700 
 9773              	.LASF1031:
 9774 439e 73746174 		.ascii	"state\000"
 9774      6500
 9775              	.LASF1038:
 9776 43a4 6462496E 		.ascii	"dbInfoParam\000"
 9776      666F5061 
 9776      72616D00 
 9777              	.LASF108:
 9778 43b0 69706353 		.ascii	"ipcStructSize\000"
 9778      74727563 
 9778      7453697A 
 9778      6500
 9779              	.LASF739:
 9780 43be 43595F42 		.ascii	"CY_BLE_EVT_GATTC_HANDLE_VALUE_NTF\000"
 9780      4C455F45 
 9780      56545F47 
 9780      41545443 
 9780      5F48414E 
 9781              	.LASF297:
 9782 43e0 424C455F 		.ascii	"BLE_RCB_V1_Type\000"
 9782      5243425F 
 9782      56315F54 
 9782      79706500 
 9783              	.LASF158:
 9784 43f0 63707573 		.ascii	"cpuss_interrupts_ipc_12_IRQn\000"
 9784      735F696E 
 9784      74657272 
 9784      75707473 
 9784      5F697063 
 9785              	.LASF228:
 9786 440d 74637077 		.ascii	"tcpwm_1_interrupts_9_IRQn\000"
 9786      6D5F315F 
 9786      696E7465 
 9786      72727570 
 9786      74735F39 
 9787              	.LASF778:
 9788 4427 43595F42 		.ascii	"CY_BLE_ERROR_FLASH_WRITE_NOT_PERMITED\000"
 9788      4C455F45 
 9788      52524F52 
 9788      5F464C41 
 9788      53485F57 
 9789              	.LASF16:
 9790 444d 73697A65 		.ascii	"sizetype\000"
 9790      74797065 
 9790      00
ARM GAS  C:\Users\JC\AppData\Local\Temp\ccNOiAvA.s 			page 251


 9791              	.LASF548:
 9792 4456 52534C56 		.ascii	"RSLV_LIST_RCVD_INIT_RPA_BASE_ADDR\000"
 9792      5F4C4953 
 9792      545F5243 
 9792      56445F49 
 9792      4E49545F 
 9793              	.LASF25:
 9794 4478 666C6173 		.ascii	"flashcBase\000"
 9794      68634261 
 9794      736500
 9795              	.LASF350:
 9796 4483 4144565F 		.ascii	"ADV_TX_DATA_FIFO\000"
 9796      54585F44 
 9796      4154415F 
 9796      4649464F 
 9796      00
 9797              	.LASF46:
 9798 4494 63707573 		.ascii	"cpussFlashPaSize\000"
 9798      73466C61 
 9798      73685061 
 9798      53697A65 
 9798      00
 9799              	.LASF809:
 9800 44a5 63616C56 		.ascii	"calValLimit\000"
 9800      616C4C69 
 9800      6D697400 
 9801              	.LASF20:
 9802 44b1 696E7431 		.ascii	"int16_t\000"
 9802      365F7400 
 9803              	.LASF966:
 9804 44b9 67617063 		.ascii	"gapcConnectionIntervalMax\000"
 9804      436F6E6E 
 9804      65637469 
 9804      6F6E496E 
 9804      74657276 
 9805              	.LASF377:
 9806 44d3 4C455F52 		.ascii	"LE_RF_TEST_MODE\000"
 9806      465F5445 
 9806      53545F4D 
 9806      4F444500 
 9807              	.LASF184:
 9808 44e3 63707573 		.ascii	"cpuss_interrupts_dw0_13_IRQn\000"
 9808      735F696E 
 9808      74657272 
 9808      75707473 
 9808      5F647730 
 9809              	.LASF369:
 9810 4500 434F4E4E 		.ascii	"CONN_EXT_INTR\000"
 9810      5F455854 
 9810      5F494E54 
 9810      5200
 9811              	.LASF758:
 9812 450e 63795F65 		.ascii	"cy_en_ble_event_t\000"
 9812      6E5F626C 
 9812      655F6576 
 9812      656E745F 
 9812      7400
ARM GAS  C:\Users\JC\AppData\Local\Temp\ccNOiAvA.s 			page 252


 9813              	.LASF1042:
 9814 4520 43616C6C 		.ascii	"CallBack\000"
 9814      4261636B 
 9814      00
 9815              	.LASF42:
 9816 4529 70726F74 		.ascii	"protVersion\000"
 9816      56657273 
 9816      696F6E00 
 9817              	.LASF930:
 9818 4535 43595F42 		.ascii	"CY_BLE_ADV_STATE_ADV_INITIATED\000"
 9818      4C455F41 
 9818      44565F53 
 9818      54415445 
 9818      5F414456 
 9819              	.LASF725:
 9820 4554 43595F42 		.ascii	"CY_BLE_EVT_GATTC_XCHNG_MTU_RSP\000"
 9820      4C455F45 
 9820      56545F47 
 9820      41545443 
 9820      5F584348 
 9821              	.LASF936:
 9822 4573 43595F42 		.ascii	"CY_BLE_CONN_STATE_CONNECTED\000"
 9822      4C455F43 
 9822      4F4E4E5F 
 9822      53544154 
 9822      455F434F 
 9823              	.LASF788:
 9824 458f 43595F42 		.ascii	"CY_BLE_ERROR_MAX\000"
 9824      4C455F45 
 9824      52524F52 
 9824      5F4D4158 
 9824      00
 9825              	.LASF703:
 9826 45a0 43595F42 		.ascii	"CY_BLE_EVT_GAP_ENCRYPT_CHANGE\000"
 9826      4C455F45 
 9826      56545F47 
 9826      41505F45 
 9826      4E435259 
 9827              	.LASF802:
 9828 45be 626F6E64 		.ascii	"bondListSize\000"
 9828      4C697374 
 9828      53697A65 
 9828      00
 9829              	.LASF509:
 9830 45cb 4D4D4D53 		.ascii	"MMMS_SLAVE_CREATE_US_CAPT\000"
 9830      5F534C41 
 9830      56455F43 
 9830      52454154 
 9830      455F5553 
 9831              	.LASF216:
 9832 45e5 74637077 		.ascii	"tcpwm_0_interrupts_5_IRQn\000"
 9832      6D5F305F 
 9832      696E7465 
 9832      72727570 
 9832      74735F35 
 9833              	.LASF631:
 9834 45ff 636F6E74 		.ascii	"context\000"
ARM GAS  C:\Users\JC\AppData\Local\Temp\ccNOiAvA.s 			page 253


 9834      65787400 
 9835              	.LASF33:
 9836 4607 63727970 		.ascii	"cryptoBase\000"
 9836      746F4261 
 9836      736500
 9837              	.LASF759:
 9838 4612 43595F42 		.ascii	"CY_BLE_SUCCESS\000"
 9838      4C455F53 
 9838      55434345 
 9838      535300
 9839              	.LASF878:
 9840 4621 43595F42 		.ascii	"CY_BLE_GAP_AUTH_ERROR_DHKEY_CHECK_FAILED\000"
 9840      4C455F47 
 9840      41505F41 
 9840      5554485F 
 9840      4552524F 
 9841              	.LASF937:
 9842 464a 43595F42 		.ascii	"CY_BLE_CONN_STATE_CLIENT_SRVC_DISCOVERING\000"
 9842      4C455F43 
 9842      4F4E4E5F 
 9842      53544154 
 9842      455F434C 
 9843              	.LASF269:
 9844 4674 4952516E 		.ascii	"IRQn_Type\000"
 9844      5F547970 
 9844      6500
 9845              	.LASF663:
 9846 467e 43595F42 		.ascii	"CY_BLE_EVT_ADD_DEVICE_TO_RPA_LIST_COMPLETE\000"
 9846      4C455F45 
 9846      56545F41 
 9846      44445F44 
 9846      45564943 
 9847              	.LASF837:
 9848 46a9 43595F42 		.ascii	"CY_BLE_LL_PWR_LVL_NEG_16_DBM\000"
 9848      4C455F4C 
 9848      4C5F5057 
 9848      525F4C56 
 9848      4C5F4E45 
 9849              	.LASF686:
 9850 46c6 43595F42 		.ascii	"CY_BLE_EVT_STACK_SHUTDOWN_COMPLETE\000"
 9850      4C455F45 
 9850      56545F53 
 9850      5441434B 
 9850      5F534855 
 9851              	.LASF251:
 9852 46e9 7564625F 		.ascii	"udb_interrupts_8_IRQn\000"
 9852      696E7465 
 9852      72727570 
 9852      74735F38 
 9852      5F495251 
 9853              	.LASF27:
 9854 46ff 75646242 		.ascii	"udbBase\000"
 9854      61736500 
 9855              	.LASF109:
 9856 4707 6970634C 		.ascii	"ipcLockStatusOffset\000"
 9856      6F636B53 
 9856      74617475 
ARM GAS  C:\Users\JC\AppData\Local\Temp\ccNOiAvA.s 			page 254


 9856      734F6666 
 9856      73657400 
 9857              	.LASF775:
 9858 471b 43595F42 		.ascii	"CY_BLE_ERROR_L2CAP_CONNECTION_ENTITY_NOT_FOUND\000"
 9858      4C455F45 
 9858      52524F52 
 9858      5F4C3243 
 9858      41505F43 
 9859              	.LASF803:
 9860 474a 63795F73 		.ascii	"cy_stc_ble_bonded_device_list_config_param_t\000"
 9860      74635F62 
 9860      6C655F62 
 9860      6F6E6465 
 9860      645F6465 
 9861              	.LASF619:
 9862 4777 43595F53 		.ascii	"CY_SYSPM_SLEEP\000"
 9862      5953504D 
 9862      5F534C45 
 9862      455000
 9863              	.LASF822:
 9864 4786 62756666 		.ascii	"bufferSize\000"
 9864      65725369 
 9864      7A6500
 9865              	.LASF785:
 9866 4791 43595F42 		.ascii	"CY_BLE_ERROR_CHAR_IS_NOT_DISCOVERED\000"
 9866      4C455F45 
 9866      52524F52 
 9866      5F434841 
 9866      525F4953 
 9867              	.LASF435:
 9868 47b5 434F4E4E 		.ascii	"CONN_UPDATE_NEW_SUP_TO\000"
 9868      5F555044 
 9868      4154455F 
 9868      4E45575F 
 9868      5355505F 
 9869              	.LASF958:
 9870 47cc 66617374 		.ascii	"fastScanInterval\000"
 9870      5363616E 
 9870      496E7465 
 9870      7276616C 
 9870      00
 9871              	.LASF423:
 9872 47dd 50454552 		.ascii	"PEER_SEC_ADDR_ADV_H\000"
 9872      5F534543 
 9872      5F414444 
 9872      525F4144 
 9872      565F4800 
 9873              	.LASF421:
 9874 47f1 50454552 		.ascii	"PEER_SEC_ADDR_ADV_L\000"
 9874      5F534543 
 9874      5F414444 
 9874      525F4144 
 9874      565F4C00 
 9875              	.LASF422:
 9876 4805 50454552 		.ascii	"PEER_SEC_ADDR_ADV_M\000"
 9876      5F534543 
 9876      5F414444 
ARM GAS  C:\Users\JC\AppData\Local\Temp\ccNOiAvA.s 			page 255


 9876      525F4144 
 9876      565F4D00 
 9877              	.LASF706:
 9878 4819 43595F42 		.ascii	"CY_BLE_EVT_GAP_KEYINFO_EXCHNGE_CMPLT\000"
 9878      4C455F45 
 9878      56545F47 
 9878      41505F4B 
 9878      4559494E 
 9879              	.LASF431:
 9880 483e 494E4954 		.ascii	"INIT_WINDOW_NI_ANCHOR_PT\000"
 9880      5F57494E 
 9880      444F575F 
 9880      4E495F41 
 9880      4E43484F 
 9881              	.LASF591:
 9882 4857 42315F44 		.ascii	"B1_DATA_REG\000"
 9882      4154415F 
 9882      52454700 
 9883              	.LASF968:
 9884 4863 67617063 		.ascii	"gapcConnectionTimeOut\000"
 9884      436F6E6E 
 9884      65637469 
 9884      6F6E5469 
 9884      6D654F75 
 9885              	.LASF847:
 9886 4879 43595F42 		.ascii	"CY_BLE_BLESS_STATE_ACTIVE\000"
 9886      4C455F42 
 9886      4C455353 
 9886      5F535441 
 9886      54455F41 
 9887              	.LASF202:
 9888 4893 63707573 		.ascii	"cpuss_interrupts_dw1_15_IRQn\000"
 9888      735F696E 
 9888      74657272 
 9888      75707473 
 9888      5F647731 
 9889              	.LASF940:
 9890 48b0 43595F42 		.ascii	"CY_BLE_CONN_STATE_CLIENT_DESCR_DISCOVERING\000"
 9890      4C455F43 
 9890      4F4E4E5F 
 9890      53544154 
 9890      455F434C 
 9891              	.LASF155:
 9892 48db 63707573 		.ascii	"cpuss_interrupts_ipc_9_IRQn\000"
 9892      735F696E 
 9892      74657272 
 9892      75707473 
 9892      5F697063 
 9893              	.LASF125:
 9894 48f7 696F7373 		.ascii	"ioss_interrupts_gpio_4_IRQn\000"
 9894      5F696E74 
 9894      65727275 
 9894      7074735F 
 9894      6770696F 
 9895              	.LASF87:
 9896 4913 70657269 		.ascii	"periDiv16_5CtlOffset\000"
 9896      44697631 
ARM GAS  C:\Users\JC\AppData\Local\Temp\ccNOiAvA.s 			page 256


 9896      365F3543 
 9896      746C4F66 
 9896      66736574 
 9897              	.LASF311:
 9898 4928 494E4954 		.ascii	"INIT_INTERVAL\000"
 9898      5F494E54 
 9898      45525641 
 9898      4C00
 9899              	.LASF1025:
 9900 4936 43595F49 		.ascii	"CY_IPC_SEMA_BAD_PARAM\000"
 9900      50435F53 
 9900      454D415F 
 9900      4241445F 
 9900      50415241 
 9901              	.LASF741:
 9902 494c 43595F42 		.ascii	"CY_BLE_EVT_GATTS_HANDLE_VALUE_CNF\000"
 9902      4C455F45 
 9902      56545F47 
 9902      41545453 
 9902      5F48414E 
 9903              	.LASF597:
 9904 496e 5452494D 		.ascii	"TRIM_MXD\000"
 9904      5F4D5844 
 9904      00
 9905              	.LASF863:
 9906 4977 43595F42 		.ascii	"CY_BLE_GAP_IOCAP_KEYBOARD_ONLY\000"
 9906      4C455F47 
 9906      41505F49 
 9906      4F434150 
 9906      5F4B4559 
 9907              	.LASF805:
 9908 4996 63795F73 		.ascii	"cy_stc_ble_white_list_config_param_t\000"
 9908      74635F62 
 9908      6C655F77 
 9908      68697465 
 9908      5F6C6973 
 9909              	.LASF67:
 9910 49bb 666C6173 		.ascii	"flashCtlMainWs1Freq\000"
 9910      6843746C 
 9910      4D61696E 
 9910      57733146 
 9910      72657100 
 9911              	.LASF225:
 9912 49cf 74637077 		.ascii	"tcpwm_1_interrupts_6_IRQn\000"
 9912      6D5F315F 
 9912      696E7465 
 9912      72727570 
 9912      74735F36 
 9913              	.LASF3:
 9914 49e9 7369676E 		.ascii	"signed char\000"
 9914      65642063 
 9914      68617200 
 9915              	.LASF582:
 9916 49f5 49565F4D 		.ascii	"IV_MASTER0\000"
 9916      41535445 
 9916      523000
 9917              	.LASF29:
ARM GAS  C:\Users\JC\AppData\Local\Temp\ccNOiAvA.s 			page 257


 9918 4a00 6873696F 		.ascii	"hsiomBase\000"
 9918      6D426173 
 9918      6500
 9919              	.LASF1014:
 9920 4a0a 67617474 		.ascii	"gattDB\000"
 9920      444200
 9921              	.LASF270:
 9922 4a11 4354524C 		.ascii	"CTRL\000"
 9922      00
 9923              	.LASF361:
 9924 4a16 5044555F 		.ascii	"PDU_ACCESS_ADDR_H_REGISTER\000"
 9924      41434345 
 9924      53535F41 
 9924      4444525F 
 9924      485F5245 
 9925              	.LASF724:
 9926 4a31 43595F42 		.ascii	"CY_BLE_EVT_GATTS_XCNHG_MTU_REQ\000"
 9926      4C455F45 
 9926      56545F47 
 9926      41545453 
 9926      5F58434E 
 9927              	.LASF527:
 9928 4a50 434F4E4E 		.ascii	"CONN_4_CE_DATA_LIST_CFG\000"
 9928      5F345F43 
 9928      455F4441 
 9928      54415F4C 
 9928      4953545F 
 9929              	.LASF762:
 9930 4a68 43595F42 		.ascii	"CY_BLE_ERROR_INVALID_OPERATION\000"
 9930      4C455F45 
 9930      52524F52 
 9930      5F494E56 
 9930      414C4944 
 9931              	.LASF1068:
 9932 4a87 63795F62 		.ascii	"cy_ble_cmdStatus\000"
 9932      6C655F63 
 9932      6D645374 
 9932      61747573 
 9932      00
 9933              	.LASF561:
 9934 4a98 4D545F43 		.ascii	"MT_CFG\000"
 9934      464700
 9935              	.LASF135:
 9936 4a9f 696F7373 		.ascii	"ioss_interrupts_gpio_14_IRQn\000"
 9936      5F696E74 
 9936      65727275 
 9936      7074735F 
 9936      6770696F 
 9937              	.LASF103:
 9938 4abc 63707573 		.ascii	"cpussCm4NmiCtlOffset\000"
 9938      73436D34 
 9938      4E6D6943 
 9938      746C4F66 
 9938      66736574 
 9939              	.LASF627:
 9940 4ad1 43595F53 		.ascii	"CY_SYSPM_BEFORE_TRANSITION\000"
 9940      5953504D 
ARM GAS  C:\Users\JC\AppData\Local\Temp\ccNOiAvA.s 			page 258


 9940      5F424546 
 9940      4F52455F 
 9940      5452414E 
 9941              	.LASF181:
 9942 4aec 63707573 		.ascii	"cpuss_interrupts_dw0_10_IRQn\000"
 9942      735F696E 
 9942      74657272 
 9942      75707473 
 9942      5F647730 
 9943              	.LASF600:
 9944 4b09 424C455F 		.ascii	"BLE_BLESS_V1_Type\000"
 9944      424C4553 
 9944      535F5631 
 9944      5F547970 
 9944      6500
 9945              	.LASF97:
 9946 4b1b 63707573 		.ascii	"cpussCm0StatusOffset\000"
 9946      73436D30 
 9946      53746174 
 9946      75734F66 
 9946      66736574 
 9947              	.LASF953:
 9948 4b30 736C6F77 		.ascii	"slowAdvEnable\000"
 9948      41647645 
 9948      6E61626C 
 9948      6500
 9949              	.LASF278:
 9950 4b3e 52414449 		.ascii	"RADIO_REG3_ADDR\000"
 9950      4F5F5245 
 9950      47335F41 
 9950      44445200 
 9951              	.LASF213:
 9952 4b4e 74637077 		.ascii	"tcpwm_0_interrupts_2_IRQn\000"
 9952      6D5F305F 
 9952      696E7465 
 9952      72727570 
 9952      74735F32 
 9953              	.LASF18:
 9954 4b68 696E7438 		.ascii	"int8_t\000"
 9954      5F7400
 9955              	.LASF602:
 9956 4b6f 424C4553 		.ascii	"BLESS\000"
 9956      5300
 9957              	.LASF262:
 9958 4b75 70726F66 		.ascii	"profile_interrupt_IRQn\000"
 9958      696C655F 
 9958      696E7465 
 9958      72727570 
 9958      745F4952 
 9959              	.LASF333:
 9960 4b8c 44415441 		.ascii	"DATA_CHANNELS_L1\000"
 9960      5F434841 
 9960      4E4E454C 
 9960      535F4C31 
 9960      00
 9961              	.LASF684:
 9962 4b9d 43595F42 		.ascii	"CY_BLE_EVT_AES_CCM_DECRYPT_COMPLETE\000"
ARM GAS  C:\Users\JC\AppData\Local\Temp\ccNOiAvA.s 			page 259


 9962      4C455F45 
 9962      56545F41 
 9962      45535F43 
 9962      434D5F44 
 9963              	.LASF975:
 9964 4bc1 63795F73 		.ascii	"cy_stc_ble_gatts_att_pack_val_len_t\000"
 9964      74635F62 
 9964      6C655F67 
 9964      61747473 
 9964      5F617474 
 9965              	.LASF248:
 9966 4be5 7564625F 		.ascii	"udb_interrupts_5_IRQn\000"
 9966      696E7465 
 9966      72727570 
 9966      74735F35 
 9966      5F495251 
 9967              	.LASF699:
 9968 4bfb 43595F42 		.ascii	"CY_BLE_EVT_GAP_AUTH_FAILED\000"
 9968      4C455F45 
 9968      56545F47 
 9968      41505F41 
 9968      5554485F 
 9969              	.LASF893:
 9970 4c16 7363616E 		.ascii	"scanType\000"
 9970      54797065 
 9970      00
 9971              	.LASF194:
 9972 4c1f 63707573 		.ascii	"cpuss_interrupts_dw1_7_IRQn\000"
 9972      735F696E 
 9972      74657272 
 9972      75707473 
 9972      5F647731 
 9973              	.LASF675:
 9974 4c3b 43595F42 		.ascii	"CY_BLE_EVT_GET_DEVICE_ADDR_COMPLETE\000"
 9974      4C455F45 
 9974      56545F47 
 9974      45545F44 
 9974      45564943 
 9975              	.LASF21:
 9976 4c5f 75696E74 		.ascii	"uint16_t\000"
 9976      31365F74 
 9976      00
 9977              	.LASF64:
 9978 4c68 666C6173 		.ascii	"flashProgramDelay\000"
 9978      6850726F 
 9978      6772616D 
 9978      44656C61 
 9978      7900
 9979              	.LASF776:
 9980 4c7a 43595F42 		.ascii	"CY_BLE_ERROR_L2CAP_PSM_NOT_IN_RANGE\000"
 9980      4C455F45 
 9980      52524F52 
 9980      5F4C3243 
 9980      41505F50 
 9981              	.LASF888:
 9982 4c9e 656B6579 		.ascii	"ekeySize\000"
 9982      53697A65 
ARM GAS  C:\Users\JC\AppData\Local\Temp\ccNOiAvA.s 			page 260


 9982      00
 9983              	.LASF832:
 9984 4ca7 4379426C 		.ascii	"CyBleAppCbFunc\000"
 9984      65417070 
 9984      43624675 
 9984      6E6300
 9985              	.LASF1007:
 9986 4cb6 67617070 		.ascii	"gappAdvParams\000"
 9986      41647650 
 9986      6172616D 
 9986      7300
 9987              	.LASF15:
 9988 4cc4 6C6F6E67 		.ascii	"long long unsigned int\000"
 9988      206C6F6E 
 9988      6720756E 
 9988      7369676E 
 9988      65642069 
 9989              	.LASF272:
 9990 4cdb 494E5452 		.ascii	"INTR\000"
 9990      00
 9991              	.LASF304:
 9992 4ce0 4144565F 		.ascii	"ADV_NEXT_INSTANT\000"
 9992      4E455854 
 9992      5F494E53 
 9992      54414E54 
 9992      00
 9993              	.LASF685:
 9994 4cf1 43595F42 		.ascii	"CY_BLE_EVT_SET_SLAVE_LATENCY_MODE_COMPLETE\000"
 9994      4C455F45 
 9994      56545F53 
 9994      45545F53 
 9994      4C415645 
 9995              	.LASF608:
 9996 4d1c 696E7472 		.ascii	"intrPriority\000"
 9996      5072696F 
 9996      72697479 
 9996      00
 9997              	.LASF199:
 9998 4d29 63707573 		.ascii	"cpuss_interrupts_dw1_12_IRQn\000"
 9998      735F696E 
 9998      74657272 
 9998      75707473 
 9998      5F647731 
 9999              	.LASF448:
 10000 4d46 434F4E4E 		.ascii	"CONN_REQ_WORD10\000"
 10000      5F524551 
 10000      5F574F52 
 10000      44313000 
 10001              	.LASF449:
 10002 4d56 434F4E4E 		.ascii	"CONN_REQ_WORD11\000"
 10002      5F524551 
 10002      5F574F52 
 10002      44313100 
 10003              	.LASF824:
 10004 4d66 63795F73 		.ascii	"cy_stc_ble_stk_app_data_buff_t\000"
 10004      74635F62 
 10004      6C655F73 
ARM GAS  C:\Users\JC\AppData\Local\Temp\ccNOiAvA.s 			page 261


 10004      746B5F61 
 10004      70705F64 
 10005              	.LASF298:
 10006 4d85 434F4D4D 		.ascii	"COMMAND_REGISTER\000"
 10006      414E445F 
 10006      52454749 
 10006      53544552 
 10006      00
 10007              	.LASF152:
 10008 4d96 63707573 		.ascii	"cpuss_interrupts_ipc_6_IRQn\000"
 10008      735F696E 
 10008      74657272 
 10008      75707473 
 10008      5F697063 
 10009              	.LASF122:
 10010 4db2 696F7373 		.ascii	"ioss_interrupts_gpio_1_IRQn\000"
 10010      5F696E74 
 10010      65727275 
 10010      7074735F 
 10010      6770696F 
 10011              	.LASF991:
 10012 4dce 63795F73 		.ascii	"cy_stc_ble_gatts_t\000"
 10012      74635F62 
 10012      6C655F67 
 10012      61747473 
 10012      5F7400
 10013              	.LASF80:
 10014 4de1 70657269 		.ascii	"periTrGrSize\000"
 10014      54724772 
 10014      53697A65 
 10014      00
 10015              	.LASF697:
 10016 4dee 43595F42 		.ascii	"CY_BLE_EVT_GAP_PASSKEY_DISPLAY_REQUEST\000"
 10016      4C455F45 
 10016      56545F47 
 10016      41505F50 
 10016      4153534B 
 10017              	.LASF307:
 10018 4e15 5343414E 		.ascii	"SCAN_PARAM\000"
 10018      5F504152 
 10018      414D00
 10019              	.LASF856:
 10020 4e20 43595F42 		.ascii	"CY_BLE_CONTROLLER_SLEEP_MODE_DEEPSLEEP\000"
 10020      4C455F43 
 10020      4F4E5452 
 10020      4F4C4C45 
 10020      525F534C 
 10021              	.LASF932:
 10022 4e47 43595F42 		.ascii	"CY_BLE_ADV_STATE_STOP_INITIATED\000"
 10022      4C455F41 
 10022      44565F53 
 10022      54415445 
 10022      5F53544F 
 10023              	.LASF389:
 10024 4e67 434F4E4E 		.ascii	"CONN_CH_TX_POWER_LVL_LS\000"
 10024      5F43485F 
 10024      54585F50 
ARM GAS  C:\Users\JC\AppData\Local\Temp\ccNOiAvA.s 			page 262


 10024      4F574552 
 10024      5F4C564C 
 10025              	.LASF222:
 10026 4e7f 74637077 		.ascii	"tcpwm_1_interrupts_3_IRQn\000"
 10026      6D5F315F 
 10026      696E7465 
 10026      72727570 
 10026      74735F33 
 10027              	.LASF56:
 10028 4e99 65704D6F 		.ascii	"epMonitorNr\000"
 10028      6E69746F 
 10028      724E7200 
 10029              	.LASF465:
 10030 4ea5 4558545F 		.ascii	"EXT_PA_LNA_DLY_CNFG\000"
 10030      50415F4C 
 10030      4E415F44 
 10030      4C595F43 
 10030      4E464700 
 10031              	.LASF57:
 10032 4eb9 75646250 		.ascii	"udbPresent\000"
 10032      72657365 
 10032      6E7400
 10033              	.LASF390:
 10034 4ec4 434F4E4E 		.ascii	"CONN_CH_TX_POWER_LVL_MS\000"
 10034      5F43485F 
 10034      54585F50 
 10034      4F574552 
 10034      5F4C564C 
 10035              	.LASF137:
 10036 4edc 696F7373 		.ascii	"ioss_interrupt_vdd_IRQn\000"
 10036      5F696E74 
 10036      65727275 
 10036      70745F76 
 10036      64645F49 
 10037              	.LASF891:
 10038 4ef4 63795F73 		.ascii	"cy_stc_ble_gap_auth_info_t\000"
 10038      74635F62 
 10038      6C655F67 
 10038      61705F61 
 10038      7574685F 
 10039              	.LASF982:
 10040 4f0f 61747445 		.ascii	"attEndHandle\000"
 10040      6E644861 
 10040      6E646C65 
 10040      00
 10041              	.LASF132:
 10042 4f1c 696F7373 		.ascii	"ioss_interrupts_gpio_11_IRQn\000"
 10042      5F696E74 
 10042      65727275 
 10042      7074735F 
 10042      6770696F 
 10043              	.LASF78:
 10044 4f39 70657269 		.ascii	"periTrCmdGrSelMsk\000"
 10044      5472436D 
 10044      64477253 
 10044      656C4D73 
 10044      6B00
ARM GAS  C:\Users\JC\AppData\Local\Temp\ccNOiAvA.s 			page 263


 10045              	.LASF867:
 10046 4f4b 43595F42 		.ascii	"CY_BLE_GAP_AUTH_ERROR_NONE\000"
 10046      4C455F47 
 10046      41505F41 
 10046      5554485F 
 10046      4552524F 
 10047              	.LASF179:
 10048 4f66 63707573 		.ascii	"cpuss_interrupts_dw0_8_IRQn\000"
 10048      735F696E 
 10048      74657272 
 10048      75707473 
 10048      5F647730 
 10049              	.LASF976:
 10050 4f82 61747446 		.ascii	"attFormatValue\000"
 10050      6F726D61 
 10050      7456616C 
 10050      756500
 10051              	.LASF53:
 10052 4f91 70657269 		.ascii	"periClockNr\000"
 10052      436C6F63 
 10052      6B4E7200 
 10053              	.LASF328:
 10054 4f9d 5452414E 		.ascii	"TRANSMIT_WINDOW_SIZE\000"
 10054      534D4954 
 10054      5F57494E 
 10054      444F575F 
 10054      53495A45 
 10055              	.LASF793:
 10056 4fb2 646C654D 		.ascii	"dleMaxTxCapability\000"
 10056      61785478 
 10056      43617061 
 10056      62696C69 
 10056      747900
 10057              	.LASF323:
 10058 4fc5 50454552 		.ascii	"PEER_ADDR_H\000"
 10058      5F414444 
 10058      525F4800 
 10059              	.LASF321:
 10060 4fd1 50454552 		.ascii	"PEER_ADDR_L\000"
 10060      5F414444 
 10060      525F4C00 
 10061              	.LASF322:
 10062 4fdd 50454552 		.ascii	"PEER_ADDR_M\000"
 10062      5F414444 
 10062      525F4D00 
 10063              	.LASF94:
 10064 4fe9 63707573 		.ascii	"cpussCm0ClockCtlOffset\000"
 10064      73436D30 
 10064      436C6F63 
 10064      6B43746C 
 10064      4F666673 
 10065              	.LASF282:
 10066 5000 4350555F 		.ascii	"CPU_WRITE_REG\000"
 10066      57524954 
 10066      455F5245 
 10066      4700
 10067              	.LASF17:
ARM GAS  C:\Users\JC\AppData\Local\Temp\ccNOiAvA.s 			page 264


 10068 500e 63686172 		.ascii	"char\000"
 10068      00
 10069              	.LASF1023:
 10070 5013 43595F49 		.ascii	"CY_IPC_SEMA_ERROR_LOCKED\000"
 10070      50435F53 
 10070      454D415F 
 10070      4552524F 
 10070      525F4C4F 
 10071              	.LASF1045:
 10072 502c 43795F42 		.ascii	"Cy_BLE_DeepSleepCallback\000"
 10072      4C455F44 
 10072      65657053 
 10072      6C656570 
 10072      43616C6C 
 10073              	.LASF245:
 10074 5045 7564625F 		.ascii	"udb_interrupts_2_IRQn\000"
 10074      696E7465 
 10074      72727570 
 10074      74735F32 
 10074      5F495251 
 10075              	.LASF472:
 10076 505b 4445565F 		.ascii	"DEV_PA_ADDR_H\000"
 10076      50415F41 
 10076      4444525F 
 10076      4800
 10077              	.LASF470:
 10078 5069 4445565F 		.ascii	"DEV_PA_ADDR_L\000"
 10078      50415F41 
 10078      4444525F 
 10078      4C00
 10079              	.LASF471:
 10080 5077 4445565F 		.ascii	"DEV_PA_ADDR_M\000"
 10080      50415F41 
 10080      4444525F 
 10080      4D00
 10081              	.LASF354:
 10082 5085 494E4954 		.ascii	"INIT_SCN_ADV_RX_FIFO\000"
 10082      5F53434E 
 10082      5F414456 
 10082      5F52585F 
 10082      4649464F 
 10083              	.LASF191:
 10084 509a 63707573 		.ascii	"cpuss_interrupts_dw1_4_IRQn\000"
 10084      735F696E 
 10084      74657272 
 10084      75707473 
 10084      5F647731 
 10085              	.LASF681:
 10086 50b6 43595F42 		.ascii	"CY_BLE_EVT_RANDOM_NUM_GEN_COMPLETE\000"
 10086      4C455F45 
 10086      56545F52 
 10086      414E444F 
 10086      4D5F4E55 
 10087              	.LASF971:
 10088 50d9 61747447 		.ascii	"attGenericVal\000"
 10088      656E6572 
 10088      69635661 
ARM GAS  C:\Users\JC\AppData\Local\Temp\ccNOiAvA.s 			page 265


 10088      6C00
 10089              	.LASF374:
 10090 50e7 57494E44 		.ascii	"WINDOW_WIDEN_INTVL\000"
 10090      4F575F57 
 10090      4944454E 
 10090      5F494E54 
 10090      564C00
 10091              	.LASF481:
 10092 50fa 434F4E4E 		.ascii	"CONN_1_PARAM_MEM_BASE_ADDR\000"
 10092      5F315F50 
 10092      4152414D 
 10092      5F4D454D 
 10092      5F424153 
 10093              	.LASF708:
 10094 5115 43595F42 		.ascii	"CY_BLE_EVT_GAP_KEYPRESS_NOTIFICATION\000"
 10094      4C455F45 
 10094      56545F47 
 10094      41505F4B 
 10094      45595052 
 10095              	.LASF288:
 10096 513a 54585F46 		.ascii	"TX_FIFO_CTRL\000"
 10096      49464F5F 
 10096      4354524C 
 10096      00
 10097              	.LASF236:
 10098 5147 74637077 		.ascii	"tcpwm_1_interrupts_17_IRQn\000"
 10098      6D5F315F 
 10098      696E7465 
 10098      72727570 
 10098      74735F31 
 10099              	.LASF995:
 10100 5162 61747456 		.ascii	"attValuesCCCDFlashMemory\000"
 10100      616C7565 
 10100      73434343 
 10100      44466C61 
 10100      73684D65 
 10101              	.LASF656:
 10102 517b 43595F42 		.ascii	"CY_BLE_EVT_GET_DATA_LENGTH_COMPLETE\000"
 10102      4C455F45 
 10102      56545F47 
 10102      45545F44 
 10102      4154415F 
 10103              	.LASF456:
 10104 519f 534C565F 		.ascii	"SLV_WIN_ADJ\000"
 10104      57494E5F 
 10104      41444A00 
 10105              	.LASF90:
 10106 51ab 6770696F 		.ascii	"gpioPrtCfgOffset\000"
 10106      50727443 
 10106      66674F66 
 10106      66736574 
 10106      00
 10107              	.LASF771:
 10108 51bc 43595F42 		.ascii	"CY_BLE_ERROR_SEC_FAILED\000"
 10108      4C455F45 
 10108      52524F52 
 10108      5F534543 
ARM GAS  C:\Users\JC\AppData\Local\Temp\ccNOiAvA.s 			page 266


 10108      5F464149 
 10109              	.LASF1000:
 10110 51d4 7478506F 		.ascii	"txPowerLevelConn\000"
 10110      7765724C 
 10110      6576656C 
 10110      436F6E6E 
 10110      00
 10111              	.LASF916:
 10112 51e5 61647644 		.ascii	"advDataLen\000"
 10112      6174614C 
 10112      656E00
 10113              	.LASF149:
 10114 51f0 63707573 		.ascii	"cpuss_interrupts_ipc_3_IRQn\000"
 10114      735F696E 
 10114      74657272 
 10114      75707473 
 10114      5F697063 
 10115              	.LASF584:
 10116 520c 454E435F 		.ascii	"ENC_KEY\000"
 10116      4B455900 
 10117              	.LASF1005:
 10118 5214 63795F73 		.ascii	"cy_stc_ble_params_t\000"
 10118      74635F62 
 10118      6C655F70 
 10118      6172616D 
 10118      735F7400 
 10119              	.LASF695:
 10120 5228 43595F42 		.ascii	"CY_BLE_EVT_GAP_AUTH_REQ\000"
 10120      4C455F45 
 10120      56545F47 
 10120      41505F41 
 10120      5554485F 
 10121              	.LASF870:
 10122 5240 43595F42 		.ascii	"CY_BLE_GAP_AUTH_ERROR_AUTHENTICATION_REQ_NOT_MET\000"
 10122      4C455F47 
 10122      41505F41 
 10122      5554485F 
 10122      4552524F 
 10123              	.LASF973:
 10124 5271 6D617841 		.ascii	"maxAttrLength\000"
 10124      7474724C 
 10124      656E6774 
 10124      6800
 10125              	.LASF755:
 10126 527f 43595F42 		.ascii	"CY_BLE_EVT_L2CAP_CBFC_TX_CREDIT_IND\000"
 10126      4C455F45 
 10126      56545F4C 
 10126      32434150 
 10126      5F434246 
 10127              	.LASF487:
 10128 52a3 434F4E4E 		.ascii	"CONN_4_PARAM_MEM_BASE_ADDR\000"
 10128      5F345F50 
 10128      4152414D 
 10128      5F4D454D 
 10128      5F424153 
 10129              	.LASF736:
 10130 52be 43595F42 		.ascii	"CY_BLE_EVT_GATTS_PREP_WRITE_REQ\000"
ARM GAS  C:\Users\JC\AppData\Local\Temp\ccNOiAvA.s 			page 267


 10130      4C455F45 
 10130      56545F47 
 10130      41545453 
 10130      5F505245 
 10131              	.LASF219:
 10132 52de 74637077 		.ascii	"tcpwm_1_interrupts_0_IRQn\000"
 10132      6D5F315F 
 10132      696E7465 
 10132      72727570 
 10132      74735F30 
 10133              	.LASF111:
 10134 52f8 52657365 		.ascii	"Reset_IRQn\000"
 10134      745F4952 
 10134      516E00
 10135              	.LASF622:
 10136 5303 43595F53 		.ascii	"CY_SYSPM_LP\000"
 10136      5953504D 
 10136      5F4C5000 
 10137              	.LASF983:
 10138 530f 61747456 		.ascii	"attValue\000"
 10138      616C7565 
 10138      00
 10139              	.LASF894:
 10140 5318 7363616E 		.ascii	"scanIntv\000"
 10140      496E7476 
 10140      00
 10141              	.LASF316:
 10142 5321 494E4954 		.ascii	"INIT_NEXT_INSTANT\000"
 10142      5F4E4558 
 10142      545F494E 
 10142      5354414E 
 10142      5400
 10143              	.LASF1046:
 10144 5333 6D6F6465 		.ascii	"mode\000"
 10144      00
 10145              	.LASF176:
 10146 5338 63707573 		.ascii	"cpuss_interrupts_dw0_5_IRQn\000"
 10146      735F696E 
 10146      74657272 
 10146      75707473 
 10146      5F647730 
 10147              	.LASF1030:
 10148 5354 43595F49 		.ascii	"CY_IPC_SEMA_STATUS_UNLOCKED\000"
 10148      50435F53 
 10148      454D415F 
 10148      53544154 
 10148      55535F55 
 10149              	.LASF702:
 10150 5370 43595F42 		.ascii	"CY_BLE_EVT_GAP_DEVICE_DISCONNECTED\000"
 10150      4C455F45 
 10150      56545F47 
 10150      41505F44 
 10150      45564943 
 10151              	.LASF876:
 10152 5393 43595F42 		.ascii	"CY_BLE_GAP_AUTH_ERROR_REPEATED_ATTEMPTS\000"
 10152      4C455F47 
 10152      41505F41 
ARM GAS  C:\Users\JC\AppData\Local\Temp\ccNOiAvA.s 			page 268


 10152      5554485F 
 10152      4552524F 
 10153              	.LASF372:
 10154 53bb 44415441 		.ascii	"DATA_MEM_DESCRIPTOR\000"
 10154      5F4D454D 
 10154      5F444553 
 10154      43524950 
 10154      544F5200 
 10155              	.LASF240:
 10156 53cf 74637077 		.ascii	"tcpwm_1_interrupts_21_IRQn\000"
 10156      6D5F315F 
 10156      696E7465 
 10156      72727570 
 10156      74735F32 
 10157              	.LASF47:
 10158 53ea 63707573 		.ascii	"cpussIpc0Irq\000"
 10158      73497063 
 10158      30497271 
 10158      00
 10159              	.LASF1027:
 10160 53f7 43595F49 		.ascii	"CY_IPC_SEMA_NOT_ACQUIRED\000"
 10160      50435F53 
 10160      454D415F 
 10160      4E4F545F 
 10160      41435155 
 10161              	.LASF1075:
 10162 5410 43795F42 		.ascii	"Cy_BLE_ConfigureExtPA\000"
 10162      4C455F43 
 10162      6F6E6669 
 10162      67757265 
 10162      45787450 
 10163              	.LASF552:
 10164 5426 424C455F 		.ascii	"BLE_BLELL_V1_Type\000"
 10164      424C454C 
 10164      4C5F5631 
 10164      5F547970 
 10164      6500
 10165              	.LASF651:
 10166 5438 43595F42 		.ascii	"CY_BLE_EVT_GET_CHANNEL_MAP_COMPLETE\000"
 10166      4C455F45 
 10166      56545F47 
 10166      45545F43 
 10166      48414E4E 
 10167              	.LASF257:
 10168 545c 7564625F 		.ascii	"udb_interrupts_14_IRQn\000"
 10168      696E7465 
 10168      72727570 
 10168      74735F31 
 10168      345F4952 
 10169              	.LASF68:
 10170 5473 666C6173 		.ascii	"flashCtlMainWs2Freq\000"
 10170      6843746C 
 10170      4D61696E 
 10170      57733246 
 10170      72657100 
 10171              	.LASF643:
 10172 5487 43595F42 		.ascii	"CY_BLE_EVT_TIMEOUT\000"
ARM GAS  C:\Users\JC\AppData\Local\Temp\ccNOiAvA.s 			page 269


 10172      4C455F45 
 10172      56545F54 
 10172      494D454F 
 10172      555400
 10173              	.LASF28:
 10174 549a 70726F74 		.ascii	"protBase\000"
 10174      42617365 
 10174      00
 10175              	.LASF925:
 10176 54a3 43595F42 		.ascii	"CY_BLE_STATE_STOPPED\000"
 10176      4C455F53 
 10176      54415445 
 10176      5F53544F 
 10176      50504544 
 10177              	.LASF1069:
 10178 54b8 63795F62 		.ascii	"cy_ble_advertisingIntervalType\000"
 10178      6C655F61 
 10178      64766572 
 10178      74697369 
 10178      6E67496E 
 10179              	.LASF881:
 10180 54d7 43595F42 		.ascii	"CY_BLE_GAP_AUTH_ERROR_CROSS_TRANSPORT_KEY_GEN_DER_N"
 10180      4C455F47 
 10180      41505F41 
 10180      5554485F 
 10180      4552524F 
 10181 550a 4F545F41 		.ascii	"OT_ALLOWED\000"
 10181      4C4C4F57 
 10181      454400
 10182              	.LASF294:
 10183 5515 52585F46 		.ascii	"RX_FIFO_RD\000"
 10183      49464F5F 
 10183      524400
 10184              	.LASF518:
 10185 5520 434F4E4E 		.ascii	"CONN_2_DATA_LIST_ACK\000"
 10185      5F325F44 
 10185      4154415F 
 10185      4C495354 
 10185      5F41434B 
 10186              	.LASF990:
 10187 5535 63636364 		.ascii	"cccdHandle\000"
 10187      48616E64 
 10187      6C6500
 10188              	.LASF110:
 10189 5540 63795F73 		.ascii	"cy_stc_device_t\000"
 10189      74635F64 
 10189      65766963 
 10189      655F7400 
 10190              	.LASF821:
 10191 5550 63795F73 		.ascii	"cy_stc_ble_stack_config_param_t\000"
 10191      74635F62 
 10191      6C655F73 
 10191      7461636B 
 10191      5F636F6E 
 10192              	.LASF490:
 10193 5570 55535F4F 		.ascii	"US_OFFSET\000"
 10193      46465345 
ARM GAS  C:\Users\JC\AppData\Local\Temp\ccNOiAvA.s 			page 270


 10193      5400
 10194              	.LASF188:
 10195 557a 63707573 		.ascii	"cpuss_interrupts_dw1_1_IRQn\000"
 10195      735F696E 
 10195      74657272 
 10195      75707473 
 10195      5F647731 
 10196              	.LASF117:
 10197 5596 53564361 		.ascii	"SVCall_IRQn\000"
 10197      6C6C5F49 
 10197      52516E00 
 10198              	.LASF381:
 10199 55a2 54585258 		.ascii	"TXRX_HOP\000"
 10199      5F484F50 
 10199      00
 10200              	.LASF632:
 10201 55ab 63795F73 		.ascii	"cy_stc_syspm_callback_params_t\000"
 10201      74635F73 
 10201      7973706D 
 10201      5F63616C 
 10201      6C626163 
 10202              	.LASF233:
 10203 55ca 74637077 		.ascii	"tcpwm_1_interrupts_14_IRQn\000"
 10203      6D5F315F 
 10203      696E7465 
 10203      72727570 
 10203      74735F31 
 10204              	.LASF819:
 10205 55e5 66656174 		.ascii	"featureHeapReq\000"
 10205      75726548 
 10205      65617052 
 10205      657100
 10206              	.LASF945:
 10207 55f4 61707065 		.ascii	"appearanceCharHandle\000"
 10207      6172616E 
 10207      63654368 
 10207      61724861 
 10207      6E646C65 
 10208              	.LASF1035:
 10209 5609 61706952 		.ascii	"apiResult\000"
 10209      6573756C 
 10209      7400
 10210              	.LASF818:
 10211 5613 66656174 		.ascii	"featureMask\000"
 10211      7572654D 
 10211      61736B00 
 10212              	.LASF383:
 10213 561f 54585F52 		.ascii	"TX_RX_ON_DELAY\000"
 10213      585F4F4E 
 10213      5F44454C 
 10213      415900
 10214              	.LASF496:
 10215 562e 4D4D4D53 		.ascii	"MMMS_CONN_STATUS\000"
 10215      5F434F4E 
 10215      4E5F5354 
 10215      41545553 
 10215      00
ARM GAS  C:\Users\JC\AppData\Local\Temp\ccNOiAvA.s 			page 271


 10216              	.LASF119:
 10217 563f 50656E64 		.ascii	"PendSV_IRQn\000"
 10217      53565F49 
 10217      52516E00 
 10218              	.LASF733:
 10219 564b 43595F42 		.ascii	"CY_BLE_EVT_GATTS_WRITE_REQ\000"
 10219      4C455F45 
 10219      56545F47 
 10219      41545453 
 10219      5F575249 
 10220              	.LASF647:
 10221 5666 43595F42 		.ascii	"CY_BLE_EVT_FLASH_CORRUPT\000"
 10221      4C455F45 
 10221      56545F46 
 10221      4C415348 
 10221      5F434F52 
 10222              	.LASF625:
 10223 567f 43595F53 		.ascii	"CY_SYSPM_CHECK_READY\000"
 10223      5953504D 
 10223      5F434845 
 10223      434B5F52 
 10223      45414459 
 10224              	.LASF146:
 10225 5694 63707573 		.ascii	"cpuss_interrupts_ipc_0_IRQn\000"
 10225      735F696E 
 10225      74657272 
 10225      75707473 
 10225      5F697063 
 10226              	.LASF1026:
 10227 56b0 43595F49 		.ascii	"CY_IPC_SEMA_OUT_OF_RANGE\000"
 10227      50435F53 
 10227      454D415F 
 10227      4F55545F 
 10227      4F465F52 
 10228              	.LASF1002:
 10229 56c9 73656375 		.ascii	"securityPairingMethod\000"
 10229      72697479 
 10229      50616972 
 10229      696E674D 
 10229      6574686F 
 10230              	.LASF144:
 10231 56df 70617373 		.ascii	"pass_interrupt_ctbs_IRQn\000"
 10231      5F696E74 
 10231      65727275 
 10231      70745F63 
 10231      7462735F 
 10232              	.LASF610:
 10233 56f8 43595F53 		.ascii	"CY_SYSPM_SUCCESS\000"
 10233      5953504D 
 10233      5F535543 
 10233      43455353 
 10233      00
 10234              	.LASF434:
 10235 5709 434F4E4E 		.ascii	"CONN_UPDATE_NEW_LATENCY\000"
 10235      5F555044 
 10235      4154455F 
 10235      4E45575F 
ARM GAS  C:\Users\JC\AppData\Local\Temp\ccNOiAvA.s 			page 272


 10235      4C415445 
 10236              	.LASF22:
 10237 5721 696E7433 		.ascii	"int32_t\000"
 10237      325F7400 
 10238              	.LASF577:
 10239 5729 45465553 		.ascii	"EFUSE_WDATA_H\000"
 10239      455F5744 
 10239      4154415F 
 10239      4800
 10240              	.LASF576:
 10241 5737 45465553 		.ascii	"EFUSE_WDATA_L\000"
 10241      455F5744 
 10241      4154415F 
 10241      4C00
 10242              	.LASF951:
 10243 5745 66617374 		.ascii	"fastAdvIntervalMax\000"
 10243      41647649 
 10243      6E746572 
 10243      76616C4D 
 10243      617800
 10244              	.LASF114:
 10245 5758 4D656D6F 		.ascii	"MemoryManagement_IRQn\000"
 10245      72794D61 
 10245      6E616765 
 10245      6D656E74 
 10245      5F495251 
 10246              	.LASF843:
 10247 576e 43595F42 		.ascii	"CY_BLE_BLESS_ACTIVE\000"
 10247      4C455F42 
 10247      4C455353 
 10247      5F414354 
 10247      49564500 
 10248              	.LASF680:
 10249 5782 43595F42 		.ascii	"CY_BLE_EVT_SET_CLK_CONFIG_COMPLETE\000"
 10249      4C455F45 
 10249      56545F53 
 10249      45545F43 
 10249      4C4B5F43 
 10250              	.LASF359:
 10251 57a5 43455F4C 		.ascii	"CE_LENGTH\000"
 10251      454E4754 
 10251      4800
 10252              	.LASF491:
 10253 57af 4E455854 		.ascii	"NEXT_CONN\000"
 10253      5F434F4E 
 10253      4E00
 10254              	.LASF91:
 10255 57b9 6770696F 		.ascii	"gpioPrtCfgInOffset\000"
 10255      50727443 
 10255      6667496E 
 10255      4F666673 
 10255      657400
 10256              	.LASF751:
 10257 57cc 43595F42 		.ascii	"CY_BLE_EVT_L2CAP_CBFC_DISCONN_IND\000"
 10257      4C455F45 
 10257      56545F4C 
 10257      32434150 
ARM GAS  C:\Users\JC\AppData\Local\Temp\ccNOiAvA.s 			page 273


 10257      5F434246 
 10258              	.LASF674:
 10259 57ee 43595F42 		.ascii	"CY_BLE_EVT_SET_DEVICE_ADDR_COMPLETE\000"
 10259      4C455F45 
 10259      56545F53 
 10259      45545F44 
 10259      45564943 
 10260              	.LASF811:
 10261 5812 63795F73 		.ascii	"cy_stc_ble_mxd_pa_cal_param_t\000"
 10261      74635F62 
 10261      6C655F6D 
 10261      78645F70 
 10261      615F6361 
 10262              	.LASF616:
 10263 5830 63795F65 		.ascii	"cy_en_syspm_status_t\000"
 10263      6E5F7379 
 10263      73706D5F 
 10263      73746174 
 10263      75735F74 
 10264              	.LASF173:
 10265 5845 63707573 		.ascii	"cpuss_interrupts_dw0_2_IRQn\000"
 10265      735F696E 
 10265      74657272 
 10265      75707473 
 10265      5F647730 
 10266              	.LASF783:
 10267 5861 43595F42 		.ascii	"CY_BLE_ERROR_NTF_DISABLED\000"
 10267      4C455F45 
 10267      52524F52 
 10267      5F4E5446 
 10267      5F444953 
 10268              	.LASF943:
 10269 587b 73657276 		.ascii	"serviceHandle\000"
 10269      69636548 
 10269      616E646C 
 10269      6500
 10270              	.LASF1034:
 10271 5889 43795F42 		.ascii	"Cy_BLE_Enable\000"
 10271      4C455F45 
 10271      6E61626C 
 10271      6500
 10272              	.LASF0:
 10273 5897 756E7369 		.ascii	"unsigned int\000"
 10273      676E6564 
 10273      20696E74 
 10273      00
 10274              	.LASF343:
 10275 58a4 57414B45 		.ascii	"WAKEUP_CONTROL\000"
 10275      55505F43 
 10275      4F4E5452 
 10275      4F4C00
 10276              	.LASF915:
 10277 58b3 61647644 		.ascii	"advData\000"
 10277      61746100 
 10278              	.LASF162:
 10279 58bb 7363625F 		.ascii	"scb_0_interrupt_IRQn\000"
 10279      305F696E 
ARM GAS  C:\Users\JC\AppData\Local\Temp\ccNOiAvA.s 			page 274


 10279      74657272 
 10279      7570745F 
 10279      4952516E 
 10280              		.ident	"GCC: (GNU Tools for ARM Embedded Processors) 5.4.1 20160609 (release) [ARM/embedded-5-bran
