ARM GAS  C:\Users\JC\AppData\Local\Temp\cclZ7ZAh.s 			page 1


   1              		.syntax unified
   2              		.cpu cortex-m4
   3              		.eabi_attribute 27, 1
   4              		.fpu fpv4-sp-d16
   5              		.eabi_attribute 20, 1
   6              		.eabi_attribute 21, 1
   7              		.eabi_attribute 23, 3
   8              		.eabi_attribute 24, 1
   9              		.eabi_attribute 25, 1
  10              		.eabi_attribute 26, 1
  11              		.eabi_attribute 30, 6
  12              		.eabi_attribute 34, 1
  13              		.eabi_attribute 18, 4
  14              		.thumb
  15              		.syntax unified
  16              		.file	"cy_ctb.c"
  17              		.text
  18              	.Ltext0:
  19              		.cfi_sections	.debug_frame
  20              		.section	.rodata
  21              		.align	2
  22              	.LC0:
  23 0000 47656E65 		.ascii	"Generated_Source\\PSoC6\\pdl\\drivers/peripheral/sy"
  23      72617465 
  23      645F536F 
  23      75726365 
  23      5C50536F 
  24 0030 73616E61 		.ascii	"sanalog/cy_sysanalog.h\000"
  24      6C6F672F 
  24      63795F73 
  24      7973616E 
  24      616C6F67 
  25              		.section	.text.Cy_SysAnalog_SetDeepSleepMode,"ax",%progbits
  26              		.align	2
  27              		.thumb
  28              		.thumb_func
  29              		.type	Cy_SysAnalog_SetDeepSleepMode, %function
  30              	Cy_SysAnalog_SetDeepSleepMode:
  31              	.LFB168:
  32              		.file 1 "Generated_Source\\PSoC6\\pdl\\drivers/peripheral/sysanalog/cy_sysanalog.h"
   1:Generated_Source\PSoC6\pdl\drivers/peripheral/sysanalog/cy_sysanalog.h **** /***************************************************************************//**
   2:Generated_Source\PSoC6\pdl\drivers/peripheral/sysanalog/cy_sysanalog.h **** * \file cy_sysanalog.h
   3:Generated_Source\PSoC6\pdl\drivers/peripheral/sysanalog/cy_sysanalog.h **** * \version 1.10
   4:Generated_Source\PSoC6\pdl\drivers/peripheral/sysanalog/cy_sysanalog.h **** *
   5:Generated_Source\PSoC6\pdl\drivers/peripheral/sysanalog/cy_sysanalog.h **** * Header file for the system level analog reference driver.
   6:Generated_Source\PSoC6\pdl\drivers/peripheral/sysanalog/cy_sysanalog.h **** *
   7:Generated_Source\PSoC6\pdl\drivers/peripheral/sysanalog/cy_sysanalog.h **** ********************************************************************************
   8:Generated_Source\PSoC6\pdl\drivers/peripheral/sysanalog/cy_sysanalog.h **** * \copyright
   9:Generated_Source\PSoC6\pdl\drivers/peripheral/sysanalog/cy_sysanalog.h **** * Copyright 2017-2018, Cypress Semiconductor Corporation. All rights reserved.
  10:Generated_Source\PSoC6\pdl\drivers/peripheral/sysanalog/cy_sysanalog.h **** * You may use this file only in accordance with the license, terms, conditions,
  11:Generated_Source\PSoC6\pdl\drivers/peripheral/sysanalog/cy_sysanalog.h **** * disclaimers, and limitations in the end user license agreement accompanying
  12:Generated_Source\PSoC6\pdl\drivers/peripheral/sysanalog/cy_sysanalog.h **** * the software package with which this file was provided.
  13:Generated_Source\PSoC6\pdl\drivers/peripheral/sysanalog/cy_sysanalog.h **** *******************************************************************************/
  14:Generated_Source\PSoC6\pdl\drivers/peripheral/sysanalog/cy_sysanalog.h **** 
  15:Generated_Source\PSoC6\pdl\drivers/peripheral/sysanalog/cy_sysanalog.h **** /**
  16:Generated_Source\PSoC6\pdl\drivers/peripheral/sysanalog/cy_sysanalog.h **** * \addtogroup group_sysanalog
  17:Generated_Source\PSoC6\pdl\drivers/peripheral/sysanalog/cy_sysanalog.h **** * \{
ARM GAS  C:\Users\JC\AppData\Local\Temp\cclZ7ZAh.s 			page 2


  18:Generated_Source\PSoC6\pdl\drivers/peripheral/sysanalog/cy_sysanalog.h **** *
  19:Generated_Source\PSoC6\pdl\drivers/peripheral/sysanalog/cy_sysanalog.h **** * This driver provides an interface for configuring the Analog Reference (AREF) block
  20:Generated_Source\PSoC6\pdl\drivers/peripheral/sysanalog/cy_sysanalog.h **** * and querying the INTR_CAUSE register of the PASS.
  21:Generated_Source\PSoC6\pdl\drivers/peripheral/sysanalog/cy_sysanalog.h **** *
  22:Generated_Source\PSoC6\pdl\drivers/peripheral/sysanalog/cy_sysanalog.h **** * The functions and other declarations used in this driver are in cy_sysanalog.h. 
  23:Generated_Source\PSoC6\pdl\drivers/peripheral/sysanalog/cy_sysanalog.h **** * You can include cy_pdl.h (ModusToolbox only) to get access to all functions 
  24:Generated_Source\PSoC6\pdl\drivers/peripheral/sysanalog/cy_sysanalog.h **** * and declarations in the PDL. 
  25:Generated_Source\PSoC6\pdl\drivers/peripheral/sysanalog/cy_sysanalog.h **** *
  26:Generated_Source\PSoC6\pdl\drivers/peripheral/sysanalog/cy_sysanalog.h **** * The AREF block has the following features:
  27:Generated_Source\PSoC6\pdl\drivers/peripheral/sysanalog/cy_sysanalog.h **** *
  28:Generated_Source\PSoC6\pdl\drivers/peripheral/sysanalog/cy_sysanalog.h **** *   - Generates a voltage reference (VREF) from one of three sources:
  29:Generated_Source\PSoC6\pdl\drivers/peripheral/sysanalog/cy_sysanalog.h **** *       - Local 1.2 V reference (<b>low noise, optimized for analog performance</b>)
  30:Generated_Source\PSoC6\pdl\drivers/peripheral/sysanalog/cy_sysanalog.h **** *       - Reference from the SRSS (high noise, not recommended for analog performance)
  31:Generated_Source\PSoC6\pdl\drivers/peripheral/sysanalog/cy_sysanalog.h **** *       - An external pin
  32:Generated_Source\PSoC6\pdl\drivers/peripheral/sysanalog/cy_sysanalog.h **** *   - Generates a 1 uA "zero dependency to absolute temperature" (IZTAT) current reference
  33:Generated_Source\PSoC6\pdl\drivers/peripheral/sysanalog/cy_sysanalog.h **** *     that is independent of temperature variations. It can come from one of two sources:
  34:Generated_Source\PSoC6\pdl\drivers/peripheral/sysanalog/cy_sysanalog.h **** *       - Local reference (<b>low noise, optimized for analog performance</b>)
  35:Generated_Source\PSoC6\pdl\drivers/peripheral/sysanalog/cy_sysanalog.h **** *       - Reference from the SRSS (high noise, not recommended for analog performance)
  36:Generated_Source\PSoC6\pdl\drivers/peripheral/sysanalog/cy_sysanalog.h **** *   - Generates a "proportional to absolute temperature" (IPTAT) current reference
  37:Generated_Source\PSoC6\pdl\drivers/peripheral/sysanalog/cy_sysanalog.h **** *   - Option to enable local references in Deep Sleep mode
  38:Generated_Source\PSoC6\pdl\drivers/peripheral/sysanalog/cy_sysanalog.h **** *
  39:Generated_Source\PSoC6\pdl\drivers/peripheral/sysanalog/cy_sysanalog.h **** * The locally generated references are the recommended sources for blocks in the PASS because
  40:Generated_Source\PSoC6\pdl\drivers/peripheral/sysanalog/cy_sysanalog.h **** * they have tighter accuracy, temperature stability, and lower noise than the SRSS references.
  41:Generated_Source\PSoC6\pdl\drivers/peripheral/sysanalog/cy_sysanalog.h **** * The SRSS references can be used to save power if the low accuracy and higher noise can be tolerat
  42:Generated_Source\PSoC6\pdl\drivers/peripheral/sysanalog/cy_sysanalog.h **** *
  43:Generated_Source\PSoC6\pdl\drivers/peripheral/sysanalog/cy_sysanalog.h **** * \image html aref_block_diagram.png
  44:Generated_Source\PSoC6\pdl\drivers/peripheral/sysanalog/cy_sysanalog.h **** * \image latex aref_block_diagram.png
  45:Generated_Source\PSoC6\pdl\drivers/peripheral/sysanalog/cy_sysanalog.h **** *
  46:Generated_Source\PSoC6\pdl\drivers/peripheral/sysanalog/cy_sysanalog.h **** * The outputs of the AREF are consumed by multiple blocks in the PASS and by the CapSense (CSDv2) b
  47:Generated_Source\PSoC6\pdl\drivers/peripheral/sysanalog/cy_sysanalog.h **** * In some cases, these blocks have the option of using the references from the AREF. This selection
  48:Generated_Source\PSoC6\pdl\drivers/peripheral/sysanalog/cy_sysanalog.h **** * in the respective drivers for these blocks. In some cases, these blocks require the references fr
  49:Generated_Source\PSoC6\pdl\drivers/peripheral/sysanalog/cy_sysanalog.h **** * AREF to function.
  50:Generated_Source\PSoC6\pdl\drivers/peripheral/sysanalog/cy_sysanalog.h **** *
  51:Generated_Source\PSoC6\pdl\drivers/peripheral/sysanalog/cy_sysanalog.h **** * <table class="doxtable">
  52:Generated_Source\PSoC6\pdl\drivers/peripheral/sysanalog/cy_sysanalog.h **** *   <tr><th>AREF Output</th><th>\ref group_sar "SAR"</th><th>\ref group_ctdac "CTDAC"</th><th>\ref 
  53:Generated_Source\PSoC6\pdl\drivers/peripheral/sysanalog/cy_sysanalog.h **** *   <tr>
  54:Generated_Source\PSoC6\pdl\drivers/peripheral/sysanalog/cy_sysanalog.h **** *     <td>VREF</td>
  55:Generated_Source\PSoC6\pdl\drivers/peripheral/sysanalog/cy_sysanalog.h **** *     <td>optional</td>
  56:Generated_Source\PSoC6\pdl\drivers/peripheral/sysanalog/cy_sysanalog.h **** *     <td>optional</td>
  57:Generated_Source\PSoC6\pdl\drivers/peripheral/sysanalog/cy_sysanalog.h **** *     <td>--</td>
  58:Generated_Source\PSoC6\pdl\drivers/peripheral/sysanalog/cy_sysanalog.h **** *     <td>optional</td>
  59:Generated_Source\PSoC6\pdl\drivers/peripheral/sysanalog/cy_sysanalog.h **** *   </tr>
  60:Generated_Source\PSoC6\pdl\drivers/peripheral/sysanalog/cy_sysanalog.h **** *   <tr>
  61:Generated_Source\PSoC6\pdl\drivers/peripheral/sysanalog/cy_sysanalog.h **** *     <td>IZTAT</td>
  62:Generated_Source\PSoC6\pdl\drivers/peripheral/sysanalog/cy_sysanalog.h **** *     <td><b>required</b></td>
  63:Generated_Source\PSoC6\pdl\drivers/peripheral/sysanalog/cy_sysanalog.h **** *     <td>--</td>
  64:Generated_Source\PSoC6\pdl\drivers/peripheral/sysanalog/cy_sysanalog.h **** *     <td>optional</td>
  65:Generated_Source\PSoC6\pdl\drivers/peripheral/sysanalog/cy_sysanalog.h **** *     <td>optional</td>
  66:Generated_Source\PSoC6\pdl\drivers/peripheral/sysanalog/cy_sysanalog.h **** *   </tr>
  67:Generated_Source\PSoC6\pdl\drivers/peripheral/sysanalog/cy_sysanalog.h **** *   <tr>
  68:Generated_Source\PSoC6\pdl\drivers/peripheral/sysanalog/cy_sysanalog.h **** *     <td>IPTAT</td>
  69:Generated_Source\PSoC6\pdl\drivers/peripheral/sysanalog/cy_sysanalog.h **** *     <td>--</td>
  70:Generated_Source\PSoC6\pdl\drivers/peripheral/sysanalog/cy_sysanalog.h **** *     <td>--</td>
  71:Generated_Source\PSoC6\pdl\drivers/peripheral/sysanalog/cy_sysanalog.h **** *     <td><b>required</b></td>
  72:Generated_Source\PSoC6\pdl\drivers/peripheral/sysanalog/cy_sysanalog.h **** *     <td>--</td>
  73:Generated_Source\PSoC6\pdl\drivers/peripheral/sysanalog/cy_sysanalog.h **** *   </tr>
  74:Generated_Source\PSoC6\pdl\drivers/peripheral/sysanalog/cy_sysanalog.h **** * </table>
ARM GAS  C:\Users\JC\AppData\Local\Temp\cclZ7ZAh.s 			page 3


  75:Generated_Source\PSoC6\pdl\drivers/peripheral/sysanalog/cy_sysanalog.h **** *
  76:Generated_Source\PSoC6\pdl\drivers/peripheral/sysanalog/cy_sysanalog.h **** * This driver provides a function to query the INTR_CAUSE register of the PASS.
  77:Generated_Source\PSoC6\pdl\drivers/peripheral/sysanalog/cy_sysanalog.h **** * There are two interrupts in the PASS:
  78:Generated_Source\PSoC6\pdl\drivers/peripheral/sysanalog/cy_sysanalog.h **** *
  79:Generated_Source\PSoC6\pdl\drivers/peripheral/sysanalog/cy_sysanalog.h **** *   -# one global interrupt for all CTBs (up to 4)
  80:Generated_Source\PSoC6\pdl\drivers/peripheral/sysanalog/cy_sysanalog.h **** *   -# one global interrupt for all CTDACs (up to 4)
  81:Generated_Source\PSoC6\pdl\drivers/peripheral/sysanalog/cy_sysanalog.h **** *
  82:Generated_Source\PSoC6\pdl\drivers/peripheral/sysanalog/cy_sysanalog.h **** * Because the interrupts are global, the INTR_CAUSE register is needed to query which hardware inst
  83:Generated_Source\PSoC6\pdl\drivers/peripheral/sysanalog/cy_sysanalog.h **** * triggered the interrupt.
  84:Generated_Source\PSoC6\pdl\drivers/peripheral/sysanalog/cy_sysanalog.h **** *
  85:Generated_Source\PSoC6\pdl\drivers/peripheral/sysanalog/cy_sysanalog.h **** * \section group_sysanalog_usage Usage
  86:Generated_Source\PSoC6\pdl\drivers/peripheral/sysanalog/cy_sysanalog.h **** *
  87:Generated_Source\PSoC6\pdl\drivers/peripheral/sysanalog/cy_sysanalog.h **** * \subsection group_sysanalog_usage_init Initialization
  88:Generated_Source\PSoC6\pdl\drivers/peripheral/sysanalog/cy_sysanalog.h **** *
  89:Generated_Source\PSoC6\pdl\drivers/peripheral/sysanalog/cy_sysanalog.h **** * To configure the AREF, call \ref Cy_SysAnalog_Init and provide a pointer
  90:Generated_Source\PSoC6\pdl\drivers/peripheral/sysanalog/cy_sysanalog.h **** * to the configuration structure, \ref cy_stc_sysanalog_config_t. Three predefined structures
  91:Generated_Source\PSoC6\pdl\drivers/peripheral/sysanalog/cy_sysanalog.h **** * are provided in this driver to cover a majority of use cases:
  92:Generated_Source\PSoC6\pdl\drivers/peripheral/sysanalog/cy_sysanalog.h **** *
  93:Generated_Source\PSoC6\pdl\drivers/peripheral/sysanalog/cy_sysanalog.h **** *   - \ref Cy_SysAnalog_Fast_Local <b>(recommended for analog performance)</b>
  94:Generated_Source\PSoC6\pdl\drivers/peripheral/sysanalog/cy_sysanalog.h **** *   - \ref Cy_SysAnalog_Fast_SRSS
  95:Generated_Source\PSoC6\pdl\drivers/peripheral/sysanalog/cy_sysanalog.h **** *   - \ref Cy_SysAnalog_Fast_External
  96:Generated_Source\PSoC6\pdl\drivers/peripheral/sysanalog/cy_sysanalog.h **** *
  97:Generated_Source\PSoC6\pdl\drivers/peripheral/sysanalog/cy_sysanalog.h **** * After initialization, call \ref Cy_SysAnalog_Enable to enable the hardware.
  98:Generated_Source\PSoC6\pdl\drivers/peripheral/sysanalog/cy_sysanalog.h **** *
  99:Generated_Source\PSoC6\pdl\drivers/peripheral/sysanalog/cy_sysanalog.h **** * \subsection group_sysanalog_usage_dsop Deep Sleep Operation
 100:Generated_Source\PSoC6\pdl\drivers/peripheral/sysanalog/cy_sysanalog.h **** *
 101:Generated_Source\PSoC6\pdl\drivers/peripheral/sysanalog/cy_sysanalog.h **** * The AREF current and voltage references can be enabled to operate in Deep Sleep mode
 102:Generated_Source\PSoC6\pdl\drivers/peripheral/sysanalog/cy_sysanalog.h **** * with \ref Cy_SysAnalog_SetDeepSleepMode. There are four options for Deep Sleep operation:
 103:Generated_Source\PSoC6\pdl\drivers/peripheral/sysanalog/cy_sysanalog.h **** *
 104:Generated_Source\PSoC6\pdl\drivers/peripheral/sysanalog/cy_sysanalog.h **** *   - \ref CY_SYSANALOG_DEEPSLEEP_DISABLE : Disable AREF IP block
 105:Generated_Source\PSoC6\pdl\drivers/peripheral/sysanalog/cy_sysanalog.h **** *   - \ref CY_SYSANALOG_DEEPSLEEP_IPTAT_1 : Enable IPTAT generator for fast wakeup from Deep Sleep 
 106:Generated_Source\PSoC6\pdl\drivers/peripheral/sysanalog/cy_sysanalog.h **** *   - \ref CY_SYSANALOG_DEEPSLEEP_IPTAT_2 : Enable IPTAT generator and IPTAT outputs for CTB
 107:Generated_Source\PSoC6\pdl\drivers/peripheral/sysanalog/cy_sysanalog.h **** *   - \ref CY_SYSANALOG_DEEPSLEEP_IPTAT_IZTAT_VREF : Enable all generators and outputs: IPTAT, IZTA
 108:Generated_Source\PSoC6\pdl\drivers/peripheral/sysanalog/cy_sysanalog.h **** *
 109:Generated_Source\PSoC6\pdl\drivers/peripheral/sysanalog/cy_sysanalog.h **** * Recall that the CTB requires the IPTAT reference. For the CTB to operate at the 1 uA current mode
 110:Generated_Source\PSoC6\pdl\drivers/peripheral/sysanalog/cy_sysanalog.h **** * the AREF must be enabled for \ref CY_SYSANALOG_DEEPSLEEP_IPTAT_IZTAT_VREF. For the CTB to operate
 111:Generated_Source\PSoC6\pdl\drivers/peripheral/sysanalog/cy_sysanalog.h **** * current mode in Deep Sleep mode, the AREF must be enabled for \ref CY_SYSANALOG_DEEPSLEEP_IPTAT_2
 112:Generated_Source\PSoC6\pdl\drivers/peripheral/sysanalog/cy_sysanalog.h **** * lower current mode, the AREF IPTAT must be redirected to the CTB IZTAT. See the high level functi
 113:Generated_Source\PSoC6\pdl\drivers/peripheral/sysanalog/cy_sysanalog.h **** * Cy_CTB_SetCurrentMode in the CTB PDL driver.
 114:Generated_Source\PSoC6\pdl\drivers/peripheral/sysanalog/cy_sysanalog.h **** *
 115:Generated_Source\PSoC6\pdl\drivers/peripheral/sysanalog/cy_sysanalog.h **** * If the CTDAC is configured to use the VREF in Deep Sleep mode, the AREF must be enabled for \ref 
 116:Generated_Source\PSoC6\pdl\drivers/peripheral/sysanalog/cy_sysanalog.h **** *
 117:Generated_Source\PSoC6\pdl\drivers/peripheral/sysanalog/cy_sysanalog.h **** * \note
 118:Generated_Source\PSoC6\pdl\drivers/peripheral/sysanalog/cy_sysanalog.h **** * The SRSS references are not available to the AREF in Deep Sleep mode. When operating
 119:Generated_Source\PSoC6\pdl\drivers/peripheral/sysanalog/cy_sysanalog.h **** * in Deep Sleep mode, the local or external references must be selected.
 120:Generated_Source\PSoC6\pdl\drivers/peripheral/sysanalog/cy_sysanalog.h **** *
 121:Generated_Source\PSoC6\pdl\drivers/peripheral/sysanalog/cy_sysanalog.h **** * \section group_sysanalog_more_information More Information
 122:Generated_Source\PSoC6\pdl\drivers/peripheral/sysanalog/cy_sysanalog.h **** *
 123:Generated_Source\PSoC6\pdl\drivers/peripheral/sysanalog/cy_sysanalog.h **** * For more information on the AREF, refer to the technical reference manual (TRM).
 124:Generated_Source\PSoC6\pdl\drivers/peripheral/sysanalog/cy_sysanalog.h **** *
 125:Generated_Source\PSoC6\pdl\drivers/peripheral/sysanalog/cy_sysanalog.h **** * \section group_sysanalog_MISRA MISRA-C Compliance]
 126:Generated_Source\PSoC6\pdl\drivers/peripheral/sysanalog/cy_sysanalog.h **** *
 127:Generated_Source\PSoC6\pdl\drivers/peripheral/sysanalog/cy_sysanalog.h **** * This driver does not have any specific deviations.
 128:Generated_Source\PSoC6\pdl\drivers/peripheral/sysanalog/cy_sysanalog.h **** *
 129:Generated_Source\PSoC6\pdl\drivers/peripheral/sysanalog/cy_sysanalog.h **** * \section group_sysanalog_changelog Changelog
 130:Generated_Source\PSoC6\pdl\drivers/peripheral/sysanalog/cy_sysanalog.h **** * <table class="doxtable">
 131:Generated_Source\PSoC6\pdl\drivers/peripheral/sysanalog/cy_sysanalog.h **** *   <tr><th>Version</th><th>Changes</th><th>Reason for Change</th></tr>
ARM GAS  C:\Users\JC\AppData\Local\Temp\cclZ7ZAh.s 			page 4


 132:Generated_Source\PSoC6\pdl\drivers/peripheral/sysanalog/cy_sysanalog.h **** *   <tr>
 133:Generated_Source\PSoC6\pdl\drivers/peripheral/sysanalog/cy_sysanalog.h **** *     <td rowspan="2">1.10</td>
 134:Generated_Source\PSoC6\pdl\drivers/peripheral/sysanalog/cy_sysanalog.h **** *     <td>Flattened the organization of the driver source code into the single 
 135:Generated_Source\PSoC6\pdl\drivers/peripheral/sysanalog/cy_sysanalog.h **** *         source directory and the single include directory.
 136:Generated_Source\PSoC6\pdl\drivers/peripheral/sysanalog/cy_sysanalog.h **** *     </td>
 137:Generated_Source\PSoC6\pdl\drivers/peripheral/sysanalog/cy_sysanalog.h **** *     <td>Driver library directory-structure simplification.</td>
 138:Generated_Source\PSoC6\pdl\drivers/peripheral/sysanalog/cy_sysanalog.h **** *   </tr>
 139:Generated_Source\PSoC6\pdl\drivers/peripheral/sysanalog/cy_sysanalog.h **** *   <tr>
 140:Generated_Source\PSoC6\pdl\drivers/peripheral/sysanalog/cy_sysanalog.h **** *     <td>Added register access layer. Use register access macros instead
 141:Generated_Source\PSoC6\pdl\drivers/peripheral/sysanalog/cy_sysanalog.h **** *         of direct register access using dereferenced pointers.</td>
 142:Generated_Source\PSoC6\pdl\drivers/peripheral/sysanalog/cy_sysanalog.h **** *     <td>Makes register access device-independent, so that the PDL does 
 143:Generated_Source\PSoC6\pdl\drivers/peripheral/sysanalog/cy_sysanalog.h **** *         not need to be recompiled for each supported part number.</td>
 144:Generated_Source\PSoC6\pdl\drivers/peripheral/sysanalog/cy_sysanalog.h **** *   </tr>
 145:Generated_Source\PSoC6\pdl\drivers/peripheral/sysanalog/cy_sysanalog.h **** *   <tr>
 146:Generated_Source\PSoC6\pdl\drivers/peripheral/sysanalog/cy_sysanalog.h **** *     <td>1.0</td>
 147:Generated_Source\PSoC6\pdl\drivers/peripheral/sysanalog/cy_sysanalog.h **** *     <td>Initial version</td>
 148:Generated_Source\PSoC6\pdl\drivers/peripheral/sysanalog/cy_sysanalog.h **** *     <td></td>
 149:Generated_Source\PSoC6\pdl\drivers/peripheral/sysanalog/cy_sysanalog.h **** *   </tr>
 150:Generated_Source\PSoC6\pdl\drivers/peripheral/sysanalog/cy_sysanalog.h **** * </table>
 151:Generated_Source\PSoC6\pdl\drivers/peripheral/sysanalog/cy_sysanalog.h **** *
 152:Generated_Source\PSoC6\pdl\drivers/peripheral/sysanalog/cy_sysanalog.h **** * \defgroup group_sysanalog_macros Macros
 153:Generated_Source\PSoC6\pdl\drivers/peripheral/sysanalog/cy_sysanalog.h **** * \defgroup group_sysanalog_functions Functions
 154:Generated_Source\PSoC6\pdl\drivers/peripheral/sysanalog/cy_sysanalog.h **** * \defgroup group_sysanalog_globals Global Variables
 155:Generated_Source\PSoC6\pdl\drivers/peripheral/sysanalog/cy_sysanalog.h **** * \defgroup group_sysanalog_data_structures Data Structures
 156:Generated_Source\PSoC6\pdl\drivers/peripheral/sysanalog/cy_sysanalog.h **** * \defgroup group_sysanalog_enums Enumerated Types
 157:Generated_Source\PSoC6\pdl\drivers/peripheral/sysanalog/cy_sysanalog.h **** */
 158:Generated_Source\PSoC6\pdl\drivers/peripheral/sysanalog/cy_sysanalog.h **** 
 159:Generated_Source\PSoC6\pdl\drivers/peripheral/sysanalog/cy_sysanalog.h **** #if !defined(CY_SYSANALOG_H)
 160:Generated_Source\PSoC6\pdl\drivers/peripheral/sysanalog/cy_sysanalog.h **** #define CY_SYSANALOG_H
 161:Generated_Source\PSoC6\pdl\drivers/peripheral/sysanalog/cy_sysanalog.h **** 
 162:Generated_Source\PSoC6\pdl\drivers/peripheral/sysanalog/cy_sysanalog.h **** #include <stdint.h>
 163:Generated_Source\PSoC6\pdl\drivers/peripheral/sysanalog/cy_sysanalog.h **** #include <stdbool.h>
 164:Generated_Source\PSoC6\pdl\drivers/peripheral/sysanalog/cy_sysanalog.h **** #include <stddef.h>
 165:Generated_Source\PSoC6\pdl\drivers/peripheral/sysanalog/cy_sysanalog.h **** #include "cy_device_headers.h"
 166:Generated_Source\PSoC6\pdl\drivers/peripheral/sysanalog/cy_sysanalog.h **** #include "cy_device.h"
 167:Generated_Source\PSoC6\pdl\drivers/peripheral/sysanalog/cy_sysanalog.h **** #include "cy_syslib.h"
 168:Generated_Source\PSoC6\pdl\drivers/peripheral/sysanalog/cy_sysanalog.h **** #include "cy_syspm.h"
 169:Generated_Source\PSoC6\pdl\drivers/peripheral/sysanalog/cy_sysanalog.h **** 
 170:Generated_Source\PSoC6\pdl\drivers/peripheral/sysanalog/cy_sysanalog.h **** #ifdef CY_IP_MXS40PASS
 171:Generated_Source\PSoC6\pdl\drivers/peripheral/sysanalog/cy_sysanalog.h **** 
 172:Generated_Source\PSoC6\pdl\drivers/peripheral/sysanalog/cy_sysanalog.h **** #if defined(__cplusplus)
 173:Generated_Source\PSoC6\pdl\drivers/peripheral/sysanalog/cy_sysanalog.h **** extern "C" {
 174:Generated_Source\PSoC6\pdl\drivers/peripheral/sysanalog/cy_sysanalog.h **** #endif
 175:Generated_Source\PSoC6\pdl\drivers/peripheral/sysanalog/cy_sysanalog.h **** 
 176:Generated_Source\PSoC6\pdl\drivers/peripheral/sysanalog/cy_sysanalog.h **** 
 177:Generated_Source\PSoC6\pdl\drivers/peripheral/sysanalog/cy_sysanalog.h **** /** \addtogroup group_sysanalog_macros
 178:Generated_Source\PSoC6\pdl\drivers/peripheral/sysanalog/cy_sysanalog.h **** * \{
 179:Generated_Source\PSoC6\pdl\drivers/peripheral/sysanalog/cy_sysanalog.h **** */
 180:Generated_Source\PSoC6\pdl\drivers/peripheral/sysanalog/cy_sysanalog.h **** 
 181:Generated_Source\PSoC6\pdl\drivers/peripheral/sysanalog/cy_sysanalog.h **** /** Driver major version */
 182:Generated_Source\PSoC6\pdl\drivers/peripheral/sysanalog/cy_sysanalog.h **** #define CY_SYSANALOG_DRV_VERSION_MAJOR          1
 183:Generated_Source\PSoC6\pdl\drivers/peripheral/sysanalog/cy_sysanalog.h **** 
 184:Generated_Source\PSoC6\pdl\drivers/peripheral/sysanalog/cy_sysanalog.h **** /** Driver minor version */
 185:Generated_Source\PSoC6\pdl\drivers/peripheral/sysanalog/cy_sysanalog.h **** #define CY_SYSANALOG_DRV_VERSION_MINOR          10
 186:Generated_Source\PSoC6\pdl\drivers/peripheral/sysanalog/cy_sysanalog.h **** 
 187:Generated_Source\PSoC6\pdl\drivers/peripheral/sysanalog/cy_sysanalog.h **** /** PASS driver identifier */
 188:Generated_Source\PSoC6\pdl\drivers/peripheral/sysanalog/cy_sysanalog.h **** #define CY_SYSANALOG_ID                         CY_PDL_DRV_ID(0x17u)
ARM GAS  C:\Users\JC\AppData\Local\Temp\cclZ7ZAh.s 			page 5


 189:Generated_Source\PSoC6\pdl\drivers/peripheral/sysanalog/cy_sysanalog.h **** 
 190:Generated_Source\PSoC6\pdl\drivers/peripheral/sysanalog/cy_sysanalog.h **** /** \cond INTERNAL */
 191:Generated_Source\PSoC6\pdl\drivers/peripheral/sysanalog/cy_sysanalog.h **** #define CY_SYSANALOG_DEINIT                     (0uL)   /**< De-init value for PASS register */
 192:Generated_Source\PSoC6\pdl\drivers/peripheral/sysanalog/cy_sysanalog.h **** #define CY_SYSANALOG_DEFAULT_BIAS_SCALE         (1uL << PASS_AREF_AREF_CTRL_AREF_BIAS_SCALE_Pos)   
 193:Generated_Source\PSoC6\pdl\drivers/peripheral/sysanalog/cy_sysanalog.h **** 
 194:Generated_Source\PSoC6\pdl\drivers/peripheral/sysanalog/cy_sysanalog.h **** /**< Macros for conditions used in CY_ASSERT calls */
 195:Generated_Source\PSoC6\pdl\drivers/peripheral/sysanalog/cy_sysanalog.h **** #define CY_SYSANALOG_STARTUP(startup)           (((startup) == CY_SYSANALOG_STARTUP_NORMAL) || ((st
 196:Generated_Source\PSoC6\pdl\drivers/peripheral/sysanalog/cy_sysanalog.h **** #define CY_SYSANALOG_DEEPSLEEP(deepSleep)       (((deepSleep) == CY_SYSANALOG_DEEPSLEEP_DISABLE) \
 197:Generated_Source\PSoC6\pdl\drivers/peripheral/sysanalog/cy_sysanalog.h ****                                                 || ((deepSleep) == CY_SYSANALOG_DEEPSLEEP_IPTAT_1) 
 198:Generated_Source\PSoC6\pdl\drivers/peripheral/sysanalog/cy_sysanalog.h ****                                                 || ((deepSleep) == CY_SYSANALOG_DEEPSLEEP_IPTAT_2) 
 199:Generated_Source\PSoC6\pdl\drivers/peripheral/sysanalog/cy_sysanalog.h ****                                                 || ((deepSleep) == CY_SYSANALOG_DEEPSLEEP_IPTAT_IZT
 200:Generated_Source\PSoC6\pdl\drivers/peripheral/sysanalog/cy_sysanalog.h **** #define CY_SYSANALOG_VREF(vref)                 (((vref) == CY_SYSANALOG_VREF_SOURCE_SRSS) \
 201:Generated_Source\PSoC6\pdl\drivers/peripheral/sysanalog/cy_sysanalog.h ****                                                 || ((vref) == CY_SYSANALOG_VREF_SOURCE_LOCAL_1_2V) 
 202:Generated_Source\PSoC6\pdl\drivers/peripheral/sysanalog/cy_sysanalog.h ****                                                 || ((vref) == CY_SYSANALOG_VREF_SOURCE_EXTERNAL))
 203:Generated_Source\PSoC6\pdl\drivers/peripheral/sysanalog/cy_sysanalog.h **** #define CY_SYSANALOG_IZTAT(iztat)               (((iztat) == CY_SYSANALOG_IZTAT_SOURCE_SRSS) || ((i
 204:Generated_Source\PSoC6\pdl\drivers/peripheral/sysanalog/cy_sysanalog.h **** 
 205:Generated_Source\PSoC6\pdl\drivers/peripheral/sysanalog/cy_sysanalog.h **** /** \endcond */
 206:Generated_Source\PSoC6\pdl\drivers/peripheral/sysanalog/cy_sysanalog.h **** 
 207:Generated_Source\PSoC6\pdl\drivers/peripheral/sysanalog/cy_sysanalog.h **** /** \} group_sysanalog_macros */
 208:Generated_Source\PSoC6\pdl\drivers/peripheral/sysanalog/cy_sysanalog.h **** 
 209:Generated_Source\PSoC6\pdl\drivers/peripheral/sysanalog/cy_sysanalog.h **** /** \addtogroup group_sysanalog_enums
 210:Generated_Source\PSoC6\pdl\drivers/peripheral/sysanalog/cy_sysanalog.h **** * \{
 211:Generated_Source\PSoC6\pdl\drivers/peripheral/sysanalog/cy_sysanalog.h **** */
 212:Generated_Source\PSoC6\pdl\drivers/peripheral/sysanalog/cy_sysanalog.h **** 
 213:Generated_Source\PSoC6\pdl\drivers/peripheral/sysanalog/cy_sysanalog.h **** /******************************************************************************
 214:Generated_Source\PSoC6\pdl\drivers/peripheral/sysanalog/cy_sysanalog.h ****  * Enumerations
 215:Generated_Source\PSoC6\pdl\drivers/peripheral/sysanalog/cy_sysanalog.h ****  *****************************************************************************/
 216:Generated_Source\PSoC6\pdl\drivers/peripheral/sysanalog/cy_sysanalog.h **** 
 217:Generated_Source\PSoC6\pdl\drivers/peripheral/sysanalog/cy_sysanalog.h **** /** The AREF status/error code definitions */
 218:Generated_Source\PSoC6\pdl\drivers/peripheral/sysanalog/cy_sysanalog.h **** typedef enum
 219:Generated_Source\PSoC6\pdl\drivers/peripheral/sysanalog/cy_sysanalog.h **** {
 220:Generated_Source\PSoC6\pdl\drivers/peripheral/sysanalog/cy_sysanalog.h ****     CY_SYSANALOG_SUCCESS    = 0x00uL,                                           /**< Successful */
 221:Generated_Source\PSoC6\pdl\drivers/peripheral/sysanalog/cy_sysanalog.h ****     CY_SYSANALOG_BAD_PARAM  = CY_SYSANALOG_ID | CY_PDL_STATUS_ERROR | 0x01uL    /**< Invalid input 
 222:Generated_Source\PSoC6\pdl\drivers/peripheral/sysanalog/cy_sysanalog.h **** }cy_en_sysanalog_status_t;
 223:Generated_Source\PSoC6\pdl\drivers/peripheral/sysanalog/cy_sysanalog.h **** 
 224:Generated_Source\PSoC6\pdl\drivers/peripheral/sysanalog/cy_sysanalog.h **** /** Aref startup mode from power on reset and from Deep Sleep wakeup
 225:Generated_Source\PSoC6\pdl\drivers/peripheral/sysanalog/cy_sysanalog.h **** *
 226:Generated_Source\PSoC6\pdl\drivers/peripheral/sysanalog/cy_sysanalog.h **** * To achieve the fast startup time (10 us) from Deep Sleep wakeup, the IPTAT generators must be
 227:Generated_Source\PSoC6\pdl\drivers/peripheral/sysanalog/cy_sysanalog.h **** * enabled in Deep Sleep mode (see \ref cy_en_sysanalog_deep_sleep_t).
 228:Generated_Source\PSoC6\pdl\drivers/peripheral/sysanalog/cy_sysanalog.h **** *
 229:Generated_Source\PSoC6\pdl\drivers/peripheral/sysanalog/cy_sysanalog.h **** * The fast startup is the recommended mode.
 230:Generated_Source\PSoC6\pdl\drivers/peripheral/sysanalog/cy_sysanalog.h **** */
 231:Generated_Source\PSoC6\pdl\drivers/peripheral/sysanalog/cy_sysanalog.h **** typedef enum
 232:Generated_Source\PSoC6\pdl\drivers/peripheral/sysanalog/cy_sysanalog.h **** {
 233:Generated_Source\PSoC6\pdl\drivers/peripheral/sysanalog/cy_sysanalog.h ****     CY_SYSANALOG_STARTUP_NORMAL     = 0uL,                                           /**< Normal st
 234:Generated_Source\PSoC6\pdl\drivers/peripheral/sysanalog/cy_sysanalog.h ****     CY_SYSANALOG_STARTUP_FAST       = 1uL << PASS_AREF_AREF_CTRL_AREF_MODE_Pos       /**< Fast star
 235:Generated_Source\PSoC6\pdl\drivers/peripheral/sysanalog/cy_sysanalog.h **** }cy_en_sysanalog_startup_t;
 236:Generated_Source\PSoC6\pdl\drivers/peripheral/sysanalog/cy_sysanalog.h **** 
 237:Generated_Source\PSoC6\pdl\drivers/peripheral/sysanalog/cy_sysanalog.h **** /** AREF voltage reference sources
 238:Generated_Source\PSoC6\pdl\drivers/peripheral/sysanalog/cy_sysanalog.h **** *
 239:Generated_Source\PSoC6\pdl\drivers/peripheral/sysanalog/cy_sysanalog.h **** * The voltage reference can come from three sources:
 240:Generated_Source\PSoC6\pdl\drivers/peripheral/sysanalog/cy_sysanalog.h **** *   - the locally generated 1.2 V reference
 241:Generated_Source\PSoC6\pdl\drivers/peripheral/sysanalog/cy_sysanalog.h **** *   - the SRSS which provides a 0.8 V reference (not available in Deep Sleep mode)
 242:Generated_Source\PSoC6\pdl\drivers/peripheral/sysanalog/cy_sysanalog.h **** *   - an external device pin
 243:Generated_Source\PSoC6\pdl\drivers/peripheral/sysanalog/cy_sysanalog.h **** */
 244:Generated_Source\PSoC6\pdl\drivers/peripheral/sysanalog/cy_sysanalog.h **** typedef enum
 245:Generated_Source\PSoC6\pdl\drivers/peripheral/sysanalog/cy_sysanalog.h **** {
ARM GAS  C:\Users\JC\AppData\Local\Temp\cclZ7ZAh.s 			page 6


 246:Generated_Source\PSoC6\pdl\drivers/peripheral/sysanalog/cy_sysanalog.h ****     CY_SYSANALOG_VREF_SOURCE_SRSS        = 0uL,                                         /**< Use 0.
 247:Generated_Source\PSoC6\pdl\drivers/peripheral/sysanalog/cy_sysanalog.h ****     CY_SYSANALOG_VREF_SOURCE_LOCAL_1_2V  = 1uL << PASS_AREF_AREF_CTRL_VREF_SEL_Pos,     /**< Use lo
 248:Generated_Source\PSoC6\pdl\drivers/peripheral/sysanalog/cy_sysanalog.h ****     CY_SYSANALOG_VREF_SOURCE_EXTERNAL    = 2uL << PASS_AREF_AREF_CTRL_VREF_SEL_Pos      /**< Use ex
 249:Generated_Source\PSoC6\pdl\drivers/peripheral/sysanalog/cy_sysanalog.h **** }cy_en_sysanalog_vref_source_t;
 250:Generated_Source\PSoC6\pdl\drivers/peripheral/sysanalog/cy_sysanalog.h **** 
 251:Generated_Source\PSoC6\pdl\drivers/peripheral/sysanalog/cy_sysanalog.h **** 
 252:Generated_Source\PSoC6\pdl\drivers/peripheral/sysanalog/cy_sysanalog.h **** /** AREF IZTAT sources
 253:Generated_Source\PSoC6\pdl\drivers/peripheral/sysanalog/cy_sysanalog.h **** *
 254:Generated_Source\PSoC6\pdl\drivers/peripheral/sysanalog/cy_sysanalog.h **** * The AREF generates a 1 uA "Zero dependency To Absolute Temperature" (IZTAT) current reference
 255:Generated_Source\PSoC6\pdl\drivers/peripheral/sysanalog/cy_sysanalog.h **** * that is independent of temperature variations. It can come from one of two sources:
 256:Generated_Source\PSoC6\pdl\drivers/peripheral/sysanalog/cy_sysanalog.h **** *   - Local reference (1 uA)
 257:Generated_Source\PSoC6\pdl\drivers/peripheral/sysanalog/cy_sysanalog.h **** *   - Reference from the SRSS (250 nA that is gained by 4. Not available in Deep Sleep mode)
 258:Generated_Source\PSoC6\pdl\drivers/peripheral/sysanalog/cy_sysanalog.h **** */
 259:Generated_Source\PSoC6\pdl\drivers/peripheral/sysanalog/cy_sysanalog.h **** typedef enum
 260:Generated_Source\PSoC6\pdl\drivers/peripheral/sysanalog/cy_sysanalog.h **** {
 261:Generated_Source\PSoC6\pdl\drivers/peripheral/sysanalog/cy_sysanalog.h ****     CY_SYSANALOG_IZTAT_SOURCE_SRSS       = 0uL,                                         /**< Use 25
 262:Generated_Source\PSoC6\pdl\drivers/peripheral/sysanalog/cy_sysanalog.h ****     CY_SYSANALOG_IZTAT_SOURCE_LOCAL      = 1uL << PASS_AREF_AREF_CTRL_IZTAT_SEL_Pos     /**< Use lo
 263:Generated_Source\PSoC6\pdl\drivers/peripheral/sysanalog/cy_sysanalog.h **** }cy_en_sysanalog_iztat_source_t;
 264:Generated_Source\PSoC6\pdl\drivers/peripheral/sysanalog/cy_sysanalog.h **** 
 265:Generated_Source\PSoC6\pdl\drivers/peripheral/sysanalog/cy_sysanalog.h **** /** AREF Deep Sleep mode
 266:Generated_Source\PSoC6\pdl\drivers/peripheral/sysanalog/cy_sysanalog.h **** *
 267:Generated_Source\PSoC6\pdl\drivers/peripheral/sysanalog/cy_sysanalog.h **** * Configure what part of the AREF block is enabled in Deep Sleep mode.
 268:Generated_Source\PSoC6\pdl\drivers/peripheral/sysanalog/cy_sysanalog.h **** *   - Disable AREF IP block
 269:Generated_Source\PSoC6\pdl\drivers/peripheral/sysanalog/cy_sysanalog.h **** *   - Enable IPTAT generator for fast wakeup from Deep Sleep mode.
 270:Generated_Source\PSoC6\pdl\drivers/peripheral/sysanalog/cy_sysanalog.h **** *     IPTAT outputs for CTBs are disabled.
 271:Generated_Source\PSoC6\pdl\drivers/peripheral/sysanalog/cy_sysanalog.h **** *   - Enable IPTAT generator and IPTAT outputs for CTB
 272:Generated_Source\PSoC6\pdl\drivers/peripheral/sysanalog/cy_sysanalog.h **** *   - Enable all generators and outputs: IPTAT, IZTAT, and VREF
 273:Generated_Source\PSoC6\pdl\drivers/peripheral/sysanalog/cy_sysanalog.h **** */
 274:Generated_Source\PSoC6\pdl\drivers/peripheral/sysanalog/cy_sysanalog.h **** typedef enum
 275:Generated_Source\PSoC6\pdl\drivers/peripheral/sysanalog/cy_sysanalog.h **** {
 276:Generated_Source\PSoC6\pdl\drivers/peripheral/sysanalog/cy_sysanalog.h ****     CY_SYSANALOG_DEEPSLEEP_DISABLE             = 0uL,                                              
 277:Generated_Source\PSoC6\pdl\drivers/peripheral/sysanalog/cy_sysanalog.h ****     CY_SYSANALOG_DEEPSLEEP_IPTAT_1             = PASS_AREF_AREF_CTRL_DEEPSLEEP_ON_Msk | \
 278:Generated_Source\PSoC6\pdl\drivers/peripheral/sysanalog/cy_sysanalog.h ****                                                  (1uL << PASS_AREF_AREF_CTRL_DEEPSLEEP_MODE_Pos),  
 279:Generated_Source\PSoC6\pdl\drivers/peripheral/sysanalog/cy_sysanalog.h ****                                                                                                    
 280:Generated_Source\PSoC6\pdl\drivers/peripheral/sysanalog/cy_sysanalog.h ****     CY_SYSANALOG_DEEPSLEEP_IPTAT_2             = PASS_AREF_AREF_CTRL_DEEPSLEEP_ON_Msk | \
 281:Generated_Source\PSoC6\pdl\drivers/peripheral/sysanalog/cy_sysanalog.h ****                                                  (2uL << PASS_AREF_AREF_CTRL_DEEPSLEEP_MODE_Pos),  
 282:Generated_Source\PSoC6\pdl\drivers/peripheral/sysanalog/cy_sysanalog.h ****     CY_SYSANALOG_DEEPSLEEP_IPTAT_IZTAT_VREF    = PASS_AREF_AREF_CTRL_DEEPSLEEP_ON_Msk | \
 283:Generated_Source\PSoC6\pdl\drivers/peripheral/sysanalog/cy_sysanalog.h ****                                                  (3uL << PASS_AREF_AREF_CTRL_DEEPSLEEP_MODE_Pos)   
 284:Generated_Source\PSoC6\pdl\drivers/peripheral/sysanalog/cy_sysanalog.h **** }cy_en_sysanalog_deep_sleep_t;
 285:Generated_Source\PSoC6\pdl\drivers/peripheral/sysanalog/cy_sysanalog.h **** 
 286:Generated_Source\PSoC6\pdl\drivers/peripheral/sysanalog/cy_sysanalog.h **** /** Interrupt cause sources
 287:Generated_Source\PSoC6\pdl\drivers/peripheral/sysanalog/cy_sysanalog.h **** *
 288:Generated_Source\PSoC6\pdl\drivers/peripheral/sysanalog/cy_sysanalog.h **** * There are two interrupts in the PASS:
 289:Generated_Source\PSoC6\pdl\drivers/peripheral/sysanalog/cy_sysanalog.h **** *   -# one global interrupt for all CTBs
 290:Generated_Source\PSoC6\pdl\drivers/peripheral/sysanalog/cy_sysanalog.h **** *   -# one global interrupt for all CTDACs
 291:Generated_Source\PSoC6\pdl\drivers/peripheral/sysanalog/cy_sysanalog.h **** *
 292:Generated_Source\PSoC6\pdl\drivers/peripheral/sysanalog/cy_sysanalog.h **** * A device could potentially have more than one instance of each IP block,
 293:Generated_Source\PSoC6\pdl\drivers/peripheral/sysanalog/cy_sysanalog.h **** * CTB or CTDAC. To find out which instance
 294:Generated_Source\PSoC6\pdl\drivers/peripheral/sysanalog/cy_sysanalog.h **** * caused the interrupt, call \ref Cy_SysAnalog_GetIntrCause and compare the returned
 295:Generated_Source\PSoC6\pdl\drivers/peripheral/sysanalog/cy_sysanalog.h **** * result with one of these enum values.
 296:Generated_Source\PSoC6\pdl\drivers/peripheral/sysanalog/cy_sysanalog.h **** */
 297:Generated_Source\PSoC6\pdl\drivers/peripheral/sysanalog/cy_sysanalog.h **** typedef enum
 298:Generated_Source\PSoC6\pdl\drivers/peripheral/sysanalog/cy_sysanalog.h **** {
 299:Generated_Source\PSoC6\pdl\drivers/peripheral/sysanalog/cy_sysanalog.h ****     CY_SYSANALOG_INTR_CAUSE_CTB0         = PASS_INTR_CAUSE_CTB0_INT_Msk,         /**< Interrupt cau
 300:Generated_Source\PSoC6\pdl\drivers/peripheral/sysanalog/cy_sysanalog.h ****     CY_SYSANALOG_INTR_CAUSE_CTB1         = PASS_INTR_CAUSE_CTB1_INT_Msk,         /**< Interrupt cau
 301:Generated_Source\PSoC6\pdl\drivers/peripheral/sysanalog/cy_sysanalog.h ****     CY_SYSANALOG_INTR_CAUSE_CTB2         = PASS_INTR_CAUSE_CTB2_INT_Msk,         /**< Interrupt cau
 302:Generated_Source\PSoC6\pdl\drivers/peripheral/sysanalog/cy_sysanalog.h ****     CY_SYSANALOG_INTR_CAUSE_CTB3         = PASS_INTR_CAUSE_CTB3_INT_Msk,         /**< Interrupt cau
ARM GAS  C:\Users\JC\AppData\Local\Temp\cclZ7ZAh.s 			page 7


 303:Generated_Source\PSoC6\pdl\drivers/peripheral/sysanalog/cy_sysanalog.h ****     CY_SYSANALOG_INTR_CAUSE_CTDAC0       = PASS_INTR_CAUSE_CTDAC0_INT_Msk,       /**< Interrupt cau
 304:Generated_Source\PSoC6\pdl\drivers/peripheral/sysanalog/cy_sysanalog.h ****     CY_SYSANALOG_INTR_CAUSE_CTDAC1       = PASS_INTR_CAUSE_CTDAC1_INT_Msk,       /**< Interrupt cau
 305:Generated_Source\PSoC6\pdl\drivers/peripheral/sysanalog/cy_sysanalog.h ****     CY_SYSANALOG_INTR_CAUSE_CTDAC2       = PASS_INTR_CAUSE_CTDAC2_INT_Msk,       /**< Interrupt cau
 306:Generated_Source\PSoC6\pdl\drivers/peripheral/sysanalog/cy_sysanalog.h ****     CY_SYSANALOG_INTR_CAUSE_CTDAC3       = PASS_INTR_CAUSE_CTDAC3_INT_Msk        /**< Interrupt cau
 307:Generated_Source\PSoC6\pdl\drivers/peripheral/sysanalog/cy_sysanalog.h **** }cy_en_sysanalog_intr_cause_t;
 308:Generated_Source\PSoC6\pdl\drivers/peripheral/sysanalog/cy_sysanalog.h **** 
 309:Generated_Source\PSoC6\pdl\drivers/peripheral/sysanalog/cy_sysanalog.h **** /** \} group_sysanalog_enums */
 310:Generated_Source\PSoC6\pdl\drivers/peripheral/sysanalog/cy_sysanalog.h **** 
 311:Generated_Source\PSoC6\pdl\drivers/peripheral/sysanalog/cy_sysanalog.h **** /** \addtogroup group_sysanalog_data_structures
 312:Generated_Source\PSoC6\pdl\drivers/peripheral/sysanalog/cy_sysanalog.h **** * \{
 313:Generated_Source\PSoC6\pdl\drivers/peripheral/sysanalog/cy_sysanalog.h **** */
 314:Generated_Source\PSoC6\pdl\drivers/peripheral/sysanalog/cy_sysanalog.h **** 
 315:Generated_Source\PSoC6\pdl\drivers/peripheral/sysanalog/cy_sysanalog.h **** /***************************************
 316:Generated_Source\PSoC6\pdl\drivers/peripheral/sysanalog/cy_sysanalog.h **** *       Configuration Structures
 317:Generated_Source\PSoC6\pdl\drivers/peripheral/sysanalog/cy_sysanalog.h **** ***************************************/
 318:Generated_Source\PSoC6\pdl\drivers/peripheral/sysanalog/cy_sysanalog.h **** 
 319:Generated_Source\PSoC6\pdl\drivers/peripheral/sysanalog/cy_sysanalog.h **** /** Structure to configure the entire AREF block */
 320:Generated_Source\PSoC6\pdl\drivers/peripheral/sysanalog/cy_sysanalog.h **** typedef struct
 321:Generated_Source\PSoC6\pdl\drivers/peripheral/sysanalog/cy_sysanalog.h **** {
 322:Generated_Source\PSoC6\pdl\drivers/peripheral/sysanalog/cy_sysanalog.h ****     cy_en_sysanalog_startup_t               startup;   /**< AREF normal or fast start */
 323:Generated_Source\PSoC6\pdl\drivers/peripheral/sysanalog/cy_sysanalog.h ****     cy_en_sysanalog_iztat_source_t          iztat;     /**< AREF 1uA IZTAT source: Local or SRSS */
 324:Generated_Source\PSoC6\pdl\drivers/peripheral/sysanalog/cy_sysanalog.h ****     cy_en_sysanalog_vref_source_t           vref;      /**< AREF Vref: Local, SRSS, or external pin
 325:Generated_Source\PSoC6\pdl\drivers/peripheral/sysanalog/cy_sysanalog.h ****     cy_en_sysanalog_deep_sleep_t            deepSleep; /**< AREF Deep Sleep mode */
 326:Generated_Source\PSoC6\pdl\drivers/peripheral/sysanalog/cy_sysanalog.h **** }cy_stc_sysanalog_config_t;
 327:Generated_Source\PSoC6\pdl\drivers/peripheral/sysanalog/cy_sysanalog.h **** 
 328:Generated_Source\PSoC6\pdl\drivers/peripheral/sysanalog/cy_sysanalog.h **** /** \} group_sysanalog_data_structures */
 329:Generated_Source\PSoC6\pdl\drivers/peripheral/sysanalog/cy_sysanalog.h **** 
 330:Generated_Source\PSoC6\pdl\drivers/peripheral/sysanalog/cy_sysanalog.h **** /** \addtogroup group_sysanalog_globals
 331:Generated_Source\PSoC6\pdl\drivers/peripheral/sysanalog/cy_sysanalog.h **** * \{
 332:Generated_Source\PSoC6\pdl\drivers/peripheral/sysanalog/cy_sysanalog.h **** */
 333:Generated_Source\PSoC6\pdl\drivers/peripheral/sysanalog/cy_sysanalog.h **** /***************************************
 334:Generated_Source\PSoC6\pdl\drivers/peripheral/sysanalog/cy_sysanalog.h **** *        Global Constants
 335:Generated_Source\PSoC6\pdl\drivers/peripheral/sysanalog/cy_sysanalog.h **** ***************************************/
 336:Generated_Source\PSoC6\pdl\drivers/peripheral/sysanalog/cy_sysanalog.h **** 
 337:Generated_Source\PSoC6\pdl\drivers/peripheral/sysanalog/cy_sysanalog.h **** /** Configure the AREF to use the local Vref and local IZTAT. Can be used with \ref Cy_SysAnalog_In
 338:Generated_Source\PSoC6\pdl\drivers/peripheral/sysanalog/cy_sysanalog.h **** * Other configuration options are set to:
 339:Generated_Source\PSoC6\pdl\drivers/peripheral/sysanalog/cy_sysanalog.h **** *   - .startup          = CY_PASS_AREF_MODE_FAST
 340:Generated_Source\PSoC6\pdl\drivers/peripheral/sysanalog/cy_sysanalog.h **** *   - .deepSleep        = CY_PASS_AREF_DEEPSLEEP_DISABLE
 341:Generated_Source\PSoC6\pdl\drivers/peripheral/sysanalog/cy_sysanalog.h **** */
 342:Generated_Source\PSoC6\pdl\drivers/peripheral/sysanalog/cy_sysanalog.h **** extern const cy_stc_sysanalog_config_t Cy_SysAnalog_Fast_Local;
 343:Generated_Source\PSoC6\pdl\drivers/peripheral/sysanalog/cy_sysanalog.h **** 
 344:Generated_Source\PSoC6\pdl\drivers/peripheral/sysanalog/cy_sysanalog.h **** /** Configure the AREF to use the SRSS Vref and SRSS IZTAT. Can be used with \ref Cy_SysAnalog_Init
 345:Generated_Source\PSoC6\pdl\drivers/peripheral/sysanalog/cy_sysanalog.h **** * Other configuration options are set to:
 346:Generated_Source\PSoC6\pdl\drivers/peripheral/sysanalog/cy_sysanalog.h **** *   - .startup          = CY_PASS_AREF_MODE_FAST
 347:Generated_Source\PSoC6\pdl\drivers/peripheral/sysanalog/cy_sysanalog.h **** *   - .deepSleep        = CY_PASS_AREF_DEEPSLEEP_DISABLE
 348:Generated_Source\PSoC6\pdl\drivers/peripheral/sysanalog/cy_sysanalog.h **** */
 349:Generated_Source\PSoC6\pdl\drivers/peripheral/sysanalog/cy_sysanalog.h **** extern const cy_stc_sysanalog_config_t Cy_SysAnalog_Fast_SRSS;
 350:Generated_Source\PSoC6\pdl\drivers/peripheral/sysanalog/cy_sysanalog.h **** 
 351:Generated_Source\PSoC6\pdl\drivers/peripheral/sysanalog/cy_sysanalog.h **** /** Configure the AREF to use the external Vref and local IZTAT. Can be used with \ref Cy_SysAnalog
 352:Generated_Source\PSoC6\pdl\drivers/peripheral/sysanalog/cy_sysanalog.h **** * Other configuration options are set to:
 353:Generated_Source\PSoC6\pdl\drivers/peripheral/sysanalog/cy_sysanalog.h **** *   - .startup          = CY_PASS_AREF_MODE_FAST
 354:Generated_Source\PSoC6\pdl\drivers/peripheral/sysanalog/cy_sysanalog.h **** *   - .deepSleep        = CY_PASS_AREF_DEEPSLEEP_DISABLE
 355:Generated_Source\PSoC6\pdl\drivers/peripheral/sysanalog/cy_sysanalog.h **** */
 356:Generated_Source\PSoC6\pdl\drivers/peripheral/sysanalog/cy_sysanalog.h **** extern const cy_stc_sysanalog_config_t Cy_SysAnalog_Fast_External;
 357:Generated_Source\PSoC6\pdl\drivers/peripheral/sysanalog/cy_sysanalog.h **** 
 358:Generated_Source\PSoC6\pdl\drivers/peripheral/sysanalog/cy_sysanalog.h **** /** \} group_sysanalog_globals */
 359:Generated_Source\PSoC6\pdl\drivers/peripheral/sysanalog/cy_sysanalog.h **** 
ARM GAS  C:\Users\JC\AppData\Local\Temp\cclZ7ZAh.s 			page 8


 360:Generated_Source\PSoC6\pdl\drivers/peripheral/sysanalog/cy_sysanalog.h **** /** \addtogroup group_sysanalog_functions
 361:Generated_Source\PSoC6\pdl\drivers/peripheral/sysanalog/cy_sysanalog.h **** * \{
 362:Generated_Source\PSoC6\pdl\drivers/peripheral/sysanalog/cy_sysanalog.h **** */
 363:Generated_Source\PSoC6\pdl\drivers/peripheral/sysanalog/cy_sysanalog.h **** 
 364:Generated_Source\PSoC6\pdl\drivers/peripheral/sysanalog/cy_sysanalog.h **** /***************************************
 365:Generated_Source\PSoC6\pdl\drivers/peripheral/sysanalog/cy_sysanalog.h **** *        Function Prototypes
 366:Generated_Source\PSoC6\pdl\drivers/peripheral/sysanalog/cy_sysanalog.h **** ***************************************/
 367:Generated_Source\PSoC6\pdl\drivers/peripheral/sysanalog/cy_sysanalog.h **** 
 368:Generated_Source\PSoC6\pdl\drivers/peripheral/sysanalog/cy_sysanalog.h **** cy_en_sysanalog_status_t Cy_SysAnalog_Init(const cy_stc_sysanalog_config_t *config);
 369:Generated_Source\PSoC6\pdl\drivers/peripheral/sysanalog/cy_sysanalog.h **** __STATIC_INLINE void Cy_SysAnalog_DeInit(void);
 370:Generated_Source\PSoC6\pdl\drivers/peripheral/sysanalog/cy_sysanalog.h **** __STATIC_INLINE uint32_t Cy_SysAnalog_GetIntrCause(void);
 371:Generated_Source\PSoC6\pdl\drivers/peripheral/sysanalog/cy_sysanalog.h **** __STATIC_INLINE void Cy_SysAnalog_SetDeepSleepMode(cy_en_sysanalog_deep_sleep_t deepSleep);
 372:Generated_Source\PSoC6\pdl\drivers/peripheral/sysanalog/cy_sysanalog.h **** __STATIC_INLINE cy_en_sysanalog_deep_sleep_t Cy_SysAnalog_GetDeepSleepMode(void);
 373:Generated_Source\PSoC6\pdl\drivers/peripheral/sysanalog/cy_sysanalog.h **** __STATIC_INLINE void Cy_SysAnalog_Enable(void);
 374:Generated_Source\PSoC6\pdl\drivers/peripheral/sysanalog/cy_sysanalog.h **** __STATIC_INLINE void Cy_SysAnalog_Disable(void);
 375:Generated_Source\PSoC6\pdl\drivers/peripheral/sysanalog/cy_sysanalog.h **** __STATIC_INLINE void Cy_SysAnalog_SetArefMode(cy_en_sysanalog_startup_t startup);
 376:Generated_Source\PSoC6\pdl\drivers/peripheral/sysanalog/cy_sysanalog.h **** __STATIC_INLINE void Cy_SysAnalog_VrefSelect(cy_en_sysanalog_vref_source_t vref);
 377:Generated_Source\PSoC6\pdl\drivers/peripheral/sysanalog/cy_sysanalog.h **** __STATIC_INLINE void Cy_SysAnalog_IztatSelect(cy_en_sysanalog_iztat_source_t iztat);
 378:Generated_Source\PSoC6\pdl\drivers/peripheral/sysanalog/cy_sysanalog.h **** 
 379:Generated_Source\PSoC6\pdl\drivers/peripheral/sysanalog/cy_sysanalog.h **** /*******************************************************************************
 380:Generated_Source\PSoC6\pdl\drivers/peripheral/sysanalog/cy_sysanalog.h **** * Function Name: Cy_SysAnalog_DeInit
 381:Generated_Source\PSoC6\pdl\drivers/peripheral/sysanalog/cy_sysanalog.h **** ****************************************************************************//**
 382:Generated_Source\PSoC6\pdl\drivers/peripheral/sysanalog/cy_sysanalog.h **** *
 383:Generated_Source\PSoC6\pdl\drivers/peripheral/sysanalog/cy_sysanalog.h **** * Reset AREF configuration back to power on reset defaults.
 384:Generated_Source\PSoC6\pdl\drivers/peripheral/sysanalog/cy_sysanalog.h **** *
 385:Generated_Source\PSoC6\pdl\drivers/peripheral/sysanalog/cy_sysanalog.h **** * \return None
 386:Generated_Source\PSoC6\pdl\drivers/peripheral/sysanalog/cy_sysanalog.h **** *
 387:Generated_Source\PSoC6\pdl\drivers/peripheral/sysanalog/cy_sysanalog.h **** * \funcusage
 388:Generated_Source\PSoC6\pdl\drivers/peripheral/sysanalog/cy_sysanalog.h **** *
 389:Generated_Source\PSoC6\pdl\drivers/peripheral/sysanalog/cy_sysanalog.h **** * \snippet sysanalog_sut_01.cydsn/main_cm0p.c SYSANA_SNIPPET_DEINIT
 390:Generated_Source\PSoC6\pdl\drivers/peripheral/sysanalog/cy_sysanalog.h **** *
 391:Generated_Source\PSoC6\pdl\drivers/peripheral/sysanalog/cy_sysanalog.h **** *******************************************************************************/
 392:Generated_Source\PSoC6\pdl\drivers/peripheral/sysanalog/cy_sysanalog.h **** __STATIC_INLINE void Cy_SysAnalog_DeInit(void)
 393:Generated_Source\PSoC6\pdl\drivers/peripheral/sysanalog/cy_sysanalog.h **** {
 394:Generated_Source\PSoC6\pdl\drivers/peripheral/sysanalog/cy_sysanalog.h ****     PASS_AREF_AREF_CTRL = CY_SYSANALOG_DEINIT;
 395:Generated_Source\PSoC6\pdl\drivers/peripheral/sysanalog/cy_sysanalog.h **** }
 396:Generated_Source\PSoC6\pdl\drivers/peripheral/sysanalog/cy_sysanalog.h **** 
 397:Generated_Source\PSoC6\pdl\drivers/peripheral/sysanalog/cy_sysanalog.h **** /*******************************************************************************
 398:Generated_Source\PSoC6\pdl\drivers/peripheral/sysanalog/cy_sysanalog.h **** * Function Name: Cy_SysAnalog_GetIntrCause
 399:Generated_Source\PSoC6\pdl\drivers/peripheral/sysanalog/cy_sysanalog.h **** ****************************************************************************//**
 400:Generated_Source\PSoC6\pdl\drivers/peripheral/sysanalog/cy_sysanalog.h **** *
 401:Generated_Source\PSoC6\pdl\drivers/peripheral/sysanalog/cy_sysanalog.h **** * Return the PASS interrupt cause register value.
 402:Generated_Source\PSoC6\pdl\drivers/peripheral/sysanalog/cy_sysanalog.h **** *
 403:Generated_Source\PSoC6\pdl\drivers/peripheral/sysanalog/cy_sysanalog.h **** * There are two interrupts in the PASS:
 404:Generated_Source\PSoC6\pdl\drivers/peripheral/sysanalog/cy_sysanalog.h **** *   -# A global interrupt for all CTBs (up to 4)
 405:Generated_Source\PSoC6\pdl\drivers/peripheral/sysanalog/cy_sysanalog.h **** *   -# A global interrupt for all CTDACs (up to 4)
 406:Generated_Source\PSoC6\pdl\drivers/peripheral/sysanalog/cy_sysanalog.h **** *
 407:Generated_Source\PSoC6\pdl\drivers/peripheral/sysanalog/cy_sysanalog.h **** * Compare this returned value with the enum values in \ref cy_en_sysanalog_intr_cause_t
 408:Generated_Source\PSoC6\pdl\drivers/peripheral/sysanalog/cy_sysanalog.h **** * to determine which block caused/triggered the interrupt.
 409:Generated_Source\PSoC6\pdl\drivers/peripheral/sysanalog/cy_sysanalog.h **** *
 410:Generated_Source\PSoC6\pdl\drivers/peripheral/sysanalog/cy_sysanalog.h **** * \return uint32_t
 411:Generated_Source\PSoC6\pdl\drivers/peripheral/sysanalog/cy_sysanalog.h **** * Interrupt cause register value.
 412:Generated_Source\PSoC6\pdl\drivers/peripheral/sysanalog/cy_sysanalog.h **** *
 413:Generated_Source\PSoC6\pdl\drivers/peripheral/sysanalog/cy_sysanalog.h **** * \funcusage
 414:Generated_Source\PSoC6\pdl\drivers/peripheral/sysanalog/cy_sysanalog.h **** *
 415:Generated_Source\PSoC6\pdl\drivers/peripheral/sysanalog/cy_sysanalog.h **** * \snippet sysanalog_sut_01.cydsn/main_cm0p.c SYSANA_SNIPPET_GET_INTR_CAUSE
 416:Generated_Source\PSoC6\pdl\drivers/peripheral/sysanalog/cy_sysanalog.h **** *
ARM GAS  C:\Users\JC\AppData\Local\Temp\cclZ7ZAh.s 			page 9


 417:Generated_Source\PSoC6\pdl\drivers/peripheral/sysanalog/cy_sysanalog.h **** *******************************************************************************/
 418:Generated_Source\PSoC6\pdl\drivers/peripheral/sysanalog/cy_sysanalog.h **** __STATIC_INLINE uint32_t Cy_SysAnalog_GetIntrCause(void)
 419:Generated_Source\PSoC6\pdl\drivers/peripheral/sysanalog/cy_sysanalog.h **** {
 420:Generated_Source\PSoC6\pdl\drivers/peripheral/sysanalog/cy_sysanalog.h ****     return PASS_INTR_CAUSE;
 421:Generated_Source\PSoC6\pdl\drivers/peripheral/sysanalog/cy_sysanalog.h **** }
 422:Generated_Source\PSoC6\pdl\drivers/peripheral/sysanalog/cy_sysanalog.h **** 
 423:Generated_Source\PSoC6\pdl\drivers/peripheral/sysanalog/cy_sysanalog.h **** /*******************************************************************************
 424:Generated_Source\PSoC6\pdl\drivers/peripheral/sysanalog/cy_sysanalog.h **** * Function Name: Cy_SysAnalog_SetDeepSleepMode
 425:Generated_Source\PSoC6\pdl\drivers/peripheral/sysanalog/cy_sysanalog.h **** ****************************************************************************//**
 426:Generated_Source\PSoC6\pdl\drivers/peripheral/sysanalog/cy_sysanalog.h **** *
 427:Generated_Source\PSoC6\pdl\drivers/peripheral/sysanalog/cy_sysanalog.h **** * Set what parts of the AREF are enabled in Deep Sleep mode.
 428:Generated_Source\PSoC6\pdl\drivers/peripheral/sysanalog/cy_sysanalog.h **** *   - Disable AREF IP block
 429:Generated_Source\PSoC6\pdl\drivers/peripheral/sysanalog/cy_sysanalog.h **** *   - Enable IPTAT generator for fast wakeup from Deep Sleep mode.
 430:Generated_Source\PSoC6\pdl\drivers/peripheral/sysanalog/cy_sysanalog.h **** *     IPTAT outputs for CTBs are disabled.
 431:Generated_Source\PSoC6\pdl\drivers/peripheral/sysanalog/cy_sysanalog.h **** *   - Enable IPTAT generator and IPTAT outputs for CTB
 432:Generated_Source\PSoC6\pdl\drivers/peripheral/sysanalog/cy_sysanalog.h **** *   - Enable all generators and outputs: IPTAT, IZTAT, and VREF
 433:Generated_Source\PSoC6\pdl\drivers/peripheral/sysanalog/cy_sysanalog.h **** *
 434:Generated_Source\PSoC6\pdl\drivers/peripheral/sysanalog/cy_sysanalog.h **** * \note
 435:Generated_Source\PSoC6\pdl\drivers/peripheral/sysanalog/cy_sysanalog.h **** * The SRSS references are not available to the AREF in Deep Sleep mode. When operating
 436:Generated_Source\PSoC6\pdl\drivers/peripheral/sysanalog/cy_sysanalog.h **** * in Deep Sleep mode, the local or external references must be selected.
 437:Generated_Source\PSoC6\pdl\drivers/peripheral/sysanalog/cy_sysanalog.h **** *
 438:Generated_Source\PSoC6\pdl\drivers/peripheral/sysanalog/cy_sysanalog.h **** * \param deepSleep
 439:Generated_Source\PSoC6\pdl\drivers/peripheral/sysanalog/cy_sysanalog.h **** * Select a value from \ref cy_en_sysanalog_deep_sleep_t
 440:Generated_Source\PSoC6\pdl\drivers/peripheral/sysanalog/cy_sysanalog.h **** *
 441:Generated_Source\PSoC6\pdl\drivers/peripheral/sysanalog/cy_sysanalog.h **** * \return None
 442:Generated_Source\PSoC6\pdl\drivers/peripheral/sysanalog/cy_sysanalog.h **** *
 443:Generated_Source\PSoC6\pdl\drivers/peripheral/sysanalog/cy_sysanalog.h **** * \funcusage
 444:Generated_Source\PSoC6\pdl\drivers/peripheral/sysanalog/cy_sysanalog.h **** *
 445:Generated_Source\PSoC6\pdl\drivers/peripheral/sysanalog/cy_sysanalog.h **** * \snippet sysanalog_sut_01.cydsn/main_cm0p.c SYSANA_SNIPPET_SET_DEEPSLEEP_MODE
 446:Generated_Source\PSoC6\pdl\drivers/peripheral/sysanalog/cy_sysanalog.h **** *
 447:Generated_Source\PSoC6\pdl\drivers/peripheral/sysanalog/cy_sysanalog.h **** *******************************************************************************/
 448:Generated_Source\PSoC6\pdl\drivers/peripheral/sysanalog/cy_sysanalog.h **** __STATIC_INLINE void Cy_SysAnalog_SetDeepSleepMode(cy_en_sysanalog_deep_sleep_t deepSleep)
 449:Generated_Source\PSoC6\pdl\drivers/peripheral/sysanalog/cy_sysanalog.h **** {
  33              		.loc 1 449 0
  34              		.cfi_startproc
  35              		@ args = 0, pretend = 0, frame = 8
  36              		@ frame_needed = 1, uses_anonymous_args = 0
  37 0000 80B5     		push	{r7, lr}
  38              		.cfi_def_cfa_offset 8
  39              		.cfi_offset 7, -8
  40              		.cfi_offset 14, -4
  41 0002 82B0     		sub	sp, sp, #8
  42              		.cfi_def_cfa_offset 16
  43 0004 00AF     		add	r7, sp, #0
  44              		.cfi_def_cfa_register 7
  45 0006 7860     		str	r0, [r7, #4]
 450:Generated_Source\PSoC6\pdl\drivers/peripheral/sysanalog/cy_sysanalog.h ****     CY_ASSERT_L3(CY_SYSANALOG_DEEPSLEEP(deepSleep));
  46              		.loc 1 450 0
  47 0008 7B68     		ldr	r3, [r7, #4]
  48 000a 002B     		cmp	r3, #0
  49 000c 10D0     		beq	.L2
  50              		.loc 1 450 0 is_stmt 0 discriminator 1
  51 000e 7B68     		ldr	r3, [r7, #4]
  52 0010 B3F1A04F 		cmp	r3, #1342177280
  53 0014 0CD0     		beq	.L2
  54              		.loc 1 450 0 discriminator 2
  55 0016 7B68     		ldr	r3, [r7, #4]
ARM GAS  C:\Users\JC\AppData\Local\Temp\cclZ7ZAh.s 			page 10


  56 0018 B3F1C04F 		cmp	r3, #1610612736
  57 001c 08D0     		beq	.L2
  58              		.loc 1 450 0 discriminator 3
  59 001e 7B68     		ldr	r3, [r7, #4]
  60 0020 B3F1E04F 		cmp	r3, #1879048192
  61 0024 04D0     		beq	.L2
  62              		.loc 1 450 0 discriminator 4
  63 0026 4FF4E171 		mov	r1, #450
  64 002a 0B48     		ldr	r0, .L3
  65 002c FFF7FEFF 		bl	Cy_SysLib_AssertFailed
  66              	.L2:
 451:Generated_Source\PSoC6\pdl\drivers/peripheral/sysanalog/cy_sysanalog.h **** 
 452:Generated_Source\PSoC6\pdl\drivers/peripheral/sysanalog/cy_sysanalog.h ****     PASS_AREF_AREF_CTRL = (PASS_AREF_AREF_CTRL & ~(PASS_AREF_AREF_CTRL_DEEPSLEEP_ON_Msk | PASS_AREF
  67              		.loc 1 452 0 is_stmt 1
  68 0030 0A4B     		ldr	r3, .L3+4
  69 0032 1B68     		ldr	r3, [r3]
  70 0034 DB69     		ldr	r3, [r3, #28]
  71 0036 1946     		mov	r1, r3
  72 0038 084B     		ldr	r3, .L3+4
  73 003a 1B68     		ldr	r3, [r3]
  74 003c DB69     		ldr	r3, [r3, #28]
  75 003e D3F8003E 		ldr	r3, [r3, #3584]
  76 0042 23F0E042 		bic	r2, r3, #1879048192
  77 0046 7B68     		ldr	r3, [r7, #4]
  78 0048 1343     		orrs	r3, r3, r2
  79 004a C1F8003E 		str	r3, [r1, #3584]
 453:Generated_Source\PSoC6\pdl\drivers/peripheral/sysanalog/cy_sysanalog.h ****                       (uint32_t) deepSleep;
 454:Generated_Source\PSoC6\pdl\drivers/peripheral/sysanalog/cy_sysanalog.h **** }
  80              		.loc 1 454 0
  81 004e 00BF     		nop
  82 0050 0837     		adds	r7, r7, #8
  83              		.cfi_def_cfa_offset 8
  84 0052 BD46     		mov	sp, r7
  85              		.cfi_def_cfa_register 13
  86              		@ sp needed
  87 0054 80BD     		pop	{r7, pc}
  88              	.L4:
  89 0056 00BF     		.align	2
  90              	.L3:
  91 0058 00000000 		.word	.LC0
  92 005c 00000000 		.word	cy_device
  93              		.cfi_endproc
  94              	.LFE168:
  95              		.size	Cy_SysAnalog_SetDeepSleepMode, .-Cy_SysAnalog_SetDeepSleepMode
  96              		.section	.text.Cy_SysAnalog_GetDeepSleepMode,"ax",%progbits
  97              		.align	2
  98              		.thumb
  99              		.thumb_func
 100              		.type	Cy_SysAnalog_GetDeepSleepMode, %function
 101              	Cy_SysAnalog_GetDeepSleepMode:
 102              	.LFB169:
 455:Generated_Source\PSoC6\pdl\drivers/peripheral/sysanalog/cy_sysanalog.h **** 
 456:Generated_Source\PSoC6\pdl\drivers/peripheral/sysanalog/cy_sysanalog.h **** /*******************************************************************************
 457:Generated_Source\PSoC6\pdl\drivers/peripheral/sysanalog/cy_sysanalog.h **** * Function Name: Cy_SysAnalog_GetDeepSleepMode
 458:Generated_Source\PSoC6\pdl\drivers/peripheral/sysanalog/cy_sysanalog.h **** ****************************************************************************//**
 459:Generated_Source\PSoC6\pdl\drivers/peripheral/sysanalog/cy_sysanalog.h **** *
 460:Generated_Source\PSoC6\pdl\drivers/peripheral/sysanalog/cy_sysanalog.h **** * Return Deep Sleep mode configuration as set by \ref Cy_SysAnalog_SetDeepSleepMode
ARM GAS  C:\Users\JC\AppData\Local\Temp\cclZ7ZAh.s 			page 11


 461:Generated_Source\PSoC6\pdl\drivers/peripheral/sysanalog/cy_sysanalog.h **** *
 462:Generated_Source\PSoC6\pdl\drivers/peripheral/sysanalog/cy_sysanalog.h **** * \return
 463:Generated_Source\PSoC6\pdl\drivers/peripheral/sysanalog/cy_sysanalog.h **** * A value from \ref cy_en_sysanalog_deep_sleep_t
 464:Generated_Source\PSoC6\pdl\drivers/peripheral/sysanalog/cy_sysanalog.h **** *
 465:Generated_Source\PSoC6\pdl\drivers/peripheral/sysanalog/cy_sysanalog.h **** * \funcusage
 466:Generated_Source\PSoC6\pdl\drivers/peripheral/sysanalog/cy_sysanalog.h **** *
 467:Generated_Source\PSoC6\pdl\drivers/peripheral/sysanalog/cy_sysanalog.h **** * \snippet sysanalog_sut_01.cydsn/main_cm0p.c SYSANA_SNIPPET_GET_DEEPSLEEP_MODE
 468:Generated_Source\PSoC6\pdl\drivers/peripheral/sysanalog/cy_sysanalog.h **** *
 469:Generated_Source\PSoC6\pdl\drivers/peripheral/sysanalog/cy_sysanalog.h **** *******************************************************************************/
 470:Generated_Source\PSoC6\pdl\drivers/peripheral/sysanalog/cy_sysanalog.h **** __STATIC_INLINE cy_en_sysanalog_deep_sleep_t Cy_SysAnalog_GetDeepSleepMode(void)
 471:Generated_Source\PSoC6\pdl\drivers/peripheral/sysanalog/cy_sysanalog.h **** {
 103              		.loc 1 471 0
 104              		.cfi_startproc
 105              		@ args = 0, pretend = 0, frame = 0
 106              		@ frame_needed = 1, uses_anonymous_args = 0
 107              		@ link register save eliminated.
 108 0000 80B4     		push	{r7}
 109              		.cfi_def_cfa_offset 4
 110              		.cfi_offset 7, -4
 111 0002 00AF     		add	r7, sp, #0
 112              		.cfi_def_cfa_register 7
 472:Generated_Source\PSoC6\pdl\drivers/peripheral/sysanalog/cy_sysanalog.h ****     return (cy_en_sysanalog_deep_sleep_t) (uint32_t) (PASS_AREF_AREF_CTRL & (PASS_AREF_AREF_CTRL_DE
 113              		.loc 1 472 0
 114 0004 054B     		ldr	r3, .L7
 115 0006 1B68     		ldr	r3, [r3]
 116 0008 DB69     		ldr	r3, [r3, #28]
 117 000a D3F8003E 		ldr	r3, [r3, #3584]
 118 000e 03F0E043 		and	r3, r3, #1879048192
 473:Generated_Source\PSoC6\pdl\drivers/peripheral/sysanalog/cy_sysanalog.h **** }
 119              		.loc 1 473 0
 120 0012 1846     		mov	r0, r3
 121 0014 BD46     		mov	sp, r7
 122              		.cfi_def_cfa_register 13
 123              		@ sp needed
 124 0016 5DF8047B 		ldr	r7, [sp], #4
 125              		.cfi_restore 7
 126              		.cfi_def_cfa_offset 0
 127 001a 7047     		bx	lr
 128              	.L8:
 129              		.align	2
 130              	.L7:
 131 001c 00000000 		.word	cy_device
 132              		.cfi_endproc
 133              	.LFE169:
 134              		.size	Cy_SysAnalog_GetDeepSleepMode, .-Cy_SysAnalog_GetDeepSleepMode
 135              		.section	.rodata
 136 0047 00       		.align	2
 137              	.LC1:
 138 0048 47656E65 		.ascii	"Generated_Source\\PSoC6\\pdl\\drivers\\peripheral\\"
 138      72617465 
 138      645F536F 
 138      75726365 
 138      5C50536F 
 139 0076 6374625C 		.ascii	"ctb\\cy_ctb.h\000"
 139      63795F63 
 139      74622E68 
 139      00
ARM GAS  C:\Users\JC\AppData\Local\Temp\cclZ7ZAh.s 			page 12


 140              		.section	.text.Cy_CTB_SetIptatLevel,"ax",%progbits
 141              		.align	2
 142              		.thumb
 143              		.thumb_func
 144              		.type	Cy_CTB_SetIptatLevel, %function
 145              	Cy_CTB_SetIptatLevel:
 146              	.LFB186:
 147              		.file 2 "Generated_Source\\PSoC6\\pdl\\drivers\\peripheral\\ctb\\cy_ctb.h"
   1:Generated_Source\PSoC6\pdl\drivers\peripheral\ctb/cy_ctb.h **** /***************************************************************************//**
   2:Generated_Source\PSoC6\pdl\drivers\peripheral\ctb/cy_ctb.h **** * \file cy_ctb.h
   3:Generated_Source\PSoC6\pdl\drivers\peripheral\ctb/cy_ctb.h **** * \version 1.10
   4:Generated_Source\PSoC6\pdl\drivers\peripheral\ctb/cy_ctb.h **** *
   5:Generated_Source\PSoC6\pdl\drivers\peripheral\ctb/cy_ctb.h **** * Header file for the CTB driver
   6:Generated_Source\PSoC6\pdl\drivers\peripheral\ctb/cy_ctb.h **** *
   7:Generated_Source\PSoC6\pdl\drivers\peripheral\ctb/cy_ctb.h **** ********************************************************************************
   8:Generated_Source\PSoC6\pdl\drivers\peripheral\ctb/cy_ctb.h **** * \copyright
   9:Generated_Source\PSoC6\pdl\drivers\peripheral\ctb/cy_ctb.h **** * Copyright 2017-2018, Cypress Semiconductor Corporation. All rights reserved.
  10:Generated_Source\PSoC6\pdl\drivers\peripheral\ctb/cy_ctb.h **** * You may use this file only in accordance with the license, terms, conditions,
  11:Generated_Source\PSoC6\pdl\drivers\peripheral\ctb/cy_ctb.h **** * disclaimers, and limitations in the end user license agreement accompanying
  12:Generated_Source\PSoC6\pdl\drivers\peripheral\ctb/cy_ctb.h **** * the software package with which this file was provided.
  13:Generated_Source\PSoC6\pdl\drivers\peripheral\ctb/cy_ctb.h **** *******************************************************************************/
  14:Generated_Source\PSoC6\pdl\drivers\peripheral\ctb/cy_ctb.h **** 
  15:Generated_Source\PSoC6\pdl\drivers\peripheral\ctb/cy_ctb.h **** /**
  16:Generated_Source\PSoC6\pdl\drivers\peripheral\ctb/cy_ctb.h **** * \addtogroup group_ctb
  17:Generated_Source\PSoC6\pdl\drivers\peripheral\ctb/cy_ctb.h **** * \{
  18:Generated_Source\PSoC6\pdl\drivers\peripheral\ctb/cy_ctb.h **** * This driver provides API functions to configure and use the analog CTB.
  19:Generated_Source\PSoC6\pdl\drivers\peripheral\ctb/cy_ctb.h **** *
  20:Generated_Source\PSoC6\pdl\drivers\peripheral\ctb/cy_ctb.h **** * The functions and other declarations used in this driver are in cy_ctb.h. 
  21:Generated_Source\PSoC6\pdl\drivers\peripheral\ctb/cy_ctb.h **** * You can include cy_pdl.h (ModusToolbox only) to get access to all functions 
  22:Generated_Source\PSoC6\pdl\drivers\peripheral\ctb/cy_ctb.h **** * and declarations in the PDL.
  23:Generated_Source\PSoC6\pdl\drivers\peripheral\ctb/cy_ctb.h **** *
  24:Generated_Source\PSoC6\pdl\drivers\peripheral\ctb/cy_ctb.h **** * The CTB comprises two identical opamps, a switch routing matrix,
  25:Generated_Source\PSoC6\pdl\drivers\peripheral\ctb/cy_ctb.h **** * and a sample and hold (SH) circuit. The high level features are:
  26:Generated_Source\PSoC6\pdl\drivers\peripheral\ctb/cy_ctb.h **** *
  27:Generated_Source\PSoC6\pdl\drivers\peripheral\ctb/cy_ctb.h **** *   - Two highly configurable opamps
  28:Generated_Source\PSoC6\pdl\drivers\peripheral\ctb/cy_ctb.h **** *       - Each opamp has programmable power and output drive strength
  29:Generated_Source\PSoC6\pdl\drivers\peripheral\ctb/cy_ctb.h **** *       - Each opamp can be configured as a voltage follower using internal routing
  30:Generated_Source\PSoC6\pdl\drivers\peripheral\ctb/cy_ctb.h **** *       - Each opamp can be configured as a comparator with optional 10 mV hysteresis
  31:Generated_Source\PSoC6\pdl\drivers\peripheral\ctb/cy_ctb.h **** *   - Flexible input and output routing
  32:Generated_Source\PSoC6\pdl\drivers\peripheral\ctb/cy_ctb.h **** *   - Works as a buffer or amplifier for SAR ADC inputs
  33:Generated_Source\PSoC6\pdl\drivers\peripheral\ctb/cy_ctb.h **** *   - Works as a buffer, amplifier, or sample and hold (SH) for the CTDAC output
  34:Generated_Source\PSoC6\pdl\drivers\peripheral\ctb/cy_ctb.h **** *   - Can operate in Deep Sleep power mode
  35:Generated_Source\PSoC6\pdl\drivers\peripheral\ctb/cy_ctb.h **** *
  36:Generated_Source\PSoC6\pdl\drivers\peripheral\ctb/cy_ctb.h **** * Each opamp, marked OA0 and OA1, has one input and three output stages,
  37:Generated_Source\PSoC6\pdl\drivers\peripheral\ctb/cy_ctb.h **** * all of which share the common input stage.
  38:Generated_Source\PSoC6\pdl\drivers\peripheral\ctb/cy_ctb.h **** * Note that only one output stage can be selected at a time.
  39:Generated_Source\PSoC6\pdl\drivers\peripheral\ctb/cy_ctb.h **** * The output stage can operate as a low-drive strength opamp for internal connections (1X), a high-
  40:Generated_Source\PSoC6\pdl\drivers\peripheral\ctb/cy_ctb.h **** * opamp for driving a device pin (10X), or a comparator.
  41:Generated_Source\PSoC6\pdl\drivers\peripheral\ctb/cy_ctb.h **** *
  42:Generated_Source\PSoC6\pdl\drivers\peripheral\ctb/cy_ctb.h **** * Using the switching matrix, the opamp inputs and outputs
  43:Generated_Source\PSoC6\pdl\drivers\peripheral\ctb/cy_ctb.h **** * can be connected to dedicated general-purpose I/Os or other internal analog
  44:Generated_Source\PSoC6\pdl\drivers\peripheral\ctb/cy_ctb.h **** * blocks. See the device datasheet for the dedicated CTB port.
  45:Generated_Source\PSoC6\pdl\drivers\peripheral\ctb/cy_ctb.h **** *
  46:Generated_Source\PSoC6\pdl\drivers\peripheral\ctb/cy_ctb.h **** * \image html ctb_block_diagram.png "CTB Switch Diagram" width=1000px
  47:Generated_Source\PSoC6\pdl\drivers\peripheral\ctb/cy_ctb.h **** * \image latex ctb_block_diagram.png
  48:Generated_Source\PSoC6\pdl\drivers\peripheral\ctb/cy_ctb.h **** *
  49:Generated_Source\PSoC6\pdl\drivers\peripheral\ctb/cy_ctb.h **** * \section group_ctb_init Initialization and Enable
ARM GAS  C:\Users\JC\AppData\Local\Temp\cclZ7ZAh.s 			page 13


  50:Generated_Source\PSoC6\pdl\drivers\peripheral\ctb/cy_ctb.h **** *
  51:Generated_Source\PSoC6\pdl\drivers\peripheral\ctb/cy_ctb.h **** * Before enabling the CTB, set up any external components (such as resistors)
  52:Generated_Source\PSoC6\pdl\drivers\peripheral\ctb/cy_ctb.h **** * that are needed for the design. To configure the entire hardware block, call \ref Cy_CTB_Init.
  53:Generated_Source\PSoC6\pdl\drivers\peripheral\ctb/cy_ctb.h **** * The base address of the CTB hardware can be found in the device specific header file.
  54:Generated_Source\PSoC6\pdl\drivers\peripheral\ctb/cy_ctb.h **** * Alternatively, to configure only one opamp without any routing, call \ref Cy_CTB_OpampInit.
  55:Generated_Source\PSoC6\pdl\drivers\peripheral\ctb/cy_ctb.h **** * The driver also provides a \ref Cy_CTB_FastInit function for fast and easy initialization of the 
  56:Generated_Source\PSoC6\pdl\drivers\peripheral\ctb/cy_ctb.h **** * based on commonly used configurations. They are pre-defined in the driver as:
  57:Generated_Source\PSoC6\pdl\drivers\peripheral\ctb/cy_ctb.h **** *
  58:Generated_Source\PSoC6\pdl\drivers\peripheral\ctb/cy_ctb.h **** * <b> Opamp0 </b>
  59:Generated_Source\PSoC6\pdl\drivers\peripheral\ctb/cy_ctb.h **** * - \ref Cy_CTB_Fast_Opamp0_Unused
  60:Generated_Source\PSoC6\pdl\drivers\peripheral\ctb/cy_ctb.h **** * - \ref Cy_CTB_Fast_Opamp0_Comp
  61:Generated_Source\PSoC6\pdl\drivers\peripheral\ctb/cy_ctb.h **** * - \ref Cy_CTB_Fast_Opamp0_Opamp1x
  62:Generated_Source\PSoC6\pdl\drivers\peripheral\ctb/cy_ctb.h **** * - \ref Cy_CTB_Fast_Opamp0_Opamp10x
  63:Generated_Source\PSoC6\pdl\drivers\peripheral\ctb/cy_ctb.h **** * - \ref Cy_CTB_Fast_Opamp0_Diffamp
  64:Generated_Source\PSoC6\pdl\drivers\peripheral\ctb/cy_ctb.h **** * - \ref Cy_CTB_Fast_Opamp0_Vdac_Out
  65:Generated_Source\PSoC6\pdl\drivers\peripheral\ctb/cy_ctb.h **** * - \ref Cy_CTB_Fast_Opamp0_Vdac_Out_SH
  66:Generated_Source\PSoC6\pdl\drivers\peripheral\ctb/cy_ctb.h **** *
  67:Generated_Source\PSoC6\pdl\drivers\peripheral\ctb/cy_ctb.h **** * <b> Opamp1 </b>
  68:Generated_Source\PSoC6\pdl\drivers\peripheral\ctb/cy_ctb.h **** * - \ref Cy_CTB_Fast_Opamp1_Unused
  69:Generated_Source\PSoC6\pdl\drivers\peripheral\ctb/cy_ctb.h **** * - \ref Cy_CTB_Fast_Opamp1_Comp
  70:Generated_Source\PSoC6\pdl\drivers\peripheral\ctb/cy_ctb.h **** * - \ref Cy_CTB_Fast_Opamp1_Opamp1x
  71:Generated_Source\PSoC6\pdl\drivers\peripheral\ctb/cy_ctb.h **** * - \ref Cy_CTB_Fast_Opamp1_Opamp10x
  72:Generated_Source\PSoC6\pdl\drivers\peripheral\ctb/cy_ctb.h **** * - \ref Cy_CTB_Fast_Opamp1_Diffamp
  73:Generated_Source\PSoC6\pdl\drivers\peripheral\ctb/cy_ctb.h **** * - \ref Cy_CTB_Fast_Opamp1_Vdac_Ref_Aref
  74:Generated_Source\PSoC6\pdl\drivers\peripheral\ctb/cy_ctb.h **** * - \ref Cy_CTB_Fast_Opamp1_Vdac_Ref_Pin5
  75:Generated_Source\PSoC6\pdl\drivers\peripheral\ctb/cy_ctb.h **** *
  76:Generated_Source\PSoC6\pdl\drivers\peripheral\ctb/cy_ctb.h **** * After initialization, call \ref Cy_CTB_Enable to enable the hardware.
  77:Generated_Source\PSoC6\pdl\drivers\peripheral\ctb/cy_ctb.h **** *
  78:Generated_Source\PSoC6\pdl\drivers\peripheral\ctb/cy_ctb.h **** * \section group_ctb_io_connections Input/Output Connections
  79:Generated_Source\PSoC6\pdl\drivers\peripheral\ctb/cy_ctb.h **** *
  80:Generated_Source\PSoC6\pdl\drivers\peripheral\ctb/cy_ctb.h **** * The CTB has internal switches to support flexible input and output routing. If these switches
  81:Generated_Source\PSoC6\pdl\drivers\peripheral\ctb/cy_ctb.h **** * have not been configured during initialization, call \ref Cy_CTB_SetAnalogSwitch to
  82:Generated_Source\PSoC6\pdl\drivers\peripheral\ctb/cy_ctb.h **** * make the input and output connections.
  83:Generated_Source\PSoC6\pdl\drivers\peripheral\ctb/cy_ctb.h **** *
  84:Generated_Source\PSoC6\pdl\drivers\peripheral\ctb/cy_ctb.h **** * \snippet ctb_sut_01.cydsn/main_cm4.c CTB_SNIPPET_SET_ANALOG_SWITCH
  85:Generated_Source\PSoC6\pdl\drivers\peripheral\ctb/cy_ctb.h **** *
  86:Generated_Source\PSoC6\pdl\drivers\peripheral\ctb/cy_ctb.h **** * As shown in the CTB switch diagram, the 10x output of OA0 and OA1 have dedicated
  87:Generated_Source\PSoC6\pdl\drivers\peripheral\ctb/cy_ctb.h **** * connections to Pin 2 and Pin 3, respectively, of the CTB port. If different output
  88:Generated_Source\PSoC6\pdl\drivers\peripheral\ctb/cy_ctb.h **** * connections are required, the other CTB switches and/or AMUXBUX A/B switches can be used.
  89:Generated_Source\PSoC6\pdl\drivers\peripheral\ctb/cy_ctb.h **** *
  90:Generated_Source\PSoC6\pdl\drivers\peripheral\ctb/cy_ctb.h **** * \section group_ctb_comparator Comparator Mode
  91:Generated_Source\PSoC6\pdl\drivers\peripheral\ctb/cy_ctb.h **** *
  92:Generated_Source\PSoC6\pdl\drivers\peripheral\ctb/cy_ctb.h **** * Each opamp can be configured as a comparator. Note that when used as a
  93:Generated_Source\PSoC6\pdl\drivers\peripheral\ctb/cy_ctb.h **** * comparator, the hardware shuts down the 1X and 10X output drivers.
  94:Generated_Source\PSoC6\pdl\drivers\peripheral\ctb/cy_ctb.h **** * Specific to the comparator mode, there is an optional 10 mV input hysteresis
  95:Generated_Source\PSoC6\pdl\drivers\peripheral\ctb/cy_ctb.h **** * and configurable edge detection interrupt handling.
  96:Generated_Source\PSoC6\pdl\drivers\peripheral\ctb/cy_ctb.h **** *
  97:Generated_Source\PSoC6\pdl\drivers\peripheral\ctb/cy_ctb.h **** * - Negative input terminal: This input is usually connected to the reference voltage.
  98:Generated_Source\PSoC6\pdl\drivers\peripheral\ctb/cy_ctb.h **** * - Positive input terminal: This input is usually connected to the voltage that is being compared.
  99:Generated_Source\PSoC6\pdl\drivers\peripheral\ctb/cy_ctb.h **** * - Comparator digital output: This output goes high when the positive input voltage
 100:Generated_Source\PSoC6\pdl\drivers\peripheral\ctb/cy_ctb.h **** *   is greater than the negative input voltage.
 101:Generated_Source\PSoC6\pdl\drivers\peripheral\ctb/cy_ctb.h **** *
 102:Generated_Source\PSoC6\pdl\drivers\peripheral\ctb/cy_ctb.h **** * The comparator output can be routed to a pin or other components using HSIOM or trigger muxes.
 103:Generated_Source\PSoC6\pdl\drivers\peripheral\ctb/cy_ctb.h **** *
 104:Generated_Source\PSoC6\pdl\drivers\peripheral\ctb/cy_ctb.h **** * \snippet ctb_sut_01.cydsn/main_cm0p.c SNIPPET_COMP_OUT_ROUTING
 105:Generated_Source\PSoC6\pdl\drivers\peripheral\ctb/cy_ctb.h **** *
 106:Generated_Source\PSoC6\pdl\drivers\peripheral\ctb/cy_ctb.h **** * \subsection group_ctb_comparator_handling_interrupts Handling interrupts
ARM GAS  C:\Users\JC\AppData\Local\Temp\cclZ7ZAh.s 			page 14


 107:Generated_Source\PSoC6\pdl\drivers\peripheral\ctb/cy_ctb.h **** *
 108:Generated_Source\PSoC6\pdl\drivers\peripheral\ctb/cy_ctb.h **** * The comparator output is connected to an edge detector
 109:Generated_Source\PSoC6\pdl\drivers\peripheral\ctb/cy_ctb.h **** * block, which is used to detect the edge (rising, falling, both, or disabled)
 110:Generated_Source\PSoC6\pdl\drivers\peripheral\ctb/cy_ctb.h **** * for interrupt generation.
 111:Generated_Source\PSoC6\pdl\drivers\peripheral\ctb/cy_ctb.h **** *
 112:Generated_Source\PSoC6\pdl\drivers\peripheral\ctb/cy_ctb.h **** * The following code snippet demonstrates how to implement a routine to handle the interrupt.
 113:Generated_Source\PSoC6\pdl\drivers\peripheral\ctb/cy_ctb.h **** * The routine gets called when any comparator on the device generates an interrupt.
 114:Generated_Source\PSoC6\pdl\drivers\peripheral\ctb/cy_ctb.h **** *
 115:Generated_Source\PSoC6\pdl\drivers\peripheral\ctb/cy_ctb.h **** * \snippet ctb_sut_01.cydsn/main_cm0p.c SNIPPET_COMP_ISR
 116:Generated_Source\PSoC6\pdl\drivers\peripheral\ctb/cy_ctb.h **** *
 117:Generated_Source\PSoC6\pdl\drivers\peripheral\ctb/cy_ctb.h **** * The following code snippet demonstrates how to configure and enable the interrupt.
 118:Generated_Source\PSoC6\pdl\drivers\peripheral\ctb/cy_ctb.h **** *
 119:Generated_Source\PSoC6\pdl\drivers\peripheral\ctb/cy_ctb.h **** * \snippet ctb_sut_01.cydsn/main_cm0p.c SNIPPET_COMP_INTR_SETUP
 120:Generated_Source\PSoC6\pdl\drivers\peripheral\ctb/cy_ctb.h **** *
 121:Generated_Source\PSoC6\pdl\drivers\peripheral\ctb/cy_ctb.h **** * \section group_ctb_opamp_range Opamp Input and Output Range
 122:Generated_Source\PSoC6\pdl\drivers\peripheral\ctb/cy_ctb.h **** *
 123:Generated_Source\PSoC6\pdl\drivers\peripheral\ctb/cy_ctb.h **** * The input range of the opamp can be rail-to-rail if the charge pump is enabled.
 124:Generated_Source\PSoC6\pdl\drivers\peripheral\ctb/cy_ctb.h **** * Without the charge pump, the input range is 0 V to VDDA - 1.5 V. The output range
 125:Generated_Source\PSoC6\pdl\drivers\peripheral\ctb/cy_ctb.h **** * of the opamp is typically 0.2 V to VDDA - 0.2 V and will depend on the load. See the
 126:Generated_Source\PSoC6\pdl\drivers\peripheral\ctb/cy_ctb.h **** * device datasheet for more detail.
 127:Generated_Source\PSoC6\pdl\drivers\peripheral\ctb/cy_ctb.h **** *
 128:Generated_Source\PSoC6\pdl\drivers\peripheral\ctb/cy_ctb.h **** * <table class="doxtable">
 129:Generated_Source\PSoC6\pdl\drivers\peripheral\ctb/cy_ctb.h **** *   <tr>
 130:Generated_Source\PSoC6\pdl\drivers\peripheral\ctb/cy_ctb.h **** *     <th>Charge Pump</th>
 131:Generated_Source\PSoC6\pdl\drivers\peripheral\ctb/cy_ctb.h **** *     <th>Input Range</th></tr>
 132:Generated_Source\PSoC6\pdl\drivers\peripheral\ctb/cy_ctb.h **** *     <th>Output Range</th></tr>
 133:Generated_Source\PSoC6\pdl\drivers\peripheral\ctb/cy_ctb.h **** *   <tr>
 134:Generated_Source\PSoC6\pdl\drivers\peripheral\ctb/cy_ctb.h **** *     <td>Enabled</td>
 135:Generated_Source\PSoC6\pdl\drivers\peripheral\ctb/cy_ctb.h **** *     <td>0 V to VDDA</td>
 136:Generated_Source\PSoC6\pdl\drivers\peripheral\ctb/cy_ctb.h **** *     <td>0.2 V to VDDA - 0.2 V</td>
 137:Generated_Source\PSoC6\pdl\drivers\peripheral\ctb/cy_ctb.h **** *   </tr>
 138:Generated_Source\PSoC6\pdl\drivers\peripheral\ctb/cy_ctb.h **** *   <tr>
 139:Generated_Source\PSoC6\pdl\drivers\peripheral\ctb/cy_ctb.h **** *     <td>Disabled</td>
 140:Generated_Source\PSoC6\pdl\drivers\peripheral\ctb/cy_ctb.h **** *     <td>0 V to VDDA - 1.5 V</td>
 141:Generated_Source\PSoC6\pdl\drivers\peripheral\ctb/cy_ctb.h **** *     <td>0.2 V to VDDA - 0.2 V</td>
 142:Generated_Source\PSoC6\pdl\drivers\peripheral\ctb/cy_ctb.h **** *   </tr>
 143:Generated_Source\PSoC6\pdl\drivers\peripheral\ctb/cy_ctb.h **** * </table>
 144:Generated_Source\PSoC6\pdl\drivers\peripheral\ctb/cy_ctb.h **** *
 145:Generated_Source\PSoC6\pdl\drivers\peripheral\ctb/cy_ctb.h **** * \section group_ctb_sample_hold Sample and Hold Mode
 146:Generated_Source\PSoC6\pdl\drivers\peripheral\ctb/cy_ctb.h **** *
 147:Generated_Source\PSoC6\pdl\drivers\peripheral\ctb/cy_ctb.h **** * The CTB has a sample and hold (SH) circuit at the non-inverting input of Opamp0.
 148:Generated_Source\PSoC6\pdl\drivers\peripheral\ctb/cy_ctb.h **** * The circuit includes a hold capacitor, Chold, with a firmware controlled switch, CHD.
 149:Generated_Source\PSoC6\pdl\drivers\peripheral\ctb/cy_ctb.h **** * Sampling and holding the source voltage is performed
 150:Generated_Source\PSoC6\pdl\drivers\peripheral\ctb/cy_ctb.h **** * by closing and opening appropriate switches in the CTB using firmware.
 151:Generated_Source\PSoC6\pdl\drivers\peripheral\ctb/cy_ctb.h **** * If the SH circuit is used for the CTDAC, the \ref Cy_CTB_DACSampleAndHold function
 152:Generated_Source\PSoC6\pdl\drivers\peripheral\ctb/cy_ctb.h **** * should be called.
 153:Generated_Source\PSoC6\pdl\drivers\peripheral\ctb/cy_ctb.h **** *
 154:Generated_Source\PSoC6\pdl\drivers\peripheral\ctb/cy_ctb.h **** * \image html ctb_fast_config_vdac_sh.png
 155:Generated_Source\PSoC6\pdl\drivers\peripheral\ctb/cy_ctb.h **** * \image latex ctb_fast_config_vdac_sh.png
 156:Generated_Source\PSoC6\pdl\drivers\peripheral\ctb/cy_ctb.h **** *
 157:Generated_Source\PSoC6\pdl\drivers\peripheral\ctb/cy_ctb.h **** * \section group_ctb_dependencies Configuration Dependencies
 158:Generated_Source\PSoC6\pdl\drivers\peripheral\ctb/cy_ctb.h **** *
 159:Generated_Source\PSoC6\pdl\drivers\peripheral\ctb/cy_ctb.h **** * The CTB relies on other blocks to function properly. The dependencies
 160:Generated_Source\PSoC6\pdl\drivers\peripheral\ctb/cy_ctb.h **** * are documented here.
 161:Generated_Source\PSoC6\pdl\drivers\peripheral\ctb/cy_ctb.h **** *
 162:Generated_Source\PSoC6\pdl\drivers\peripheral\ctb/cy_ctb.h **** * \subsection group_ctb_dependencies_charge_pump Charge Pump Configuration
 163:Generated_Source\PSoC6\pdl\drivers\peripheral\ctb/cy_ctb.h **** *
ARM GAS  C:\Users\JC\AppData\Local\Temp\cclZ7ZAh.s 			page 15


 164:Generated_Source\PSoC6\pdl\drivers\peripheral\ctb/cy_ctb.h **** * Each opamp of the CTB has a charge pump that when enabled increases the
 165:Generated_Source\PSoC6\pdl\drivers\peripheral\ctb/cy_ctb.h **** * input range to the supply rails. When disabled, the opamp input range is 0 - VDDA - 1.5 V.
 166:Generated_Source\PSoC6\pdl\drivers\peripheral\ctb/cy_ctb.h **** * When enabled, the pump requires a clock.
 167:Generated_Source\PSoC6\pdl\drivers\peripheral\ctb/cy_ctb.h **** * Call the \ref Cy_CTB_SetClkPumpSource function in the \ref group_sysanalog driver to
 168:Generated_Source\PSoC6\pdl\drivers\peripheral\ctb/cy_ctb.h **** * set the clock source for all CTBs. This clock can come from one of two sources:
 169:Generated_Source\PSoC6\pdl\drivers\peripheral\ctb/cy_ctb.h **** *
 170:Generated_Source\PSoC6\pdl\drivers\peripheral\ctb/cy_ctb.h **** *   -# A dedicated clock divider from one of the CLK_PATH in the SRSS
 171:Generated_Source\PSoC6\pdl\drivers\peripheral\ctb/cy_ctb.h **** *
 172:Generated_Source\PSoC6\pdl\drivers\peripheral\ctb/cy_ctb.h **** *      Call the following functions to configure the pump clock from the SRSS:
 173:Generated_Source\PSoC6\pdl\drivers\peripheral\ctb/cy_ctb.h **** *       - \ref Cy_SysClk_ClkPumpSetSource
 174:Generated_Source\PSoC6\pdl\drivers\peripheral\ctb/cy_ctb.h **** *       - \ref Cy_SysClk_ClkPumpSetDivider
 175:Generated_Source\PSoC6\pdl\drivers\peripheral\ctb/cy_ctb.h **** *       - \ref Cy_SysClk_ClkPumpEnable
 176:Generated_Source\PSoC6\pdl\drivers\peripheral\ctb/cy_ctb.h **** *
 177:Generated_Source\PSoC6\pdl\drivers\peripheral\ctb/cy_ctb.h **** *      \snippet ctb_sut_01.cydsn/main_cm4.c CTB_SNIPPET_SET_CLK_PUMP_SOURCE_SRSS
 178:Generated_Source\PSoC6\pdl\drivers\peripheral\ctb/cy_ctb.h **** *
 179:Generated_Source\PSoC6\pdl\drivers\peripheral\ctb/cy_ctb.h **** *   -# One of the Peri Clock dividers
 180:Generated_Source\PSoC6\pdl\drivers\peripheral\ctb/cy_ctb.h **** *
 181:Generated_Source\PSoC6\pdl\drivers\peripheral\ctb/cy_ctb.h **** *      Call the following functions to configure a Peri Clock divider as the
 182:Generated_Source\PSoC6\pdl\drivers\peripheral\ctb/cy_ctb.h **** *      pump clock:
 183:Generated_Source\PSoC6\pdl\drivers\peripheral\ctb/cy_ctb.h **** *       - \ref Cy_SysClk_PeriphAssignDivider with the IP block set to PCLK_PASS_CLOCK_PUMP_PERI
 184:Generated_Source\PSoC6\pdl\drivers\peripheral\ctb/cy_ctb.h **** *       - \ref Cy_SysClk_PeriphSetDivider
 185:Generated_Source\PSoC6\pdl\drivers\peripheral\ctb/cy_ctb.h **** *       - \ref Cy_SysClk_PeriphEnableDivider
 186:Generated_Source\PSoC6\pdl\drivers\peripheral\ctb/cy_ctb.h **** *
 187:Generated_Source\PSoC6\pdl\drivers\peripheral\ctb/cy_ctb.h **** *      \snippet ctb_sut_01.cydsn/main_cm4.c CTB_SNIPPET_SET_CLK_PUMP_SOURCE_PERI
 188:Generated_Source\PSoC6\pdl\drivers\peripheral\ctb/cy_ctb.h **** *
 189:Generated_Source\PSoC6\pdl\drivers\peripheral\ctb/cy_ctb.h **** * When the charge pump is enabled, the clock frequency should be set as follows:
 190:Generated_Source\PSoC6\pdl\drivers\peripheral\ctb/cy_ctb.h **** *
 191:Generated_Source\PSoC6\pdl\drivers\peripheral\ctb/cy_ctb.h **** * <table class="doxtable">
 192:Generated_Source\PSoC6\pdl\drivers\peripheral\ctb/cy_ctb.h **** *   <tr><th>Opamp Power Level</th><th>Pump Clock Freq</th></tr>
 193:Generated_Source\PSoC6\pdl\drivers\peripheral\ctb/cy_ctb.h **** *   <tr>
 194:Generated_Source\PSoC6\pdl\drivers\peripheral\ctb/cy_ctb.h **** *     <td>Low or Medium</td>
 195:Generated_Source\PSoC6\pdl\drivers\peripheral\ctb/cy_ctb.h **** *     <td>8 - 24 MHz</td>
 196:Generated_Source\PSoC6\pdl\drivers\peripheral\ctb/cy_ctb.h **** *   </tr>
 197:Generated_Source\PSoC6\pdl\drivers\peripheral\ctb/cy_ctb.h **** *   <tr>
 198:Generated_Source\PSoC6\pdl\drivers\peripheral\ctb/cy_ctb.h **** *     <td>High</td>
 199:Generated_Source\PSoC6\pdl\drivers\peripheral\ctb/cy_ctb.h **** *     <td>24 MHz</td>
 200:Generated_Source\PSoC6\pdl\drivers\peripheral\ctb/cy_ctb.h **** *   </tr>
 201:Generated_Source\PSoC6\pdl\drivers\peripheral\ctb/cy_ctb.h **** * </table>
 202:Generated_Source\PSoC6\pdl\drivers\peripheral\ctb/cy_ctb.h **** *
 203:Generated_Source\PSoC6\pdl\drivers\peripheral\ctb/cy_ctb.h **** * The High power level of the opamp requires a 24 MHz pump clock.
 204:Generated_Source\PSoC6\pdl\drivers\peripheral\ctb/cy_ctb.h **** * In Deep Sleep mode, all high frequency clocks are
 205:Generated_Source\PSoC6\pdl\drivers\peripheral\ctb/cy_ctb.h **** * disabled and the charge pump will be disabled.
 206:Generated_Source\PSoC6\pdl\drivers\peripheral\ctb/cy_ctb.h **** *
 207:Generated_Source\PSoC6\pdl\drivers\peripheral\ctb/cy_ctb.h **** * \note
 208:Generated_Source\PSoC6\pdl\drivers\peripheral\ctb/cy_ctb.h **** * The same pump clock is used by all opamps on the device. Be aware of this
 209:Generated_Source\PSoC6\pdl\drivers\peripheral\ctb/cy_ctb.h **** * when configuring different opamps to different power levels.
 210:Generated_Source\PSoC6\pdl\drivers\peripheral\ctb/cy_ctb.h **** *
 211:Generated_Source\PSoC6\pdl\drivers\peripheral\ctb/cy_ctb.h **** * \subsection group_ctb_dependencies_reference_current Reference Current Configurations
 212:Generated_Source\PSoC6\pdl\drivers\peripheral\ctb/cy_ctb.h **** *
 213:Generated_Source\PSoC6\pdl\drivers\peripheral\ctb/cy_ctb.h **** * The CTB uses two reference current generators, IPTAT and IZTAT, from
 214:Generated_Source\PSoC6\pdl\drivers\peripheral\ctb/cy_ctb.h **** * the AREF block (see \ref group_sysanalog driver). The IPTAT current is
 215:Generated_Source\PSoC6\pdl\drivers\peripheral\ctb/cy_ctb.h **** * used to trim the slope of the opamp offset across temperature.
 216:Generated_Source\PSoC6\pdl\drivers\peripheral\ctb/cy_ctb.h **** * The AREF must be initialized and enabled for the CTB to function properly.
 217:Generated_Source\PSoC6\pdl\drivers\peripheral\ctb/cy_ctb.h **** *
 218:Generated_Source\PSoC6\pdl\drivers\peripheral\ctb/cy_ctb.h **** * If the CTB is configured to operate in Deep Sleep mode,
 219:Generated_Source\PSoC6\pdl\drivers\peripheral\ctb/cy_ctb.h **** * the appropriate reference current generators from the AREF block must be enabled in Deep Sleep.
 220:Generated_Source\PSoC6\pdl\drivers\peripheral\ctb/cy_ctb.h **** * When waking up from Deep Sleep,
ARM GAS  C:\Users\JC\AppData\Local\Temp\cclZ7ZAh.s 			page 16


 221:Generated_Source\PSoC6\pdl\drivers\peripheral\ctb/cy_ctb.h **** * the AREF block has a wakeup time that must be
 222:Generated_Source\PSoC6\pdl\drivers\peripheral\ctb/cy_ctb.h **** * considered. Note that configurations in the AREF block
 223:Generated_Source\PSoC6\pdl\drivers\peripheral\ctb/cy_ctb.h **** * are chip wide and affect all CTBs on the device.
 224:Generated_Source\PSoC6\pdl\drivers\peripheral\ctb/cy_ctb.h **** *
 225:Generated_Source\PSoC6\pdl\drivers\peripheral\ctb/cy_ctb.h **** * The following reference current configurations are supported:
 226:Generated_Source\PSoC6\pdl\drivers\peripheral\ctb/cy_ctb.h **** *
 227:Generated_Source\PSoC6\pdl\drivers\peripheral\ctb/cy_ctb.h **** * <table class="doxtable">
 228:Generated_Source\PSoC6\pdl\drivers\peripheral\ctb/cy_ctb.h **** *   <tr><th>Reference Current Level</th><th>Supported Mode</th><th>Input Range</th></tr>
 229:Generated_Source\PSoC6\pdl\drivers\peripheral\ctb/cy_ctb.h **** *   <tr>
 230:Generated_Source\PSoC6\pdl\drivers\peripheral\ctb/cy_ctb.h **** *     <td>1 uA</td>
 231:Generated_Source\PSoC6\pdl\drivers\peripheral\ctb/cy_ctb.h **** *     <td>Active/Low Power</td>
 232:Generated_Source\PSoC6\pdl\drivers\peripheral\ctb/cy_ctb.h **** *     <td>Rail-to-Rail (charge pump enabled)</td>
 233:Generated_Source\PSoC6\pdl\drivers\peripheral\ctb/cy_ctb.h **** *   </tr>
 234:Generated_Source\PSoC6\pdl\drivers\peripheral\ctb/cy_ctb.h **** *   <tr>
 235:Generated_Source\PSoC6\pdl\drivers\peripheral\ctb/cy_ctb.h **** *     <td>1 uA</td>
 236:Generated_Source\PSoC6\pdl\drivers\peripheral\ctb/cy_ctb.h **** *     <td>Active/Low Power/Deep Sleep</td>
 237:Generated_Source\PSoC6\pdl\drivers\peripheral\ctb/cy_ctb.h **** *     <td>0 - VDDA-1.5 V (charge pump disabled)</td>
 238:Generated_Source\PSoC6\pdl\drivers\peripheral\ctb/cy_ctb.h **** *   </tr>
 239:Generated_Source\PSoC6\pdl\drivers\peripheral\ctb/cy_ctb.h **** *   <tr>
 240:Generated_Source\PSoC6\pdl\drivers\peripheral\ctb/cy_ctb.h **** *     <td>100 nA</td>
 241:Generated_Source\PSoC6\pdl\drivers\peripheral\ctb/cy_ctb.h **** *     <td>Active/Low Power/Deep Sleep</td>
 242:Generated_Source\PSoC6\pdl\drivers\peripheral\ctb/cy_ctb.h **** *     <td>0 - VDDA-1.5 V (charge pump disabled)</td>
 243:Generated_Source\PSoC6\pdl\drivers\peripheral\ctb/cy_ctb.h **** *   </tr>
 244:Generated_Source\PSoC6\pdl\drivers\peripheral\ctb/cy_ctb.h **** * </table>
 245:Generated_Source\PSoC6\pdl\drivers\peripheral\ctb/cy_ctb.h **** *
 246:Generated_Source\PSoC6\pdl\drivers\peripheral\ctb/cy_ctb.h **** * The first configuration provides low offset and drift with maximum input range
 247:Generated_Source\PSoC6\pdl\drivers\peripheral\ctb/cy_ctb.h **** * while consuming the most current.
 248:Generated_Source\PSoC6\pdl\drivers\peripheral\ctb/cy_ctb.h **** * For Deep Sleep operation, use the other two configurations with the charge pump disabled.
 249:Generated_Source\PSoC6\pdl\drivers\peripheral\ctb/cy_ctb.h **** * For ultra low power, use the 100 nA current level.
 250:Generated_Source\PSoC6\pdl\drivers\peripheral\ctb/cy_ctb.h **** * To configure the opamps to operate in one of these options, call \ref Cy_CTB_SetCurrentMode.
 251:Generated_Source\PSoC6\pdl\drivers\peripheral\ctb/cy_ctb.h **** *
 252:Generated_Source\PSoC6\pdl\drivers\peripheral\ctb/cy_ctb.h **** * \subsection group_ctb_dependencies_sample_hold Sample and Hold Switch Control
 253:Generated_Source\PSoC6\pdl\drivers\peripheral\ctb/cy_ctb.h **** *
 254:Generated_Source\PSoC6\pdl\drivers\peripheral\ctb/cy_ctb.h **** * If you are using rev-08 of the CY8CKIT-062, the following eight switches
 255:Generated_Source\PSoC6\pdl\drivers\peripheral\ctb/cy_ctb.h **** * in the CTB are enabled by the CTDAC IP block:
 256:Generated_Source\PSoC6\pdl\drivers\peripheral\ctb/cy_ctb.h **** *
 257:Generated_Source\PSoC6\pdl\drivers\peripheral\ctb/cy_ctb.h **** *   - COS, CA0, CHD, CH6, COB, COR, CRS, and CRD
 258:Generated_Source\PSoC6\pdl\drivers\peripheral\ctb/cy_ctb.h **** *
 259:Generated_Source\PSoC6\pdl\drivers\peripheral\ctb/cy_ctb.h **** * On the rev-08 board, if any of the above switches are used, you must call \ref Cy_CTDAC_Enable
 260:Generated_Source\PSoC6\pdl\drivers\peripheral\ctb/cy_ctb.h **** * to enable these switches.
 261:Generated_Source\PSoC6\pdl\drivers\peripheral\ctb/cy_ctb.h **** *
 262:Generated_Source\PSoC6\pdl\drivers\peripheral\ctb/cy_ctb.h **** * Additionally, on the rev-08 board, if any of the switches are used in Deep Sleep mode,
 263:Generated_Source\PSoC6\pdl\drivers\peripheral\ctb/cy_ctb.h **** * the CTDAC must also be configured to operate in Deep Sleep (see \ref Cy_CTDAC_SetDeepSleepMode).
 264:Generated_Source\PSoC6\pdl\drivers\peripheral\ctb/cy_ctb.h **** *
 265:Generated_Source\PSoC6\pdl\drivers\peripheral\ctb/cy_ctb.h **** * In later revisions of the board, the switches are enabled by the CTB block so
 266:Generated_Source\PSoC6\pdl\drivers\peripheral\ctb/cy_ctb.h **** * calls to the CTDAC IP block are not necessary.
 267:Generated_Source\PSoC6\pdl\drivers\peripheral\ctb/cy_ctb.h **** *
 268:Generated_Source\PSoC6\pdl\drivers\peripheral\ctb/cy_ctb.h **** * \section group_ctb_more_information More Information
 269:Generated_Source\PSoC6\pdl\drivers\peripheral\ctb/cy_ctb.h **** *
 270:Generated_Source\PSoC6\pdl\drivers\peripheral\ctb/cy_ctb.h **** * Refer to technical reference manual (TRM) and the device datasheet.
 271:Generated_Source\PSoC6\pdl\drivers\peripheral\ctb/cy_ctb.h **** *
 272:Generated_Source\PSoC6\pdl\drivers\peripheral\ctb/cy_ctb.h **** * \section group_ctb_MISRA MISRA-C Compliance]
 273:Generated_Source\PSoC6\pdl\drivers\peripheral\ctb/cy_ctb.h **** *
 274:Generated_Source\PSoC6\pdl\drivers\peripheral\ctb/cy_ctb.h **** * This driver does not have any specific deviations.
 275:Generated_Source\PSoC6\pdl\drivers\peripheral\ctb/cy_ctb.h **** *
 276:Generated_Source\PSoC6\pdl\drivers\peripheral\ctb/cy_ctb.h **** * \section group_ctb_changelog Changelog
 277:Generated_Source\PSoC6\pdl\drivers\peripheral\ctb/cy_ctb.h **** * <table class="doxtable">
ARM GAS  C:\Users\JC\AppData\Local\Temp\cclZ7ZAh.s 			page 17


 278:Generated_Source\PSoC6\pdl\drivers\peripheral\ctb/cy_ctb.h **** *   <tr><th>Version</th><th>Changes</th><th>Reason for Change</th></tr>
 279:Generated_Source\PSoC6\pdl\drivers\peripheral\ctb/cy_ctb.h **** *   <tr>
 280:Generated_Source\PSoC6\pdl\drivers\peripheral\ctb/cy_ctb.h **** *     <td rowspan="2">1.10</td>
 281:Generated_Source\PSoC6\pdl\drivers\peripheral\ctb/cy_ctb.h **** *     <td>Flattened the organization of the driver source code into the single 
 282:Generated_Source\PSoC6\pdl\drivers\peripheral\ctb/cy_ctb.h **** *         source directory and the single include directory.
 283:Generated_Source\PSoC6\pdl\drivers\peripheral\ctb/cy_ctb.h **** *     </td>
 284:Generated_Source\PSoC6\pdl\drivers\peripheral\ctb/cy_ctb.h **** *     <td>Driver library directory-structure simplification.</td>
 285:Generated_Source\PSoC6\pdl\drivers\peripheral\ctb/cy_ctb.h **** *     </td>
 286:Generated_Source\PSoC6\pdl\drivers\peripheral\ctb/cy_ctb.h **** *   </tr>
 287:Generated_Source\PSoC6\pdl\drivers\peripheral\ctb/cy_ctb.h **** *   <tr>
 288:Generated_Source\PSoC6\pdl\drivers\peripheral\ctb/cy_ctb.h **** *     <td>Added register access layer. Use register access macros instead
 289:Generated_Source\PSoC6\pdl\drivers\peripheral\ctb/cy_ctb.h **** *         of direct register access using dereferenced pointers.</td>
 290:Generated_Source\PSoC6\pdl\drivers\peripheral\ctb/cy_ctb.h **** *     <td>Makes register access device-independent, so that the PDL does 
 291:Generated_Source\PSoC6\pdl\drivers\peripheral\ctb/cy_ctb.h **** *         not need to be recompiled for each supported part number.</td>
 292:Generated_Source\PSoC6\pdl\drivers\peripheral\ctb/cy_ctb.h **** *   </tr>
 293:Generated_Source\PSoC6\pdl\drivers\peripheral\ctb/cy_ctb.h **** *   <tr>
 294:Generated_Source\PSoC6\pdl\drivers\peripheral\ctb/cy_ctb.h **** *     <td>1.0</td>
 295:Generated_Source\PSoC6\pdl\drivers\peripheral\ctb/cy_ctb.h **** *     <td>Initial version</td>
 296:Generated_Source\PSoC6\pdl\drivers\peripheral\ctb/cy_ctb.h **** *     <td></td>
 297:Generated_Source\PSoC6\pdl\drivers\peripheral\ctb/cy_ctb.h **** *   </tr>
 298:Generated_Source\PSoC6\pdl\drivers\peripheral\ctb/cy_ctb.h **** * </table>
 299:Generated_Source\PSoC6\pdl\drivers\peripheral\ctb/cy_ctb.h **** *
 300:Generated_Source\PSoC6\pdl\drivers\peripheral\ctb/cy_ctb.h **** * \defgroup group_ctb_macros Macros
 301:Generated_Source\PSoC6\pdl\drivers\peripheral\ctb/cy_ctb.h **** * \defgroup group_ctb_functions Functions
 302:Generated_Source\PSoC6\pdl\drivers\peripheral\ctb/cy_ctb.h **** *   \{
 303:Generated_Source\PSoC6\pdl\drivers\peripheral\ctb/cy_ctb.h **** *       \defgroup group_ctb_functions_init          Initialization Functions
 304:Generated_Source\PSoC6\pdl\drivers\peripheral\ctb/cy_ctb.h **** *       \defgroup group_ctb_functions_basic         Basic Configuration Functions
 305:Generated_Source\PSoC6\pdl\drivers\peripheral\ctb/cy_ctb.h **** *       \defgroup group_ctb_functions_comparator    Comparator Functions
 306:Generated_Source\PSoC6\pdl\drivers\peripheral\ctb/cy_ctb.h **** *       \defgroup group_ctb_functions_sample_hold   Sample and Hold Functions
 307:Generated_Source\PSoC6\pdl\drivers\peripheral\ctb/cy_ctb.h **** *       \defgroup group_ctb_functions_interrupts    Interrupt Functions
 308:Generated_Source\PSoC6\pdl\drivers\peripheral\ctb/cy_ctb.h **** *       \defgroup group_ctb_functions_switches      Switch Control Functions
 309:Generated_Source\PSoC6\pdl\drivers\peripheral\ctb/cy_ctb.h **** *       \defgroup group_ctb_functions_trim          Offset and Slope Trim Functions
 310:Generated_Source\PSoC6\pdl\drivers\peripheral\ctb/cy_ctb.h **** *       \defgroup group_ctb_functions_aref          Reference Current Mode Functions
 311:Generated_Source\PSoC6\pdl\drivers\peripheral\ctb/cy_ctb.h **** *   \}
 312:Generated_Source\PSoC6\pdl\drivers\peripheral\ctb/cy_ctb.h **** * \defgroup group_ctb_globals Global Variables
 313:Generated_Source\PSoC6\pdl\drivers\peripheral\ctb/cy_ctb.h **** * \defgroup group_ctb_data_structures Data Structures
 314:Generated_Source\PSoC6\pdl\drivers\peripheral\ctb/cy_ctb.h **** * \defgroup group_ctb_enums Enumerated Types
 315:Generated_Source\PSoC6\pdl\drivers\peripheral\ctb/cy_ctb.h **** */
 316:Generated_Source\PSoC6\pdl\drivers\peripheral\ctb/cy_ctb.h **** 
 317:Generated_Source\PSoC6\pdl\drivers\peripheral\ctb/cy_ctb.h **** #if !defined(CY_CTB_H)
 318:Generated_Source\PSoC6\pdl\drivers\peripheral\ctb/cy_ctb.h **** #define CY_CTB_H
 319:Generated_Source\PSoC6\pdl\drivers\peripheral\ctb/cy_ctb.h **** 
 320:Generated_Source\PSoC6\pdl\drivers\peripheral\ctb/cy_ctb.h **** #include <stdint.h>
 321:Generated_Source\PSoC6\pdl\drivers\peripheral\ctb/cy_ctb.h **** #include <stdbool.h>
 322:Generated_Source\PSoC6\pdl\drivers\peripheral\ctb/cy_ctb.h **** #include <stddef.h>
 323:Generated_Source\PSoC6\pdl\drivers\peripheral\ctb/cy_ctb.h **** #include "cy_device_headers.h"
 324:Generated_Source\PSoC6\pdl\drivers\peripheral\ctb/cy_ctb.h **** #include "cy_device.h"
 325:Generated_Source\PSoC6\pdl\drivers\peripheral\ctb/cy_ctb.h **** #include "cy_syslib.h"
 326:Generated_Source\PSoC6\pdl\drivers\peripheral\ctb/cy_ctb.h **** #include "cy_sysanalog.h"
 327:Generated_Source\PSoC6\pdl\drivers\peripheral\ctb/cy_ctb.h **** 
 328:Generated_Source\PSoC6\pdl\drivers\peripheral\ctb/cy_ctb.h **** #ifdef CY_IP_MXS40PASS_CTB
 329:Generated_Source\PSoC6\pdl\drivers\peripheral\ctb/cy_ctb.h **** 
 330:Generated_Source\PSoC6\pdl\drivers\peripheral\ctb/cy_ctb.h **** #if defined(__cplusplus)
 331:Generated_Source\PSoC6\pdl\drivers\peripheral\ctb/cy_ctb.h **** extern "C" {
 332:Generated_Source\PSoC6\pdl\drivers\peripheral\ctb/cy_ctb.h **** #endif
 333:Generated_Source\PSoC6\pdl\drivers\peripheral\ctb/cy_ctb.h **** 
 334:Generated_Source\PSoC6\pdl\drivers\peripheral\ctb/cy_ctb.h **** /** \addtogroup group_ctb_macros
ARM GAS  C:\Users\JC\AppData\Local\Temp\cclZ7ZAh.s 			page 18


 335:Generated_Source\PSoC6\pdl\drivers\peripheral\ctb/cy_ctb.h **** * \{
 336:Generated_Source\PSoC6\pdl\drivers\peripheral\ctb/cy_ctb.h **** */
 337:Generated_Source\PSoC6\pdl\drivers\peripheral\ctb/cy_ctb.h **** 
 338:Generated_Source\PSoC6\pdl\drivers\peripheral\ctb/cy_ctb.h **** /** Driver major version */
 339:Generated_Source\PSoC6\pdl\drivers\peripheral\ctb/cy_ctb.h **** #define CY_CTB_DRV_VERSION_MAJOR            1
 340:Generated_Source\PSoC6\pdl\drivers\peripheral\ctb/cy_ctb.h **** 
 341:Generated_Source\PSoC6\pdl\drivers\peripheral\ctb/cy_ctb.h **** /** Driver minor version */
 342:Generated_Source\PSoC6\pdl\drivers\peripheral\ctb/cy_ctb.h **** #define CY_CTB_DRV_VERSION_MINOR            10
 343:Generated_Source\PSoC6\pdl\drivers\peripheral\ctb/cy_ctb.h **** 
 344:Generated_Source\PSoC6\pdl\drivers\peripheral\ctb/cy_ctb.h **** /** CTB driver identifier*/
 345:Generated_Source\PSoC6\pdl\drivers\peripheral\ctb/cy_ctb.h **** #define CY_CTB_ID                           CY_PDL_DRV_ID(0x0Bu)
 346:Generated_Source\PSoC6\pdl\drivers\peripheral\ctb/cy_ctb.h **** 
 347:Generated_Source\PSoC6\pdl\drivers\peripheral\ctb/cy_ctb.h **** /** \cond INTERNAL */
 348:Generated_Source\PSoC6\pdl\drivers\peripheral\ctb/cy_ctb.h **** 
 349:Generated_Source\PSoC6\pdl\drivers\peripheral\ctb/cy_ctb.h **** /**< De-init value for most CTB registers */
 350:Generated_Source\PSoC6\pdl\drivers\peripheral\ctb/cy_ctb.h **** #define CY_CTB_DEINIT                       (0uL)
 351:Generated_Source\PSoC6\pdl\drivers\peripheral\ctb/cy_ctb.h **** 
 352:Generated_Source\PSoC6\pdl\drivers\peripheral\ctb/cy_ctb.h **** /**< De-init value for the opamp0 switch control register */
 353:Generated_Source\PSoC6\pdl\drivers\peripheral\ctb/cy_ctb.h **** #define CY_CTB_DEINIT_OA0_SW                (CTBM_OA0_SW_CLEAR_OA0P_A00_Msk \
 354:Generated_Source\PSoC6\pdl\drivers\peripheral\ctb/cy_ctb.h ****                                             | CTBM_OA0_SW_CLEAR_OA0P_A20_Msk \
 355:Generated_Source\PSoC6\pdl\drivers\peripheral\ctb/cy_ctb.h ****                                             | CTBM_OA0_SW_CLEAR_OA0P_A30_Msk \
 356:Generated_Source\PSoC6\pdl\drivers\peripheral\ctb/cy_ctb.h ****                                             | CTBM_OA0_SW_CLEAR_OA0M_A11_Msk \
 357:Generated_Source\PSoC6\pdl\drivers\peripheral\ctb/cy_ctb.h ****                                             | CTBM_OA0_SW_CLEAR_OA0M_A81_Msk \
 358:Generated_Source\PSoC6\pdl\drivers\peripheral\ctb/cy_ctb.h ****                                             | CTBM_OA0_SW_CLEAR_OA0O_D51_Msk \
 359:Generated_Source\PSoC6\pdl\drivers\peripheral\ctb/cy_ctb.h ****                                             | CTBM_OA0_SW_CLEAR_OA0O_D81_Msk)
 360:Generated_Source\PSoC6\pdl\drivers\peripheral\ctb/cy_ctb.h **** 
 361:Generated_Source\PSoC6\pdl\drivers\peripheral\ctb/cy_ctb.h **** /**< De-init value for the opamp1 switch control register */
 362:Generated_Source\PSoC6\pdl\drivers\peripheral\ctb/cy_ctb.h **** #define CY_CTB_DEINIT_OA1_SW                (CTBM_OA1_SW_CLEAR_OA1P_A03_Msk \
 363:Generated_Source\PSoC6\pdl\drivers\peripheral\ctb/cy_ctb.h ****                                             | CTBM_OA1_SW_CLEAR_OA1P_A13_Msk \
 364:Generated_Source\PSoC6\pdl\drivers\peripheral\ctb/cy_ctb.h ****                                             | CTBM_OA1_SW_CLEAR_OA1P_A43_Msk \
 365:Generated_Source\PSoC6\pdl\drivers\peripheral\ctb/cy_ctb.h ****                                             | CTBM_OA1_SW_CLEAR_OA1P_A73_Msk \
 366:Generated_Source\PSoC6\pdl\drivers\peripheral\ctb/cy_ctb.h ****                                             | CTBM_OA1_SW_CLEAR_OA1M_A22_Msk \
 367:Generated_Source\PSoC6\pdl\drivers\peripheral\ctb/cy_ctb.h ****                                             | CTBM_OA1_SW_CLEAR_OA1M_A82_Msk \
 368:Generated_Source\PSoC6\pdl\drivers\peripheral\ctb/cy_ctb.h ****                                             | CTBM_OA1_SW_CLEAR_OA1O_D52_Msk \
 369:Generated_Source\PSoC6\pdl\drivers\peripheral\ctb/cy_ctb.h ****                                             | CTBM_OA1_SW_CLEAR_OA1O_D62_Msk \
 370:Generated_Source\PSoC6\pdl\drivers\peripheral\ctb/cy_ctb.h ****                                             | CTBM_OA1_SW_CLEAR_OA1O_D82_Msk)
 371:Generated_Source\PSoC6\pdl\drivers\peripheral\ctb/cy_ctb.h **** 
 372:Generated_Source\PSoC6\pdl\drivers\peripheral\ctb/cy_ctb.h **** /**< De-init value for the CTDAC switch control register */
 373:Generated_Source\PSoC6\pdl\drivers\peripheral\ctb/cy_ctb.h **** #define CY_CTB_DEINIT_CTD_SW                (CTBM_CTD_SW_CLEAR_CTDD_CRD_Msk \
 374:Generated_Source\PSoC6\pdl\drivers\peripheral\ctb/cy_ctb.h ****                                             | CTBM_CTD_SW_CLEAR_CTDS_CRS_Msk \
 375:Generated_Source\PSoC6\pdl\drivers\peripheral\ctb/cy_ctb.h ****                                             | CTBM_CTD_SW_CLEAR_CTDS_COR_Msk \
 376:Generated_Source\PSoC6\pdl\drivers\peripheral\ctb/cy_ctb.h ****                                             | CTBM_CTD_SW_CLEAR_CTDO_C6H_Msk \
 377:Generated_Source\PSoC6\pdl\drivers\peripheral\ctb/cy_ctb.h ****                                             | CTBM_CTD_SW_CLEAR_CTDO_COS_Msk \
 378:Generated_Source\PSoC6\pdl\drivers\peripheral\ctb/cy_ctb.h ****                                             | CTBM_CTD_SW_CLEAR_CTDH_COB_Msk \
 379:Generated_Source\PSoC6\pdl\drivers\peripheral\ctb/cy_ctb.h ****                                             | CTBM_CTD_SW_CLEAR_CTDH_CHD_Msk \
 380:Generated_Source\PSoC6\pdl\drivers\peripheral\ctb/cy_ctb.h ****                                             | CTBM_CTD_SW_CLEAR_CTDH_CA0_Msk \
 381:Generated_Source\PSoC6\pdl\drivers\peripheral\ctb/cy_ctb.h ****                                             | CTBM_CTD_SW_CLEAR_CTDH_CIS_Msk \
 382:Generated_Source\PSoC6\pdl\drivers\peripheral\ctb/cy_ctb.h ****                                             | CTBM_CTD_SW_CLEAR_CTDH_ILR_Msk)
 383:Generated_Source\PSoC6\pdl\drivers\peripheral\ctb/cy_ctb.h **** 
 384:Generated_Source\PSoC6\pdl\drivers\peripheral\ctb/cy_ctb.h **** #define CY_CTB_TRIM_VALUE_MAX               (63uL)
 385:Generated_Source\PSoC6\pdl\drivers\peripheral\ctb/cy_ctb.h **** 
 386:Generated_Source\PSoC6\pdl\drivers\peripheral\ctb/cy_ctb.h **** /**< Macros for conditions used by CY_ASSERT calls */
 387:Generated_Source\PSoC6\pdl\drivers\peripheral\ctb/cy_ctb.h **** 
 388:Generated_Source\PSoC6\pdl\drivers\peripheral\ctb/cy_ctb.h **** #define CY_CTB_OPAMPNUM(num)                (((num) == CY_CTB_OPAMP_0) || ((num) == CY_CTB_OPAMP_1)
 389:Generated_Source\PSoC6\pdl\drivers\peripheral\ctb/cy_ctb.h **** #define CY_CTB_OPAMPNUM_0_1(num)            (((num) == CY_CTB_OPAMP_0) || ((num) == CY_CTB_OPAMP_1)
 390:Generated_Source\PSoC6\pdl\drivers\peripheral\ctb/cy_ctb.h **** #define CY_CTB_OPAMPNUM_ALL(num)            (((num) == CY_CTB_OPAMP_NONE) \
 391:Generated_Source\PSoC6\pdl\drivers\peripheral\ctb/cy_ctb.h ****                                             || ((num) == CY_CTB_OPAMP_0) \
ARM GAS  C:\Users\JC\AppData\Local\Temp\cclZ7ZAh.s 			page 19


 392:Generated_Source\PSoC6\pdl\drivers\peripheral\ctb/cy_ctb.h ****                                             || ((num) == CY_CTB_OPAMP_1) \
 393:Generated_Source\PSoC6\pdl\drivers\peripheral\ctb/cy_ctb.h ****                                             || ((num) == CY_CTB_OPAMP_BOTH))
 394:Generated_Source\PSoC6\pdl\drivers\peripheral\ctb/cy_ctb.h **** #define CY_CTB_IPTAT(iptat)                 (((iptat) == CY_CTB_IPTAT_NORMAL) || ((iptat) == CY_CTB
 395:Generated_Source\PSoC6\pdl\drivers\peripheral\ctb/cy_ctb.h **** #define CY_CTB_CLKPUMP(clkPump)             (((clkPump) == CY_CTB_CLK_PUMP_SRSS) || ((clkPump) == C
 396:Generated_Source\PSoC6\pdl\drivers\peripheral\ctb/cy_ctb.h **** #define CY_CTB_DEEPSLEEP(deepSleep)         (((deepSleep) == CY_CTB_DEEPSLEEP_DISABLE) || ((deepSle
 397:Generated_Source\PSoC6\pdl\drivers\peripheral\ctb/cy_ctb.h **** #define CY_CTB_OAPOWER(power)               ((power) <= CY_CTB_POWER_HIGH)
 398:Generated_Source\PSoC6\pdl\drivers\peripheral\ctb/cy_ctb.h **** #define CY_CTB_OAMODE(mode)                 (((mode) == CY_CTB_MODE_OPAMP1X) \
 399:Generated_Source\PSoC6\pdl\drivers\peripheral\ctb/cy_ctb.h ****                                             || ((mode) == CY_CTB_MODE_OPAMP10X) \
 400:Generated_Source\PSoC6\pdl\drivers\peripheral\ctb/cy_ctb.h ****                                             || ((mode) == CY_CTB_MODE_COMP))
 401:Generated_Source\PSoC6\pdl\drivers\peripheral\ctb/cy_ctb.h **** #define CY_CTB_OAPUMP(pump)                 (((pump) == CY_CTB_PUMP_DISABLE) || ((pump) == CY_CTB_P
 402:Generated_Source\PSoC6\pdl\drivers\peripheral\ctb/cy_ctb.h **** #define CY_CTB_COMPEDGE(edge)               (((edge) == CY_CTB_COMP_EDGE_DISABLE) \
 403:Generated_Source\PSoC6\pdl\drivers\peripheral\ctb/cy_ctb.h ****                                             || ((edge) == CY_CTB_COMP_EDGE_RISING) \
 404:Generated_Source\PSoC6\pdl\drivers\peripheral\ctb/cy_ctb.h ****                                             || ((edge) == CY_CTB_COMP_EDGE_FALLING) \
 405:Generated_Source\PSoC6\pdl\drivers\peripheral\ctb/cy_ctb.h ****                                             || ((edge) == CY_CTB_COMP_EDGE_BOTH))
 406:Generated_Source\PSoC6\pdl\drivers\peripheral\ctb/cy_ctb.h **** #define CY_CTB_COMPLEVEL(level)             (((level) == CY_CTB_COMP_DSI_TRIGGER_OUT_PULSE) || ((le
 407:Generated_Source\PSoC6\pdl\drivers\peripheral\ctb/cy_ctb.h **** #define CY_CTB_COMPBYPASS(bypass)           (((bypass) == CY_CTB_COMP_BYPASS_SYNC) || ((bypass) == 
 408:Generated_Source\PSoC6\pdl\drivers\peripheral\ctb/cy_ctb.h **** #define CY_CTB_COMPHYST(hyst)               (((hyst) == CY_CTB_COMP_HYST_DISABLE) || ((hyst) == CY_
 409:Generated_Source\PSoC6\pdl\drivers\peripheral\ctb/cy_ctb.h **** #define CY_CTB_CURRENTMODE(mode)            (((mode) == CY_CTB_CURRENT_HIGH_ACTIVE) \
 410:Generated_Source\PSoC6\pdl\drivers\peripheral\ctb/cy_ctb.h ****                                             || ((mode) == CY_CTB_CURRENT_HIGH_ACTIVE_DEEPSLEEP) \
 411:Generated_Source\PSoC6\pdl\drivers\peripheral\ctb/cy_ctb.h ****                                             || ((mode) == CY_CTB_CURRENT_LOW_ACTIVE_DEEPSLEEP))
 412:Generated_Source\PSoC6\pdl\drivers\peripheral\ctb/cy_ctb.h **** #define CY_CTB_SAMPLEHOLD(mode)             ((mode) <= CY_CTB_SH_HOLD)
 413:Generated_Source\PSoC6\pdl\drivers\peripheral\ctb/cy_ctb.h **** #define CY_CTB_TRIM(trim)                   ((trim) <= CY_CTB_TRIM_VALUE_MAX)
 414:Generated_Source\PSoC6\pdl\drivers\peripheral\ctb/cy_ctb.h **** #define CY_CTB_SWITCHSELECT(select)         (((select) == CY_CTB_SWITCH_OA0_SW) \
 415:Generated_Source\PSoC6\pdl\drivers\peripheral\ctb/cy_ctb.h ****                                             || ((select) == CY_CTB_SWITCH_OA1_SW) \
 416:Generated_Source\PSoC6\pdl\drivers\peripheral\ctb/cy_ctb.h ****                                             || ((select) == CY_CTB_SWITCH_CTD_SW))
 417:Generated_Source\PSoC6\pdl\drivers\peripheral\ctb/cy_ctb.h **** #define CY_CTB_SWITCHSTATE(state)           (((state) == CY_CTB_SWITCH_OPEN) || ((state) == CY_CTB_
 418:Generated_Source\PSoC6\pdl\drivers\peripheral\ctb/cy_ctb.h **** #define CY_CTB_OA0SWITCH(mask)              (((mask) & (~CY_CTB_DEINIT_OA0_SW)) == 0uL)
 419:Generated_Source\PSoC6\pdl\drivers\peripheral\ctb/cy_ctb.h **** #define CY_CTB_OA1SWITCH(mask)              (((mask) & (~CY_CTB_DEINIT_OA1_SW)) == 0uL)
 420:Generated_Source\PSoC6\pdl\drivers\peripheral\ctb/cy_ctb.h **** #define CY_CTB_CTDSWITCH(mask)              (((mask) & (~CY_CTB_DEINIT_CTD_SW)) == 0uL)
 421:Generated_Source\PSoC6\pdl\drivers\peripheral\ctb/cy_ctb.h **** #define CY_CTB_SWITCHMASK(select,mask)      (((select) == CY_CTB_SWITCH_OA0_SW) ? (((mask) & (~CY_C
 422:Generated_Source\PSoC6\pdl\drivers\peripheral\ctb/cy_ctb.h ****                                             (((select) == CY_CTB_SWITCH_OA1_SW) ? (((mask) & (~CY_C
 423:Generated_Source\PSoC6\pdl\drivers\peripheral\ctb/cy_ctb.h ****                                             (((mask) & (~CY_CTB_DEINIT_CTD_SW)) == 0uL)))
 424:Generated_Source\PSoC6\pdl\drivers\peripheral\ctb/cy_ctb.h **** #define CY_CTB_SARSEQCTRL(mask)             (((mask) == CY_CTB_SW_SEQ_CTRL_D51_MASK) \
 425:Generated_Source\PSoC6\pdl\drivers\peripheral\ctb/cy_ctb.h ****                                             || ((mask) == CY_CTB_SW_SEQ_CTRL_D52_D62_MASK) \
 426:Generated_Source\PSoC6\pdl\drivers\peripheral\ctb/cy_ctb.h ****                                             || ((mask) == CY_CTB_SW_SEQ_CTRL_D51_D52_D62_MASK))
 427:Generated_Source\PSoC6\pdl\drivers\peripheral\ctb/cy_ctb.h **** 
 428:Generated_Source\PSoC6\pdl\drivers\peripheral\ctb/cy_ctb.h **** /** \endcond */
 429:Generated_Source\PSoC6\pdl\drivers\peripheral\ctb/cy_ctb.h **** 
 430:Generated_Source\PSoC6\pdl\drivers\peripheral\ctb/cy_ctb.h **** /** \} group_ctb_macros */
 431:Generated_Source\PSoC6\pdl\drivers\peripheral\ctb/cy_ctb.h **** 
 432:Generated_Source\PSoC6\pdl\drivers\peripheral\ctb/cy_ctb.h **** /***************************************
 433:Generated_Source\PSoC6\pdl\drivers\peripheral\ctb/cy_ctb.h **** *       Enumerated Types
 434:Generated_Source\PSoC6\pdl\drivers\peripheral\ctb/cy_ctb.h **** ***************************************/
 435:Generated_Source\PSoC6\pdl\drivers\peripheral\ctb/cy_ctb.h **** 
 436:Generated_Source\PSoC6\pdl\drivers\peripheral\ctb/cy_ctb.h **** /**
 437:Generated_Source\PSoC6\pdl\drivers\peripheral\ctb/cy_ctb.h **** * \addtogroup group_ctb_enums
 438:Generated_Source\PSoC6\pdl\drivers\peripheral\ctb/cy_ctb.h **** * \{
 439:Generated_Source\PSoC6\pdl\drivers\peripheral\ctb/cy_ctb.h **** */
 440:Generated_Source\PSoC6\pdl\drivers\peripheral\ctb/cy_ctb.h **** 
 441:Generated_Source\PSoC6\pdl\drivers\peripheral\ctb/cy_ctb.h **** /**
 442:Generated_Source\PSoC6\pdl\drivers\peripheral\ctb/cy_ctb.h **** * Most functions allow you to configure a single opamp or both opamps at once.
 443:Generated_Source\PSoC6\pdl\drivers\peripheral\ctb/cy_ctb.h **** * The \ref Cy_CTB_SetInterruptMask function can be called with \ref CY_CTB_OPAMP_NONE
 444:Generated_Source\PSoC6\pdl\drivers\peripheral\ctb/cy_ctb.h **** * and interrupts will be disabled.
 445:Generated_Source\PSoC6\pdl\drivers\peripheral\ctb/cy_ctb.h **** */
 446:Generated_Source\PSoC6\pdl\drivers\peripheral\ctb/cy_ctb.h **** typedef enum{
 447:Generated_Source\PSoC6\pdl\drivers\peripheral\ctb/cy_ctb.h ****     CY_CTB_OPAMP_NONE    = 0uL,                                          /**< For disabling interru
 448:Generated_Source\PSoC6\pdl\drivers\peripheral\ctb/cy_ctb.h ****     CY_CTB_OPAMP_0       = CTBM_INTR_COMP0_Msk,                        /**< For configuring Opamp0 
ARM GAS  C:\Users\JC\AppData\Local\Temp\cclZ7ZAh.s 			page 20


 449:Generated_Source\PSoC6\pdl\drivers\peripheral\ctb/cy_ctb.h ****     CY_CTB_OPAMP_1       = CTBM_INTR_COMP1_Msk,                        /**< For configuring Opamp1 
 450:Generated_Source\PSoC6\pdl\drivers\peripheral\ctb/cy_ctb.h ****     CY_CTB_OPAMP_BOTH    = CTBM_INTR_COMP0_Msk | CTBM_INTR_COMP1_Msk,  /**< For configuring both Op
 451:Generated_Source\PSoC6\pdl\drivers\peripheral\ctb/cy_ctb.h **** }cy_en_ctb_opamp_sel_t;
 452:Generated_Source\PSoC6\pdl\drivers\peripheral\ctb/cy_ctb.h **** 
 453:Generated_Source\PSoC6\pdl\drivers\peripheral\ctb/cy_ctb.h **** /** Enable or disable CTB while in Deep Sleep mode.
 454:Generated_Source\PSoC6\pdl\drivers\peripheral\ctb/cy_ctb.h **** */
 455:Generated_Source\PSoC6\pdl\drivers\peripheral\ctb/cy_ctb.h **** typedef enum {
 456:Generated_Source\PSoC6\pdl\drivers\peripheral\ctb/cy_ctb.h ****     CY_CTB_DEEPSLEEP_DISABLE   = 0uL,                               /**< CTB is disabled during Dee
 457:Generated_Source\PSoC6\pdl\drivers\peripheral\ctb/cy_ctb.h ****     CY_CTB_DEEPSLEEP_ENABLE    = CTBM_CTB_CTRL_DEEPSLEEP_ON_Msk,   /**< CTB remains enabled during 
 458:Generated_Source\PSoC6\pdl\drivers\peripheral\ctb/cy_ctb.h **** }cy_en_ctb_deep_sleep_t;
 459:Generated_Source\PSoC6\pdl\drivers\peripheral\ctb/cy_ctb.h **** 
 460:Generated_Source\PSoC6\pdl\drivers\peripheral\ctb/cy_ctb.h **** /**
 461:Generated_Source\PSoC6\pdl\drivers\peripheral\ctb/cy_ctb.h **** * Configure the power mode of each opamp. Each power setting
 462:Generated_Source\PSoC6\pdl\drivers\peripheral\ctb/cy_ctb.h **** * consumes different levels of current and supports a different
 463:Generated_Source\PSoC6\pdl\drivers\peripheral\ctb/cy_ctb.h **** * input range and gain bandwidth.
 464:Generated_Source\PSoC6\pdl\drivers\peripheral\ctb/cy_ctb.h **** *
 465:Generated_Source\PSoC6\pdl\drivers\peripheral\ctb/cy_ctb.h **** * <table class="doxtable">
 466:Generated_Source\PSoC6\pdl\drivers\peripheral\ctb/cy_ctb.h **** *   <tr><th>Opamp Power</th><th>IDD</th><th>Gain bandwidth</th></tr>
 467:Generated_Source\PSoC6\pdl\drivers\peripheral\ctb/cy_ctb.h **** *   <tr>
 468:Generated_Source\PSoC6\pdl\drivers\peripheral\ctb/cy_ctb.h **** *     <td>OFF</td>
 469:Generated_Source\PSoC6\pdl\drivers\peripheral\ctb/cy_ctb.h **** *     <td>0</td>
 470:Generated_Source\PSoC6\pdl\drivers\peripheral\ctb/cy_ctb.h **** *     <td>NA</td>
 471:Generated_Source\PSoC6\pdl\drivers\peripheral\ctb/cy_ctb.h **** *   </tr>
 472:Generated_Source\PSoC6\pdl\drivers\peripheral\ctb/cy_ctb.h **** *   <tr>
 473:Generated_Source\PSoC6\pdl\drivers\peripheral\ctb/cy_ctb.h **** *     <td>LOW</td>
 474:Generated_Source\PSoC6\pdl\drivers\peripheral\ctb/cy_ctb.h **** *     <td>350 uA</td>
 475:Generated_Source\PSoC6\pdl\drivers\peripheral\ctb/cy_ctb.h **** *     <td>1 MHz</td>
 476:Generated_Source\PSoC6\pdl\drivers\peripheral\ctb/cy_ctb.h **** *   </tr>
 477:Generated_Source\PSoC6\pdl\drivers\peripheral\ctb/cy_ctb.h **** *   <tr>
 478:Generated_Source\PSoC6\pdl\drivers\peripheral\ctb/cy_ctb.h **** *     <td>MEDIUM</td>
 479:Generated_Source\PSoC6\pdl\drivers\peripheral\ctb/cy_ctb.h **** *     <td>600 uA</td>
 480:Generated_Source\PSoC6\pdl\drivers\peripheral\ctb/cy_ctb.h **** *     <td>3 MHz for 1X, 2.5 MHz for 10x</td>
 481:Generated_Source\PSoC6\pdl\drivers\peripheral\ctb/cy_ctb.h **** *   </tr>
 482:Generated_Source\PSoC6\pdl\drivers\peripheral\ctb/cy_ctb.h **** *   <tr>
 483:Generated_Source\PSoC6\pdl\drivers\peripheral\ctb/cy_ctb.h **** *     <td>HIGH</td>
 484:Generated_Source\PSoC6\pdl\drivers\peripheral\ctb/cy_ctb.h **** *     <td>1.5 mA</td>
 485:Generated_Source\PSoC6\pdl\drivers\peripheral\ctb/cy_ctb.h **** *     <td>8 MHz for 1X, 6 MHz for 10x</td>
 486:Generated_Source\PSoC6\pdl\drivers\peripheral\ctb/cy_ctb.h **** *   </tr>
 487:Generated_Source\PSoC6\pdl\drivers\peripheral\ctb/cy_ctb.h **** * </table>
 488:Generated_Source\PSoC6\pdl\drivers\peripheral\ctb/cy_ctb.h **** *
 489:Generated_Source\PSoC6\pdl\drivers\peripheral\ctb/cy_ctb.h **** */
 490:Generated_Source\PSoC6\pdl\drivers\peripheral\ctb/cy_ctb.h **** typedef enum {
 491:Generated_Source\PSoC6\pdl\drivers\peripheral\ctb/cy_ctb.h ****     CY_CTB_POWER_OFF       = 0uL,     /**< Opamp is off */
 492:Generated_Source\PSoC6\pdl\drivers\peripheral\ctb/cy_ctb.h ****     CY_CTB_POWER_LOW       = 1uL,     /**< Low power: IDD = 350 uA, GBW = 1 MHz for both 1x and 10x
 493:Generated_Source\PSoC6\pdl\drivers\peripheral\ctb/cy_ctb.h ****     CY_CTB_POWER_MEDIUM    = 2uL,     /**< Medium power: IDD = 600 uA, GBW = 3 MHz for 1x and 2.5 M
 494:Generated_Source\PSoC6\pdl\drivers\peripheral\ctb/cy_ctb.h ****     CY_CTB_POWER_HIGH      = 3uL,     /**< High power: IDD = 1500 uA, GBW = 8 MHz for 1x and 6 MHz 
 495:Generated_Source\PSoC6\pdl\drivers\peripheral\ctb/cy_ctb.h **** }cy_en_ctb_power_t;
 496:Generated_Source\PSoC6\pdl\drivers\peripheral\ctb/cy_ctb.h **** 
 497:Generated_Source\PSoC6\pdl\drivers\peripheral\ctb/cy_ctb.h **** /**
 498:Generated_Source\PSoC6\pdl\drivers\peripheral\ctb/cy_ctb.h **** * The output stage of each opamp can be configured for low-drive strength (1X) to drive internal ci
 499:Generated_Source\PSoC6\pdl\drivers\peripheral\ctb/cy_ctb.h **** * for high-drive strength (10X) to drive external circuits, or as a comparator.
 500:Generated_Source\PSoC6\pdl\drivers\peripheral\ctb/cy_ctb.h **** */
 501:Generated_Source\PSoC6\pdl\drivers\peripheral\ctb/cy_ctb.h **** typedef enum {
 502:Generated_Source\PSoC6\pdl\drivers\peripheral\ctb/cy_ctb.h ****     CY_CTB_MODE_OPAMP1X    = 0uL,                                               /**< Configure opam
 503:Generated_Source\PSoC6\pdl\drivers\peripheral\ctb/cy_ctb.h ****     CY_CTB_MODE_OPAMP10X   = 1uL << CTBM_OA_RES0_CTRL_OA0_DRIVE_STR_SEL_Pos,    /**< Configure opam
 504:Generated_Source\PSoC6\pdl\drivers\peripheral\ctb/cy_ctb.h ****     CY_CTB_MODE_COMP       = 1uL << CTBM_OA_RES0_CTRL_OA0_COMP_EN_Pos,          /**< Configure opam
 505:Generated_Source\PSoC6\pdl\drivers\peripheral\ctb/cy_ctb.h **** }cy_en_ctb_mode_t;
ARM GAS  C:\Users\JC\AppData\Local\Temp\cclZ7ZAh.s 			page 21


 506:Generated_Source\PSoC6\pdl\drivers\peripheral\ctb/cy_ctb.h **** 
 507:Generated_Source\PSoC6\pdl\drivers\peripheral\ctb/cy_ctb.h **** /**
 508:Generated_Source\PSoC6\pdl\drivers\peripheral\ctb/cy_ctb.h **** * Each opamp has a charge pump to increase the input range to the rails.
 509:Generated_Source\PSoC6\pdl\drivers\peripheral\ctb/cy_ctb.h **** * When the charge pump is enabled, the input range is 0 to VDDA.
 510:Generated_Source\PSoC6\pdl\drivers\peripheral\ctb/cy_ctb.h **** * When disabled, the input range is 0 to VDDA - 1.5 V.
 511:Generated_Source\PSoC6\pdl\drivers\peripheral\ctb/cy_ctb.h **** *
 512:Generated_Source\PSoC6\pdl\drivers\peripheral\ctb/cy_ctb.h **** ** <table class="doxtable">
 513:Generated_Source\PSoC6\pdl\drivers\peripheral\ctb/cy_ctb.h **** *   <tr><th>Charge Pump</th><th>Input Range (V)</th></tr>
 514:Generated_Source\PSoC6\pdl\drivers\peripheral\ctb/cy_ctb.h **** *   <tr>
 515:Generated_Source\PSoC6\pdl\drivers\peripheral\ctb/cy_ctb.h **** *     <td>OFF</td>
 516:Generated_Source\PSoC6\pdl\drivers\peripheral\ctb/cy_ctb.h **** *     <td>0 to VDDA-1.5</td>
 517:Generated_Source\PSoC6\pdl\drivers\peripheral\ctb/cy_ctb.h **** *   </tr>
 518:Generated_Source\PSoC6\pdl\drivers\peripheral\ctb/cy_ctb.h **** *   <tr>
 519:Generated_Source\PSoC6\pdl\drivers\peripheral\ctb/cy_ctb.h **** *     <td>ON</td>
 520:Generated_Source\PSoC6\pdl\drivers\peripheral\ctb/cy_ctb.h **** *     <td>0 to VDDA</td>
 521:Generated_Source\PSoC6\pdl\drivers\peripheral\ctb/cy_ctb.h **** *   </tr>
 522:Generated_Source\PSoC6\pdl\drivers\peripheral\ctb/cy_ctb.h **** * </table>
 523:Generated_Source\PSoC6\pdl\drivers\peripheral\ctb/cy_ctb.h **** *
 524:Generated_Source\PSoC6\pdl\drivers\peripheral\ctb/cy_ctb.h **** * Note that in Deep Sleep mode, the charge pump is disabled so the input
 525:Generated_Source\PSoC6\pdl\drivers\peripheral\ctb/cy_ctb.h **** * range is reduced.
 526:Generated_Source\PSoC6\pdl\drivers\peripheral\ctb/cy_ctb.h **** */
 527:Generated_Source\PSoC6\pdl\drivers\peripheral\ctb/cy_ctb.h **** typedef enum{
 528:Generated_Source\PSoC6\pdl\drivers\peripheral\ctb/cy_ctb.h ****     CY_CTB_PUMP_DISABLE   = 0uL,                                           /**< Charge pump is disa
 529:Generated_Source\PSoC6\pdl\drivers\peripheral\ctb/cy_ctb.h ****     CY_CTB_PUMP_ENABLE    = CTBM_OA_RES0_CTRL_OA0_PUMP_EN_Msk,            /**< Charge pump is enabl
 530:Generated_Source\PSoC6\pdl\drivers\peripheral\ctb/cy_ctb.h **** }cy_en_ctb_pump_t;
 531:Generated_Source\PSoC6\pdl\drivers\peripheral\ctb/cy_ctb.h **** 
 532:Generated_Source\PSoC6\pdl\drivers\peripheral\ctb/cy_ctb.h **** /**
 533:Generated_Source\PSoC6\pdl\drivers\peripheral\ctb/cy_ctb.h **** * Configure the type of edge that will trigger a comparator interrupt or
 534:Generated_Source\PSoC6\pdl\drivers\peripheral\ctb/cy_ctb.h **** * disable the interrupt entirely.
 535:Generated_Source\PSoC6\pdl\drivers\peripheral\ctb/cy_ctb.h **** */
 536:Generated_Source\PSoC6\pdl\drivers\peripheral\ctb/cy_ctb.h **** typedef enum
 537:Generated_Source\PSoC6\pdl\drivers\peripheral\ctb/cy_ctb.h **** {
 538:Generated_Source\PSoC6\pdl\drivers\peripheral\ctb/cy_ctb.h ****     CY_CTB_COMP_EDGE_DISABLE       = 0uL,                                       /**< Disabled, no i
 539:Generated_Source\PSoC6\pdl\drivers\peripheral\ctb/cy_ctb.h ****     CY_CTB_COMP_EDGE_RISING        = 1uL << CTBM_OA_RES0_CTRL_OA0_COMPINT_Pos,  /**< Rising edge ge
 540:Generated_Source\PSoC6\pdl\drivers\peripheral\ctb/cy_ctb.h ****     CY_CTB_COMP_EDGE_FALLING       = 2uL << CTBM_OA_RES0_CTRL_OA0_COMPINT_Pos,  /**< Falling edge g
 541:Generated_Source\PSoC6\pdl\drivers\peripheral\ctb/cy_ctb.h ****     CY_CTB_COMP_EDGE_BOTH          = 3uL << CTBM_OA_RES0_CTRL_OA0_COMPINT_Pos,  /**< Both edges gen
 542:Generated_Source\PSoC6\pdl\drivers\peripheral\ctb/cy_ctb.h **** }cy_en_ctb_comp_edge_t;
 543:Generated_Source\PSoC6\pdl\drivers\peripheral\ctb/cy_ctb.h **** 
 544:Generated_Source\PSoC6\pdl\drivers\peripheral\ctb/cy_ctb.h **** /** Configure the comparator DSI trigger output level when output is synchronized. */
 545:Generated_Source\PSoC6\pdl\drivers\peripheral\ctb/cy_ctb.h **** typedef enum
 546:Generated_Source\PSoC6\pdl\drivers\peripheral\ctb/cy_ctb.h **** {
 547:Generated_Source\PSoC6\pdl\drivers\peripheral\ctb/cy_ctb.h ****     CY_CTB_COMP_DSI_TRIGGER_OUT_PULSE    = 0uL,                                        /**< Send pu
 548:Generated_Source\PSoC6\pdl\drivers\peripheral\ctb/cy_ctb.h ****     CY_CTB_COMP_DSI_TRIGGER_OUT_LEVEL    = CTBM_OA_RES0_CTRL_OA0_DSI_LEVEL_Msk,       /**< DSI outp
 549:Generated_Source\PSoC6\pdl\drivers\peripheral\ctb/cy_ctb.h **** }cy_en_ctb_comp_level_t;
 550:Generated_Source\PSoC6\pdl\drivers\peripheral\ctb/cy_ctb.h **** 
 551:Generated_Source\PSoC6\pdl\drivers\peripheral\ctb/cy_ctb.h **** /** Bypass the comparator output synchronization for DSI trigger. */
 552:Generated_Source\PSoC6\pdl\drivers\peripheral\ctb/cy_ctb.h **** typedef enum
 553:Generated_Source\PSoC6\pdl\drivers\peripheral\ctb/cy_ctb.h **** {
 554:Generated_Source\PSoC6\pdl\drivers\peripheral\ctb/cy_ctb.h ****     CY_CTB_COMP_BYPASS_SYNC          = 0uL,                                          /**< Comparato
 555:Generated_Source\PSoC6\pdl\drivers\peripheral\ctb/cy_ctb.h ****     CY_CTB_COMP_BYPASS_NO_SYNC       = CTBM_OA_RES0_CTRL_OA0_BYPASS_DSI_SYNC_Msk,   /**< Comparator
 556:Generated_Source\PSoC6\pdl\drivers\peripheral\ctb/cy_ctb.h **** }cy_en_ctb_comp_bypass_t;
 557:Generated_Source\PSoC6\pdl\drivers\peripheral\ctb/cy_ctb.h **** 
 558:Generated_Source\PSoC6\pdl\drivers\peripheral\ctb/cy_ctb.h **** /** Disable or enable the 10 mV hysteresis for the comparator. */
 559:Generated_Source\PSoC6\pdl\drivers\peripheral\ctb/cy_ctb.h **** typedef enum
 560:Generated_Source\PSoC6\pdl\drivers\peripheral\ctb/cy_ctb.h **** {
 561:Generated_Source\PSoC6\pdl\drivers\peripheral\ctb/cy_ctb.h ****     CY_CTB_COMP_HYST_DISABLE      = 0uL,                                    /**< Disable hysteresis
 562:Generated_Source\PSoC6\pdl\drivers\peripheral\ctb/cy_ctb.h ****     CY_CTB_COMP_HYST_10MV         = CTBM_OA_RES0_CTRL_OA0_HYST_EN_Msk,     /**< Enable the 10 mV hy
ARM GAS  C:\Users\JC\AppData\Local\Temp\cclZ7ZAh.s 			page 22


 563:Generated_Source\PSoC6\pdl\drivers\peripheral\ctb/cy_ctb.h **** }cy_en_ctb_comp_hyst_t;
 564:Generated_Source\PSoC6\pdl\drivers\peripheral\ctb/cy_ctb.h **** 
 565:Generated_Source\PSoC6\pdl\drivers\peripheral\ctb/cy_ctb.h **** /** Switch state, either open or closed, to be used in \ref Cy_CTB_SetAnalogSwitch. */
 566:Generated_Source\PSoC6\pdl\drivers\peripheral\ctb/cy_ctb.h **** typedef enum
 567:Generated_Source\PSoC6\pdl\drivers\peripheral\ctb/cy_ctb.h **** {
 568:Generated_Source\PSoC6\pdl\drivers\peripheral\ctb/cy_ctb.h ****     CY_CTB_SWITCH_OPEN      = 0uL,    /**< Open the switch */
 569:Generated_Source\PSoC6\pdl\drivers\peripheral\ctb/cy_ctb.h ****     CY_CTB_SWITCH_CLOSE     = 1uL     /**< Close the switch */
 570:Generated_Source\PSoC6\pdl\drivers\peripheral\ctb/cy_ctb.h **** }cy_en_ctb_switch_state_t;
 571:Generated_Source\PSoC6\pdl\drivers\peripheral\ctb/cy_ctb.h **** 
 572:Generated_Source\PSoC6\pdl\drivers\peripheral\ctb/cy_ctb.h **** /**
 573:Generated_Source\PSoC6\pdl\drivers\peripheral\ctb/cy_ctb.h **** * The switch register to be used in \ref Cy_CTB_SetAnalogSwitch.
 574:Generated_Source\PSoC6\pdl\drivers\peripheral\ctb/cy_ctb.h **** * The CTB has three registers for configuring the switch routing matrix.
 575:Generated_Source\PSoC6\pdl\drivers\peripheral\ctb/cy_ctb.h **** * */
 576:Generated_Source\PSoC6\pdl\drivers\peripheral\ctb/cy_ctb.h **** typedef enum
 577:Generated_Source\PSoC6\pdl\drivers\peripheral\ctb/cy_ctb.h **** {
 578:Generated_Source\PSoC6\pdl\drivers\peripheral\ctb/cy_ctb.h ****     CY_CTB_SWITCH_OA0_SW     = 0uL,     /**< Switch register for Opamp0 */
 579:Generated_Source\PSoC6\pdl\drivers\peripheral\ctb/cy_ctb.h ****     CY_CTB_SWITCH_OA1_SW     = 1uL,     /**< Switch register for Opamp1 */
 580:Generated_Source\PSoC6\pdl\drivers\peripheral\ctb/cy_ctb.h ****     CY_CTB_SWITCH_CTD_SW     = 2uL,     /**< Switch register for CTDAC routing */
 581:Generated_Source\PSoC6\pdl\drivers\peripheral\ctb/cy_ctb.h **** }cy_en_ctb_switch_register_sel_t;
 582:Generated_Source\PSoC6\pdl\drivers\peripheral\ctb/cy_ctb.h **** 
 583:Generated_Source\PSoC6\pdl\drivers\peripheral\ctb/cy_ctb.h **** /**
 584:Generated_Source\PSoC6\pdl\drivers\peripheral\ctb/cy_ctb.h **** * Switch masks for Opamp0 to be used in \ref Cy_CTB_SetAnalogSwitch.
 585:Generated_Source\PSoC6\pdl\drivers\peripheral\ctb/cy_ctb.h **** */
 586:Generated_Source\PSoC6\pdl\drivers\peripheral\ctb/cy_ctb.h **** typedef enum
 587:Generated_Source\PSoC6\pdl\drivers\peripheral\ctb/cy_ctb.h **** {
 588:Generated_Source\PSoC6\pdl\drivers\peripheral\ctb/cy_ctb.h ****     CY_CTB_SW_OA0_POS_AMUXBUSA_MASK     = CTBM_OA0_SW_OA0P_A00_Msk,       /**< Switch A00: Opamp0 n
 589:Generated_Source\PSoC6\pdl\drivers\peripheral\ctb/cy_ctb.h ****     CY_CTB_SW_OA0_POS_PIN0_MASK         = CTBM_OA0_SW_OA0P_A20_Msk,       /**< Switch A20: Opamp0 n
 590:Generated_Source\PSoC6\pdl\drivers\peripheral\ctb/cy_ctb.h ****     CY_CTB_SW_OA0_POS_PIN6_MASK         = CTBM_OA0_SW_OA0P_A30_Msk,       /**< Switch A30: Opamp0 n
 591:Generated_Source\PSoC6\pdl\drivers\peripheral\ctb/cy_ctb.h ****     CY_CTB_SW_OA0_NEG_PIN1_MASK         = CTBM_OA0_SW_OA0M_A11_Msk,       /**< Switch A11: Opamp0 i
 592:Generated_Source\PSoC6\pdl\drivers\peripheral\ctb/cy_ctb.h ****     CY_CTB_SW_OA0_NEG_OUT_MASK          = CTBM_OA0_SW_OA0M_A81_Msk,       /**< Switch A81: Opamp0 i
 593:Generated_Source\PSoC6\pdl\drivers\peripheral\ctb/cy_ctb.h ****     CY_CTB_SW_OA0_OUT_SARBUS0_MASK      = CTBM_OA0_SW_OA0O_D51_Msk,       /**< Switch D51: Opamp0 o
 594:Generated_Source\PSoC6\pdl\drivers\peripheral\ctb/cy_ctb.h ****     CY_CTB_SW_OA0_OUT_SHORT_1X_10X_MASK = CTBM_OA0_SW_OA0O_D81_Msk,       /**< Switch D81: Short Op
 595:Generated_Source\PSoC6\pdl\drivers\peripheral\ctb/cy_ctb.h **** }cy_en_ctb_oa0_switches_t;
 596:Generated_Source\PSoC6\pdl\drivers\peripheral\ctb/cy_ctb.h **** 
 597:Generated_Source\PSoC6\pdl\drivers\peripheral\ctb/cy_ctb.h **** /**
 598:Generated_Source\PSoC6\pdl\drivers\peripheral\ctb/cy_ctb.h **** * Switch masks for Opamp1 to be used in \ref Cy_CTB_SetAnalogSwitch.
 599:Generated_Source\PSoC6\pdl\drivers\peripheral\ctb/cy_ctb.h **** */
 600:Generated_Source\PSoC6\pdl\drivers\peripheral\ctb/cy_ctb.h **** typedef enum
 601:Generated_Source\PSoC6\pdl\drivers\peripheral\ctb/cy_ctb.h **** {
 602:Generated_Source\PSoC6\pdl\drivers\peripheral\ctb/cy_ctb.h ****     CY_CTB_SW_OA1_POS_AMUXBUSB_MASK     = CTBM_OA1_SW_OA1P_A03_Msk,       /**< Switch A03: Opamp1 n
 603:Generated_Source\PSoC6\pdl\drivers\peripheral\ctb/cy_ctb.h ****     CY_CTB_SW_OA1_POS_PIN5_MASK         = CTBM_OA1_SW_OA1P_A13_Msk,       /**< Switch A13: Opamp1 n
 604:Generated_Source\PSoC6\pdl\drivers\peripheral\ctb/cy_ctb.h ****     CY_CTB_SW_OA1_POS_PIN7_MASK         = CTBM_OA1_SW_OA1P_A43_Msk,       /**< Switch A43: Opamp1 n
 605:Generated_Source\PSoC6\pdl\drivers\peripheral\ctb/cy_ctb.h ****     CY_CTB_SW_OA1_POS_AREF_MASK         = CTBM_OA1_SW_OA1P_A73_Msk,       /**< Switch A73: Opamp1 n
 606:Generated_Source\PSoC6\pdl\drivers\peripheral\ctb/cy_ctb.h ****     CY_CTB_SW_OA1_NEG_PIN4_MASK         = CTBM_OA1_SW_OA1M_A22_Msk,       /**< Switch A22: Opamp1 i
 607:Generated_Source\PSoC6\pdl\drivers\peripheral\ctb/cy_ctb.h ****     CY_CTB_SW_OA1_NEG_OUT_MASK          = CTBM_OA1_SW_OA1M_A82_Msk,       /**< switch A82: Opamp1 i
 608:Generated_Source\PSoC6\pdl\drivers\peripheral\ctb/cy_ctb.h ****     CY_CTB_SW_OA1_OUT_SARBUS0_MASK      = CTBM_OA1_SW_OA1O_D52_Msk,       /**< Switch D52: Opamp1 o
 609:Generated_Source\PSoC6\pdl\drivers\peripheral\ctb/cy_ctb.h ****     CY_CTB_SW_OA1_OUT_SARBUS1_MASK      = CTBM_OA1_SW_OA1O_D62_Msk,       /**< Switch D62: Opamp1 o
 610:Generated_Source\PSoC6\pdl\drivers\peripheral\ctb/cy_ctb.h ****     CY_CTB_SW_OA1_OUT_SHORT_1X_10X_MASK = CTBM_OA1_SW_OA1O_D82_Msk,       /**< Switch D82: Short Op
 611:Generated_Source\PSoC6\pdl\drivers\peripheral\ctb/cy_ctb.h **** }cy_en_ctb_oa1_switches_t;
 612:Generated_Source\PSoC6\pdl\drivers\peripheral\ctb/cy_ctb.h **** 
 613:Generated_Source\PSoC6\pdl\drivers\peripheral\ctb/cy_ctb.h **** /**
 614:Generated_Source\PSoC6\pdl\drivers\peripheral\ctb/cy_ctb.h **** * Switch masks for CTDAC to CTB routing to be used in \ref Cy_CTB_SetAnalogSwitch.
 615:Generated_Source\PSoC6\pdl\drivers\peripheral\ctb/cy_ctb.h **** */
 616:Generated_Source\PSoC6\pdl\drivers\peripheral\ctb/cy_ctb.h **** typedef enum
 617:Generated_Source\PSoC6\pdl\drivers\peripheral\ctb/cy_ctb.h **** {
 618:Generated_Source\PSoC6\pdl\drivers\peripheral\ctb/cy_ctb.h ****     CY_CTB_SW_CTD_REF_OA1_OUT_MASK              = CTBM_CTD_SW_CTDD_CRD_Msk,       /**< Switch CRD: 
 619:Generated_Source\PSoC6\pdl\drivers\peripheral\ctb/cy_ctb.h ****     CY_CTB_SW_CTD_REFSENSE_OA1_NEG_MASK         = CTBM_CTD_SW_CTDS_CRS_Msk,       /**< Switch CRS: 
ARM GAS  C:\Users\JC\AppData\Local\Temp\cclZ7ZAh.s 			page 23


 620:Generated_Source\PSoC6\pdl\drivers\peripheral\ctb/cy_ctb.h ****     CY_CTB_SW_CTD_OUT_OA1_NEG_MASK              = CTBM_CTD_SW_CTDS_COR_Msk,       /**< Switch COR: 
 621:Generated_Source\PSoC6\pdl\drivers\peripheral\ctb/cy_ctb.h ****     CY_CTB_SW_CTD_OUT_PIN6_MASK                 = CTBM_CTD_SW_CTDO_C6H_Msk,       /**< Switch C6H: 
 622:Generated_Source\PSoC6\pdl\drivers\peripheral\ctb/cy_ctb.h ****     CY_CTB_SW_CTD_OUT_CHOLD_MASK                = CTBM_CTD_SW_CTDO_COS_Msk,       /**< Switch COS: 
 623:Generated_Source\PSoC6\pdl\drivers\peripheral\ctb/cy_ctb.h ****     CY_CTB_SW_CTD_OUT_OA0_1X_OUT_MASK           = CTBM_CTD_SW_CTDH_COB_Msk,       /**< Switch COB: 
 624:Generated_Source\PSoC6\pdl\drivers\peripheral\ctb/cy_ctb.h ****     CY_CTB_SW_CTD_CHOLD_CONNECT_MASK            = CTBM_CTD_SW_CTDH_CHD_Msk,       /**< Switch CHD: 
 625:Generated_Source\PSoC6\pdl\drivers\peripheral\ctb/cy_ctb.h ****     CY_CTB_SW_CTD_CHOLD_OA0_POS_MASK            = CTBM_CTD_SW_CTDH_CA0_Msk,       /**< Switch CA0: 
 626:Generated_Source\PSoC6\pdl\drivers\peripheral\ctb/cy_ctb.h ****     CY_CTB_SW_CTD_CHOLD_OA0_POS_ISOLATE_MASK    = CTBM_CTD_SW_CTDH_CIS_Msk,       /**< Switch CIS: 
 627:Generated_Source\PSoC6\pdl\drivers\peripheral\ctb/cy_ctb.h ****     CY_CTB_SW_CTD_CHOLD_LEAKAGE_REDUCTION_MASK  = CTBM_CTD_SW_CTDH_ILR_Msk,       /**< Switch ILR: 
 628:Generated_Source\PSoC6\pdl\drivers\peripheral\ctb/cy_ctb.h **** }cy_en_ctb_ctd_switches_t;
 629:Generated_Source\PSoC6\pdl\drivers\peripheral\ctb/cy_ctb.h **** 
 630:Generated_Source\PSoC6\pdl\drivers\peripheral\ctb/cy_ctb.h **** 
 631:Generated_Source\PSoC6\pdl\drivers\peripheral\ctb/cy_ctb.h **** /**
 632:Generated_Source\PSoC6\pdl\drivers\peripheral\ctb/cy_ctb.h **** * Masks for CTB switches that can be controlled by the SAR sequencer.
 633:Generated_Source\PSoC6\pdl\drivers\peripheral\ctb/cy_ctb.h **** * These masks are used in \ref Cy_CTB_EnableSarSeqCtrl and \ref Cy_CTB_DisableSarSeqCtrl.
 634:Generated_Source\PSoC6\pdl\drivers\peripheral\ctb/cy_ctb.h **** *
 635:Generated_Source\PSoC6\pdl\drivers\peripheral\ctb/cy_ctb.h **** * The SAR ADC subsystem supports analog routes through three CTB switches on SARBUS0 and SARBUS1.
 636:Generated_Source\PSoC6\pdl\drivers\peripheral\ctb/cy_ctb.h **** * This control allows for pins on the CTB dedicated port to route to the SAR ADC input channels:
 637:Generated_Source\PSoC6\pdl\drivers\peripheral\ctb/cy_ctb.h **** *
 638:Generated_Source\PSoC6\pdl\drivers\peripheral\ctb/cy_ctb.h **** *   - D51: Connects the inverting terminal of OA0 to SARBUS0
 639:Generated_Source\PSoC6\pdl\drivers\peripheral\ctb/cy_ctb.h **** *   - D52: Connects the inverting terminal of OA1 to SARBUS0
 640:Generated_Source\PSoC6\pdl\drivers\peripheral\ctb/cy_ctb.h **** *   - D62: Connects the inverting terminal of OA1 to SARBUS1
 641:Generated_Source\PSoC6\pdl\drivers\peripheral\ctb/cy_ctb.h **** */
 642:Generated_Source\PSoC6\pdl\drivers\peripheral\ctb/cy_ctb.h **** typedef enum
 643:Generated_Source\PSoC6\pdl\drivers\peripheral\ctb/cy_ctb.h **** {
 644:Generated_Source\PSoC6\pdl\drivers\peripheral\ctb/cy_ctb.h ****     CY_CTB_SW_SEQ_CTRL_D51_MASK            = CTBM_CTB_SW_SQ_CTRL_P2_SQ_CTRL23_Msk,  /**< Enable SAR
 645:Generated_Source\PSoC6\pdl\drivers\peripheral\ctb/cy_ctb.h ****     CY_CTB_SW_SEQ_CTRL_D52_D62_MASK        = CTBM_CTB_SW_SQ_CTRL_P3_SQ_CTRL23_Msk,  /**< Enable SAR
 646:Generated_Source\PSoC6\pdl\drivers\peripheral\ctb/cy_ctb.h ****     CY_CTB_SW_SEQ_CTRL_D51_D52_D62_MASK    = CTBM_CTB_SW_SQ_CTRL_P2_SQ_CTRL23_Msk | CTBM_CTB_SW_SQ_
 647:Generated_Source\PSoC6\pdl\drivers\peripheral\ctb/cy_ctb.h **** }cy_en_ctb_switch_sar_seq_t;
 648:Generated_Source\PSoC6\pdl\drivers\peripheral\ctb/cy_ctb.h **** 
 649:Generated_Source\PSoC6\pdl\drivers\peripheral\ctb/cy_ctb.h **** /**
 650:Generated_Source\PSoC6\pdl\drivers\peripheral\ctb/cy_ctb.h **** * Each opamp also has a programmable compensation capacitor block,
 651:Generated_Source\PSoC6\pdl\drivers\peripheral\ctb/cy_ctb.h **** * that optimizes the stability of the opamp performance based on output load.
 652:Generated_Source\PSoC6\pdl\drivers\peripheral\ctb/cy_ctb.h **** * The compensation cap will be set by the driver based on the opamp drive strength (1x or 10x) sele
 653:Generated_Source\PSoC6\pdl\drivers\peripheral\ctb/cy_ctb.h **** */
 654:Generated_Source\PSoC6\pdl\drivers\peripheral\ctb/cy_ctb.h **** typedef enum
 655:Generated_Source\PSoC6\pdl\drivers\peripheral\ctb/cy_ctb.h **** {
 656:Generated_Source\PSoC6\pdl\drivers\peripheral\ctb/cy_ctb.h ****     CY_CTB_OPAMP_COMPENSATION_CAP_OFF      = 0uL,       /**< No compensation */
 657:Generated_Source\PSoC6\pdl\drivers\peripheral\ctb/cy_ctb.h ****     CY_CTB_OPAMP_COMPENSATION_CAP_MIN      = 1uL,       /**< Minimum compensation - for 1x drive*/
 658:Generated_Source\PSoC6\pdl\drivers\peripheral\ctb/cy_ctb.h ****     CY_CTB_OPAMP_COMPENSATION_CAP_MED      = 2uL,       /**< Medium compensation */
 659:Generated_Source\PSoC6\pdl\drivers\peripheral\ctb/cy_ctb.h ****     CY_CTB_OPAMP_COMPENSATION_CAP_MAX      = 3uL,       /**< Maximum compensation - for 10x drive *
 660:Generated_Source\PSoC6\pdl\drivers\peripheral\ctb/cy_ctb.h **** }cy_en_ctb_compensation_cap_t;
 661:Generated_Source\PSoC6\pdl\drivers\peripheral\ctb/cy_ctb.h **** 
 662:Generated_Source\PSoC6\pdl\drivers\peripheral\ctb/cy_ctb.h **** /** Enable or disable the gain booster.
 663:Generated_Source\PSoC6\pdl\drivers\peripheral\ctb/cy_ctb.h **** * The gain booster will be set by the driver based on the opamp drive strength (1x or 10x) selectio
 664:Generated_Source\PSoC6\pdl\drivers\peripheral\ctb/cy_ctb.h **** */
 665:Generated_Source\PSoC6\pdl\drivers\peripheral\ctb/cy_ctb.h **** typedef enum
 666:Generated_Source\PSoC6\pdl\drivers\peripheral\ctb/cy_ctb.h **** {
 667:Generated_Source\PSoC6\pdl\drivers\peripheral\ctb/cy_ctb.h ****     CY_CTB_OPAMP_BOOST_DISABLE = 0uL,                                   /**< Disable gain booster -
 668:Generated_Source\PSoC6\pdl\drivers\peripheral\ctb/cy_ctb.h ****     CY_CTB_OPAMP_BOOST_ENABLE  = CTBM_OA_RES0_CTRL_OA0_BOOST_EN_Msk,   /**< Enable gain booster - f
 669:Generated_Source\PSoC6\pdl\drivers\peripheral\ctb/cy_ctb.h **** }cy_en_ctb_boost_en_t;
 670:Generated_Source\PSoC6\pdl\drivers\peripheral\ctb/cy_ctb.h **** 
 671:Generated_Source\PSoC6\pdl\drivers\peripheral\ctb/cy_ctb.h **** /** Sample and hold modes for firmware sampling of the CTDAC output.
 672:Generated_Source\PSoC6\pdl\drivers\peripheral\ctb/cy_ctb.h **** *
 673:Generated_Source\PSoC6\pdl\drivers\peripheral\ctb/cy_ctb.h **** * To perform a sample or a hold, a preparation step must first be executed to
 674:Generated_Source\PSoC6\pdl\drivers\peripheral\ctb/cy_ctb.h **** * open the required switches.
 675:Generated_Source\PSoC6\pdl\drivers\peripheral\ctb/cy_ctb.h **** *
 676:Generated_Source\PSoC6\pdl\drivers\peripheral\ctb/cy_ctb.h **** * -# Call \ref Cy_CTB_DACSampleAndHold with \ref CY_CTB_SH_PREPARE_SAMPLE or \ref CY_CTB_SH_PREPARE
ARM GAS  C:\Users\JC\AppData\Local\Temp\cclZ7ZAh.s 			page 24


 677:Generated_Source\PSoC6\pdl\drivers\peripheral\ctb/cy_ctb.h **** * -# Enable or disable CTDAC output
 678:Generated_Source\PSoC6\pdl\drivers\peripheral\ctb/cy_ctb.h **** * -# Call \ref Cy_CTB_DACSampleAndHold with \ref CY_CTB_SH_SAMPLE or \ref CY_CTB_SH_HOLD
 679:Generated_Source\PSoC6\pdl\drivers\peripheral\ctb/cy_ctb.h **** */
 680:Generated_Source\PSoC6\pdl\drivers\peripheral\ctb/cy_ctb.h **** typedef enum
 681:Generated_Source\PSoC6\pdl\drivers\peripheral\ctb/cy_ctb.h **** {
 682:Generated_Source\PSoC6\pdl\drivers\peripheral\ctb/cy_ctb.h ****     CY_CTB_SH_DISABLE           = 0uL,   /**< The hold capacitor is not connected - this disables s
 683:Generated_Source\PSoC6\pdl\drivers\peripheral\ctb/cy_ctb.h ****     CY_CTB_SH_PREPARE_SAMPLE    = 1uL,   /**< Prepares the required switches for a following sample
 684:Generated_Source\PSoC6\pdl\drivers\peripheral\ctb/cy_ctb.h ****     CY_CTB_SH_SAMPLE            = 2uL,   /**< Performs a sample of the voltage */
 685:Generated_Source\PSoC6\pdl\drivers\peripheral\ctb/cy_ctb.h ****     CY_CTB_SH_PREPARE_HOLD      = 3uL,   /**< Prepares the required switches for a following hold *
 686:Generated_Source\PSoC6\pdl\drivers\peripheral\ctb/cy_ctb.h ****     CY_CTB_SH_HOLD              = 4uL,   /**< Performs a hold of the previously sampled voltage */
 687:Generated_Source\PSoC6\pdl\drivers\peripheral\ctb/cy_ctb.h **** }cy_en_ctb_sample_hold_mode_t;
 688:Generated_Source\PSoC6\pdl\drivers\peripheral\ctb/cy_ctb.h **** 
 689:Generated_Source\PSoC6\pdl\drivers\peripheral\ctb/cy_ctb.h **** /** AREF IPTAT bias current output for the CTB
 690:Generated_Source\PSoC6\pdl\drivers\peripheral\ctb/cy_ctb.h **** *
 691:Generated_Source\PSoC6\pdl\drivers\peripheral\ctb/cy_ctb.h **** * The CTB bias current can be 1 uA (normal) or 100 nA (low current).
 692:Generated_Source\PSoC6\pdl\drivers\peripheral\ctb/cy_ctb.h **** */
 693:Generated_Source\PSoC6\pdl\drivers\peripheral\ctb/cy_ctb.h **** typedef enum
 694:Generated_Source\PSoC6\pdl\drivers\peripheral\ctb/cy_ctb.h **** {
 695:Generated_Source\PSoC6\pdl\drivers\peripheral\ctb/cy_ctb.h ****     CY_CTB_IPTAT_NORMAL       = 0uL,                                               /**< 1 uA bias c
 696:Generated_Source\PSoC6\pdl\drivers\peripheral\ctb/cy_ctb.h ****     CY_CTB_IPTAT_LOW          = 1uL << PASS_AREF_AREF_CTRL_CTB_IPTAT_SCALE_Pos,    /**< 100 nA bias
 697:Generated_Source\PSoC6\pdl\drivers\peripheral\ctb/cy_ctb.h **** }cy_en_ctb_iptat_t;
 698:Generated_Source\PSoC6\pdl\drivers\peripheral\ctb/cy_ctb.h **** 
 699:Generated_Source\PSoC6\pdl\drivers\peripheral\ctb/cy_ctb.h **** /** CTB charge pump clock sources
 700:Generated_Source\PSoC6\pdl\drivers\peripheral\ctb/cy_ctb.h **** *
 701:Generated_Source\PSoC6\pdl\drivers\peripheral\ctb/cy_ctb.h **** * The CTB pump clock can come from:
 702:Generated_Source\PSoC6\pdl\drivers\peripheral\ctb/cy_ctb.h **** *   - a dedicated divider clock in the SRSS
 703:Generated_Source\PSoC6\pdl\drivers\peripheral\ctb/cy_ctb.h **** *   - one of the CLK_PERI dividers
 704:Generated_Source\PSoC6\pdl\drivers\peripheral\ctb/cy_ctb.h **** */
 705:Generated_Source\PSoC6\pdl\drivers\peripheral\ctb/cy_ctb.h **** typedef enum
 706:Generated_Source\PSoC6\pdl\drivers\peripheral\ctb/cy_ctb.h **** {
 707:Generated_Source\PSoC6\pdl\drivers\peripheral\ctb/cy_ctb.h ****     CY_CTB_CLK_PUMP_SRSS       = 0uL,                                                   /**< Use th
 708:Generated_Source\PSoC6\pdl\drivers\peripheral\ctb/cy_ctb.h ****     CY_CTB_CLK_PUMP_PERI       = 1uL << PASS_AREF_AREF_CTRL_CLOCK_PUMP_PERI_SEL_Pos,    /**< Use on
 709:Generated_Source\PSoC6\pdl\drivers\peripheral\ctb/cy_ctb.h **** }cy_en_ctb_clk_pump_source_t;
 710:Generated_Source\PSoC6\pdl\drivers\peripheral\ctb/cy_ctb.h **** 
 711:Generated_Source\PSoC6\pdl\drivers\peripheral\ctb/cy_ctb.h **** /** High level opamp current modes */
 712:Generated_Source\PSoC6\pdl\drivers\peripheral\ctb/cy_ctb.h **** typedef enum
 713:Generated_Source\PSoC6\pdl\drivers\peripheral\ctb/cy_ctb.h **** {
 714:Generated_Source\PSoC6\pdl\drivers\peripheral\ctb/cy_ctb.h ****     CY_CTB_CURRENT_HIGH_ACTIVE             = 0uL,    /**< Uses 1 uA reference current with charge p
 715:Generated_Source\PSoC6\pdl\drivers\peripheral\ctb/cy_ctb.h ****     CY_CTB_CURRENT_HIGH_ACTIVE_DEEPSLEEP   = 1uL,    /**< Uses 1 uA reference current with charge p
 716:Generated_Source\PSoC6\pdl\drivers\peripheral\ctb/cy_ctb.h ****     CY_CTB_CURRENT_LOW_ACTIVE_DEEPSLEEP    = 2uL,    /**< Uses 100 nA reference current with charge
 717:Generated_Source\PSoC6\pdl\drivers\peripheral\ctb/cy_ctb.h **** }cy_en_ctb_current_mode_t;
 718:Generated_Source\PSoC6\pdl\drivers\peripheral\ctb/cy_ctb.h **** 
 719:Generated_Source\PSoC6\pdl\drivers\peripheral\ctb/cy_ctb.h **** /** Return states for \ref Cy_CTB_Init, \ref Cy_CTB_OpampInit, \ref Cy_CTB_DeInit, and \ref Cy_CTB_
 720:Generated_Source\PSoC6\pdl\drivers\peripheral\ctb/cy_ctb.h **** typedef enum {
 721:Generated_Source\PSoC6\pdl\drivers\peripheral\ctb/cy_ctb.h ****     CY_CTB_SUCCESS    = 0x00uL,                                      /**< Initialization completed 
 722:Generated_Source\PSoC6\pdl\drivers\peripheral\ctb/cy_ctb.h ****     CY_CTB_BAD_PARAM  = CY_CTB_ID | CY_PDL_STATUS_ERROR | 0x01uL,    /**< Input pointers were NULL 
 723:Generated_Source\PSoC6\pdl\drivers\peripheral\ctb/cy_ctb.h **** }cy_en_ctb_status_t;
 724:Generated_Source\PSoC6\pdl\drivers\peripheral\ctb/cy_ctb.h **** 
 725:Generated_Source\PSoC6\pdl\drivers\peripheral\ctb/cy_ctb.h **** /** \} group_ctb_enums */
 726:Generated_Source\PSoC6\pdl\drivers\peripheral\ctb/cy_ctb.h **** 
 727:Generated_Source\PSoC6\pdl\drivers\peripheral\ctb/cy_ctb.h **** /***************************************
 728:Generated_Source\PSoC6\pdl\drivers\peripheral\ctb/cy_ctb.h **** *       Configuration Structures
 729:Generated_Source\PSoC6\pdl\drivers\peripheral\ctb/cy_ctb.h **** ***************************************/
 730:Generated_Source\PSoC6\pdl\drivers\peripheral\ctb/cy_ctb.h **** 
 731:Generated_Source\PSoC6\pdl\drivers\peripheral\ctb/cy_ctb.h **** /**
 732:Generated_Source\PSoC6\pdl\drivers\peripheral\ctb/cy_ctb.h **** * \addtogroup group_ctb_data_structures
 733:Generated_Source\PSoC6\pdl\drivers\peripheral\ctb/cy_ctb.h **** * \{
ARM GAS  C:\Users\JC\AppData\Local\Temp\cclZ7ZAh.s 			page 25


 734:Generated_Source\PSoC6\pdl\drivers\peripheral\ctb/cy_ctb.h **** */
 735:Generated_Source\PSoC6\pdl\drivers\peripheral\ctb/cy_ctb.h **** 
 736:Generated_Source\PSoC6\pdl\drivers\peripheral\ctb/cy_ctb.h **** /**
 737:Generated_Source\PSoC6\pdl\drivers\peripheral\ctb/cy_ctb.h **** * Configuration structure to set up the entire CTB to be used with \ref Cy_CTB_Init.
 738:Generated_Source\PSoC6\pdl\drivers\peripheral\ctb/cy_ctb.h **** */
 739:Generated_Source\PSoC6\pdl\drivers\peripheral\ctb/cy_ctb.h **** typedef struct {
 740:Generated_Source\PSoC6\pdl\drivers\peripheral\ctb/cy_ctb.h ****     cy_en_ctb_deep_sleep_t      deepSleep;      /**< Enable or disable the CTB during Deep Sleep */
 741:Generated_Source\PSoC6\pdl\drivers\peripheral\ctb/cy_ctb.h **** 
 742:Generated_Source\PSoC6\pdl\drivers\peripheral\ctb/cy_ctb.h ****     /* Opamp0 configuration */
 743:Generated_Source\PSoC6\pdl\drivers\peripheral\ctb/cy_ctb.h ****     cy_en_ctb_power_t           oa0Power;       /**< Opamp0 power mode: off, low, medium, or high *
 744:Generated_Source\PSoC6\pdl\drivers\peripheral\ctb/cy_ctb.h ****     cy_en_ctb_mode_t            oa0Mode;        /**< Opamp0 usage mode: 1x drive, 10x drive, or as 
 745:Generated_Source\PSoC6\pdl\drivers\peripheral\ctb/cy_ctb.h ****     cy_en_ctb_pump_t            oa0Pump;        /**< Opamp0 charge pump: enable to increase input r
 746:Generated_Source\PSoC6\pdl\drivers\peripheral\ctb/cy_ctb.h ****     cy_en_ctb_comp_edge_t       oa0CompEdge;    /**< Opamp0 comparator edge detection: disable, ris
 747:Generated_Source\PSoC6\pdl\drivers\peripheral\ctb/cy_ctb.h ****     cy_en_ctb_comp_level_t      oa0CompLevel;   /**< Opamp0 comparator DSI (trigger) output: pulse 
 748:Generated_Source\PSoC6\pdl\drivers\peripheral\ctb/cy_ctb.h ****     cy_en_ctb_comp_bypass_t     oa0CompBypass;  /**< Opamp0 comparator DSI (trigger) output synchro
 749:Generated_Source\PSoC6\pdl\drivers\peripheral\ctb/cy_ctb.h ****     cy_en_ctb_comp_hyst_t       oa0CompHyst;    /**< Opamp0 comparator hysteresis: enable for 10 mV
 750:Generated_Source\PSoC6\pdl\drivers\peripheral\ctb/cy_ctb.h ****     bool                        oa0CompIntrEn;  /**< Opamp0 comparator interrupt enable */
 751:Generated_Source\PSoC6\pdl\drivers\peripheral\ctb/cy_ctb.h **** 
 752:Generated_Source\PSoC6\pdl\drivers\peripheral\ctb/cy_ctb.h ****     /* Opamp1 configuration */
 753:Generated_Source\PSoC6\pdl\drivers\peripheral\ctb/cy_ctb.h ****     cy_en_ctb_power_t           oa1Power;       /**< Opamp1 power mode: off, low, medium, or high *
 754:Generated_Source\PSoC6\pdl\drivers\peripheral\ctb/cy_ctb.h ****     cy_en_ctb_mode_t            oa1Mode;        /**< Opamp1 usage mode: 1x drive, 10x drive, or as 
 755:Generated_Source\PSoC6\pdl\drivers\peripheral\ctb/cy_ctb.h ****     cy_en_ctb_pump_t            oa1Pump;        /**< Opamp1 charge pump: enable to increase input r
 756:Generated_Source\PSoC6\pdl\drivers\peripheral\ctb/cy_ctb.h ****     cy_en_ctb_comp_edge_t       oa1CompEdge;    /**< Opamp1 comparator edge detection: disable, ris
 757:Generated_Source\PSoC6\pdl\drivers\peripheral\ctb/cy_ctb.h ****     cy_en_ctb_comp_level_t      oa1CompLevel;   /**< Opamp1 comparator DSI (trigger) output: pulse 
 758:Generated_Source\PSoC6\pdl\drivers\peripheral\ctb/cy_ctb.h ****     cy_en_ctb_comp_bypass_t     oa1CompBypass;  /**< Opamp1 comparator DSI (trigger) output synchro
 759:Generated_Source\PSoC6\pdl\drivers\peripheral\ctb/cy_ctb.h ****     cy_en_ctb_comp_hyst_t       oa1CompHyst;    /**< Opamp1 comparator hysteresis: enable for 10 mV
 760:Generated_Source\PSoC6\pdl\drivers\peripheral\ctb/cy_ctb.h ****     bool                        oa1CompIntrEn;  /**< Opamp1 comparator interrupt enable */
 761:Generated_Source\PSoC6\pdl\drivers\peripheral\ctb/cy_ctb.h **** 
 762:Generated_Source\PSoC6\pdl\drivers\peripheral\ctb/cy_ctb.h ****     /* Switch analog routing configuration */
 763:Generated_Source\PSoC6\pdl\drivers\peripheral\ctb/cy_ctb.h ****     bool                        configRouting;  /**< Configure or ignore routing related registers 
 764:Generated_Source\PSoC6\pdl\drivers\peripheral\ctb/cy_ctb.h ****     uint32_t                    oa0SwitchCtrl;  /**< Opamp0 routing control */
 765:Generated_Source\PSoC6\pdl\drivers\peripheral\ctb/cy_ctb.h ****     uint32_t                    oa1SwitchCtrl;  /**< Opamp1 routing control */
 766:Generated_Source\PSoC6\pdl\drivers\peripheral\ctb/cy_ctb.h ****     uint32_t                    ctdSwitchCtrl;  /**< Routing control between the CTDAC and CTB bloc
 767:Generated_Source\PSoC6\pdl\drivers\peripheral\ctb/cy_ctb.h **** }cy_stc_ctb_config_t;
 768:Generated_Source\PSoC6\pdl\drivers\peripheral\ctb/cy_ctb.h **** 
 769:Generated_Source\PSoC6\pdl\drivers\peripheral\ctb/cy_ctb.h **** /**
 770:Generated_Source\PSoC6\pdl\drivers\peripheral\ctb/cy_ctb.h **** * This configuration structure is used to initialize only one opamp of the CTB
 771:Generated_Source\PSoC6\pdl\drivers\peripheral\ctb/cy_ctb.h **** * without impacting analog routing. This structure is used with \ref Cy_CTB_OpampInit.
 772:Generated_Source\PSoC6\pdl\drivers\peripheral\ctb/cy_ctb.h **** */
 773:Generated_Source\PSoC6\pdl\drivers\peripheral\ctb/cy_ctb.h **** typedef struct {
 774:Generated_Source\PSoC6\pdl\drivers\peripheral\ctb/cy_ctb.h ****     cy_en_ctb_deep_sleep_t      deepSleep;      /**< Enable or disable the CTB during Deep Sleep */
 775:Generated_Source\PSoC6\pdl\drivers\peripheral\ctb/cy_ctb.h **** 
 776:Generated_Source\PSoC6\pdl\drivers\peripheral\ctb/cy_ctb.h ****     /* Opamp configuration */
 777:Generated_Source\PSoC6\pdl\drivers\peripheral\ctb/cy_ctb.h ****     cy_en_ctb_power_t           oaPower;        /**< Opamp power mode: off, low, medium, or high */
 778:Generated_Source\PSoC6\pdl\drivers\peripheral\ctb/cy_ctb.h ****     cy_en_ctb_mode_t            oaMode;         /**< Opamp usage mode: 1x drive, 10x drive, or as a
 779:Generated_Source\PSoC6\pdl\drivers\peripheral\ctb/cy_ctb.h ****     cy_en_ctb_pump_t            oaPump;         /**< Opamp charge pump: enable to increase input ra
 780:Generated_Source\PSoC6\pdl\drivers\peripheral\ctb/cy_ctb.h ****     cy_en_ctb_comp_edge_t       oaCompEdge;     /**< Opamp comparator edge detection: disable, risi
 781:Generated_Source\PSoC6\pdl\drivers\peripheral\ctb/cy_ctb.h ****     cy_en_ctb_comp_level_t      oaCompLevel;    /**< Opamp comparator DSI (trigger) output: pulse o
 782:Generated_Source\PSoC6\pdl\drivers\peripheral\ctb/cy_ctb.h ****     cy_en_ctb_comp_bypass_t     oaCompBypass;   /**< Opamp comparator DSI (trigger) output synchron
 783:Generated_Source\PSoC6\pdl\drivers\peripheral\ctb/cy_ctb.h ****     cy_en_ctb_comp_hyst_t       oaCompHyst;     /**< Opamp comparator hysteresis: enable for 10 mV 
 784:Generated_Source\PSoC6\pdl\drivers\peripheral\ctb/cy_ctb.h ****     bool                        oaCompIntrEn;   /**< Opamp comparator interrupt enable */
 785:Generated_Source\PSoC6\pdl\drivers\peripheral\ctb/cy_ctb.h **** }cy_stc_ctb_opamp_config_t;
 786:Generated_Source\PSoC6\pdl\drivers\peripheral\ctb/cy_ctb.h **** 
 787:Generated_Source\PSoC6\pdl\drivers\peripheral\ctb/cy_ctb.h **** /** This configuration structure is used to quickly initialize Opamp0 for the most commonly used co
 788:Generated_Source\PSoC6\pdl\drivers\peripheral\ctb/cy_ctb.h **** *
 789:Generated_Source\PSoC6\pdl\drivers\peripheral\ctb/cy_ctb.h **** * Other configuration options are set to:
 790:Generated_Source\PSoC6\pdl\drivers\peripheral\ctb/cy_ctb.h **** *   - .oa0Pump       = \ref CY_CTB_PUMP_ENABLE
ARM GAS  C:\Users\JC\AppData\Local\Temp\cclZ7ZAh.s 			page 26


 791:Generated_Source\PSoC6\pdl\drivers\peripheral\ctb/cy_ctb.h **** *   - .oa0CompEdge   = \ref CY_CTB_COMP_EDGE_BOTH
 792:Generated_Source\PSoC6\pdl\drivers\peripheral\ctb/cy_ctb.h **** *   - .oa0CompLevel  = \ref CY_CTB_COMP_DSI_TRIGGER_OUT_LEVEL
 793:Generated_Source\PSoC6\pdl\drivers\peripheral\ctb/cy_ctb.h **** *   - .oa0CompBypass = \ref CY_CTB_COMP_BYPASS_SYNC
 794:Generated_Source\PSoC6\pdl\drivers\peripheral\ctb/cy_ctb.h **** *   - .oa0CompHyst   = \ref CY_CTB_COMP_HYST_10MV
 795:Generated_Source\PSoC6\pdl\drivers\peripheral\ctb/cy_ctb.h **** *   - .oa0CompIntrEn = true
 796:Generated_Source\PSoC6\pdl\drivers\peripheral\ctb/cy_ctb.h **** */
 797:Generated_Source\PSoC6\pdl\drivers\peripheral\ctb/cy_ctb.h **** typedef struct
 798:Generated_Source\PSoC6\pdl\drivers\peripheral\ctb/cy_ctb.h **** {
 799:Generated_Source\PSoC6\pdl\drivers\peripheral\ctb/cy_ctb.h ****     cy_en_ctb_power_t   oa0Power;       /**< Opamp0 power mode: off, low, medium, or high */
 800:Generated_Source\PSoC6\pdl\drivers\peripheral\ctb/cy_ctb.h ****     cy_en_ctb_mode_t    oa0Mode;        /**< Opamp0 usage mode: 1x drive, 10x drive, or as a compar
 801:Generated_Source\PSoC6\pdl\drivers\peripheral\ctb/cy_ctb.h ****     uint32_t            oa0SwitchCtrl;  /**< Opamp0 routing control */
 802:Generated_Source\PSoC6\pdl\drivers\peripheral\ctb/cy_ctb.h ****     uint32_t            ctdSwitchCtrl;  /**< Routing control between the CTDAC and CTB blocks */
 803:Generated_Source\PSoC6\pdl\drivers\peripheral\ctb/cy_ctb.h **** }cy_stc_ctb_fast_config_oa0_t;
 804:Generated_Source\PSoC6\pdl\drivers\peripheral\ctb/cy_ctb.h **** 
 805:Generated_Source\PSoC6\pdl\drivers\peripheral\ctb/cy_ctb.h **** /** This configuration structure is used to quickly initialize Opamp1 for the most commonly used co
 806:Generated_Source\PSoC6\pdl\drivers\peripheral\ctb/cy_ctb.h **** *
 807:Generated_Source\PSoC6\pdl\drivers\peripheral\ctb/cy_ctb.h **** * Other configuration options are set to:
 808:Generated_Source\PSoC6\pdl\drivers\peripheral\ctb/cy_ctb.h **** *   - .oa1Pump       = \ref CY_CTB_PUMP_ENABLE
 809:Generated_Source\PSoC6\pdl\drivers\peripheral\ctb/cy_ctb.h **** *   - .oa1CompEdge   = \ref CY_CTB_COMP_EDGE_BOTH
 810:Generated_Source\PSoC6\pdl\drivers\peripheral\ctb/cy_ctb.h **** *   - .oa1CompLevel  = \ref CY_CTB_COMP_DSI_TRIGGER_OUT_LEVEL
 811:Generated_Source\PSoC6\pdl\drivers\peripheral\ctb/cy_ctb.h **** *   - .oa1CompBypass = \ref CY_CTB_COMP_BYPASS_SYNC
 812:Generated_Source\PSoC6\pdl\drivers\peripheral\ctb/cy_ctb.h **** *   - .oa1CompHyst   = \ref CY_CTB_COMP_HYST_10MV
 813:Generated_Source\PSoC6\pdl\drivers\peripheral\ctb/cy_ctb.h **** *   - .oa1CompIntrEn = true
 814:Generated_Source\PSoC6\pdl\drivers\peripheral\ctb/cy_ctb.h **** */
 815:Generated_Source\PSoC6\pdl\drivers\peripheral\ctb/cy_ctb.h **** typedef struct
 816:Generated_Source\PSoC6\pdl\drivers\peripheral\ctb/cy_ctb.h **** {
 817:Generated_Source\PSoC6\pdl\drivers\peripheral\ctb/cy_ctb.h ****     cy_en_ctb_power_t   oa1Power;       /**< Opamp1 power mode: off, low, medium, or high */
 818:Generated_Source\PSoC6\pdl\drivers\peripheral\ctb/cy_ctb.h ****     cy_en_ctb_mode_t    oa1Mode;        /**< Opamp1 usage mode: 1x drive, 10x drive, or as a compar
 819:Generated_Source\PSoC6\pdl\drivers\peripheral\ctb/cy_ctb.h ****     uint32_t            oa1SwitchCtrl;  /**< Opamp1 routing control */
 820:Generated_Source\PSoC6\pdl\drivers\peripheral\ctb/cy_ctb.h ****     uint32_t            ctdSwitchCtrl;  /**< Routing control between the CTDAC and CTB blocks */
 821:Generated_Source\PSoC6\pdl\drivers\peripheral\ctb/cy_ctb.h **** }cy_stc_ctb_fast_config_oa1_t;
 822:Generated_Source\PSoC6\pdl\drivers\peripheral\ctb/cy_ctb.h **** 
 823:Generated_Source\PSoC6\pdl\drivers\peripheral\ctb/cy_ctb.h **** /** \} group_ctb_data_structures */
 824:Generated_Source\PSoC6\pdl\drivers\peripheral\ctb/cy_ctb.h **** 
 825:Generated_Source\PSoC6\pdl\drivers\peripheral\ctb/cy_ctb.h **** 
 826:Generated_Source\PSoC6\pdl\drivers\peripheral\ctb/cy_ctb.h **** /** \addtogroup group_ctb_globals
 827:Generated_Source\PSoC6\pdl\drivers\peripheral\ctb/cy_ctb.h **** * \{
 828:Generated_Source\PSoC6\pdl\drivers\peripheral\ctb/cy_ctb.h **** */
 829:Generated_Source\PSoC6\pdl\drivers\peripheral\ctb/cy_ctb.h **** /***************************************
 830:Generated_Source\PSoC6\pdl\drivers\peripheral\ctb/cy_ctb.h **** *        Global Variables
 831:Generated_Source\PSoC6\pdl\drivers\peripheral\ctb/cy_ctb.h **** ***************************************/
 832:Generated_Source\PSoC6\pdl\drivers\peripheral\ctb/cy_ctb.h **** 
 833:Generated_Source\PSoC6\pdl\drivers\peripheral\ctb/cy_ctb.h **** /** Configure Opamp0 as unused - powered down. See \ref Cy_CTB_FastInit. */
 834:Generated_Source\PSoC6\pdl\drivers\peripheral\ctb/cy_ctb.h **** extern const cy_stc_ctb_fast_config_oa0_t Cy_CTB_Fast_Opamp0_Unused;
 835:Generated_Source\PSoC6\pdl\drivers\peripheral\ctb/cy_ctb.h **** 
 836:Generated_Source\PSoC6\pdl\drivers\peripheral\ctb/cy_ctb.h **** /** Configure Opamp0 as a comparator. No routing is configured.
 837:Generated_Source\PSoC6\pdl\drivers\peripheral\ctb/cy_ctb.h **** *
 838:Generated_Source\PSoC6\pdl\drivers\peripheral\ctb/cy_ctb.h **** * \image html ctb_fast_config_comp.png
 839:Generated_Source\PSoC6\pdl\drivers\peripheral\ctb/cy_ctb.h **** * \image latex ctb_fast_config_comp.png width=100px
 840:Generated_Source\PSoC6\pdl\drivers\peripheral\ctb/cy_ctb.h **** *
 841:Generated_Source\PSoC6\pdl\drivers\peripheral\ctb/cy_ctb.h **** * See \ref Cy_CTB_FastInit.
 842:Generated_Source\PSoC6\pdl\drivers\peripheral\ctb/cy_ctb.h **** */
 843:Generated_Source\PSoC6\pdl\drivers\peripheral\ctb/cy_ctb.h **** extern const cy_stc_ctb_fast_config_oa0_t Cy_CTB_Fast_Opamp0_Comp;
 844:Generated_Source\PSoC6\pdl\drivers\peripheral\ctb/cy_ctb.h **** 
 845:Generated_Source\PSoC6\pdl\drivers\peripheral\ctb/cy_ctb.h **** /** Configure Opamp0 as an opamp with 1x drive. No routing is configured.
 846:Generated_Source\PSoC6\pdl\drivers\peripheral\ctb/cy_ctb.h **** *
 847:Generated_Source\PSoC6\pdl\drivers\peripheral\ctb/cy_ctb.h **** * \image html ctb_fast_config_opamp1x.png
ARM GAS  C:\Users\JC\AppData\Local\Temp\cclZ7ZAh.s 			page 27


 848:Generated_Source\PSoC6\pdl\drivers\peripheral\ctb/cy_ctb.h **** * \image latex ctb_fast_config_opamp1x.png width=100px
 849:Generated_Source\PSoC6\pdl\drivers\peripheral\ctb/cy_ctb.h **** *
 850:Generated_Source\PSoC6\pdl\drivers\peripheral\ctb/cy_ctb.h **** * See \ref Cy_CTB_FastInit.
 851:Generated_Source\PSoC6\pdl\drivers\peripheral\ctb/cy_ctb.h **** */
 852:Generated_Source\PSoC6\pdl\drivers\peripheral\ctb/cy_ctb.h **** extern const cy_stc_ctb_fast_config_oa0_t Cy_CTB_Fast_Opamp0_Opamp1x;
 853:Generated_Source\PSoC6\pdl\drivers\peripheral\ctb/cy_ctb.h **** 
 854:Generated_Source\PSoC6\pdl\drivers\peripheral\ctb/cy_ctb.h **** /** Configure Opamp0 as an opamp with 10x drive. No routing is configured.
 855:Generated_Source\PSoC6\pdl\drivers\peripheral\ctb/cy_ctb.h **** *
 856:Generated_Source\PSoC6\pdl\drivers\peripheral\ctb/cy_ctb.h **** * \image html ctb_fast_config_opamp10x.png
 857:Generated_Source\PSoC6\pdl\drivers\peripheral\ctb/cy_ctb.h **** * \image latex ctb_fast_config_opamp10x.png width=100px
 858:Generated_Source\PSoC6\pdl\drivers\peripheral\ctb/cy_ctb.h **** *
 859:Generated_Source\PSoC6\pdl\drivers\peripheral\ctb/cy_ctb.h **** * See \ref Cy_CTB_FastInit.
 860:Generated_Source\PSoC6\pdl\drivers\peripheral\ctb/cy_ctb.h **** */
 861:Generated_Source\PSoC6\pdl\drivers\peripheral\ctb/cy_ctb.h **** extern const cy_stc_ctb_fast_config_oa0_t Cy_CTB_Fast_Opamp0_Opamp10x;
 862:Generated_Source\PSoC6\pdl\drivers\peripheral\ctb/cy_ctb.h **** 
 863:Generated_Source\PSoC6\pdl\drivers\peripheral\ctb/cy_ctb.h **** /** Configure Opamp0 as one stage of a differential amplifier.
 864:Generated_Source\PSoC6\pdl\drivers\peripheral\ctb/cy_ctb.h **** * The opamp is in 10x drive and the switches shown are closed.
 865:Generated_Source\PSoC6\pdl\drivers\peripheral\ctb/cy_ctb.h **** *
 866:Generated_Source\PSoC6\pdl\drivers\peripheral\ctb/cy_ctb.h **** * \image html ctb_fast_config_oa0_diffamp.png
 867:Generated_Source\PSoC6\pdl\drivers\peripheral\ctb/cy_ctb.h **** * \image latex ctb_fast_config_oa0_diffamp.png width=100px
 868:Generated_Source\PSoC6\pdl\drivers\peripheral\ctb/cy_ctb.h **** *
 869:Generated_Source\PSoC6\pdl\drivers\peripheral\ctb/cy_ctb.h **** * See the device datasheet for the dedicated CTB port.
 870:Generated_Source\PSoC6\pdl\drivers\peripheral\ctb/cy_ctb.h **** *
 871:Generated_Source\PSoC6\pdl\drivers\peripheral\ctb/cy_ctb.h **** * To be used with \ref Cy_CTB_FastInit and \ref Cy_CTB_Fast_Opamp1_Diffamp.
 872:Generated_Source\PSoC6\pdl\drivers\peripheral\ctb/cy_ctb.h **** */
 873:Generated_Source\PSoC6\pdl\drivers\peripheral\ctb/cy_ctb.h **** extern const cy_stc_ctb_fast_config_oa0_t Cy_CTB_Fast_Opamp0_Diffamp;
 874:Generated_Source\PSoC6\pdl\drivers\peripheral\ctb/cy_ctb.h **** 
 875:Generated_Source\PSoC6\pdl\drivers\peripheral\ctb/cy_ctb.h **** /** Configure Opamp0 as a buffer for the CTDAC output.
 876:Generated_Source\PSoC6\pdl\drivers\peripheral\ctb/cy_ctb.h **** * The buffer is in 10x drive and the switches shown are closed.
 877:Generated_Source\PSoC6\pdl\drivers\peripheral\ctb/cy_ctb.h **** * Configure the CTDAC for output buffer mode by calling \ref Cy_CTDAC_FastInit
 878:Generated_Source\PSoC6\pdl\drivers\peripheral\ctb/cy_ctb.h **** * with \ref Cy_CTDAC_Fast_VddaRef_BufferedOut or \ref Cy_CTDAC_Fast_OA1Ref_BufferedOut.
 879:Generated_Source\PSoC6\pdl\drivers\peripheral\ctb/cy_ctb.h **** *
 880:Generated_Source\PSoC6\pdl\drivers\peripheral\ctb/cy_ctb.h **** * \image html ctb_fast_config_vdac_output.png
 881:Generated_Source\PSoC6\pdl\drivers\peripheral\ctb/cy_ctb.h **** * \image latex ctb_fast_config_vdac_output.png
 882:Generated_Source\PSoC6\pdl\drivers\peripheral\ctb/cy_ctb.h **** *
 883:Generated_Source\PSoC6\pdl\drivers\peripheral\ctb/cy_ctb.h **** * See the device datasheet for the dedicated CTB port.
 884:Generated_Source\PSoC6\pdl\drivers\peripheral\ctb/cy_ctb.h **** *
 885:Generated_Source\PSoC6\pdl\drivers\peripheral\ctb/cy_ctb.h **** * See \ref Cy_CTB_FastInit.
 886:Generated_Source\PSoC6\pdl\drivers\peripheral\ctb/cy_ctb.h **** */
 887:Generated_Source\PSoC6\pdl\drivers\peripheral\ctb/cy_ctb.h **** extern const cy_stc_ctb_fast_config_oa0_t Cy_CTB_Fast_Opamp0_Vdac_Out;
 888:Generated_Source\PSoC6\pdl\drivers\peripheral\ctb/cy_ctb.h **** 
 889:Generated_Source\PSoC6\pdl\drivers\peripheral\ctb/cy_ctb.h **** /** Configure Opamp0 as a buffer for the CTDAC output with the sample and hold capacitor connected.
 890:Generated_Source\PSoC6\pdl\drivers\peripheral\ctb/cy_ctb.h **** * The buffer is in 10x drive and the switches shown are closed.
 891:Generated_Source\PSoC6\pdl\drivers\peripheral\ctb/cy_ctb.h **** * Configure the CTDAC for output buffer mode by calling \ref Cy_CTDAC_FastInit
 892:Generated_Source\PSoC6\pdl\drivers\peripheral\ctb/cy_ctb.h **** * with \ref Cy_CTDAC_Fast_VddaRef_BufferedOut or \ref Cy_CTDAC_Fast_OA1Ref_BufferedOut.
 893:Generated_Source\PSoC6\pdl\drivers\peripheral\ctb/cy_ctb.h **** 
 894:Generated_Source\PSoC6\pdl\drivers\peripheral\ctb/cy_ctb.h **** * \image html ctb_fast_config_vdac_sh.png
 895:Generated_Source\PSoC6\pdl\drivers\peripheral\ctb/cy_ctb.h **** * \image latex ctb_fast_config_vdac_sh.png
 896:Generated_Source\PSoC6\pdl\drivers\peripheral\ctb/cy_ctb.h **** *
 897:Generated_Source\PSoC6\pdl\drivers\peripheral\ctb/cy_ctb.h **** * See the device datasheet for the dedicated CTB port.
 898:Generated_Source\PSoC6\pdl\drivers\peripheral\ctb/cy_ctb.h **** *
 899:Generated_Source\PSoC6\pdl\drivers\peripheral\ctb/cy_ctb.h **** * See \ref Cy_CTB_FastInit.
 900:Generated_Source\PSoC6\pdl\drivers\peripheral\ctb/cy_ctb.h **** */
 901:Generated_Source\PSoC6\pdl\drivers\peripheral\ctb/cy_ctb.h **** extern const cy_stc_ctb_fast_config_oa0_t Cy_CTB_Fast_Opamp0_Vdac_Out_SH;
 902:Generated_Source\PSoC6\pdl\drivers\peripheral\ctb/cy_ctb.h **** 
 903:Generated_Source\PSoC6\pdl\drivers\peripheral\ctb/cy_ctb.h **** /** Configure Opamp1 as unused - powered down. See \ref Cy_CTB_FastInit.*/
 904:Generated_Source\PSoC6\pdl\drivers\peripheral\ctb/cy_ctb.h **** extern const cy_stc_ctb_fast_config_oa1_t Cy_CTB_Fast_Opamp1_Unused;
ARM GAS  C:\Users\JC\AppData\Local\Temp\cclZ7ZAh.s 			page 28


 905:Generated_Source\PSoC6\pdl\drivers\peripheral\ctb/cy_ctb.h **** 
 906:Generated_Source\PSoC6\pdl\drivers\peripheral\ctb/cy_ctb.h **** /** Configure Opamp1 as a comparator. No routing is configured.
 907:Generated_Source\PSoC6\pdl\drivers\peripheral\ctb/cy_ctb.h **** *
 908:Generated_Source\PSoC6\pdl\drivers\peripheral\ctb/cy_ctb.h **** * \image html ctb_fast_config_comp.png
 909:Generated_Source\PSoC6\pdl\drivers\peripheral\ctb/cy_ctb.h **** * \image latex ctb_fast_config_comp.png width=100px
 910:Generated_Source\PSoC6\pdl\drivers\peripheral\ctb/cy_ctb.h **** *
 911:Generated_Source\PSoC6\pdl\drivers\peripheral\ctb/cy_ctb.h **** * See \ref Cy_CTB_FastInit.
 912:Generated_Source\PSoC6\pdl\drivers\peripheral\ctb/cy_ctb.h **** */
 913:Generated_Source\PSoC6\pdl\drivers\peripheral\ctb/cy_ctb.h **** extern const cy_stc_ctb_fast_config_oa1_t Cy_CTB_Fast_Opamp1_Comp;
 914:Generated_Source\PSoC6\pdl\drivers\peripheral\ctb/cy_ctb.h **** 
 915:Generated_Source\PSoC6\pdl\drivers\peripheral\ctb/cy_ctb.h **** /** Configure Opamp1 as an opamp with 1x drive. No routing is configured.
 916:Generated_Source\PSoC6\pdl\drivers\peripheral\ctb/cy_ctb.h **** *
 917:Generated_Source\PSoC6\pdl\drivers\peripheral\ctb/cy_ctb.h **** * \image html ctb_fast_config_opamp1x.png
 918:Generated_Source\PSoC6\pdl\drivers\peripheral\ctb/cy_ctb.h **** * \image latex ctb_fast_config_opamp1x.png width=100px
 919:Generated_Source\PSoC6\pdl\drivers\peripheral\ctb/cy_ctb.h **** *
 920:Generated_Source\PSoC6\pdl\drivers\peripheral\ctb/cy_ctb.h **** * See \ref Cy_CTB_FastInit.
 921:Generated_Source\PSoC6\pdl\drivers\peripheral\ctb/cy_ctb.h **** */
 922:Generated_Source\PSoC6\pdl\drivers\peripheral\ctb/cy_ctb.h **** extern const cy_stc_ctb_fast_config_oa1_t Cy_CTB_Fast_Opamp1_Opamp1x;
 923:Generated_Source\PSoC6\pdl\drivers\peripheral\ctb/cy_ctb.h **** 
 924:Generated_Source\PSoC6\pdl\drivers\peripheral\ctb/cy_ctb.h **** /** Configure Opamp1 as an opamp with 10x drive. No routing is configured.
 925:Generated_Source\PSoC6\pdl\drivers\peripheral\ctb/cy_ctb.h **** *
 926:Generated_Source\PSoC6\pdl\drivers\peripheral\ctb/cy_ctb.h **** * \image html ctb_fast_config_opamp10x.png
 927:Generated_Source\PSoC6\pdl\drivers\peripheral\ctb/cy_ctb.h **** * \image latex ctb_fast_config_opamp10x.png width=100px
 928:Generated_Source\PSoC6\pdl\drivers\peripheral\ctb/cy_ctb.h **** *
 929:Generated_Source\PSoC6\pdl\drivers\peripheral\ctb/cy_ctb.h **** * See \ref Cy_CTB_FastInit.
 930:Generated_Source\PSoC6\pdl\drivers\peripheral\ctb/cy_ctb.h **** */
 931:Generated_Source\PSoC6\pdl\drivers\peripheral\ctb/cy_ctb.h **** extern const cy_stc_ctb_fast_config_oa1_t Cy_CTB_Fast_Opamp1_Opamp10x;
 932:Generated_Source\PSoC6\pdl\drivers\peripheral\ctb/cy_ctb.h **** 
 933:Generated_Source\PSoC6\pdl\drivers\peripheral\ctb/cy_ctb.h **** /** Configure Opamp1 as one stage of a differential amplifier.
 934:Generated_Source\PSoC6\pdl\drivers\peripheral\ctb/cy_ctb.h **** * The opamp is in 10x drive and the switches shown are closed.
 935:Generated_Source\PSoC6\pdl\drivers\peripheral\ctb/cy_ctb.h **** *
 936:Generated_Source\PSoC6\pdl\drivers\peripheral\ctb/cy_ctb.h **** * \image html ctb_fast_config_oa1_diffamp.png
 937:Generated_Source\PSoC6\pdl\drivers\peripheral\ctb/cy_ctb.h **** * \image latex ctb_fast_config_oa1_diffamp.png width=100px
 938:Generated_Source\PSoC6\pdl\drivers\peripheral\ctb/cy_ctb.h **** *
 939:Generated_Source\PSoC6\pdl\drivers\peripheral\ctb/cy_ctb.h **** * See the device datasheet for the dedicated CTB port.
 940:Generated_Source\PSoC6\pdl\drivers\peripheral\ctb/cy_ctb.h **** *
 941:Generated_Source\PSoC6\pdl\drivers\peripheral\ctb/cy_ctb.h **** * To be used with \ref Cy_CTB_FastInit and \ref Cy_CTB_Fast_Opamp0_Diffamp.
 942:Generated_Source\PSoC6\pdl\drivers\peripheral\ctb/cy_ctb.h **** *
 943:Generated_Source\PSoC6\pdl\drivers\peripheral\ctb/cy_ctb.h **** */
 944:Generated_Source\PSoC6\pdl\drivers\peripheral\ctb/cy_ctb.h **** extern const cy_stc_ctb_fast_config_oa1_t Cy_CTB_Fast_Opamp1_Diffamp;
 945:Generated_Source\PSoC6\pdl\drivers\peripheral\ctb/cy_ctb.h **** 
 946:Generated_Source\PSoC6\pdl\drivers\peripheral\ctb/cy_ctb.h **** /** Configure Opamp1 as a buffer for the CTDAC reference. The reference comes from the
 947:Generated_Source\PSoC6\pdl\drivers\peripheral\ctb/cy_ctb.h **** * internal analog reference block (AREF).
 948:Generated_Source\PSoC6\pdl\drivers\peripheral\ctb/cy_ctb.h **** * The buffer is in 1x drive and the switches shown are closed.
 949:Generated_Source\PSoC6\pdl\drivers\peripheral\ctb/cy_ctb.h **** * Configure the CTDAC to use the buffered reference by calling \ref Cy_CTDAC_FastInit
 950:Generated_Source\PSoC6\pdl\drivers\peripheral\ctb/cy_ctb.h **** * with \ref Cy_CTDAC_Fast_OA1Ref_UnbufferedOut or \ref Cy_CTDAC_Fast_OA1Ref_BufferedOut.
 951:Generated_Source\PSoC6\pdl\drivers\peripheral\ctb/cy_ctb.h **** *
 952:Generated_Source\PSoC6\pdl\drivers\peripheral\ctb/cy_ctb.h **** * \image html ctb_fast_config_vdac_aref.png
 953:Generated_Source\PSoC6\pdl\drivers\peripheral\ctb/cy_ctb.h **** * \image latex ctb_fast_config_vdac_aref.png
 954:Generated_Source\PSoC6\pdl\drivers\peripheral\ctb/cy_ctb.h **** *
 955:Generated_Source\PSoC6\pdl\drivers\peripheral\ctb/cy_ctb.h **** * See \ref Cy_CTB_FastInit.
 956:Generated_Source\PSoC6\pdl\drivers\peripheral\ctb/cy_ctb.h **** *
 957:Generated_Source\PSoC6\pdl\drivers\peripheral\ctb/cy_ctb.h **** * Note the AREF block needs to be configured using a separate driver.
 958:Generated_Source\PSoC6\pdl\drivers\peripheral\ctb/cy_ctb.h **** */
 959:Generated_Source\PSoC6\pdl\drivers\peripheral\ctb/cy_ctb.h **** extern const cy_stc_ctb_fast_config_oa1_t Cy_CTB_Fast_Opamp1_Vdac_Ref_Aref;
 960:Generated_Source\PSoC6\pdl\drivers\peripheral\ctb/cy_ctb.h **** 
 961:Generated_Source\PSoC6\pdl\drivers\peripheral\ctb/cy_ctb.h **** /** Configure Opamp1 as a buffer for the CTDAC reference. The reference comes from Pin 5.
ARM GAS  C:\Users\JC\AppData\Local\Temp\cclZ7ZAh.s 			page 29


 962:Generated_Source\PSoC6\pdl\drivers\peripheral\ctb/cy_ctb.h **** * The buffer is in 1x drive and the switches shown are closed.
 963:Generated_Source\PSoC6\pdl\drivers\peripheral\ctb/cy_ctb.h **** * Configure the CTDAC to use the buffered reference by calling \ref Cy_CTDAC_FastInit
 964:Generated_Source\PSoC6\pdl\drivers\peripheral\ctb/cy_ctb.h **** * with \ref Cy_CTDAC_Fast_OA1Ref_UnbufferedOut or \ref Cy_CTDAC_Fast_OA1Ref_BufferedOut.
 965:Generated_Source\PSoC6\pdl\drivers\peripheral\ctb/cy_ctb.h **** *
 966:Generated_Source\PSoC6\pdl\drivers\peripheral\ctb/cy_ctb.h **** * \image html ctb_fast_config_vdac_pin5.png
 967:Generated_Source\PSoC6\pdl\drivers\peripheral\ctb/cy_ctb.h **** * \image latex ctb_fast_config_vdac_pin5.png
 968:Generated_Source\PSoC6\pdl\drivers\peripheral\ctb/cy_ctb.h **** *
 969:Generated_Source\PSoC6\pdl\drivers\peripheral\ctb/cy_ctb.h **** * See the device datasheet for the dedicated CTB port.
 970:Generated_Source\PSoC6\pdl\drivers\peripheral\ctb/cy_ctb.h **** *
 971:Generated_Source\PSoC6\pdl\drivers\peripheral\ctb/cy_ctb.h **** * See \ref Cy_CTB_FastInit.
 972:Generated_Source\PSoC6\pdl\drivers\peripheral\ctb/cy_ctb.h **** */
 973:Generated_Source\PSoC6\pdl\drivers\peripheral\ctb/cy_ctb.h **** extern const cy_stc_ctb_fast_config_oa1_t Cy_CTB_Fast_Opamp1_Vdac_Ref_Pin5;
 974:Generated_Source\PSoC6\pdl\drivers\peripheral\ctb/cy_ctb.h **** 
 975:Generated_Source\PSoC6\pdl\drivers\peripheral\ctb/cy_ctb.h **** /** \} group_ctb_globals */
 976:Generated_Source\PSoC6\pdl\drivers\peripheral\ctb/cy_ctb.h **** 
 977:Generated_Source\PSoC6\pdl\drivers\peripheral\ctb/cy_ctb.h **** /***************************************
 978:Generated_Source\PSoC6\pdl\drivers\peripheral\ctb/cy_ctb.h **** *        Function Prototypes
 979:Generated_Source\PSoC6\pdl\drivers\peripheral\ctb/cy_ctb.h **** ***************************************/
 980:Generated_Source\PSoC6\pdl\drivers\peripheral\ctb/cy_ctb.h **** 
 981:Generated_Source\PSoC6\pdl\drivers\peripheral\ctb/cy_ctb.h **** /**
 982:Generated_Source\PSoC6\pdl\drivers\peripheral\ctb/cy_ctb.h **** * \addtogroup group_ctb_functions
 983:Generated_Source\PSoC6\pdl\drivers\peripheral\ctb/cy_ctb.h **** * \{
 984:Generated_Source\PSoC6\pdl\drivers\peripheral\ctb/cy_ctb.h **** */
 985:Generated_Source\PSoC6\pdl\drivers\peripheral\ctb/cy_ctb.h **** 
 986:Generated_Source\PSoC6\pdl\drivers\peripheral\ctb/cy_ctb.h **** /**
 987:Generated_Source\PSoC6\pdl\drivers\peripheral\ctb/cy_ctb.h **** * \addtogroup group_ctb_functions_init
 988:Generated_Source\PSoC6\pdl\drivers\peripheral\ctb/cy_ctb.h **** * This set of functions are for initializing, enabling, and disabling the CTB.
 989:Generated_Source\PSoC6\pdl\drivers\peripheral\ctb/cy_ctb.h **** * \{
 990:Generated_Source\PSoC6\pdl\drivers\peripheral\ctb/cy_ctb.h **** */
 991:Generated_Source\PSoC6\pdl\drivers\peripheral\ctb/cy_ctb.h **** cy_en_ctb_status_t Cy_CTB_Init(CTBM_Type *base, const cy_stc_ctb_config_t *config);
 992:Generated_Source\PSoC6\pdl\drivers\peripheral\ctb/cy_ctb.h **** cy_en_ctb_status_t Cy_CTB_OpampInit(CTBM_Type *base, cy_en_ctb_opamp_sel_t opampNum, const cy_stc_c
 993:Generated_Source\PSoC6\pdl\drivers\peripheral\ctb/cy_ctb.h **** cy_en_ctb_status_t Cy_CTB_DeInit(CTBM_Type *base, bool deInitRouting);
 994:Generated_Source\PSoC6\pdl\drivers\peripheral\ctb/cy_ctb.h **** cy_en_ctb_status_t Cy_CTB_FastInit(CTBM_Type *base, const cy_stc_ctb_fast_config_oa0_t *config0, co
 995:Generated_Source\PSoC6\pdl\drivers\peripheral\ctb/cy_ctb.h **** __STATIC_INLINE void Cy_CTB_Enable(CTBM_Type *base);
 996:Generated_Source\PSoC6\pdl\drivers\peripheral\ctb/cy_ctb.h **** __STATIC_INLINE void Cy_CTB_Disable(CTBM_Type *base);
 997:Generated_Source\PSoC6\pdl\drivers\peripheral\ctb/cy_ctb.h **** /** \} */
 998:Generated_Source\PSoC6\pdl\drivers\peripheral\ctb/cy_ctb.h **** 
 999:Generated_Source\PSoC6\pdl\drivers\peripheral\ctb/cy_ctb.h **** /**
1000:Generated_Source\PSoC6\pdl\drivers\peripheral\ctb/cy_ctb.h **** * \addtogroup group_ctb_functions_basic
1001:Generated_Source\PSoC6\pdl\drivers\peripheral\ctb/cy_ctb.h **** * This set of functions are for configuring basic usage of the CTB.
1002:Generated_Source\PSoC6\pdl\drivers\peripheral\ctb/cy_ctb.h **** * \{
1003:Generated_Source\PSoC6\pdl\drivers\peripheral\ctb/cy_ctb.h **** */
1004:Generated_Source\PSoC6\pdl\drivers\peripheral\ctb/cy_ctb.h **** void Cy_CTB_SetDeepSleepMode(CTBM_Type *base, cy_en_ctb_deep_sleep_t deepSleep);
1005:Generated_Source\PSoC6\pdl\drivers\peripheral\ctb/cy_ctb.h **** void Cy_CTB_SetOutputMode(CTBM_Type *base, cy_en_ctb_opamp_sel_t opampNum, cy_en_ctb_mode_t mode);
1006:Generated_Source\PSoC6\pdl\drivers\peripheral\ctb/cy_ctb.h **** void Cy_CTB_SetPower(CTBM_Type *base, cy_en_ctb_opamp_sel_t opampNum, cy_en_ctb_power_t power, cy_e
1007:Generated_Source\PSoC6\pdl\drivers\peripheral\ctb/cy_ctb.h **** /** \} */
1008:Generated_Source\PSoC6\pdl\drivers\peripheral\ctb/cy_ctb.h **** 
1009:Generated_Source\PSoC6\pdl\drivers\peripheral\ctb/cy_ctb.h **** /**
1010:Generated_Source\PSoC6\pdl\drivers\peripheral\ctb/cy_ctb.h **** * \addtogroup group_ctb_functions_sample_hold
1011:Generated_Source\PSoC6\pdl\drivers\peripheral\ctb/cy_ctb.h **** * This function enables sample and hold of the CTDAC output.
1012:Generated_Source\PSoC6\pdl\drivers\peripheral\ctb/cy_ctb.h **** * \{
1013:Generated_Source\PSoC6\pdl\drivers\peripheral\ctb/cy_ctb.h **** */
1014:Generated_Source\PSoC6\pdl\drivers\peripheral\ctb/cy_ctb.h **** void Cy_CTB_DACSampleAndHold(CTBM_Type *base, cy_en_ctb_sample_hold_mode_t mode);
1015:Generated_Source\PSoC6\pdl\drivers\peripheral\ctb/cy_ctb.h **** /** \} */
1016:Generated_Source\PSoC6\pdl\drivers\peripheral\ctb/cy_ctb.h **** 
1017:Generated_Source\PSoC6\pdl\drivers\peripheral\ctb/cy_ctb.h **** /**
1018:Generated_Source\PSoC6\pdl\drivers\peripheral\ctb/cy_ctb.h **** * \addtogroup group_ctb_functions_comparator
ARM GAS  C:\Users\JC\AppData\Local\Temp\cclZ7ZAh.s 			page 30


1019:Generated_Source\PSoC6\pdl\drivers\peripheral\ctb/cy_ctb.h **** * This set of functions are specific to the comparator mode
1020:Generated_Source\PSoC6\pdl\drivers\peripheral\ctb/cy_ctb.h **** * \{
1021:Generated_Source\PSoC6\pdl\drivers\peripheral\ctb/cy_ctb.h **** */
1022:Generated_Source\PSoC6\pdl\drivers\peripheral\ctb/cy_ctb.h **** void Cy_CTB_CompSetConfig(CTBM_Type *base, cy_en_ctb_opamp_sel_t compNum, cy_en_ctb_comp_level_t le
1023:Generated_Source\PSoC6\pdl\drivers\peripheral\ctb/cy_ctb.h **** uint32_t Cy_CTB_CompGetConfig(const CTBM_Type *base, cy_en_ctb_opamp_sel_t compNum);
1024:Generated_Source\PSoC6\pdl\drivers\peripheral\ctb/cy_ctb.h **** void Cy_CTB_CompSetInterruptEdgeType(CTBM_Type *base, cy_en_ctb_opamp_sel_t compNum, cy_en_ctb_comp
1025:Generated_Source\PSoC6\pdl\drivers\peripheral\ctb/cy_ctb.h **** uint32_t Cy_CTB_CompGetStatus(const CTBM_Type *base, cy_en_ctb_opamp_sel_t compNum);
1026:Generated_Source\PSoC6\pdl\drivers\peripheral\ctb/cy_ctb.h **** /** \} */
1027:Generated_Source\PSoC6\pdl\drivers\peripheral\ctb/cy_ctb.h **** 
1028:Generated_Source\PSoC6\pdl\drivers\peripheral\ctb/cy_ctb.h **** /**
1029:Generated_Source\PSoC6\pdl\drivers\peripheral\ctb/cy_ctb.h **** * \addtogroup group_ctb_functions_trim
1030:Generated_Source\PSoC6\pdl\drivers\peripheral\ctb/cy_ctb.h **** * These are advanced functions for trimming the offset and slope of the opamps.
1031:Generated_Source\PSoC6\pdl\drivers\peripheral\ctb/cy_ctb.h **** * Most users do not need to call these functions and can use the factory trimmed values.
1032:Generated_Source\PSoC6\pdl\drivers\peripheral\ctb/cy_ctb.h **** * \{
1033:Generated_Source\PSoC6\pdl\drivers\peripheral\ctb/cy_ctb.h **** */
1034:Generated_Source\PSoC6\pdl\drivers\peripheral\ctb/cy_ctb.h **** void Cy_CTB_OpampSetOffset(CTBM_Type *base, cy_en_ctb_opamp_sel_t opampNum, uint32_t trim);
1035:Generated_Source\PSoC6\pdl\drivers\peripheral\ctb/cy_ctb.h **** uint32_t Cy_CTB_OpampGetOffset(const CTBM_Type *base, cy_en_ctb_opamp_sel_t opampNum);
1036:Generated_Source\PSoC6\pdl\drivers\peripheral\ctb/cy_ctb.h **** void Cy_CTB_OpampSetSlope(CTBM_Type *base, cy_en_ctb_opamp_sel_t opampNum, uint32_t trim);
1037:Generated_Source\PSoC6\pdl\drivers\peripheral\ctb/cy_ctb.h **** uint32_t Cy_CTB_OpampGetSlope(const CTBM_Type *base, cy_en_ctb_opamp_sel_t opampNum);
1038:Generated_Source\PSoC6\pdl\drivers\peripheral\ctb/cy_ctb.h **** /** \} */
1039:Generated_Source\PSoC6\pdl\drivers\peripheral\ctb/cy_ctb.h **** 
1040:Generated_Source\PSoC6\pdl\drivers\peripheral\ctb/cy_ctb.h **** /**
1041:Generated_Source\PSoC6\pdl\drivers\peripheral\ctb/cy_ctb.h **** * \addtogroup group_ctb_functions_switches
1042:Generated_Source\PSoC6\pdl\drivers\peripheral\ctb/cy_ctb.h **** * This set of functions is for controlling routing switches.
1043:Generated_Source\PSoC6\pdl\drivers\peripheral\ctb/cy_ctb.h **** * \{
1044:Generated_Source\PSoC6\pdl\drivers\peripheral\ctb/cy_ctb.h **** */
1045:Generated_Source\PSoC6\pdl\drivers\peripheral\ctb/cy_ctb.h **** void Cy_CTB_SetAnalogSwitch(CTBM_Type *base, cy_en_ctb_switch_register_sel_t switchSelect, uint32_t
1046:Generated_Source\PSoC6\pdl\drivers\peripheral\ctb/cy_ctb.h **** uint32_t Cy_CTB_GetAnalogSwitch(const CTBM_Type *base, cy_en_ctb_switch_register_sel_t switchSelect
1047:Generated_Source\PSoC6\pdl\drivers\peripheral\ctb/cy_ctb.h **** __STATIC_INLINE void Cy_CTB_OpenAllSwitches(CTBM_Type *base);
1048:Generated_Source\PSoC6\pdl\drivers\peripheral\ctb/cy_ctb.h **** __STATIC_INLINE void Cy_CTB_EnableSarSeqCtrl(CTBM_Type *base, cy_en_ctb_switch_sar_seq_t switchMask
1049:Generated_Source\PSoC6\pdl\drivers\peripheral\ctb/cy_ctb.h **** __STATIC_INLINE void Cy_CTB_DisableSarSeqCtrl(CTBM_Type *base, cy_en_ctb_switch_sar_seq_t switchMas
1050:Generated_Source\PSoC6\pdl\drivers\peripheral\ctb/cy_ctb.h **** /** \} */
1051:Generated_Source\PSoC6\pdl\drivers\peripheral\ctb/cy_ctb.h **** 
1052:Generated_Source\PSoC6\pdl\drivers\peripheral\ctb/cy_ctb.h **** /**
1053:Generated_Source\PSoC6\pdl\drivers\peripheral\ctb/cy_ctb.h **** * \addtogroup group_ctb_functions_interrupts
1054:Generated_Source\PSoC6\pdl\drivers\peripheral\ctb/cy_ctb.h **** * This set of functions is related to the comparator interrupts.
1055:Generated_Source\PSoC6\pdl\drivers\peripheral\ctb/cy_ctb.h **** * \{
1056:Generated_Source\PSoC6\pdl\drivers\peripheral\ctb/cy_ctb.h **** */
1057:Generated_Source\PSoC6\pdl\drivers\peripheral\ctb/cy_ctb.h **** __STATIC_INLINE uint32_t Cy_CTB_GetInterruptStatus(const CTBM_Type *base, cy_en_ctb_opamp_sel_t com
1058:Generated_Source\PSoC6\pdl\drivers\peripheral\ctb/cy_ctb.h **** __STATIC_INLINE void Cy_CTB_ClearInterrupt(CTBM_Type *base, cy_en_ctb_opamp_sel_t compNum);
1059:Generated_Source\PSoC6\pdl\drivers\peripheral\ctb/cy_ctb.h **** __STATIC_INLINE void Cy_CTB_SetInterrupt(CTBM_Type *base, cy_en_ctb_opamp_sel_t compNum);
1060:Generated_Source\PSoC6\pdl\drivers\peripheral\ctb/cy_ctb.h **** __STATIC_INLINE void Cy_CTB_SetInterruptMask(CTBM_Type *base, cy_en_ctb_opamp_sel_t compNum);
1061:Generated_Source\PSoC6\pdl\drivers\peripheral\ctb/cy_ctb.h **** __STATIC_INLINE uint32_t Cy_CTB_GetInterruptMask(const CTBM_Type *base, cy_en_ctb_opamp_sel_t compN
1062:Generated_Source\PSoC6\pdl\drivers\peripheral\ctb/cy_ctb.h **** __STATIC_INLINE uint32_t Cy_CTB_GetInterruptStatusMasked(const CTBM_Type *base, cy_en_ctb_opamp_sel
1063:Generated_Source\PSoC6\pdl\drivers\peripheral\ctb/cy_ctb.h **** /** \} */
1064:Generated_Source\PSoC6\pdl\drivers\peripheral\ctb/cy_ctb.h **** 
1065:Generated_Source\PSoC6\pdl\drivers\peripheral\ctb/cy_ctb.h **** /**
1066:Generated_Source\PSoC6\pdl\drivers\peripheral\ctb/cy_ctb.h **** * \addtogroup group_ctb_functions_aref
1067:Generated_Source\PSoC6\pdl\drivers\peripheral\ctb/cy_ctb.h **** * This set of functions impacts all opamps on the chip.
1068:Generated_Source\PSoC6\pdl\drivers\peripheral\ctb/cy_ctb.h **** * Notice how some of these functions do not take a base address input.
1069:Generated_Source\PSoC6\pdl\drivers\peripheral\ctb/cy_ctb.h **** * When calling \ref Cy_CTB_SetCurrentMode for a CTB instance on the device,
1070:Generated_Source\PSoC6\pdl\drivers\peripheral\ctb/cy_ctb.h **** * it should be called for all other CTB instances as well. This is because
1071:Generated_Source\PSoC6\pdl\drivers\peripheral\ctb/cy_ctb.h **** * there is only one IPTAT level (1 uA or 100 nA) chip wide.
1072:Generated_Source\PSoC6\pdl\drivers\peripheral\ctb/cy_ctb.h **** * \{
1073:Generated_Source\PSoC6\pdl\drivers\peripheral\ctb/cy_ctb.h **** */
1074:Generated_Source\PSoC6\pdl\drivers\peripheral\ctb/cy_ctb.h **** void Cy_CTB_SetCurrentMode(CTBM_Type *base, cy_en_ctb_current_mode_t currentMode);
1075:Generated_Source\PSoC6\pdl\drivers\peripheral\ctb/cy_ctb.h **** __STATIC_INLINE void Cy_CTB_SetIptatLevel(cy_en_ctb_iptat_t iptat);
ARM GAS  C:\Users\JC\AppData\Local\Temp\cclZ7ZAh.s 			page 31


1076:Generated_Source\PSoC6\pdl\drivers\peripheral\ctb/cy_ctb.h **** __STATIC_INLINE void Cy_CTB_SetClkPumpSource(cy_en_ctb_clk_pump_source_t clkPump);
1077:Generated_Source\PSoC6\pdl\drivers\peripheral\ctb/cy_ctb.h **** __STATIC_INLINE void Cy_CTB_EnableRedirect(void);
1078:Generated_Source\PSoC6\pdl\drivers\peripheral\ctb/cy_ctb.h **** __STATIC_INLINE void Cy_CTB_DisableRedirect(void);
1079:Generated_Source\PSoC6\pdl\drivers\peripheral\ctb/cy_ctb.h **** /** \} */
1080:Generated_Source\PSoC6\pdl\drivers\peripheral\ctb/cy_ctb.h **** 
1081:Generated_Source\PSoC6\pdl\drivers\peripheral\ctb/cy_ctb.h **** /**
1082:Generated_Source\PSoC6\pdl\drivers\peripheral\ctb/cy_ctb.h **** * \addtogroup group_ctb_functions_init
1083:Generated_Source\PSoC6\pdl\drivers\peripheral\ctb/cy_ctb.h **** * \{
1084:Generated_Source\PSoC6\pdl\drivers\peripheral\ctb/cy_ctb.h **** */
1085:Generated_Source\PSoC6\pdl\drivers\peripheral\ctb/cy_ctb.h **** 
1086:Generated_Source\PSoC6\pdl\drivers\peripheral\ctb/cy_ctb.h **** /*******************************************************************************
1087:Generated_Source\PSoC6\pdl\drivers\peripheral\ctb/cy_ctb.h **** * Function Name: Cy_CTB_Enable
1088:Generated_Source\PSoC6\pdl\drivers\peripheral\ctb/cy_ctb.h **** ****************************************************************************//**
1089:Generated_Source\PSoC6\pdl\drivers\peripheral\ctb/cy_ctb.h **** *
1090:Generated_Source\PSoC6\pdl\drivers\peripheral\ctb/cy_ctb.h **** * Power up the CTB hardware block.
1091:Generated_Source\PSoC6\pdl\drivers\peripheral\ctb/cy_ctb.h **** *
1092:Generated_Source\PSoC6\pdl\drivers\peripheral\ctb/cy_ctb.h **** * \param base
1093:Generated_Source\PSoC6\pdl\drivers\peripheral\ctb/cy_ctb.h **** * Pointer to structure describing registers
1094:Generated_Source\PSoC6\pdl\drivers\peripheral\ctb/cy_ctb.h **** *
1095:Generated_Source\PSoC6\pdl\drivers\peripheral\ctb/cy_ctb.h **** * \return None
1096:Generated_Source\PSoC6\pdl\drivers\peripheral\ctb/cy_ctb.h **** *
1097:Generated_Source\PSoC6\pdl\drivers\peripheral\ctb/cy_ctb.h **** *******************************************************************************/
1098:Generated_Source\PSoC6\pdl\drivers\peripheral\ctb/cy_ctb.h **** __STATIC_INLINE void Cy_CTB_Enable(CTBM_Type *base)
1099:Generated_Source\PSoC6\pdl\drivers\peripheral\ctb/cy_ctb.h **** {
1100:Generated_Source\PSoC6\pdl\drivers\peripheral\ctb/cy_ctb.h ****     CTBM_CTB_CTRL(base) |= CTBM_CTB_CTRL_ENABLED_Msk;
1101:Generated_Source\PSoC6\pdl\drivers\peripheral\ctb/cy_ctb.h **** }
1102:Generated_Source\PSoC6\pdl\drivers\peripheral\ctb/cy_ctb.h **** 
1103:Generated_Source\PSoC6\pdl\drivers\peripheral\ctb/cy_ctb.h **** /*******************************************************************************
1104:Generated_Source\PSoC6\pdl\drivers\peripheral\ctb/cy_ctb.h **** * Function Name: Cy_CTB_Disable
1105:Generated_Source\PSoC6\pdl\drivers\peripheral\ctb/cy_ctb.h **** ****************************************************************************//**
1106:Generated_Source\PSoC6\pdl\drivers\peripheral\ctb/cy_ctb.h **** *
1107:Generated_Source\PSoC6\pdl\drivers\peripheral\ctb/cy_ctb.h **** * Power down the CTB hardware block.
1108:Generated_Source\PSoC6\pdl\drivers\peripheral\ctb/cy_ctb.h **** *
1109:Generated_Source\PSoC6\pdl\drivers\peripheral\ctb/cy_ctb.h **** * \param base
1110:Generated_Source\PSoC6\pdl\drivers\peripheral\ctb/cy_ctb.h **** * Pointer to structure describing registers
1111:Generated_Source\PSoC6\pdl\drivers\peripheral\ctb/cy_ctb.h **** *
1112:Generated_Source\PSoC6\pdl\drivers\peripheral\ctb/cy_ctb.h **** * \return None
1113:Generated_Source\PSoC6\pdl\drivers\peripheral\ctb/cy_ctb.h **** *
1114:Generated_Source\PSoC6\pdl\drivers\peripheral\ctb/cy_ctb.h **** *******************************************************************************/
1115:Generated_Source\PSoC6\pdl\drivers\peripheral\ctb/cy_ctb.h **** __STATIC_INLINE void Cy_CTB_Disable(CTBM_Type *base)
1116:Generated_Source\PSoC6\pdl\drivers\peripheral\ctb/cy_ctb.h **** {
1117:Generated_Source\PSoC6\pdl\drivers\peripheral\ctb/cy_ctb.h ****     CTBM_CTB_CTRL(base) &= (~CTBM_CTB_CTRL_ENABLED_Msk);
1118:Generated_Source\PSoC6\pdl\drivers\peripheral\ctb/cy_ctb.h **** }
1119:Generated_Source\PSoC6\pdl\drivers\peripheral\ctb/cy_ctb.h **** 
1120:Generated_Source\PSoC6\pdl\drivers\peripheral\ctb/cy_ctb.h **** /** \} */
1121:Generated_Source\PSoC6\pdl\drivers\peripheral\ctb/cy_ctb.h **** 
1122:Generated_Source\PSoC6\pdl\drivers\peripheral\ctb/cy_ctb.h **** /**
1123:Generated_Source\PSoC6\pdl\drivers\peripheral\ctb/cy_ctb.h **** * \addtogroup group_ctb_functions_switches
1124:Generated_Source\PSoC6\pdl\drivers\peripheral\ctb/cy_ctb.h **** * \{
1125:Generated_Source\PSoC6\pdl\drivers\peripheral\ctb/cy_ctb.h **** */
1126:Generated_Source\PSoC6\pdl\drivers\peripheral\ctb/cy_ctb.h **** 
1127:Generated_Source\PSoC6\pdl\drivers\peripheral\ctb/cy_ctb.h **** /*******************************************************************************
1128:Generated_Source\PSoC6\pdl\drivers\peripheral\ctb/cy_ctb.h **** * Function Name: Cy_CTB_OpenAllSwitches
1129:Generated_Source\PSoC6\pdl\drivers\peripheral\ctb/cy_ctb.h **** ****************************************************************************//**
1130:Generated_Source\PSoC6\pdl\drivers\peripheral\ctb/cy_ctb.h **** *
1131:Generated_Source\PSoC6\pdl\drivers\peripheral\ctb/cy_ctb.h **** * Open all the switches and disable all hardware (SAR Sequencer and DSI) control of the switches.
1132:Generated_Source\PSoC6\pdl\drivers\peripheral\ctb/cy_ctb.h **** * Primarily used as a quick method of re-configuring all analog connections
ARM GAS  C:\Users\JC\AppData\Local\Temp\cclZ7ZAh.s 			page 32


1133:Generated_Source\PSoC6\pdl\drivers\peripheral\ctb/cy_ctb.h **** * that are sparsely closed.
1134:Generated_Source\PSoC6\pdl\drivers\peripheral\ctb/cy_ctb.h **** *
1135:Generated_Source\PSoC6\pdl\drivers\peripheral\ctb/cy_ctb.h **** * \param base
1136:Generated_Source\PSoC6\pdl\drivers\peripheral\ctb/cy_ctb.h **** * Pointer to structure describing registers
1137:Generated_Source\PSoC6\pdl\drivers\peripheral\ctb/cy_ctb.h **** *
1138:Generated_Source\PSoC6\pdl\drivers\peripheral\ctb/cy_ctb.h **** * \return None
1139:Generated_Source\PSoC6\pdl\drivers\peripheral\ctb/cy_ctb.h **** *
1140:Generated_Source\PSoC6\pdl\drivers\peripheral\ctb/cy_ctb.h **** * \funcusage
1141:Generated_Source\PSoC6\pdl\drivers\peripheral\ctb/cy_ctb.h **** *
1142:Generated_Source\PSoC6\pdl\drivers\peripheral\ctb/cy_ctb.h **** * \snippet ctb_sut_01.cydsn/main_cm4.c CTB_SNIPPET_OPEN_ALL_SWITCHES
1143:Generated_Source\PSoC6\pdl\drivers\peripheral\ctb/cy_ctb.h **** *
1144:Generated_Source\PSoC6\pdl\drivers\peripheral\ctb/cy_ctb.h **** *******************************************************************************/
1145:Generated_Source\PSoC6\pdl\drivers\peripheral\ctb/cy_ctb.h **** __STATIC_INLINE void Cy_CTB_OpenAllSwitches(CTBM_Type *base)
1146:Generated_Source\PSoC6\pdl\drivers\peripheral\ctb/cy_ctb.h **** {
1147:Generated_Source\PSoC6\pdl\drivers\peripheral\ctb/cy_ctb.h ****     CTBM_OA0_SW_CLEAR(base) = CY_CTB_DEINIT_OA0_SW;
1148:Generated_Source\PSoC6\pdl\drivers\peripheral\ctb/cy_ctb.h ****     CTBM_OA1_SW_CLEAR(base) = CY_CTB_DEINIT_OA1_SW;
1149:Generated_Source\PSoC6\pdl\drivers\peripheral\ctb/cy_ctb.h ****     CTBM_CTD_SW_CLEAR(base) = CY_CTB_DEINIT_CTD_SW;
1150:Generated_Source\PSoC6\pdl\drivers\peripheral\ctb/cy_ctb.h ****     CTBM_CTB_SW_DS_CTRL(base) = CY_CTB_DEINIT;
1151:Generated_Source\PSoC6\pdl\drivers\peripheral\ctb/cy_ctb.h ****     CTBM_CTB_SW_SQ_CTRL(base) = CY_CTB_DEINIT;
1152:Generated_Source\PSoC6\pdl\drivers\peripheral\ctb/cy_ctb.h **** }
1153:Generated_Source\PSoC6\pdl\drivers\peripheral\ctb/cy_ctb.h **** 
1154:Generated_Source\PSoC6\pdl\drivers\peripheral\ctb/cy_ctb.h **** /*******************************************************************************
1155:Generated_Source\PSoC6\pdl\drivers\peripheral\ctb/cy_ctb.h **** * Function Name: Cy_CTB_EnableSarSeqCtrl
1156:Generated_Source\PSoC6\pdl\drivers\peripheral\ctb/cy_ctb.h **** ****************************************************************************//**
1157:Generated_Source\PSoC6\pdl\drivers\peripheral\ctb/cy_ctb.h **** *
1158:Generated_Source\PSoC6\pdl\drivers\peripheral\ctb/cy_ctb.h **** * Enable SAR sequencer control of specified switch(es).
1159:Generated_Source\PSoC6\pdl\drivers\peripheral\ctb/cy_ctb.h **** *
1160:Generated_Source\PSoC6\pdl\drivers\peripheral\ctb/cy_ctb.h **** * This allows the SAR ADC to use routes through the CTB when configuring its channels.
1161:Generated_Source\PSoC6\pdl\drivers\peripheral\ctb/cy_ctb.h **** *
1162:Generated_Source\PSoC6\pdl\drivers\peripheral\ctb/cy_ctb.h **** * There are three switches in the CTB that can be enabled by the SAR sequencer.
1163:Generated_Source\PSoC6\pdl\drivers\peripheral\ctb/cy_ctb.h **** * - D51: This switch connects the negative input of Opamp0 to the SARBUS0
1164:Generated_Source\PSoC6\pdl\drivers\peripheral\ctb/cy_ctb.h **** * - D52: This switch connects the positive input of Opamp1 to the SARBUS0
1165:Generated_Source\PSoC6\pdl\drivers\peripheral\ctb/cy_ctb.h **** * - D62: This switch connects the positive input of Opamp1 to the SARBUS1
1166:Generated_Source\PSoC6\pdl\drivers\peripheral\ctb/cy_ctb.h **** *
1167:Generated_Source\PSoC6\pdl\drivers\peripheral\ctb/cy_ctb.h **** * \param base
1168:Generated_Source\PSoC6\pdl\drivers\peripheral\ctb/cy_ctb.h **** * Pointer to structure describing registers
1169:Generated_Source\PSoC6\pdl\drivers\peripheral\ctb/cy_ctb.h **** *
1170:Generated_Source\PSoC6\pdl\drivers\peripheral\ctb/cy_ctb.h **** * \param switchMask
1171:Generated_Source\PSoC6\pdl\drivers\peripheral\ctb/cy_ctb.h **** * The switch or switches in which to enable SAR sequencer control.
1172:Generated_Source\PSoC6\pdl\drivers\peripheral\ctb/cy_ctb.h **** * Use an enumerated value from \ref cy_en_ctb_switch_sar_seq_t.
1173:Generated_Source\PSoC6\pdl\drivers\peripheral\ctb/cy_ctb.h **** *
1174:Generated_Source\PSoC6\pdl\drivers\peripheral\ctb/cy_ctb.h **** * \return None
1175:Generated_Source\PSoC6\pdl\drivers\peripheral\ctb/cy_ctb.h **** *
1176:Generated_Source\PSoC6\pdl\drivers\peripheral\ctb/cy_ctb.h **** * \funcusage
1177:Generated_Source\PSoC6\pdl\drivers\peripheral\ctb/cy_ctb.h **** *
1178:Generated_Source\PSoC6\pdl\drivers\peripheral\ctb/cy_ctb.h **** * \snippet ctb_sut_01.cydsn/main_cm4.c CTB_SNIPPET_ENABLE_SAR_SEQ_CTRL
1179:Generated_Source\PSoC6\pdl\drivers\peripheral\ctb/cy_ctb.h **** *
1180:Generated_Source\PSoC6\pdl\drivers\peripheral\ctb/cy_ctb.h **** *******************************************************************************/
1181:Generated_Source\PSoC6\pdl\drivers\peripheral\ctb/cy_ctb.h **** __STATIC_INLINE void Cy_CTB_EnableSarSeqCtrl(CTBM_Type *base, cy_en_ctb_switch_sar_seq_t switchMask
1182:Generated_Source\PSoC6\pdl\drivers\peripheral\ctb/cy_ctb.h **** {
1183:Generated_Source\PSoC6\pdl\drivers\peripheral\ctb/cy_ctb.h ****     CY_ASSERT_L3(CY_CTB_SARSEQCTRL(switchMask));
1184:Generated_Source\PSoC6\pdl\drivers\peripheral\ctb/cy_ctb.h **** 
1185:Generated_Source\PSoC6\pdl\drivers\peripheral\ctb/cy_ctb.h ****     CTBM_CTB_SW_SQ_CTRL(base) |= (uint32_t) switchMask;
1186:Generated_Source\PSoC6\pdl\drivers\peripheral\ctb/cy_ctb.h **** }
1187:Generated_Source\PSoC6\pdl\drivers\peripheral\ctb/cy_ctb.h **** 
1188:Generated_Source\PSoC6\pdl\drivers\peripheral\ctb/cy_ctb.h **** /*******************************************************************************
1189:Generated_Source\PSoC6\pdl\drivers\peripheral\ctb/cy_ctb.h **** * Function Name: Cy_CTB_DisableSarSeqCtrl
ARM GAS  C:\Users\JC\AppData\Local\Temp\cclZ7ZAh.s 			page 33


1190:Generated_Source\PSoC6\pdl\drivers\peripheral\ctb/cy_ctb.h **** ****************************************************************************//**
1191:Generated_Source\PSoC6\pdl\drivers\peripheral\ctb/cy_ctb.h **** *
1192:Generated_Source\PSoC6\pdl\drivers\peripheral\ctb/cy_ctb.h **** * Disable SAR sequencer control of specified switch(es).
1193:Generated_Source\PSoC6\pdl\drivers\peripheral\ctb/cy_ctb.h **** *
1194:Generated_Source\PSoC6\pdl\drivers\peripheral\ctb/cy_ctb.h **** * \param base
1195:Generated_Source\PSoC6\pdl\drivers\peripheral\ctb/cy_ctb.h **** * Pointer to structure describing registers
1196:Generated_Source\PSoC6\pdl\drivers\peripheral\ctb/cy_ctb.h **** *
1197:Generated_Source\PSoC6\pdl\drivers\peripheral\ctb/cy_ctb.h **** * \param switchMask
1198:Generated_Source\PSoC6\pdl\drivers\peripheral\ctb/cy_ctb.h **** * The switch or switches in which to disable SAR sequencer control.
1199:Generated_Source\PSoC6\pdl\drivers\peripheral\ctb/cy_ctb.h **** * Use an enumerated value from \ref cy_en_ctb_switch_sar_seq_t.
1200:Generated_Source\PSoC6\pdl\drivers\peripheral\ctb/cy_ctb.h **** *
1201:Generated_Source\PSoC6\pdl\drivers\peripheral\ctb/cy_ctb.h **** * \return None
1202:Generated_Source\PSoC6\pdl\drivers\peripheral\ctb/cy_ctb.h **** *
1203:Generated_Source\PSoC6\pdl\drivers\peripheral\ctb/cy_ctb.h **** * \funcusage
1204:Generated_Source\PSoC6\pdl\drivers\peripheral\ctb/cy_ctb.h **** *
1205:Generated_Source\PSoC6\pdl\drivers\peripheral\ctb/cy_ctb.h **** * \snippet ctb_sut_01.cydsn/main_cm4.c CTB_SNIPPET_DISABLE_SAR_SEQ_CTRL
1206:Generated_Source\PSoC6\pdl\drivers\peripheral\ctb/cy_ctb.h **** *
1207:Generated_Source\PSoC6\pdl\drivers\peripheral\ctb/cy_ctb.h **** *******************************************************************************/
1208:Generated_Source\PSoC6\pdl\drivers\peripheral\ctb/cy_ctb.h **** __STATIC_INLINE void Cy_CTB_DisableSarSeqCtrl(CTBM_Type *base, cy_en_ctb_switch_sar_seq_t switchMas
1209:Generated_Source\PSoC6\pdl\drivers\peripheral\ctb/cy_ctb.h **** {
1210:Generated_Source\PSoC6\pdl\drivers\peripheral\ctb/cy_ctb.h ****     CY_ASSERT_L3(CY_CTB_SARSEQCTRL(switchMask));
1211:Generated_Source\PSoC6\pdl\drivers\peripheral\ctb/cy_ctb.h **** 
1212:Generated_Source\PSoC6\pdl\drivers\peripheral\ctb/cy_ctb.h ****     CTBM_CTB_SW_SQ_CTRL(base) &= ~((uint32_t) switchMask);
1213:Generated_Source\PSoC6\pdl\drivers\peripheral\ctb/cy_ctb.h **** }
1214:Generated_Source\PSoC6\pdl\drivers\peripheral\ctb/cy_ctb.h **** /** \} */
1215:Generated_Source\PSoC6\pdl\drivers\peripheral\ctb/cy_ctb.h **** 
1216:Generated_Source\PSoC6\pdl\drivers\peripheral\ctb/cy_ctb.h **** /**
1217:Generated_Source\PSoC6\pdl\drivers\peripheral\ctb/cy_ctb.h **** * \addtogroup group_ctb_functions_interrupts
1218:Generated_Source\PSoC6\pdl\drivers\peripheral\ctb/cy_ctb.h **** * \{
1219:Generated_Source\PSoC6\pdl\drivers\peripheral\ctb/cy_ctb.h **** */
1220:Generated_Source\PSoC6\pdl\drivers\peripheral\ctb/cy_ctb.h **** 
1221:Generated_Source\PSoC6\pdl\drivers\peripheral\ctb/cy_ctb.h **** /*******************************************************************************
1222:Generated_Source\PSoC6\pdl\drivers\peripheral\ctb/cy_ctb.h **** * Function Name: Cy_CTB_GetInterruptStatus
1223:Generated_Source\PSoC6\pdl\drivers\peripheral\ctb/cy_ctb.h **** ****************************************************************************//**
1224:Generated_Source\PSoC6\pdl\drivers\peripheral\ctb/cy_ctb.h **** *
1225:Generated_Source\PSoC6\pdl\drivers\peripheral\ctb/cy_ctb.h **** * Return the status of the interrupt when the configured comparator
1226:Generated_Source\PSoC6\pdl\drivers\peripheral\ctb/cy_ctb.h **** * edge is detected.
1227:Generated_Source\PSoC6\pdl\drivers\peripheral\ctb/cy_ctb.h **** *
1228:Generated_Source\PSoC6\pdl\drivers\peripheral\ctb/cy_ctb.h **** * \param base
1229:Generated_Source\PSoC6\pdl\drivers\peripheral\ctb/cy_ctb.h **** * Pointer to structure describing registers
1230:Generated_Source\PSoC6\pdl\drivers\peripheral\ctb/cy_ctb.h **** *
1231:Generated_Source\PSoC6\pdl\drivers\peripheral\ctb/cy_ctb.h **** * \param compNum
1232:Generated_Source\PSoC6\pdl\drivers\peripheral\ctb/cy_ctb.h **** * \ref CY_CTB_OPAMP_0, \ref CY_CTB_OPAMP_1, or \ref CY_CTB_OPAMP_BOTH
1233:Generated_Source\PSoC6\pdl\drivers\peripheral\ctb/cy_ctb.h **** *
1234:Generated_Source\PSoC6\pdl\drivers\peripheral\ctb/cy_ctb.h **** * \return
1235:Generated_Source\PSoC6\pdl\drivers\peripheral\ctb/cy_ctb.h **** * The interrupt status.
1236:Generated_Source\PSoC6\pdl\drivers\peripheral\ctb/cy_ctb.h **** * If compNum is \ref CY_CTB_OPAMP_BOTH, cast the returned status
1237:Generated_Source\PSoC6\pdl\drivers\peripheral\ctb/cy_ctb.h **** * to \ref cy_en_ctb_opamp_sel_t to determine which comparator edge (or both)
1238:Generated_Source\PSoC6\pdl\drivers\peripheral\ctb/cy_ctb.h **** * was detected.
1239:Generated_Source\PSoC6\pdl\drivers\peripheral\ctb/cy_ctb.h **** * - 0: Edge was not detected
1240:Generated_Source\PSoC6\pdl\drivers\peripheral\ctb/cy_ctb.h **** * - Non-zero: Configured edge type was detected
1241:Generated_Source\PSoC6\pdl\drivers\peripheral\ctb/cy_ctb.h **** *
1242:Generated_Source\PSoC6\pdl\drivers\peripheral\ctb/cy_ctb.h **** * \funcusage
1243:Generated_Source\PSoC6\pdl\drivers\peripheral\ctb/cy_ctb.h **** *
1244:Generated_Source\PSoC6\pdl\drivers\peripheral\ctb/cy_ctb.h **** * \snippet ctb_sut_01.cydsn/main_cm0p.c SNIPPET_COMP_GETINTERRUPTSTATUS
1245:Generated_Source\PSoC6\pdl\drivers\peripheral\ctb/cy_ctb.h **** *
1246:Generated_Source\PSoC6\pdl\drivers\peripheral\ctb/cy_ctb.h **** *******************************************************************************/
ARM GAS  C:\Users\JC\AppData\Local\Temp\cclZ7ZAh.s 			page 34


1247:Generated_Source\PSoC6\pdl\drivers\peripheral\ctb/cy_ctb.h **** __STATIC_INLINE uint32_t Cy_CTB_GetInterruptStatus(const CTBM_Type *base, cy_en_ctb_opamp_sel_t com
1248:Generated_Source\PSoC6\pdl\drivers\peripheral\ctb/cy_ctb.h **** {
1249:Generated_Source\PSoC6\pdl\drivers\peripheral\ctb/cy_ctb.h ****     CY_ASSERT_L3(CY_CTB_OPAMPNUM(compNum));
1250:Generated_Source\PSoC6\pdl\drivers\peripheral\ctb/cy_ctb.h **** 
1251:Generated_Source\PSoC6\pdl\drivers\peripheral\ctb/cy_ctb.h ****     return CTBM_INTR(base) & (uint32_t) compNum;
1252:Generated_Source\PSoC6\pdl\drivers\peripheral\ctb/cy_ctb.h **** }
1253:Generated_Source\PSoC6\pdl\drivers\peripheral\ctb/cy_ctb.h **** 
1254:Generated_Source\PSoC6\pdl\drivers\peripheral\ctb/cy_ctb.h **** /*******************************************************************************
1255:Generated_Source\PSoC6\pdl\drivers\peripheral\ctb/cy_ctb.h **** * Function Name: Cy_CTB_ClearInterrupt
1256:Generated_Source\PSoC6\pdl\drivers\peripheral\ctb/cy_ctb.h **** ****************************************************************************//**
1257:Generated_Source\PSoC6\pdl\drivers\peripheral\ctb/cy_ctb.h **** *
1258:Generated_Source\PSoC6\pdl\drivers\peripheral\ctb/cy_ctb.h **** * Clear the CTB comparator triggered interrupt.
1259:Generated_Source\PSoC6\pdl\drivers\peripheral\ctb/cy_ctb.h **** * The interrupt must be cleared with this function so that the hardware
1260:Generated_Source\PSoC6\pdl\drivers\peripheral\ctb/cy_ctb.h **** * can set subsequent interrupts and those interrupts can be forwarded
1261:Generated_Source\PSoC6\pdl\drivers\peripheral\ctb/cy_ctb.h **** * to the interrupt controller, if enabled.
1262:Generated_Source\PSoC6\pdl\drivers\peripheral\ctb/cy_ctb.h **** *
1263:Generated_Source\PSoC6\pdl\drivers\peripheral\ctb/cy_ctb.h **** * \param base
1264:Generated_Source\PSoC6\pdl\drivers\peripheral\ctb/cy_ctb.h **** * Pointer to structure describing registers
1265:Generated_Source\PSoC6\pdl\drivers\peripheral\ctb/cy_ctb.h **** *
1266:Generated_Source\PSoC6\pdl\drivers\peripheral\ctb/cy_ctb.h **** * \param compNum
1267:Generated_Source\PSoC6\pdl\drivers\peripheral\ctb/cy_ctb.h **** * \ref CY_CTB_OPAMP_0, \ref CY_CTB_OPAMP_1, or \ref CY_CTB_OPAMP_BOTH
1268:Generated_Source\PSoC6\pdl\drivers\peripheral\ctb/cy_ctb.h **** *
1269:Generated_Source\PSoC6\pdl\drivers\peripheral\ctb/cy_ctb.h **** * \return None
1270:Generated_Source\PSoC6\pdl\drivers\peripheral\ctb/cy_ctb.h **** *
1271:Generated_Source\PSoC6\pdl\drivers\peripheral\ctb/cy_ctb.h **** *******************************************************************************/
1272:Generated_Source\PSoC6\pdl\drivers\peripheral\ctb/cy_ctb.h **** __STATIC_INLINE void Cy_CTB_ClearInterrupt(CTBM_Type *base, cy_en_ctb_opamp_sel_t compNum)
1273:Generated_Source\PSoC6\pdl\drivers\peripheral\ctb/cy_ctb.h **** {
1274:Generated_Source\PSoC6\pdl\drivers\peripheral\ctb/cy_ctb.h ****     CY_ASSERT_L3(CY_CTB_OPAMPNUM(compNum));
1275:Generated_Source\PSoC6\pdl\drivers\peripheral\ctb/cy_ctb.h **** 
1276:Generated_Source\PSoC6\pdl\drivers\peripheral\ctb/cy_ctb.h ****     CTBM_INTR(base) = (uint32_t) compNum;
1277:Generated_Source\PSoC6\pdl\drivers\peripheral\ctb/cy_ctb.h **** 
1278:Generated_Source\PSoC6\pdl\drivers\peripheral\ctb/cy_ctb.h ****     /* Dummy read for buffered writes. */
1279:Generated_Source\PSoC6\pdl\drivers\peripheral\ctb/cy_ctb.h ****     (void) CTBM_INTR(base);
1280:Generated_Source\PSoC6\pdl\drivers\peripheral\ctb/cy_ctb.h **** }
1281:Generated_Source\PSoC6\pdl\drivers\peripheral\ctb/cy_ctb.h **** 
1282:Generated_Source\PSoC6\pdl\drivers\peripheral\ctb/cy_ctb.h **** /*******************************************************************************
1283:Generated_Source\PSoC6\pdl\drivers\peripheral\ctb/cy_ctb.h **** * Function Name: Cy_CTB_SetInterrupt
1284:Generated_Source\PSoC6\pdl\drivers\peripheral\ctb/cy_ctb.h **** ****************************************************************************//**
1285:Generated_Source\PSoC6\pdl\drivers\peripheral\ctb/cy_ctb.h **** *
1286:Generated_Source\PSoC6\pdl\drivers\peripheral\ctb/cy_ctb.h **** * Force the CTB interrupt to trigger using software.
1287:Generated_Source\PSoC6\pdl\drivers\peripheral\ctb/cy_ctb.h **** *
1288:Generated_Source\PSoC6\pdl\drivers\peripheral\ctb/cy_ctb.h **** * \param base
1289:Generated_Source\PSoC6\pdl\drivers\peripheral\ctb/cy_ctb.h **** * Pointer to structure describing registers
1290:Generated_Source\PSoC6\pdl\drivers\peripheral\ctb/cy_ctb.h **** *
1291:Generated_Source\PSoC6\pdl\drivers\peripheral\ctb/cy_ctb.h **** * \param compNum
1292:Generated_Source\PSoC6\pdl\drivers\peripheral\ctb/cy_ctb.h **** * \ref CY_CTB_OPAMP_0, \ref CY_CTB_OPAMP_1, or \ref CY_CTB_OPAMP_BOTH
1293:Generated_Source\PSoC6\pdl\drivers\peripheral\ctb/cy_ctb.h **** *
1294:Generated_Source\PSoC6\pdl\drivers\peripheral\ctb/cy_ctb.h **** * \return None
1295:Generated_Source\PSoC6\pdl\drivers\peripheral\ctb/cy_ctb.h **** *
1296:Generated_Source\PSoC6\pdl\drivers\peripheral\ctb/cy_ctb.h **** *******************************************************************************/
1297:Generated_Source\PSoC6\pdl\drivers\peripheral\ctb/cy_ctb.h **** __STATIC_INLINE void Cy_CTB_SetInterrupt(CTBM_Type *base, cy_en_ctb_opamp_sel_t compNum)
1298:Generated_Source\PSoC6\pdl\drivers\peripheral\ctb/cy_ctb.h **** {
1299:Generated_Source\PSoC6\pdl\drivers\peripheral\ctb/cy_ctb.h ****     CY_ASSERT_L3(CY_CTB_OPAMPNUM(compNum));
1300:Generated_Source\PSoC6\pdl\drivers\peripheral\ctb/cy_ctb.h **** 
1301:Generated_Source\PSoC6\pdl\drivers\peripheral\ctb/cy_ctb.h ****     CTBM_INTR_SET(base) = (uint32_t) compNum;
1302:Generated_Source\PSoC6\pdl\drivers\peripheral\ctb/cy_ctb.h **** }
1303:Generated_Source\PSoC6\pdl\drivers\peripheral\ctb/cy_ctb.h **** 
ARM GAS  C:\Users\JC\AppData\Local\Temp\cclZ7ZAh.s 			page 35


1304:Generated_Source\PSoC6\pdl\drivers\peripheral\ctb/cy_ctb.h **** /*******************************************************************************
1305:Generated_Source\PSoC6\pdl\drivers\peripheral\ctb/cy_ctb.h **** * Function Name: Cy_CTB_SetInterruptMask
1306:Generated_Source\PSoC6\pdl\drivers\peripheral\ctb/cy_ctb.h **** ****************************************************************************//**
1307:Generated_Source\PSoC6\pdl\drivers\peripheral\ctb/cy_ctb.h **** *
1308:Generated_Source\PSoC6\pdl\drivers\peripheral\ctb/cy_ctb.h **** * Configure the CTB comparator edge interrupt to be forwarded to the
1309:Generated_Source\PSoC6\pdl\drivers\peripheral\ctb/cy_ctb.h **** * CPU interrupt controller.
1310:Generated_Source\PSoC6\pdl\drivers\peripheral\ctb/cy_ctb.h **** *
1311:Generated_Source\PSoC6\pdl\drivers\peripheral\ctb/cy_ctb.h **** * \param base
1312:Generated_Source\PSoC6\pdl\drivers\peripheral\ctb/cy_ctb.h **** * Pointer to structure describing registers
1313:Generated_Source\PSoC6\pdl\drivers\peripheral\ctb/cy_ctb.h **** *
1314:Generated_Source\PSoC6\pdl\drivers\peripheral\ctb/cy_ctb.h **** * \param compNum
1315:Generated_Source\PSoC6\pdl\drivers\peripheral\ctb/cy_ctb.h **** * \ref CY_CTB_OPAMP_NONE, \ref CY_CTB_OPAMP_0, \ref CY_CTB_OPAMP_1, or \ref CY_CTB_OPAMP_BOTH.
1316:Generated_Source\PSoC6\pdl\drivers\peripheral\ctb/cy_ctb.h **** * Calling this function with CY_CTB_OPAMP_NONE will disable all interrupt requests.
1317:Generated_Source\PSoC6\pdl\drivers\peripheral\ctb/cy_ctb.h **** *
1318:Generated_Source\PSoC6\pdl\drivers\peripheral\ctb/cy_ctb.h **** * \return None
1319:Generated_Source\PSoC6\pdl\drivers\peripheral\ctb/cy_ctb.h **** *
1320:Generated_Source\PSoC6\pdl\drivers\peripheral\ctb/cy_ctb.h **** * \funcusage
1321:Generated_Source\PSoC6\pdl\drivers\peripheral\ctb/cy_ctb.h **** *
1322:Generated_Source\PSoC6\pdl\drivers\peripheral\ctb/cy_ctb.h **** * \snippet ctb_sut_01.cydsn/main_cm4.c CTB_SNIPPET_SET_INTERRUPT_MASK
1323:Generated_Source\PSoC6\pdl\drivers\peripheral\ctb/cy_ctb.h **** *
1324:Generated_Source\PSoC6\pdl\drivers\peripheral\ctb/cy_ctb.h **** *******************************************************************************/
1325:Generated_Source\PSoC6\pdl\drivers\peripheral\ctb/cy_ctb.h **** __STATIC_INLINE void Cy_CTB_SetInterruptMask(CTBM_Type *base, cy_en_ctb_opamp_sel_t compNum)
1326:Generated_Source\PSoC6\pdl\drivers\peripheral\ctb/cy_ctb.h **** {
1327:Generated_Source\PSoC6\pdl\drivers\peripheral\ctb/cy_ctb.h ****     CY_ASSERT_L3(CY_CTB_OPAMPNUM_ALL(compNum));
1328:Generated_Source\PSoC6\pdl\drivers\peripheral\ctb/cy_ctb.h **** 
1329:Generated_Source\PSoC6\pdl\drivers\peripheral\ctb/cy_ctb.h ****     CTBM_INTR_MASK(base) = (uint32_t) compNum;
1330:Generated_Source\PSoC6\pdl\drivers\peripheral\ctb/cy_ctb.h **** }
1331:Generated_Source\PSoC6\pdl\drivers\peripheral\ctb/cy_ctb.h **** 
1332:Generated_Source\PSoC6\pdl\drivers\peripheral\ctb/cy_ctb.h **** /*******************************************************************************
1333:Generated_Source\PSoC6\pdl\drivers\peripheral\ctb/cy_ctb.h **** * Function Name: Cy_CTB_GetInterruptMask
1334:Generated_Source\PSoC6\pdl\drivers\peripheral\ctb/cy_ctb.h **** ****************************************************************************//**
1335:Generated_Source\PSoC6\pdl\drivers\peripheral\ctb/cy_ctb.h **** *
1336:Generated_Source\PSoC6\pdl\drivers\peripheral\ctb/cy_ctb.h **** * Return whether the CTB comparator edge interrupt output is
1337:Generated_Source\PSoC6\pdl\drivers\peripheral\ctb/cy_ctb.h **** * forwarded to the CPU interrupt controller as configured by
1338:Generated_Source\PSoC6\pdl\drivers\peripheral\ctb/cy_ctb.h **** * \ref Cy_CTB_SetInterruptMask.
1339:Generated_Source\PSoC6\pdl\drivers\peripheral\ctb/cy_ctb.h **** *
1340:Generated_Source\PSoC6\pdl\drivers\peripheral\ctb/cy_ctb.h **** * \param base
1341:Generated_Source\PSoC6\pdl\drivers\peripheral\ctb/cy_ctb.h **** * Pointer to structure describing registers
1342:Generated_Source\PSoC6\pdl\drivers\peripheral\ctb/cy_ctb.h **** *
1343:Generated_Source\PSoC6\pdl\drivers\peripheral\ctb/cy_ctb.h **** * \param compNum
1344:Generated_Source\PSoC6\pdl\drivers\peripheral\ctb/cy_ctb.h **** * \ref CY_CTB_OPAMP_0, \ref CY_CTB_OPAMP_1, or \ref CY_CTB_OPAMP_BOTH
1345:Generated_Source\PSoC6\pdl\drivers\peripheral\ctb/cy_ctb.h **** *
1346:Generated_Source\PSoC6\pdl\drivers\peripheral\ctb/cy_ctb.h **** * \return
1347:Generated_Source\PSoC6\pdl\drivers\peripheral\ctb/cy_ctb.h **** * The interrupt mask.
1348:Generated_Source\PSoC6\pdl\drivers\peripheral\ctb/cy_ctb.h **** * If compNum is \ref CY_CTB_OPAMP_BOTH, cast the returned mask
1349:Generated_Source\PSoC6\pdl\drivers\peripheral\ctb/cy_ctb.h **** * to \ref cy_en_ctb_opamp_sel_t to determine which comparator interrupt
1350:Generated_Source\PSoC6\pdl\drivers\peripheral\ctb/cy_ctb.h **** * output (or both) is forwarded.
1351:Generated_Source\PSoC6\pdl\drivers\peripheral\ctb/cy_ctb.h **** * - 0: Interrupt output not forwarded to interrupt controller
1352:Generated_Source\PSoC6\pdl\drivers\peripheral\ctb/cy_ctb.h **** * - Non-zero: Interrupt output forwarded to interrupt controller
1353:Generated_Source\PSoC6\pdl\drivers\peripheral\ctb/cy_ctb.h **** *
1354:Generated_Source\PSoC6\pdl\drivers\peripheral\ctb/cy_ctb.h **** * \funcusage
1355:Generated_Source\PSoC6\pdl\drivers\peripheral\ctb/cy_ctb.h **** *
1356:Generated_Source\PSoC6\pdl\drivers\peripheral\ctb/cy_ctb.h **** * \snippet ctb_sut_01.cydsn/main_cm4.c CTB_SNIPPET_GET_INTERRUPT_MASK
1357:Generated_Source\PSoC6\pdl\drivers\peripheral\ctb/cy_ctb.h **** *
1358:Generated_Source\PSoC6\pdl\drivers\peripheral\ctb/cy_ctb.h **** *******************************************************************************/
1359:Generated_Source\PSoC6\pdl\drivers\peripheral\ctb/cy_ctb.h **** __STATIC_INLINE uint32_t Cy_CTB_GetInterruptMask(const CTBM_Type *base, cy_en_ctb_opamp_sel_t compN
1360:Generated_Source\PSoC6\pdl\drivers\peripheral\ctb/cy_ctb.h **** {
ARM GAS  C:\Users\JC\AppData\Local\Temp\cclZ7ZAh.s 			page 36


1361:Generated_Source\PSoC6\pdl\drivers\peripheral\ctb/cy_ctb.h ****     CY_ASSERT_L3(CY_CTB_OPAMPNUM(compNum));
1362:Generated_Source\PSoC6\pdl\drivers\peripheral\ctb/cy_ctb.h **** 
1363:Generated_Source\PSoC6\pdl\drivers\peripheral\ctb/cy_ctb.h ****     return CTBM_INTR_MASK(base)  & (uint32_t) compNum;
1364:Generated_Source\PSoC6\pdl\drivers\peripheral\ctb/cy_ctb.h **** }
1365:Generated_Source\PSoC6\pdl\drivers\peripheral\ctb/cy_ctb.h **** 
1366:Generated_Source\PSoC6\pdl\drivers\peripheral\ctb/cy_ctb.h **** /*******************************************************************************
1367:Generated_Source\PSoC6\pdl\drivers\peripheral\ctb/cy_ctb.h **** * Function Name: Cy_CTB_GetInterruptStatusMasked
1368:Generated_Source\PSoC6\pdl\drivers\peripheral\ctb/cy_ctb.h **** ****************************************************************************//**
1369:Generated_Source\PSoC6\pdl\drivers\peripheral\ctb/cy_ctb.h **** *
1370:Generated_Source\PSoC6\pdl\drivers\peripheral\ctb/cy_ctb.h **** * Return the CTB comparator edge output interrupt state after being masked.
1371:Generated_Source\PSoC6\pdl\drivers\peripheral\ctb/cy_ctb.h **** * This is the bitwise AND of \ref Cy_CTB_GetInterruptStatus and \ref Cy_CTB_GetInterruptMask.
1372:Generated_Source\PSoC6\pdl\drivers\peripheral\ctb/cy_ctb.h **** *
1373:Generated_Source\PSoC6\pdl\drivers\peripheral\ctb/cy_ctb.h **** * \param base
1374:Generated_Source\PSoC6\pdl\drivers\peripheral\ctb/cy_ctb.h **** * Pointer to structure describing registers
1375:Generated_Source\PSoC6\pdl\drivers\peripheral\ctb/cy_ctb.h **** *
1376:Generated_Source\PSoC6\pdl\drivers\peripheral\ctb/cy_ctb.h **** * \param compNum
1377:Generated_Source\PSoC6\pdl\drivers\peripheral\ctb/cy_ctb.h **** * \ref CY_CTB_OPAMP_0, \ref CY_CTB_OPAMP_1, or \ref CY_CTB_OPAMP_BOTH
1378:Generated_Source\PSoC6\pdl\drivers\peripheral\ctb/cy_ctb.h **** *
1379:Generated_Source\PSoC6\pdl\drivers\peripheral\ctb/cy_ctb.h **** * \return
1380:Generated_Source\PSoC6\pdl\drivers\peripheral\ctb/cy_ctb.h **** * If compNum is \ref CY_CTB_OPAMP_BOTH, cast the returned value
1381:Generated_Source\PSoC6\pdl\drivers\peripheral\ctb/cy_ctb.h **** * to \ref cy_en_ctb_opamp_sel_t to determine which comparator interrupt
1382:Generated_Source\PSoC6\pdl\drivers\peripheral\ctb/cy_ctb.h **** * output (or both) is detected and masked.
1383:Generated_Source\PSoC6\pdl\drivers\peripheral\ctb/cy_ctb.h **** * - 0: Configured edge not detected or not masked
1384:Generated_Source\PSoC6\pdl\drivers\peripheral\ctb/cy_ctb.h **** * - Non-zero: Configured edge type detected and masked
1385:Generated_Source\PSoC6\pdl\drivers\peripheral\ctb/cy_ctb.h **** *
1386:Generated_Source\PSoC6\pdl\drivers\peripheral\ctb/cy_ctb.h **** *******************************************************************************/
1387:Generated_Source\PSoC6\pdl\drivers\peripheral\ctb/cy_ctb.h **** __STATIC_INLINE uint32_t Cy_CTB_GetInterruptStatusMasked(const CTBM_Type *base, cy_en_ctb_opamp_sel
1388:Generated_Source\PSoC6\pdl\drivers\peripheral\ctb/cy_ctb.h **** {
1389:Generated_Source\PSoC6\pdl\drivers\peripheral\ctb/cy_ctb.h ****     CY_ASSERT_L3(CY_CTB_OPAMPNUM(compNum));
1390:Generated_Source\PSoC6\pdl\drivers\peripheral\ctb/cy_ctb.h **** 
1391:Generated_Source\PSoC6\pdl\drivers\peripheral\ctb/cy_ctb.h ****     return CTBM_INTR_MASKED(base) & (uint32_t) compNum;
1392:Generated_Source\PSoC6\pdl\drivers\peripheral\ctb/cy_ctb.h **** }
1393:Generated_Source\PSoC6\pdl\drivers\peripheral\ctb/cy_ctb.h **** /** \} */
1394:Generated_Source\PSoC6\pdl\drivers\peripheral\ctb/cy_ctb.h **** 
1395:Generated_Source\PSoC6\pdl\drivers\peripheral\ctb/cy_ctb.h **** /**
1396:Generated_Source\PSoC6\pdl\drivers\peripheral\ctb/cy_ctb.h **** * \addtogroup group_ctb_functions_aref
1397:Generated_Source\PSoC6\pdl\drivers\peripheral\ctb/cy_ctb.h **** * \{
1398:Generated_Source\PSoC6\pdl\drivers\peripheral\ctb/cy_ctb.h **** */
1399:Generated_Source\PSoC6\pdl\drivers\peripheral\ctb/cy_ctb.h **** 
1400:Generated_Source\PSoC6\pdl\drivers\peripheral\ctb/cy_ctb.h **** /*******************************************************************************
1401:Generated_Source\PSoC6\pdl\drivers\peripheral\ctb/cy_ctb.h **** * Function Name: Cy_CTB_SetIptatLevel
1402:Generated_Source\PSoC6\pdl\drivers\peripheral\ctb/cy_ctb.h **** ****************************************************************************//**
1403:Generated_Source\PSoC6\pdl\drivers\peripheral\ctb/cy_ctb.h **** *
1404:Generated_Source\PSoC6\pdl\drivers\peripheral\ctb/cy_ctb.h **** * Set the IPTAT reference level to 1 uA or 100 nA. The IPTAT generator is used by the CTB
1405:Generated_Source\PSoC6\pdl\drivers\peripheral\ctb/cy_ctb.h **** * for slope offset drift.
1406:Generated_Source\PSoC6\pdl\drivers\peripheral\ctb/cy_ctb.h **** *
1407:Generated_Source\PSoC6\pdl\drivers\peripheral\ctb/cy_ctb.h **** * \param iptat
1408:Generated_Source\PSoC6\pdl\drivers\peripheral\ctb/cy_ctb.h **** * Value from enum \ref cy_en_ctb_iptat_t
1409:Generated_Source\PSoC6\pdl\drivers\peripheral\ctb/cy_ctb.h **** *
1410:Generated_Source\PSoC6\pdl\drivers\peripheral\ctb/cy_ctb.h **** * \return None
1411:Generated_Source\PSoC6\pdl\drivers\peripheral\ctb/cy_ctb.h **** *
1412:Generated_Source\PSoC6\pdl\drivers\peripheral\ctb/cy_ctb.h **** * \funcusage
1413:Generated_Source\PSoC6\pdl\drivers\peripheral\ctb/cy_ctb.h **** *
1414:Generated_Source\PSoC6\pdl\drivers\peripheral\ctb/cy_ctb.h **** * \snippet ctb_sut_01.cydsn/main_cm4.c CTB_SNIPPET_SET_IPTAT_LEVEL
1415:Generated_Source\PSoC6\pdl\drivers\peripheral\ctb/cy_ctb.h **** *
1416:Generated_Source\PSoC6\pdl\drivers\peripheral\ctb/cy_ctb.h **** *******************************************************************************/
1417:Generated_Source\PSoC6\pdl\drivers\peripheral\ctb/cy_ctb.h **** __STATIC_INLINE void Cy_CTB_SetIptatLevel(cy_en_ctb_iptat_t iptat)
ARM GAS  C:\Users\JC\AppData\Local\Temp\cclZ7ZAh.s 			page 37


1418:Generated_Source\PSoC6\pdl\drivers\peripheral\ctb/cy_ctb.h **** {
 148              		.loc 2 1418 0
 149              		.cfi_startproc
 150              		@ args = 0, pretend = 0, frame = 8
 151              		@ frame_needed = 1, uses_anonymous_args = 0
 152 0000 80B5     		push	{r7, lr}
 153              		.cfi_def_cfa_offset 8
 154              		.cfi_offset 7, -8
 155              		.cfi_offset 14, -4
 156 0002 82B0     		sub	sp, sp, #8
 157              		.cfi_def_cfa_offset 16
 158 0004 00AF     		add	r7, sp, #0
 159              		.cfi_def_cfa_register 7
 160 0006 0346     		mov	r3, r0
 161 0008 FB71     		strb	r3, [r7, #7]
1419:Generated_Source\PSoC6\pdl\drivers\peripheral\ctb/cy_ctb.h ****     CY_ASSERT_L3(CY_CTB_IPTAT(iptat));
 162              		.loc 2 1419 0
 163 000a FB79     		ldrb	r3, [r7, #7]	@ zero_extendqisi2
 164 000c 002B     		cmp	r3, #0
 165 000e 07D0     		beq	.L10
 166              		.loc 2 1419 0 is_stmt 0 discriminator 1
 167 0010 FB79     		ldrb	r3, [r7, #7]	@ zero_extendqisi2
 168 0012 802B     		cmp	r3, #128
 169 0014 04D0     		beq	.L10
 170              		.loc 2 1419 0 discriminator 2
 171 0016 40F28B51 		movw	r1, #1419
 172 001a 0B48     		ldr	r0, .L11
 173 001c FFF7FEFF 		bl	Cy_SysLib_AssertFailed
 174              	.L10:
1420:Generated_Source\PSoC6\pdl\drivers\peripheral\ctb/cy_ctb.h **** 
1421:Generated_Source\PSoC6\pdl\drivers\peripheral\ctb/cy_ctb.h ****     PASS_AREF_AREF_CTRL = (PASS_AREF_AREF_CTRL & ~PASS_AREF_AREF_CTRL_CTB_IPTAT_SCALE_Msk) | (uint3
 175              		.loc 2 1421 0 is_stmt 1
 176 0020 0A4B     		ldr	r3, .L11+4
 177 0022 1B68     		ldr	r3, [r3]
 178 0024 DB69     		ldr	r3, [r3, #28]
 179 0026 1946     		mov	r1, r3
 180 0028 084B     		ldr	r3, .L11+4
 181 002a 1B68     		ldr	r3, [r3]
 182 002c DB69     		ldr	r3, [r3, #28]
 183 002e D3F8003E 		ldr	r3, [r3, #3584]
 184 0032 23F08002 		bic	r2, r3, #128
 185 0036 FB79     		ldrb	r3, [r7, #7]	@ zero_extendqisi2
 186 0038 1343     		orrs	r3, r3, r2
 187 003a C1F8003E 		str	r3, [r1, #3584]
1422:Generated_Source\PSoC6\pdl\drivers\peripheral\ctb/cy_ctb.h **** }
 188              		.loc 2 1422 0
 189 003e 00BF     		nop
 190 0040 0837     		adds	r7, r7, #8
 191              		.cfi_def_cfa_offset 8
 192 0042 BD46     		mov	sp, r7
 193              		.cfi_def_cfa_register 13
 194              		@ sp needed
 195 0044 80BD     		pop	{r7, pc}
 196              	.L12:
 197 0046 00BF     		.align	2
 198              	.L11:
 199 0048 48000000 		.word	.LC1
ARM GAS  C:\Users\JC\AppData\Local\Temp\cclZ7ZAh.s 			page 38


 200 004c 00000000 		.word	cy_device
 201              		.cfi_endproc
 202              	.LFE186:
 203              		.size	Cy_CTB_SetIptatLevel, .-Cy_CTB_SetIptatLevel
 204              		.section	.text.Cy_CTB_EnableRedirect,"ax",%progbits
 205              		.align	2
 206              		.thumb
 207              		.thumb_func
 208              		.type	Cy_CTB_EnableRedirect, %function
 209              	Cy_CTB_EnableRedirect:
 210              	.LFB188:
1423:Generated_Source\PSoC6\pdl\drivers\peripheral\ctb/cy_ctb.h **** 
1424:Generated_Source\PSoC6\pdl\drivers\peripheral\ctb/cy_ctb.h **** /*******************************************************************************
1425:Generated_Source\PSoC6\pdl\drivers\peripheral\ctb/cy_ctb.h **** * Function Name: Cy_CTB_SetClkPumpSource
1426:Generated_Source\PSoC6\pdl\drivers\peripheral\ctb/cy_ctb.h **** ****************************************************************************//**
1427:Generated_Source\PSoC6\pdl\drivers\peripheral\ctb/cy_ctb.h **** *
1428:Generated_Source\PSoC6\pdl\drivers\peripheral\ctb/cy_ctb.h **** * Set the clock source for both charge pumps in the CTB. Recall that each opamp
1429:Generated_Source\PSoC6\pdl\drivers\peripheral\ctb/cy_ctb.h **** * has its own charge pump. The clock can come from:
1430:Generated_Source\PSoC6\pdl\drivers\peripheral\ctb/cy_ctb.h **** *
1431:Generated_Source\PSoC6\pdl\drivers\peripheral\ctb/cy_ctb.h **** *   - A dedicated divider off of one of the CLK_PATH in the SRSS.
1432:Generated_Source\PSoC6\pdl\drivers\peripheral\ctb/cy_ctb.h **** *     Call the following functions to configure the pump clock from the SRSS:
1433:Generated_Source\PSoC6\pdl\drivers\peripheral\ctb/cy_ctb.h **** *       - \ref Cy_SysClk_ClkPumpSetSource
1434:Generated_Source\PSoC6\pdl\drivers\peripheral\ctb/cy_ctb.h **** *       - \ref Cy_SysClk_ClkPumpDisable
1435:Generated_Source\PSoC6\pdl\drivers\peripheral\ctb/cy_ctb.h **** *       - \ref Cy_SysClk_ClkPumpSetDivider
1436:Generated_Source\PSoC6\pdl\drivers\peripheral\ctb/cy_ctb.h **** *       - \ref Cy_SysClk_ClkPumpEnable
1437:Generated_Source\PSoC6\pdl\drivers\peripheral\ctb/cy_ctb.h **** *   - One of the Peri Clock dividers.
1438:Generated_Source\PSoC6\pdl\drivers\peripheral\ctb/cy_ctb.h **** *     Call the following functions to configure a Peri Clock divider as the
1439:Generated_Source\PSoC6\pdl\drivers\peripheral\ctb/cy_ctb.h **** *     pump clock:
1440:Generated_Source\PSoC6\pdl\drivers\peripheral\ctb/cy_ctb.h **** *       - \ref Cy_SysClk_PeriphDisableDivider
1441:Generated_Source\PSoC6\pdl\drivers\peripheral\ctb/cy_ctb.h **** *       - \ref Cy_SysClk_PeriphAssignDivider with the IP block set to PCLK_PASS_CLOCK_PUMP_PERI
1442:Generated_Source\PSoC6\pdl\drivers\peripheral\ctb/cy_ctb.h **** *       - \ref Cy_SysClk_PeriphSetDivider
1443:Generated_Source\PSoC6\pdl\drivers\peripheral\ctb/cy_ctb.h **** *       - \ref Cy_SysClk_PeriphEnableDivider
1444:Generated_Source\PSoC6\pdl\drivers\peripheral\ctb/cy_ctb.h **** *
1445:Generated_Source\PSoC6\pdl\drivers\peripheral\ctb/cy_ctb.h **** * \param clkPump
1446:Generated_Source\PSoC6\pdl\drivers\peripheral\ctb/cy_ctb.h **** * Clock source selection (SRSS or PeriClk) for the pump. Select a value from
1447:Generated_Source\PSoC6\pdl\drivers\peripheral\ctb/cy_ctb.h **** * \ref cy_en_ctb_clk_pump_source_t
1448:Generated_Source\PSoC6\pdl\drivers\peripheral\ctb/cy_ctb.h **** *
1449:Generated_Source\PSoC6\pdl\drivers\peripheral\ctb/cy_ctb.h **** * \return None
1450:Generated_Source\PSoC6\pdl\drivers\peripheral\ctb/cy_ctb.h **** *
1451:Generated_Source\PSoC6\pdl\drivers\peripheral\ctb/cy_ctb.h **** * \funcusage
1452:Generated_Source\PSoC6\pdl\drivers\peripheral\ctb/cy_ctb.h **** *
1453:Generated_Source\PSoC6\pdl\drivers\peripheral\ctb/cy_ctb.h **** * \snippet ctb_sut_01.cydsn/main_cm4.c CTB_SNIPPET_SET_CLK_PUMP_SOURCE_SRSS
1454:Generated_Source\PSoC6\pdl\drivers\peripheral\ctb/cy_ctb.h **** *
1455:Generated_Source\PSoC6\pdl\drivers\peripheral\ctb/cy_ctb.h **** * \funcusage
1456:Generated_Source\PSoC6\pdl\drivers\peripheral\ctb/cy_ctb.h **** *
1457:Generated_Source\PSoC6\pdl\drivers\peripheral\ctb/cy_ctb.h **** * \snippet ctb_sut_01.cydsn/main_cm4.c CTB_SNIPPET_SET_CLK_PUMP_SOURCE_PERI
1458:Generated_Source\PSoC6\pdl\drivers\peripheral\ctb/cy_ctb.h **** *
1459:Generated_Source\PSoC6\pdl\drivers\peripheral\ctb/cy_ctb.h **** *******************************************************************************/
1460:Generated_Source\PSoC6\pdl\drivers\peripheral\ctb/cy_ctb.h **** __STATIC_INLINE void Cy_CTB_SetClkPumpSource(cy_en_ctb_clk_pump_source_t clkPump)
1461:Generated_Source\PSoC6\pdl\drivers\peripheral\ctb/cy_ctb.h **** {
1462:Generated_Source\PSoC6\pdl\drivers\peripheral\ctb/cy_ctb.h ****     CY_ASSERT_L3(CY_CTB_CLKPUMP(clkPump));
1463:Generated_Source\PSoC6\pdl\drivers\peripheral\ctb/cy_ctb.h **** 
1464:Generated_Source\PSoC6\pdl\drivers\peripheral\ctb/cy_ctb.h ****     PASS_AREF_AREF_CTRL = (PASS_AREF_AREF_CTRL & ~PASS_AREF_AREF_CTRL_CLOCK_PUMP_PERI_SEL_Msk) | (u
1465:Generated_Source\PSoC6\pdl\drivers\peripheral\ctb/cy_ctb.h **** }
1466:Generated_Source\PSoC6\pdl\drivers\peripheral\ctb/cy_ctb.h **** 
1467:Generated_Source\PSoC6\pdl\drivers\peripheral\ctb/cy_ctb.h **** /*******************************************************************************
1468:Generated_Source\PSoC6\pdl\drivers\peripheral\ctb/cy_ctb.h **** * Function Name: Cy_CTB_EnableRedirect
ARM GAS  C:\Users\JC\AppData\Local\Temp\cclZ7ZAh.s 			page 39


1469:Generated_Source\PSoC6\pdl\drivers\peripheral\ctb/cy_ctb.h **** ****************************************************************************//**
1470:Generated_Source\PSoC6\pdl\drivers\peripheral\ctb/cy_ctb.h **** *
1471:Generated_Source\PSoC6\pdl\drivers\peripheral\ctb/cy_ctb.h **** * Normally, the AREF IZTAT is routed to the CTB IZTAT and the AREF IPTAT
1472:Generated_Source\PSoC6\pdl\drivers\peripheral\ctb/cy_ctb.h **** * is routed to the CTB IPTAT:
1473:Generated_Source\PSoC6\pdl\drivers\peripheral\ctb/cy_ctb.h **** *
1474:Generated_Source\PSoC6\pdl\drivers\peripheral\ctb/cy_ctb.h **** *   - CTB.IZTAT = AREF.IZTAT
1475:Generated_Source\PSoC6\pdl\drivers\peripheral\ctb/cy_ctb.h **** *   - CTB.IPTAT = AREF.IPTAT
1476:Generated_Source\PSoC6\pdl\drivers\peripheral\ctb/cy_ctb.h **** *
1477:Generated_Source\PSoC6\pdl\drivers\peripheral\ctb/cy_ctb.h **** * However, the AREF IPTAT can be redirected to the CTB IZTAT and the CTB IPTAT
1478:Generated_Source\PSoC6\pdl\drivers\peripheral\ctb/cy_ctb.h **** * is off.
1479:Generated_Source\PSoC6\pdl\drivers\peripheral\ctb/cy_ctb.h **** *
1480:Generated_Source\PSoC6\pdl\drivers\peripheral\ctb/cy_ctb.h **** *   - CTB.IZTAT = AREF.IPTAT
1481:Generated_Source\PSoC6\pdl\drivers\peripheral\ctb/cy_ctb.h **** *   - CTB.IPTAT = HiZ
1482:Generated_Source\PSoC6\pdl\drivers\peripheral\ctb/cy_ctb.h **** *
1483:Generated_Source\PSoC6\pdl\drivers\peripheral\ctb/cy_ctb.h **** * The redirection applies to all opamps on the device and
1484:Generated_Source\PSoC6\pdl\drivers\peripheral\ctb/cy_ctb.h **** * should be used when the IPTAT bias level is set to 100 nA
1485:Generated_Source\PSoC6\pdl\drivers\peripheral\ctb/cy_ctb.h **** * (see \ref Cy_CTB_SetIptatLevel).
1486:Generated_Source\PSoC6\pdl\drivers\peripheral\ctb/cy_ctb.h **** *
1487:Generated_Source\PSoC6\pdl\drivers\peripheral\ctb/cy_ctb.h **** * When the CTB.IPTAT is HiZ, the CTB cannot compensate for the slope of
1488:Generated_Source\PSoC6\pdl\drivers\peripheral\ctb/cy_ctb.h **** * the offset across temperature.
1489:Generated_Source\PSoC6\pdl\drivers\peripheral\ctb/cy_ctb.h **** *
1490:Generated_Source\PSoC6\pdl\drivers\peripheral\ctb/cy_ctb.h **** * \return None
1491:Generated_Source\PSoC6\pdl\drivers\peripheral\ctb/cy_ctb.h **** *
1492:Generated_Source\PSoC6\pdl\drivers\peripheral\ctb/cy_ctb.h **** * \funcusage
1493:Generated_Source\PSoC6\pdl\drivers\peripheral\ctb/cy_ctb.h **** *
1494:Generated_Source\PSoC6\pdl\drivers\peripheral\ctb/cy_ctb.h **** * \snippet ctb_sut_01.cydsn/main_cm4.c CTB_SNIPPET_ENABLE_REDIRECT
1495:Generated_Source\PSoC6\pdl\drivers\peripheral\ctb/cy_ctb.h **** *
1496:Generated_Source\PSoC6\pdl\drivers\peripheral\ctb/cy_ctb.h **** *******************************************************************************/
1497:Generated_Source\PSoC6\pdl\drivers\peripheral\ctb/cy_ctb.h **** __STATIC_INLINE void Cy_CTB_EnableRedirect(void)
1498:Generated_Source\PSoC6\pdl\drivers\peripheral\ctb/cy_ctb.h **** {
 211              		.loc 2 1498 0
 212              		.cfi_startproc
 213              		@ args = 0, pretend = 0, frame = 0
 214              		@ frame_needed = 1, uses_anonymous_args = 0
 215              		@ link register save eliminated.
 216 0000 80B4     		push	{r7}
 217              		.cfi_def_cfa_offset 4
 218              		.cfi_offset 7, -4
 219 0002 00AF     		add	r7, sp, #0
 220              		.cfi_def_cfa_register 7
1499:Generated_Source\PSoC6\pdl\drivers\peripheral\ctb/cy_ctb.h ****     PASS_AREF_AREF_CTRL |= PASS_AREF_AREF_CTRL_CTB_IPTAT_REDIRECT_Msk;
 221              		.loc 2 1499 0
 222 0004 084B     		ldr	r3, .L14
 223 0006 1B68     		ldr	r3, [r3]
 224 0008 DB69     		ldr	r3, [r3, #28]
 225 000a 1A46     		mov	r2, r3
 226 000c 064B     		ldr	r3, .L14
 227 000e 1B68     		ldr	r3, [r3]
 228 0010 DB69     		ldr	r3, [r3, #28]
 229 0012 D3F8003E 		ldr	r3, [r3, #3584]
 230 0016 43F47F43 		orr	r3, r3, #65280
 231 001a C2F8003E 		str	r3, [r2, #3584]
1500:Generated_Source\PSoC6\pdl\drivers\peripheral\ctb/cy_ctb.h **** }
 232              		.loc 2 1500 0
 233 001e 00BF     		nop
 234 0020 BD46     		mov	sp, r7
 235              		.cfi_def_cfa_register 13
ARM GAS  C:\Users\JC\AppData\Local\Temp\cclZ7ZAh.s 			page 40


 236              		@ sp needed
 237 0022 5DF8047B 		ldr	r7, [sp], #4
 238              		.cfi_restore 7
 239              		.cfi_def_cfa_offset 0
 240 0026 7047     		bx	lr
 241              	.L15:
 242              		.align	2
 243              	.L14:
 244 0028 00000000 		.word	cy_device
 245              		.cfi_endproc
 246              	.LFE188:
 247              		.size	Cy_CTB_EnableRedirect, .-Cy_CTB_EnableRedirect
 248              		.section	.text.Cy_CTB_DisableRedirect,"ax",%progbits
 249              		.align	2
 250              		.thumb
 251              		.thumb_func
 252              		.type	Cy_CTB_DisableRedirect, %function
 253              	Cy_CTB_DisableRedirect:
 254              	.LFB189:
1501:Generated_Source\PSoC6\pdl\drivers\peripheral\ctb/cy_ctb.h **** 
1502:Generated_Source\PSoC6\pdl\drivers\peripheral\ctb/cy_ctb.h **** /*******************************************************************************
1503:Generated_Source\PSoC6\pdl\drivers\peripheral\ctb/cy_ctb.h **** * Function Name: Cy_CTB_DisableRedirect
1504:Generated_Source\PSoC6\pdl\drivers\peripheral\ctb/cy_ctb.h **** ****************************************************************************//**
1505:Generated_Source\PSoC6\pdl\drivers\peripheral\ctb/cy_ctb.h **** *
1506:Generated_Source\PSoC6\pdl\drivers\peripheral\ctb/cy_ctb.h **** * Disable the redirection of the AREF IPTAT to the CTB IZTAT for all opamps
1507:Generated_Source\PSoC6\pdl\drivers\peripheral\ctb/cy_ctb.h **** * on the device as enabled by \ref Cy_CTB_EnableRedirect.
1508:Generated_Source\PSoC6\pdl\drivers\peripheral\ctb/cy_ctb.h **** *
1509:Generated_Source\PSoC6\pdl\drivers\peripheral\ctb/cy_ctb.h **** * \return None
1510:Generated_Source\PSoC6\pdl\drivers\peripheral\ctb/cy_ctb.h **** *
1511:Generated_Source\PSoC6\pdl\drivers\peripheral\ctb/cy_ctb.h **** *******************************************************************************/
1512:Generated_Source\PSoC6\pdl\drivers\peripheral\ctb/cy_ctb.h **** __STATIC_INLINE void Cy_CTB_DisableRedirect(void)
1513:Generated_Source\PSoC6\pdl\drivers\peripheral\ctb/cy_ctb.h **** {
 255              		.loc 2 1513 0
 256              		.cfi_startproc
 257              		@ args = 0, pretend = 0, frame = 0
 258              		@ frame_needed = 1, uses_anonymous_args = 0
 259              		@ link register save eliminated.
 260 0000 80B4     		push	{r7}
 261              		.cfi_def_cfa_offset 4
 262              		.cfi_offset 7, -4
 263 0002 00AF     		add	r7, sp, #0
 264              		.cfi_def_cfa_register 7
1514:Generated_Source\PSoC6\pdl\drivers\peripheral\ctb/cy_ctb.h ****     PASS_AREF_AREF_CTRL &= ~(PASS_AREF_AREF_CTRL_CTB_IPTAT_REDIRECT_Msk);
 265              		.loc 2 1514 0
 266 0004 084B     		ldr	r3, .L17
 267 0006 1B68     		ldr	r3, [r3]
 268 0008 DB69     		ldr	r3, [r3, #28]
 269 000a 1A46     		mov	r2, r3
 270 000c 064B     		ldr	r3, .L17
 271 000e 1B68     		ldr	r3, [r3]
 272 0010 DB69     		ldr	r3, [r3, #28]
 273 0012 D3F8003E 		ldr	r3, [r3, #3584]
 274 0016 23F47F43 		bic	r3, r3, #65280
 275 001a C2F8003E 		str	r3, [r2, #3584]
1515:Generated_Source\PSoC6\pdl\drivers\peripheral\ctb/cy_ctb.h **** }
 276              		.loc 2 1515 0
 277 001e 00BF     		nop
ARM GAS  C:\Users\JC\AppData\Local\Temp\cclZ7ZAh.s 			page 41


 278 0020 BD46     		mov	sp, r7
 279              		.cfi_def_cfa_register 13
 280              		@ sp needed
 281 0022 5DF8047B 		ldr	r7, [sp], #4
 282              		.cfi_restore 7
 283              		.cfi_def_cfa_offset 0
 284 0026 7047     		bx	lr
 285              	.L18:
 286              		.align	2
 287              	.L17:
 288 0028 00000000 		.word	cy_device
 289              		.cfi_endproc
 290              	.LFE189:
 291              		.size	Cy_CTB_DisableRedirect, .-Cy_CTB_DisableRedirect
 292              		.global	Cy_CTB_Fast_Opamp0_Unused
 293              		.section	.rodata
 294 0083 00       		.align	2
 295              		.type	Cy_CTB_Fast_Opamp0_Unused, %object
 296              		.size	Cy_CTB_Fast_Opamp0_Unused, 12
 297              	Cy_CTB_Fast_Opamp0_Unused:
 298 0084 00000000 		.space	12
 298      00000000 
 298      00000000 
 299              		.global	Cy_CTB_Fast_Opamp0_Comp
 300              		.align	2
 301              		.type	Cy_CTB_Fast_Opamp0_Comp, %object
 302              		.size	Cy_CTB_Fast_Opamp0_Comp, 12
 303              	Cy_CTB_Fast_Opamp0_Comp:
 304 0090 02       		.byte	2
 305 0091 10       		.byte	16
 306 0092 0000     		.space	2
 307 0094 00000000 		.word	0
 308 0098 00000000 		.word	0
 309              		.global	Cy_CTB_Fast_Opamp0_Opamp1x
 310              		.align	2
 311              		.type	Cy_CTB_Fast_Opamp0_Opamp1x, %object
 312              		.size	Cy_CTB_Fast_Opamp0_Opamp1x, 12
 313              	Cy_CTB_Fast_Opamp0_Opamp1x:
 314 009c 02       		.byte	2
 315 009d 00       		.byte	0
 316 009e 0000     		.space	2
 317 00a0 00000000 		.word	0
 318 00a4 00000000 		.word	0
 319              		.global	Cy_CTB_Fast_Opamp0_Opamp10x
 320              		.align	2
 321              		.type	Cy_CTB_Fast_Opamp0_Opamp10x, %object
 322              		.size	Cy_CTB_Fast_Opamp0_Opamp10x, 12
 323              	Cy_CTB_Fast_Opamp0_Opamp10x:
 324 00a8 02       		.byte	2
 325 00a9 08       		.byte	8
 326 00aa 0000     		.space	2
 327 00ac 00000000 		.word	0
 328 00b0 00000000 		.word	0
 329              		.global	Cy_CTB_Fast_Opamp0_Diffamp
 330              		.align	2
 331              		.type	Cy_CTB_Fast_Opamp0_Diffamp, %object
 332              		.size	Cy_CTB_Fast_Opamp0_Diffamp, 12
ARM GAS  C:\Users\JC\AppData\Local\Temp\cclZ7ZAh.s 			page 42


 333              	Cy_CTB_Fast_Opamp0_Diffamp:
 334 00b4 02       		.byte	2
 335 00b5 08       		.byte	8
 336 00b6 0000     		.space	2
 337 00b8 04010000 		.word	260
 338 00bc 00400000 		.word	16384
 339              		.global	Cy_CTB_Fast_Opamp0_Vdac_Out
 340              		.align	2
 341              		.type	Cy_CTB_Fast_Opamp0_Vdac_Out, %object
 342              		.size	Cy_CTB_Fast_Opamp0_Vdac_Out, 12
 343              	Cy_CTB_Fast_Opamp0_Vdac_Out:
 344 00c0 02       		.byte	2
 345 00c1 08       		.byte	8
 346 00c2 0000     		.space	2
 347 00c4 00402000 		.word	2113536
 348 00c8 00220000 		.word	8704
 349              		.global	Cy_CTB_Fast_Opamp0_Vdac_Out_SH
 350              		.align	2
 351              		.type	Cy_CTB_Fast_Opamp0_Vdac_Out_SH, %object
 352              		.size	Cy_CTB_Fast_Opamp0_Vdac_Out_SH, 12
 353              	Cy_CTB_Fast_Opamp0_Vdac_Out_SH:
 354 00cc 02       		.byte	2
 355 00cd 08       		.byte	8
 356 00ce 0000     		.space	2
 357 00d0 00402000 		.word	2113536
 358 00d4 00320000 		.word	12800
 359              		.global	Cy_CTB_Fast_Opamp1_Unused
 360              		.align	2
 361              		.type	Cy_CTB_Fast_Opamp1_Unused, %object
 362              		.size	Cy_CTB_Fast_Opamp1_Unused, 12
 363              	Cy_CTB_Fast_Opamp1_Unused:
 364 00d8 00000000 		.space	12
 364      00000000 
 364      00000000 
 365              		.global	Cy_CTB_Fast_Opamp1_Comp
 366              		.align	2
 367              		.type	Cy_CTB_Fast_Opamp1_Comp, %object
 368              		.size	Cy_CTB_Fast_Opamp1_Comp, 12
 369              	Cy_CTB_Fast_Opamp1_Comp:
 370 00e4 02       		.byte	2
 371 00e5 10       		.byte	16
 372 00e6 0000     		.space	2
 373 00e8 00000000 		.word	0
 374 00ec 00000000 		.word	0
 375              		.global	Cy_CTB_Fast_Opamp1_Opamp1x
 376              		.align	2
 377              		.type	Cy_CTB_Fast_Opamp1_Opamp1x, %object
 378              		.size	Cy_CTB_Fast_Opamp1_Opamp1x, 12
 379              	Cy_CTB_Fast_Opamp1_Opamp1x:
 380 00f0 02       		.byte	2
 381 00f1 00       		.byte	0
 382 00f2 0000     		.space	2
 383 00f4 00000000 		.word	0
 384 00f8 00000000 		.word	0
 385              		.global	Cy_CTB_Fast_Opamp1_Opamp10x
 386              		.align	2
 387              		.type	Cy_CTB_Fast_Opamp1_Opamp10x, %object
ARM GAS  C:\Users\JC\AppData\Local\Temp\cclZ7ZAh.s 			page 43


 388              		.size	Cy_CTB_Fast_Opamp1_Opamp10x, 12
 389              	Cy_CTB_Fast_Opamp1_Opamp10x:
 390 00fc 02       		.byte	2
 391 00fd 08       		.byte	8
 392 00fe 0000     		.space	2
 393 0100 00000000 		.word	0
 394 0104 00000000 		.word	0
 395              		.global	Cy_CTB_Fast_Opamp1_Diffamp
 396              		.align	2
 397              		.type	Cy_CTB_Fast_Opamp1_Diffamp, %object
 398              		.size	Cy_CTB_Fast_Opamp1_Diffamp, 12
 399              	Cy_CTB_Fast_Opamp1_Diffamp:
 400 0108 02       		.byte	2
 401 0109 08       		.byte	8
 402 010a 0000     		.space	2
 403 010c 10010000 		.word	272
 404 0110 00000000 		.word	0
 405              		.global	Cy_CTB_Fast_Opamp1_Vdac_Ref_Aref
 406              		.align	2
 407              		.type	Cy_CTB_Fast_Opamp1_Vdac_Ref_Aref, %object
 408              		.size	Cy_CTB_Fast_Opamp1_Vdac_Ref_Aref, 12
 409              	Cy_CTB_Fast_Opamp1_Vdac_Ref_Aref:
 410 0114 02       		.byte	2
 411 0115 00       		.byte	0
 412 0116 0000     		.space	2
 413 0118 80400000 		.word	16512
 414 011c 02000000 		.word	2
 415              		.global	Cy_CTB_Fast_Opamp1_Vdac_Ref_Pin5
 416              		.align	2
 417              		.type	Cy_CTB_Fast_Opamp1_Vdac_Ref_Pin5, %object
 418              		.size	Cy_CTB_Fast_Opamp1_Vdac_Ref_Pin5, 12
 419              	Cy_CTB_Fast_Opamp1_Vdac_Ref_Pin5:
 420 0120 02       		.byte	2
 421 0121 00       		.byte	0
 422 0122 0000     		.space	2
 423 0124 02400000 		.word	16386
 424 0128 02000000 		.word	2
 425              		.align	2
 426              	.LC2:
 427 012c 47656E65 		.ascii	"Generated_Source\\PSoC6\\pdl\\drivers\\peripheral\\"
 427      72617465 
 427      645F536F 
 427      75726365 
 427      5C50536F 
 428 015a 6374625C 		.ascii	"ctb\\cy_ctb.c\000"
 428      63795F63 
 428      74622E63 
 428      00
 429              		.section	.text.Cy_CTB_Init,"ax",%progbits
 430              		.align	2
 431              		.global	Cy_CTB_Init
 432              		.thumb
 433              		.thumb_func
 434              		.type	Cy_CTB_Init, %function
 435              	Cy_CTB_Init:
 436              	.LFB190:
 437              		.file 3 "Generated_Source\\PSoC6\\pdl\\drivers\\peripheral\\ctb\\cy_ctb.c"
ARM GAS  C:\Users\JC\AppData\Local\Temp\cclZ7ZAh.s 			page 44


   1:Generated_Source\PSoC6\pdl\drivers\peripheral\ctb/cy_ctb.c **** /***************************************************************************//**
   2:Generated_Source\PSoC6\pdl\drivers\peripheral\ctb/cy_ctb.c **** * \file cy_ctb.c
   3:Generated_Source\PSoC6\pdl\drivers\peripheral\ctb/cy_ctb.c **** * \version 1.10
   4:Generated_Source\PSoC6\pdl\drivers\peripheral\ctb/cy_ctb.c **** *
   5:Generated_Source\PSoC6\pdl\drivers\peripheral\ctb/cy_ctb.c **** * \brief
   6:Generated_Source\PSoC6\pdl\drivers\peripheral\ctb/cy_ctb.c **** * Provides the public functions for the CTB driver.
   7:Generated_Source\PSoC6\pdl\drivers\peripheral\ctb/cy_ctb.c **** *
   8:Generated_Source\PSoC6\pdl\drivers\peripheral\ctb/cy_ctb.c **** ********************************************************************************
   9:Generated_Source\PSoC6\pdl\drivers\peripheral\ctb/cy_ctb.c **** * \copyright
  10:Generated_Source\PSoC6\pdl\drivers\peripheral\ctb/cy_ctb.c **** * Copyright 2017-2018, Cypress Semiconductor Corporation. All rights reserved.
  11:Generated_Source\PSoC6\pdl\drivers\peripheral\ctb/cy_ctb.c **** * You may use this file only in accordance with the license, terms, conditions,
  12:Generated_Source\PSoC6\pdl\drivers\peripheral\ctb/cy_ctb.c **** * disclaimers, and limitations in the end user license agreement accompanying
  13:Generated_Source\PSoC6\pdl\drivers\peripheral\ctb/cy_ctb.c **** * the software package with which this file was provided.
  14:Generated_Source\PSoC6\pdl\drivers\peripheral\ctb/cy_ctb.c **** *******************************************************************************/
  15:Generated_Source\PSoC6\pdl\drivers\peripheral\ctb/cy_ctb.c **** 
  16:Generated_Source\PSoC6\pdl\drivers\peripheral\ctb/cy_ctb.c **** #include "cy_ctb.h"
  17:Generated_Source\PSoC6\pdl\drivers\peripheral\ctb/cy_ctb.c **** 
  18:Generated_Source\PSoC6\pdl\drivers\peripheral\ctb/cy_ctb.c **** #ifdef CY_IP_MXS40PASS_CTB
  19:Generated_Source\PSoC6\pdl\drivers\peripheral\ctb/cy_ctb.c **** 
  20:Generated_Source\PSoC6\pdl\drivers\peripheral\ctb/cy_ctb.c **** #if defined(__cplusplus)
  21:Generated_Source\PSoC6\pdl\drivers\peripheral\ctb/cy_ctb.c **** extern "C" {
  22:Generated_Source\PSoC6\pdl\drivers\peripheral\ctb/cy_ctb.c **** #endif
  23:Generated_Source\PSoC6\pdl\drivers\peripheral\ctb/cy_ctb.c **** 
  24:Generated_Source\PSoC6\pdl\drivers\peripheral\ctb/cy_ctb.c **** /***************************************
  25:Generated_Source\PSoC6\pdl\drivers\peripheral\ctb/cy_ctb.c **** *       Fast Config Selections
  26:Generated_Source\PSoC6\pdl\drivers\peripheral\ctb/cy_ctb.c **** ***************************************/
  27:Generated_Source\PSoC6\pdl\drivers\peripheral\ctb/cy_ctb.c **** const cy_stc_ctb_fast_config_oa0_t Cy_CTB_Fast_Opamp0_Unused =
  28:Generated_Source\PSoC6\pdl\drivers\peripheral\ctb/cy_ctb.c **** {
  29:Generated_Source\PSoC6\pdl\drivers\peripheral\ctb/cy_ctb.c ****     /*.oa0Power        */ CY_CTB_POWER_OFF,
  30:Generated_Source\PSoC6\pdl\drivers\peripheral\ctb/cy_ctb.c ****     /*.oa0Mode         */ CY_CTB_MODE_OPAMP1X,
  31:Generated_Source\PSoC6\pdl\drivers\peripheral\ctb/cy_ctb.c ****     /*.oa0SwitchCtrl   */ CY_CTB_DEINIT,
  32:Generated_Source\PSoC6\pdl\drivers\peripheral\ctb/cy_ctb.c ****     /*.ctdSwitchCtrl   */ CY_CTB_DEINIT,
  33:Generated_Source\PSoC6\pdl\drivers\peripheral\ctb/cy_ctb.c **** };
  34:Generated_Source\PSoC6\pdl\drivers\peripheral\ctb/cy_ctb.c **** 
  35:Generated_Source\PSoC6\pdl\drivers\peripheral\ctb/cy_ctb.c **** const cy_stc_ctb_fast_config_oa0_t Cy_CTB_Fast_Opamp0_Comp =
  36:Generated_Source\PSoC6\pdl\drivers\peripheral\ctb/cy_ctb.c **** {
  37:Generated_Source\PSoC6\pdl\drivers\peripheral\ctb/cy_ctb.c ****     /*.oa0Power        */ CY_CTB_POWER_MEDIUM,
  38:Generated_Source\PSoC6\pdl\drivers\peripheral\ctb/cy_ctb.c ****     /*.oa0Mode         */ CY_CTB_MODE_COMP,
  39:Generated_Source\PSoC6\pdl\drivers\peripheral\ctb/cy_ctb.c ****     /*.oa0SwitchCtrl   */ CY_CTB_DEINIT,
  40:Generated_Source\PSoC6\pdl\drivers\peripheral\ctb/cy_ctb.c ****     /*.ctdSwitchCtrl   */ CY_CTB_DEINIT,
  41:Generated_Source\PSoC6\pdl\drivers\peripheral\ctb/cy_ctb.c **** };
  42:Generated_Source\PSoC6\pdl\drivers\peripheral\ctb/cy_ctb.c **** 
  43:Generated_Source\PSoC6\pdl\drivers\peripheral\ctb/cy_ctb.c **** const cy_stc_ctb_fast_config_oa0_t Cy_CTB_Fast_Opamp0_Opamp1x =
  44:Generated_Source\PSoC6\pdl\drivers\peripheral\ctb/cy_ctb.c **** {
  45:Generated_Source\PSoC6\pdl\drivers\peripheral\ctb/cy_ctb.c ****     /*.oa0Power        */ CY_CTB_POWER_MEDIUM,
  46:Generated_Source\PSoC6\pdl\drivers\peripheral\ctb/cy_ctb.c ****     /*.oa0Mode         */ CY_CTB_MODE_OPAMP1X,
  47:Generated_Source\PSoC6\pdl\drivers\peripheral\ctb/cy_ctb.c ****     /*.oa0SwitchCtrl   */ CY_CTB_DEINIT,
  48:Generated_Source\PSoC6\pdl\drivers\peripheral\ctb/cy_ctb.c ****     /*.ctdSwitchCtrl   */ CY_CTB_DEINIT,
