ARM GAS  C:\Users\JC\AppData\Local\Temp\ccZlMrPB.s 			page 1


   1              		.syntax unified
   2              		.cpu cortex-m0plus
   3              		.fpu softvfp
   4              		.eabi_attribute 20, 1
   5              		.eabi_attribute 21, 1
   6              		.eabi_attribute 23, 3
   7              		.eabi_attribute 24, 1
   8              		.eabi_attribute 25, 1
   9              		.eabi_attribute 26, 1
  10              		.eabi_attribute 30, 6
  11              		.eabi_attribute 34, 0
  12              		.eabi_attribute 18, 4
  13              		.thumb
  14              		.syntax unified
  15              		.file	"cy_profile.c"
  16              		.text
  17              	.Ltext0:
  18              		.cfi_sections	.debug_frame
  19              		.section	.text.Cy_Profile_ClearCounters,"ax",%progbits
  20              		.align	2
  21              		.code	16
  22              		.thumb_func
  23              		.type	Cy_Profile_ClearCounters, %function
  24              	Cy_Profile_ClearCounters:
  25              	.LFB49:
  26              		.file 1 "Generated_Source\\PSoC6\\pdl\\drivers\\peripheral\\profile\\cy_profile.h"
   1:Generated_Source\PSoC6\pdl\drivers\peripheral\profile/cy_profile.h **** /***************************************************************************//**
   2:Generated_Source\PSoC6\pdl\drivers\peripheral\profile/cy_profile.h **** * \file cy_profile.h
   3:Generated_Source\PSoC6\pdl\drivers\peripheral\profile/cy_profile.h **** * \version 1.10
   4:Generated_Source\PSoC6\pdl\drivers\peripheral\profile/cy_profile.h **** *
   5:Generated_Source\PSoC6\pdl\drivers\peripheral\profile/cy_profile.h **** * Provides an API declaration of the energy profiler driver.
   6:Generated_Source\PSoC6\pdl\drivers\peripheral\profile/cy_profile.h **** *
   7:Generated_Source\PSoC6\pdl\drivers\peripheral\profile/cy_profile.h **** ********************************************************************************
   8:Generated_Source\PSoC6\pdl\drivers\peripheral\profile/cy_profile.h **** * \copyright
   9:Generated_Source\PSoC6\pdl\drivers\peripheral\profile/cy_profile.h **** * Copyright 2016-2018, Cypress Semiconductor Corporation. All rights reserved.
  10:Generated_Source\PSoC6\pdl\drivers\peripheral\profile/cy_profile.h **** * You may use this file only in accordance with the license, terms, conditions,
  11:Generated_Source\PSoC6\pdl\drivers\peripheral\profile/cy_profile.h **** * disclaimers, and limitations in the end user license agreement accompanying
  12:Generated_Source\PSoC6\pdl\drivers\peripheral\profile/cy_profile.h **** * the software package with which this file was provided.
  13:Generated_Source\PSoC6\pdl\drivers\peripheral\profile/cy_profile.h **** *******************************************************************************/
  14:Generated_Source\PSoC6\pdl\drivers\peripheral\profile/cy_profile.h **** 
  15:Generated_Source\PSoC6\pdl\drivers\peripheral\profile/cy_profile.h **** /**
  16:Generated_Source\PSoC6\pdl\drivers\peripheral\profile/cy_profile.h **** * \addtogroup group_energy_profiler
  17:Generated_Source\PSoC6\pdl\drivers\peripheral\profile/cy_profile.h **** * \{
  18:Generated_Source\PSoC6\pdl\drivers\peripheral\profile/cy_profile.h **** * 
  19:Generated_Source\PSoC6\pdl\drivers\peripheral\profile/cy_profile.h **** * The energy profiler driver is an API for configuring and using the profile 
  20:Generated_Source\PSoC6\pdl\drivers\peripheral\profile/cy_profile.h **** * hardware block. 
  21:Generated_Source\PSoC6\pdl\drivers\peripheral\profile/cy_profile.h **** *
  22:Generated_Source\PSoC6\pdl\drivers\peripheral\profile/cy_profile.h **** * The functions and other declarations used in this driver are in cy_profile.h. 
  23:Generated_Source\PSoC6\pdl\drivers\peripheral\profile/cy_profile.h **** * You can include cy_pdl.h (ModusToolbox only) to get access to all functions 
  24:Generated_Source\PSoC6\pdl\drivers\peripheral\profile/cy_profile.h **** * and declarations in the PDL. 
  25:Generated_Source\PSoC6\pdl\drivers\peripheral\profile/cy_profile.h **** *
  26:Generated_Source\PSoC6\pdl\drivers\peripheral\profile/cy_profile.h **** * The profile block enables measurement of the signal activity
  27:Generated_Source\PSoC6\pdl\drivers\peripheral\profile/cy_profile.h **** * of select peripherals and monitor sources during a measurement window. Using
  28:Generated_Source\PSoC6\pdl\drivers\peripheral\profile/cy_profile.h **** * these measurements, you can construct a profile of the energy consumed
  29:Generated_Source\PSoC6\pdl\drivers\peripheral\profile/cy_profile.h **** * in the device by scaling the individual peripheral activities with appropriate
  30:Generated_Source\PSoC6\pdl\drivers\peripheral\profile/cy_profile.h **** * scaling (weight) factors. This gives the application the ability to monitor
  31:Generated_Source\PSoC6\pdl\drivers\peripheral\profile/cy_profile.h **** * the energy consumed by the internal resources with minimal CPU overhead and
ARM GAS  C:\Users\JC\AppData\Local\Temp\ccZlMrPB.s 			page 2


  32:Generated_Source\PSoC6\pdl\drivers\peripheral\profile/cy_profile.h **** * without external monitoring hardware.
  33:Generated_Source\PSoC6\pdl\drivers\peripheral\profile/cy_profile.h **** *
  34:Generated_Source\PSoC6\pdl\drivers\peripheral\profile/cy_profile.h **** * \section group_profile_details Details
  35:Generated_Source\PSoC6\pdl\drivers\peripheral\profile/cy_profile.h **** *
  36:Generated_Source\PSoC6\pdl\drivers\peripheral\profile/cy_profile.h **** * \subsection group_profile_hardware Profile Hardware
  37:Generated_Source\PSoC6\pdl\drivers\peripheral\profile/cy_profile.h **** *
  38:Generated_Source\PSoC6\pdl\drivers\peripheral\profile/cy_profile.h **** * The profile hardware consists of a number of profile counters that accept specific
  39:Generated_Source\PSoC6\pdl\drivers\peripheral\profile/cy_profile.h **** * triggers for incrementing the count value. This allows the events of the source 
  40:Generated_Source\PSoC6\pdl\drivers\peripheral\profile/cy_profile.h **** * (such as the number of SCB0 bus accesses or the duration of time the BLE RX radio
  41:Generated_Source\PSoC6\pdl\drivers\peripheral\profile/cy_profile.h **** * is active) to be counted during the measurement window. The available monitor 
  42:Generated_Source\PSoC6\pdl\drivers\peripheral\profile/cy_profile.h **** * sources in the device can be found in the en_ep_mon_sel_t enum in the device 
  43:Generated_Source\PSoC6\pdl\drivers\peripheral\profile/cy_profile.h **** * configuration file (e.g. psoc62_config.h). These can be sourced to any of the
  44:Generated_Source\PSoC6\pdl\drivers\peripheral\profile/cy_profile.h **** * profile counters as triggers. There are two methods of using the monitor sources
  45:Generated_Source\PSoC6\pdl\drivers\peripheral\profile/cy_profile.h **** * in a profile counter.
  46:Generated_Source\PSoC6\pdl\drivers\peripheral\profile/cy_profile.h **** *
  47:Generated_Source\PSoC6\pdl\drivers\peripheral\profile/cy_profile.h **** * - Event: The count value is incremented when a pulse event signal is seen by the
  48:Generated_Source\PSoC6\pdl\drivers\peripheral\profile/cy_profile.h **** *   counter. This type of monitoring is suitable when the monitoring source of 
  49:Generated_Source\PSoC6\pdl\drivers\peripheral\profile/cy_profile.h **** *   interest needs to count the discrete events (such as the number of flash read 
  50:Generated_Source\PSoC6\pdl\drivers\peripheral\profile/cy_profile.h **** *   accesses) happening in the measurement window.
  51:Generated_Source\PSoC6\pdl\drivers\peripheral\profile/cy_profile.h **** *
  52:Generated_Source\PSoC6\pdl\drivers\peripheral\profile/cy_profile.h **** * - Duration: The count value is incremented at every clock edge while the monitor
  53:Generated_Source\PSoC6\pdl\drivers\peripheral\profile/cy_profile.h **** *   signal is high. This type of monitoring is suitable when a signal is active for
  54:Generated_Source\PSoC6\pdl\drivers\peripheral\profile/cy_profile.h **** *   a finite amount of time (such as the time the BLE TX radio is active) and the
  55:Generated_Source\PSoC6\pdl\drivers\peripheral\profile/cy_profile.h **** *   duration must be expressed as number of clock cycles in the measurement window.
  56:Generated_Source\PSoC6\pdl\drivers\peripheral\profile/cy_profile.h **** *
  57:Generated_Source\PSoC6\pdl\drivers\peripheral\profile/cy_profile.h **** * Many of the available monitor sources are suitable for event type monitoring.
  58:Generated_Source\PSoC6\pdl\drivers\peripheral\profile/cy_profile.h **** * Using a duration type on these signals may not give valuable information. Review 
  59:Generated_Source\PSoC6\pdl\drivers\peripheral\profile/cy_profile.h **** * the device TRM for more information on the monitor sources and detail on how they
  60:Generated_Source\PSoC6\pdl\drivers\peripheral\profile/cy_profile.h **** * should be used.
  61:Generated_Source\PSoC6\pdl\drivers\peripheral\profile/cy_profile.h **** *
  62:Generated_Source\PSoC6\pdl\drivers\peripheral\profile/cy_profile.h **** * \subsection group_profile_measurement_types Measurement Types
  63:Generated_Source\PSoC6\pdl\drivers\peripheral\profile/cy_profile.h **** *
  64:Generated_Source\PSoC6\pdl\drivers\peripheral\profile/cy_profile.h **** * Depending on the item of interest, energy measurement can be performed by using
  65:Generated_Source\PSoC6\pdl\drivers\peripheral\profile/cy_profile.h **** * the following methods.
  66:Generated_Source\PSoC6\pdl\drivers\peripheral\profile/cy_profile.h **** *
  67:Generated_Source\PSoC6\pdl\drivers\peripheral\profile/cy_profile.h **** * - Continuous measurement: A profile counter can be assigned a monitor signal of
  68:Generated_Source\PSoC6\pdl\drivers\peripheral\profile/cy_profile.h **** *   constant 1 (PROFILE_ONE), which sets the counter to increment at every (assigned)
  69:Generated_Source\PSoC6\pdl\drivers\peripheral\profile/cy_profile.h **** *   clock cycle. This can be used to give a reference time for the measurement window
  70:Generated_Source\PSoC6\pdl\drivers\peripheral\profile/cy_profile.h **** *   and also allows the construction of timestamps. For example, a software controlled
  71:Generated_Source\PSoC6\pdl\drivers\peripheral\profile/cy_profile.h **** *   GPIO can be "timestamped" by reading the counter value (on the fly) before it is
  72:Generated_Source\PSoC6\pdl\drivers\peripheral\profile/cy_profile.h **** *   toggled. When the measurement window ends, the energy contribution caused by the
  73:Generated_Source\PSoC6\pdl\drivers\peripheral\profile/cy_profile.h **** *   GPIO toggle can be incorporated into the final calculation.
  74:Generated_Source\PSoC6\pdl\drivers\peripheral\profile/cy_profile.h **** *
  75:Generated_Source\PSoC6\pdl\drivers\peripheral\profile/cy_profile.h **** * - Event measurement: Monitored events happening in a measurement window can be 
  76:Generated_Source\PSoC6\pdl\drivers\peripheral\profile/cy_profile.h **** *   used to increment a profile counter. This gives the activity numbers, which can
  77:Generated_Source\PSoC6\pdl\drivers\peripheral\profile/cy_profile.h **** *   then be multiplied by the instantaneous power numbers associated with the source
  78:Generated_Source\PSoC6\pdl\drivers\peripheral\profile/cy_profile.h **** *   to give the average energy consumption (Energy = Power x time). For example, the 
  79:Generated_Source\PSoC6\pdl\drivers\peripheral\profile/cy_profile.h **** *   energy consumed by an Operating System (OS) task can be estimated by monitoring
  80:Generated_Source\PSoC6\pdl\drivers\peripheral\profile/cy_profile.h **** *   the processor's active cycle count (E.g. CPUSS_MONITOR_CM4) and the flash read
  81:Generated_Source\PSoC6\pdl\drivers\peripheral\profile/cy_profile.h **** *   accesses (CPUSS_MONITOR_FLASH). Note that these activity numbers can also be 
  82:Generated_Source\PSoC6\pdl\drivers\peripheral\profile/cy_profile.h **** *   timestamped using the continuous measurement method to differentiate between the
  83:Generated_Source\PSoC6\pdl\drivers\peripheral\profile/cy_profile.h **** *   different task switches. The activity numbers are then multiplied by the associated
  84:Generated_Source\PSoC6\pdl\drivers\peripheral\profile/cy_profile.h **** *   processor and flash access power numbers to give the average energy consumed by
  85:Generated_Source\PSoC6\pdl\drivers\peripheral\profile/cy_profile.h **** *   that task.
  86:Generated_Source\PSoC6\pdl\drivers\peripheral\profile/cy_profile.h **** *
  87:Generated_Source\PSoC6\pdl\drivers\peripheral\profile/cy_profile.h **** * - Duration measurement: A peripheral event such as the SMIF select signal can be 
  88:Generated_Source\PSoC6\pdl\drivers\peripheral\profile/cy_profile.h **** *   used by a profile counter to measure the time spent on XIP communication through the 
ARM GAS  C:\Users\JC\AppData\Local\Temp\ccZlMrPB.s 			page 3


  89:Generated_Source\PSoC6\pdl\drivers\peripheral\profile/cy_profile.h **** *   SPI interface. This activity number can then be multiplied by the power associated
  90:Generated_Source\PSoC6\pdl\drivers\peripheral\profile/cy_profile.h **** *   with that activity to give the average energy consumed by that block during the
  91:Generated_Source\PSoC6\pdl\drivers\peripheral\profile/cy_profile.h **** *   measurement window. This type of monitoring should be performed only for signals
  92:Generated_Source\PSoC6\pdl\drivers\peripheral\profile/cy_profile.h **** *   that are difficult to track in software. For example, a combination of interrupts
  93:Generated_Source\PSoC6\pdl\drivers\peripheral\profile/cy_profile.h **** *   and timestamps can be used to track the activity of many peripherals in a continuous
  94:Generated_Source\PSoC6\pdl\drivers\peripheral\profile/cy_profile.h **** *   monitoring model. However tracking the activity of signals such the BLE radio
  95:Generated_Source\PSoC6\pdl\drivers\peripheral\profile/cy_profile.h **** *   should be done using the duration measurement method.
  96:Generated_Source\PSoC6\pdl\drivers\peripheral\profile/cy_profile.h **** *
  97:Generated_Source\PSoC6\pdl\drivers\peripheral\profile/cy_profile.h **** * - Low power measurement: The profile counters do not support measurement during chip 
  98:Generated_Source\PSoC6\pdl\drivers\peripheral\profile/cy_profile.h **** *   Deep Sleep, Hibernate, and off states. I.e. the profile counters are meant for active
  99:Generated_Source\PSoC6\pdl\drivers\peripheral\profile/cy_profile.h **** *   run-time measurements only. To measure the time spent in low power modes (LPM),
 100:Generated_Source\PSoC6\pdl\drivers\peripheral\profile/cy_profile.h **** *   a real-time clock (RTC) should be used. Take a timestamp before LPM entry and a 
 101:Generated_Source\PSoC6\pdl\drivers\peripheral\profile/cy_profile.h **** *   timestamp upon LPM exit in a continuous measurement model. Then multiply the difference
 102:Generated_Source\PSoC6\pdl\drivers\peripheral\profile/cy_profile.h **** *   by the appropriate LPM power numbers.
 103:Generated_Source\PSoC6\pdl\drivers\peripheral\profile/cy_profile.h **** *
 104:Generated_Source\PSoC6\pdl\drivers\peripheral\profile/cy_profile.h **** * \subsection group_profile_usage Driver Usage
 105:Generated_Source\PSoC6\pdl\drivers\peripheral\profile/cy_profile.h **** *
 106:Generated_Source\PSoC6\pdl\drivers\peripheral\profile/cy_profile.h **** * At the highest level, the energy profiler must perform the following steps to 
 107:Generated_Source\PSoC6\pdl\drivers\peripheral\profile/cy_profile.h **** * obtain a measurement:
 108:Generated_Source\PSoC6\pdl\drivers\peripheral\profile/cy_profile.h **** *
 109:Generated_Source\PSoC6\pdl\drivers\peripheral\profile/cy_profile.h **** *  1. Initialize the profile hardware block.
 110:Generated_Source\PSoC6\pdl\drivers\peripheral\profile/cy_profile.h **** *  2. Initialize the profile interrupt (profile_interrupt_IRQn).
 111:Generated_Source\PSoC6\pdl\drivers\peripheral\profile/cy_profile.h **** *  3. Configure, initialize, and enable the profile counters.
 112:Generated_Source\PSoC6\pdl\drivers\peripheral\profile/cy_profile.h **** *  4. Enable the profile interrupt and start the profiling/measurement window.
 113:Generated_Source\PSoC6\pdl\drivers\peripheral\profile/cy_profile.h **** *  5. Perform run-time reads of the counters (if needed).
 114:Generated_Source\PSoC6\pdl\drivers\peripheral\profile/cy_profile.h **** *  6. Disable the profile interrupt and stop the profiling/measurement window.
 115:Generated_Source\PSoC6\pdl\drivers\peripheral\profile/cy_profile.h **** *  7. Read the counters and gather the results.
 116:Generated_Source\PSoC6\pdl\drivers\peripheral\profile/cy_profile.h **** *  8. Calculate the energy consumption.
 117:Generated_Source\PSoC6\pdl\drivers\peripheral\profile/cy_profile.h **** *
 118:Generated_Source\PSoC6\pdl\drivers\peripheral\profile/cy_profile.h **** * Refer to the SysInt driver on the details of configuring the profile hardware interrupt.
 119:Generated_Source\PSoC6\pdl\drivers\peripheral\profile/cy_profile.h **** *
 120:Generated_Source\PSoC6\pdl\drivers\peripheral\profile/cy_profile.h **** * The profile interrupt triggers when a counter overflow event is detected on any of the
 121:Generated_Source\PSoC6\pdl\drivers\peripheral\profile/cy_profile.h **** * enabled profile counters. A sample interrupt service routine Cy_Profile_ISR() is provided,
 122:Generated_Source\PSoC6\pdl\drivers\peripheral\profile/cy_profile.h **** * which can be used to update the internal counter states stored in RAM. Refer to the
 123:Generated_Source\PSoC6\pdl\drivers\peripheral\profile/cy_profile.h **** * Configuration Considerations for more information.
 124:Generated_Source\PSoC6\pdl\drivers\peripheral\profile/cy_profile.h **** *
 125:Generated_Source\PSoC6\pdl\drivers\peripheral\profile/cy_profile.h **** * \section group_profile_configuration Configuration Considerations
 126:Generated_Source\PSoC6\pdl\drivers\peripheral\profile/cy_profile.h **** * 
 127:Generated_Source\PSoC6\pdl\drivers\peripheral\profile/cy_profile.h **** * Each counter is a 32-bit register that counts either a number of clock cycles, 
 128:Generated_Source\PSoC6\pdl\drivers\peripheral\profile/cy_profile.h **** * or a number of events. Overflowing the 32-bit register is possible. To address
 129:Generated_Source\PSoC6\pdl\drivers\peripheral\profile/cy_profile.h **** * this issue, the driver implements a 32-bit overflow counter. Combined with the 32-bit
 130:Generated_Source\PSoC6\pdl\drivers\peripheral\profile/cy_profile.h **** * register, this gives a 64-bit counter for each monitored source. 
 131:Generated_Source\PSoC6\pdl\drivers\peripheral\profile/cy_profile.h **** *
 132:Generated_Source\PSoC6\pdl\drivers\peripheral\profile/cy_profile.h **** * When an overflow occurs, the profile hardware generates an interrupt. The interrupt is 
 133:Generated_Source\PSoC6\pdl\drivers\peripheral\profile/cy_profile.h **** * configured using the SysInt driver, where the sample interrupt handler Cy_Profile_ISR()
 134:Generated_Source\PSoC6\pdl\drivers\peripheral\profile/cy_profile.h **** * can be used as the ISR. The ISR increments the overflow counter for each profiling counter 
 135:Generated_Source\PSoC6\pdl\drivers\peripheral\profile/cy_profile.h **** * and clears the interrupt.
 136:Generated_Source\PSoC6\pdl\drivers\peripheral\profile/cy_profile.h **** *
 137:Generated_Source\PSoC6\pdl\drivers\peripheral\profile/cy_profile.h **** * \section group_profile_more_information More Information
 138:Generated_Source\PSoC6\pdl\drivers\peripheral\profile/cy_profile.h **** *
 139:Generated_Source\PSoC6\pdl\drivers\peripheral\profile/cy_profile.h **** * See the profiler chapter of the device technical reference manual (TRM).
 140:Generated_Source\PSoC6\pdl\drivers\peripheral\profile/cy_profile.h **** *
 141:Generated_Source\PSoC6\pdl\drivers\peripheral\profile/cy_profile.h **** * \section group_profile_MISRA MISRA-C Compliance
 142:Generated_Source\PSoC6\pdl\drivers\peripheral\profile/cy_profile.h **** * <table class="doxtable">
 143:Generated_Source\PSoC6\pdl\drivers\peripheral\profile/cy_profile.h **** *   <tr>
 144:Generated_Source\PSoC6\pdl\drivers\peripheral\profile/cy_profile.h **** *     <th>MISRA Rule</th>
 145:Generated_Source\PSoC6\pdl\drivers\peripheral\profile/cy_profile.h **** *     <th>Rule Class (Required/Advisory)</th>
ARM GAS  C:\Users\JC\AppData\Local\Temp\ccZlMrPB.s 			page 4


 146:Generated_Source\PSoC6\pdl\drivers\peripheral\profile/cy_profile.h **** *     <th>Rule Description</th>
 147:Generated_Source\PSoC6\pdl\drivers\peripheral\profile/cy_profile.h **** *     <th>Description of Deviation(s)</th>
 148:Generated_Source\PSoC6\pdl\drivers\peripheral\profile/cy_profile.h **** *   </tr>
 149:Generated_Source\PSoC6\pdl\drivers\peripheral\profile/cy_profile.h **** *   <tr>
 150:Generated_Source\PSoC6\pdl\drivers\peripheral\profile/cy_profile.h **** *     <td>12.4</td>
 151:Generated_Source\PSoC6\pdl\drivers\peripheral\profile/cy_profile.h **** *     <td>R</td>
 152:Generated_Source\PSoC6\pdl\drivers\peripheral\profile/cy_profile.h **** *     <td>Right hand operand of '&&' or '||' is an expression with possible side effects.</td>
 153:Generated_Source\PSoC6\pdl\drivers\peripheral\profile/cy_profile.h **** *     <td>Function-like macros are used to achieve more efficient code.</td>
 154:Generated_Source\PSoC6\pdl\drivers\peripheral\profile/cy_profile.h **** *   </tr>
 155:Generated_Source\PSoC6\pdl\drivers\peripheral\profile/cy_profile.h **** *   <tr>
 156:Generated_Source\PSoC6\pdl\drivers\peripheral\profile/cy_profile.h **** *     <td>16.7</td>
 157:Generated_Source\PSoC6\pdl\drivers\peripheral\profile/cy_profile.h **** *     <td>A</td>
 158:Generated_Source\PSoC6\pdl\drivers\peripheral\profile/cy_profile.h **** *     <td>A pointer parameter can be of type 'pointer to const'.</td>
 159:Generated_Source\PSoC6\pdl\drivers\peripheral\profile/cy_profile.h **** *     <td>The pointer is cast for comparison purposes and thus can't be a const.</td>
 160:Generated_Source\PSoC6\pdl\drivers\peripheral\profile/cy_profile.h **** *   </tr>
 161:Generated_Source\PSoC6\pdl\drivers\peripheral\profile/cy_profile.h **** * </table>
 162:Generated_Source\PSoC6\pdl\drivers\peripheral\profile/cy_profile.h **** *
 163:Generated_Source\PSoC6\pdl\drivers\peripheral\profile/cy_profile.h **** * \section group_profile_changelog Changelog
 164:Generated_Source\PSoC6\pdl\drivers\peripheral\profile/cy_profile.h **** * <table class="doxtable">
 165:Generated_Source\PSoC6\pdl\drivers\peripheral\profile/cy_profile.h **** *   <tr><th>Version</th><th>Changes</th><th>Reason for Change</th></tr>
 166:Generated_Source\PSoC6\pdl\drivers\peripheral\profile/cy_profile.h **** *   <tr>
 167:Generated_Source\PSoC6\pdl\drivers\peripheral\profile/cy_profile.h **** *     <td rowspan="3">1.10</td>
 168:Generated_Source\PSoC6\pdl\drivers\peripheral\profile/cy_profile.h **** *     <td>Flattened the organization of the driver source code into the single source directory and
 169:Generated_Source\PSoC6\pdl\drivers\peripheral\profile/cy_profile.h **** *     <td>Driver library directory-structure simplification.</td>
 170:Generated_Source\PSoC6\pdl\drivers\peripheral\profile/cy_profile.h **** *   </tr>
 171:Generated_Source\PSoC6\pdl\drivers\peripheral\profile/cy_profile.h **** *   <tr>
 172:Generated_Source\PSoC6\pdl\drivers\peripheral\profile/cy_profile.h **** *     <td>Added register access layer. Use register access macros instead
 173:Generated_Source\PSoC6\pdl\drivers\peripheral\profile/cy_profile.h **** *         of direct register access using dereferenced pointers.</td>
 174:Generated_Source\PSoC6\pdl\drivers\peripheral\profile/cy_profile.h **** *     <td>Makes register access device-independent, so that the PDL does 
 175:Generated_Source\PSoC6\pdl\drivers\peripheral\profile/cy_profile.h **** *         not need to be recompiled for each supported part number.</td>
 176:Generated_Source\PSoC6\pdl\drivers\peripheral\profile/cy_profile.h **** *   </tr>
 177:Generated_Source\PSoC6\pdl\drivers\peripheral\profile/cy_profile.h **** *   <tr>
 178:Generated_Source\PSoC6\pdl\drivers\peripheral\profile/cy_profile.h **** *     <td>Added parameter check asserts.</td>
 179:Generated_Source\PSoC6\pdl\drivers\peripheral\profile/cy_profile.h **** *     <td>Driver defect fix.</td>
 180:Generated_Source\PSoC6\pdl\drivers\peripheral\profile/cy_profile.h **** *   </tr>
 181:Generated_Source\PSoC6\pdl\drivers\peripheral\profile/cy_profile.h **** *   <tr>
 182:Generated_Source\PSoC6\pdl\drivers\peripheral\profile/cy_profile.h **** *     <td>1.0</td>
 183:Generated_Source\PSoC6\pdl\drivers\peripheral\profile/cy_profile.h **** *     <td>Initial version</td>
 184:Generated_Source\PSoC6\pdl\drivers\peripheral\profile/cy_profile.h **** *     <td></td>
 185:Generated_Source\PSoC6\pdl\drivers\peripheral\profile/cy_profile.h **** *   </tr>
 186:Generated_Source\PSoC6\pdl\drivers\peripheral\profile/cy_profile.h **** * </table>
 187:Generated_Source\PSoC6\pdl\drivers\peripheral\profile/cy_profile.h **** *
 188:Generated_Source\PSoC6\pdl\drivers\peripheral\profile/cy_profile.h **** * \defgroup group_profile_macros Macros
 189:Generated_Source\PSoC6\pdl\drivers\peripheral\profile/cy_profile.h **** * \defgroup group_profile_functions Functions
 190:Generated_Source\PSoC6\pdl\drivers\peripheral\profile/cy_profile.h **** * \{
 191:Generated_Source\PSoC6\pdl\drivers\peripheral\profile/cy_profile.h **** *   \defgroup group_profile_functions_interrupt    Interrupt Functions
 192:Generated_Source\PSoC6\pdl\drivers\peripheral\profile/cy_profile.h **** *   \defgroup group_profile_functions_general      General Functions
 193:Generated_Source\PSoC6\pdl\drivers\peripheral\profile/cy_profile.h **** *   \defgroup group_profile_functions_counter      Counter Functions
 194:Generated_Source\PSoC6\pdl\drivers\peripheral\profile/cy_profile.h **** *   \defgroup group_profile_functions_calculation  Calculation Functions
 195:Generated_Source\PSoC6\pdl\drivers\peripheral\profile/cy_profile.h **** * \}
 196:Generated_Source\PSoC6\pdl\drivers\peripheral\profile/cy_profile.h **** * \defgroup group_profile_data_structures Data Structures
 197:Generated_Source\PSoC6\pdl\drivers\peripheral\profile/cy_profile.h **** * \defgroup group_profile_enums Enumerated Types
 198:Generated_Source\PSoC6\pdl\drivers\peripheral\profile/cy_profile.h **** */
 199:Generated_Source\PSoC6\pdl\drivers\peripheral\profile/cy_profile.h **** 
 200:Generated_Source\PSoC6\pdl\drivers\peripheral\profile/cy_profile.h **** #if !defined(CY_PROFILE_H)
 201:Generated_Source\PSoC6\pdl\drivers\peripheral\profile/cy_profile.h **** #define CY_PROFILE_H
 202:Generated_Source\PSoC6\pdl\drivers\peripheral\profile/cy_profile.h **** 
ARM GAS  C:\Users\JC\AppData\Local\Temp\ccZlMrPB.s 			page 5


 203:Generated_Source\PSoC6\pdl\drivers\peripheral\profile/cy_profile.h **** #include "cy_device.h"
 204:Generated_Source\PSoC6\pdl\drivers\peripheral\profile/cy_profile.h **** #include "cy_device_headers.h"
 205:Generated_Source\PSoC6\pdl\drivers\peripheral\profile/cy_profile.h **** #include "cy_syslib.h"
 206:Generated_Source\PSoC6\pdl\drivers\peripheral\profile/cy_profile.h **** #include <stddef.h>
 207:Generated_Source\PSoC6\pdl\drivers\peripheral\profile/cy_profile.h **** 
 208:Generated_Source\PSoC6\pdl\drivers\peripheral\profile/cy_profile.h **** #ifdef CY_IP_MXPROFILE
 209:Generated_Source\PSoC6\pdl\drivers\peripheral\profile/cy_profile.h **** 
 210:Generated_Source\PSoC6\pdl\drivers\peripheral\profile/cy_profile.h **** #if defined(__cplusplus)
 211:Generated_Source\PSoC6\pdl\drivers\peripheral\profile/cy_profile.h **** extern "C" {
 212:Generated_Source\PSoC6\pdl\drivers\peripheral\profile/cy_profile.h **** #endif /* __cplusplus */
 213:Generated_Source\PSoC6\pdl\drivers\peripheral\profile/cy_profile.h **** 
 214:Generated_Source\PSoC6\pdl\drivers\peripheral\profile/cy_profile.h **** /** \addtogroup group_profile_macros
 215:Generated_Source\PSoC6\pdl\drivers\peripheral\profile/cy_profile.h **** * \{
 216:Generated_Source\PSoC6\pdl\drivers\peripheral\profile/cy_profile.h **** */
 217:Generated_Source\PSoC6\pdl\drivers\peripheral\profile/cy_profile.h **** 
 218:Generated_Source\PSoC6\pdl\drivers\peripheral\profile/cy_profile.h **** /** Driver major version */
 219:Generated_Source\PSoC6\pdl\drivers\peripheral\profile/cy_profile.h **** #define CY_PROFILE_DRV_VERSION_MAJOR  1
 220:Generated_Source\PSoC6\pdl\drivers\peripheral\profile/cy_profile.h **** 
 221:Generated_Source\PSoC6\pdl\drivers\peripheral\profile/cy_profile.h **** /** Driver minor version */
 222:Generated_Source\PSoC6\pdl\drivers\peripheral\profile/cy_profile.h **** #define CY_PROFILE_DRV_VERSION_MINOR  10
 223:Generated_Source\PSoC6\pdl\drivers\peripheral\profile/cy_profile.h **** 
 224:Generated_Source\PSoC6\pdl\drivers\peripheral\profile/cy_profile.h **** /** Profile driver identifier */
 225:Generated_Source\PSoC6\pdl\drivers\peripheral\profile/cy_profile.h **** #define CY_PROFILE_ID   CY_PDL_DRV_ID(0x1EU)
 226:Generated_Source\PSoC6\pdl\drivers\peripheral\profile/cy_profile.h **** 
 227:Generated_Source\PSoC6\pdl\drivers\peripheral\profile/cy_profile.h **** /** Start profiling command for the CMD register */
 228:Generated_Source\PSoC6\pdl\drivers\peripheral\profile/cy_profile.h **** #define CY_PROFILE_START_TR    1UL  
 229:Generated_Source\PSoC6\pdl\drivers\peripheral\profile/cy_profile.h **** 
 230:Generated_Source\PSoC6\pdl\drivers\peripheral\profile/cy_profile.h **** /** Stop profiling command for the CMD register */
 231:Generated_Source\PSoC6\pdl\drivers\peripheral\profile/cy_profile.h **** #define CY_PROFILE_STOP_TR     2UL  
 232:Generated_Source\PSoC6\pdl\drivers\peripheral\profile/cy_profile.h **** 
 233:Generated_Source\PSoC6\pdl\drivers\peripheral\profile/cy_profile.h **** /** Command to clear all counter registers to 0 */
 234:Generated_Source\PSoC6\pdl\drivers\peripheral\profile/cy_profile.h **** #define CY_PROFILE_CLR_ALL_CNT 0x100UL
 235:Generated_Source\PSoC6\pdl\drivers\peripheral\profile/cy_profile.h **** 
 236:Generated_Source\PSoC6\pdl\drivers\peripheral\profile/cy_profile.h **** /** \} group_profile_macros */
 237:Generated_Source\PSoC6\pdl\drivers\peripheral\profile/cy_profile.h **** 
 238:Generated_Source\PSoC6\pdl\drivers\peripheral\profile/cy_profile.h **** /***************************************
 239:Generated_Source\PSoC6\pdl\drivers\peripheral\profile/cy_profile.h **** *        Constants
 240:Generated_Source\PSoC6\pdl\drivers\peripheral\profile/cy_profile.h **** ***************************************/
 241:Generated_Source\PSoC6\pdl\drivers\peripheral\profile/cy_profile.h **** 
 242:Generated_Source\PSoC6\pdl\drivers\peripheral\profile/cy_profile.h **** /** \cond INTERNAL */
 243:Generated_Source\PSoC6\pdl\drivers\peripheral\profile/cy_profile.h **** 
 244:Generated_Source\PSoC6\pdl\drivers\peripheral\profile/cy_profile.h **** #define CY_PROFILE_PRFL_CNT_NR                  (8u)
 245:Generated_Source\PSoC6\pdl\drivers\peripheral\profile/cy_profile.h **** 
 246:Generated_Source\PSoC6\pdl\drivers\peripheral\profile/cy_profile.h **** /* Parameter check macros */
 247:Generated_Source\PSoC6\pdl\drivers\peripheral\profile/cy_profile.h **** #define CY_PROFILE_IS_MONITOR_VALID(monitor)    ((uint32_t)CY_EP_MONITOR_COUNT > ((uint32_t)(monito
 248:Generated_Source\PSoC6\pdl\drivers\peripheral\profile/cy_profile.h **** #define CY_PROFILE_IS_DURATION_VALID(duration)  (((duration) == CY_PROFILE_EVENT) || \
 249:Generated_Source\PSoC6\pdl\drivers\peripheral\profile/cy_profile.h ****                                                  ((duration) == CY_PROFILE_DURATION))
 250:Generated_Source\PSoC6\pdl\drivers\peripheral\profile/cy_profile.h **** #define CY_PROFILE_IS_REFCLK_VALID(refClk)      (((refClk) == CY_PROFILE_CLK_TIMER) || \
 251:Generated_Source\PSoC6\pdl\drivers\peripheral\profile/cy_profile.h ****                                                  ((refClk) == CY_PROFILE_CLK_IMO) || \
 252:Generated_Source\PSoC6\pdl\drivers\peripheral\profile/cy_profile.h ****                                                  ((refClk) == CY_PROFILE_CLK_ECO) || \
 253:Generated_Source\PSoC6\pdl\drivers\peripheral\profile/cy_profile.h ****                                                  ((refClk) == CY_PROFILE_CLK_LF) || \
 254:Generated_Source\PSoC6\pdl\drivers\peripheral\profile/cy_profile.h ****                                                  ((refClk) == CY_PROFILE_CLK_HF) || \
 255:Generated_Source\PSoC6\pdl\drivers\peripheral\profile/cy_profile.h ****                                                  ((refClk) == CY_PROFILE_CLK_PERI))
 256:Generated_Source\PSoC6\pdl\drivers\peripheral\profile/cy_profile.h **** #define CY_PROFILE_IS_CNT_VALID(numCounters)    ((uint32_t)CY_PROFILE_PRFL_CNT_NR > (numCounters))
 257:Generated_Source\PSoC6\pdl\drivers\peripheral\profile/cy_profile.h **** 
 258:Generated_Source\PSoC6\pdl\drivers\peripheral\profile/cy_profile.h **** /** \endcond */
 259:Generated_Source\PSoC6\pdl\drivers\peripheral\profile/cy_profile.h **** 
ARM GAS  C:\Users\JC\AppData\Local\Temp\ccZlMrPB.s 			page 6


 260:Generated_Source\PSoC6\pdl\drivers\peripheral\profile/cy_profile.h **** /***************************************
 261:Generated_Source\PSoC6\pdl\drivers\peripheral\profile/cy_profile.h **** *        Enumerations
 262:Generated_Source\PSoC6\pdl\drivers\peripheral\profile/cy_profile.h **** ***************************************/
 263:Generated_Source\PSoC6\pdl\drivers\peripheral\profile/cy_profile.h **** 
 264:Generated_Source\PSoC6\pdl\drivers\peripheral\profile/cy_profile.h **** /**
 265:Generated_Source\PSoC6\pdl\drivers\peripheral\profile/cy_profile.h **** * \addtogroup group_profile_enums
 266:Generated_Source\PSoC6\pdl\drivers\peripheral\profile/cy_profile.h **** * \{
 267:Generated_Source\PSoC6\pdl\drivers\peripheral\profile/cy_profile.h **** */
 268:Generated_Source\PSoC6\pdl\drivers\peripheral\profile/cy_profile.h **** 
 269:Generated_Source\PSoC6\pdl\drivers\peripheral\profile/cy_profile.h **** /**
 270:Generated_Source\PSoC6\pdl\drivers\peripheral\profile/cy_profile.h **** * Profile counter reference clock source. Used when duration monitoring.
 271:Generated_Source\PSoC6\pdl\drivers\peripheral\profile/cy_profile.h **** */
 272:Generated_Source\PSoC6\pdl\drivers\peripheral\profile/cy_profile.h **** typedef enum 
 273:Generated_Source\PSoC6\pdl\drivers\peripheral\profile/cy_profile.h **** {
 274:Generated_Source\PSoC6\pdl\drivers\peripheral\profile/cy_profile.h ****     CY_PROFILE_CLK_TIMER  = 0, /**< Timer clock (TimerClk) */
 275:Generated_Source\PSoC6\pdl\drivers\peripheral\profile/cy_profile.h ****     CY_PROFILE_CLK_IMO    = 1, /**< Internal main oscillator (IMO) */
 276:Generated_Source\PSoC6\pdl\drivers\peripheral\profile/cy_profile.h ****     CY_PROFILE_CLK_ECO    = 2, /**< External crystal oscillator (ECO) */
 277:Generated_Source\PSoC6\pdl\drivers\peripheral\profile/cy_profile.h ****     CY_PROFILE_CLK_LF     = 3, /**< Low-frequency clock (LFCLK) */
 278:Generated_Source\PSoC6\pdl\drivers\peripheral\profile/cy_profile.h ****     CY_PROFILE_CLK_HF     = 4, /**< High-Frequency clock (HFCLK0) */
 279:Generated_Source\PSoC6\pdl\drivers\peripheral\profile/cy_profile.h ****     CY_PROFILE_CLK_PERI   = 5, /**< Peripheral clock (PeriClk) */
 280:Generated_Source\PSoC6\pdl\drivers\peripheral\profile/cy_profile.h **** } cy_en_profile_ref_clk_t;
 281:Generated_Source\PSoC6\pdl\drivers\peripheral\profile/cy_profile.h **** 
 282:Generated_Source\PSoC6\pdl\drivers\peripheral\profile/cy_profile.h **** /**
 283:Generated_Source\PSoC6\pdl\drivers\peripheral\profile/cy_profile.h **** * Monitor method type.
 284:Generated_Source\PSoC6\pdl\drivers\peripheral\profile/cy_profile.h **** */
 285:Generated_Source\PSoC6\pdl\drivers\peripheral\profile/cy_profile.h **** typedef enum 
 286:Generated_Source\PSoC6\pdl\drivers\peripheral\profile/cy_profile.h **** {
 287:Generated_Source\PSoC6\pdl\drivers\peripheral\profile/cy_profile.h ****     CY_PROFILE_EVENT    = 0,  /**< Count (edge-detected) module events  */
 288:Generated_Source\PSoC6\pdl\drivers\peripheral\profile/cy_profile.h ****     CY_PROFILE_DURATION = 1,  /**< Count (level) duration in clock cycles */
 289:Generated_Source\PSoC6\pdl\drivers\peripheral\profile/cy_profile.h **** } cy_en_profile_duration_t;
 290:Generated_Source\PSoC6\pdl\drivers\peripheral\profile/cy_profile.h **** 
 291:Generated_Source\PSoC6\pdl\drivers\peripheral\profile/cy_profile.h **** /** Profiler status codes */
 292:Generated_Source\PSoC6\pdl\drivers\peripheral\profile/cy_profile.h **** typedef enum 
 293:Generated_Source\PSoC6\pdl\drivers\peripheral\profile/cy_profile.h **** {
 294:Generated_Source\PSoC6\pdl\drivers\peripheral\profile/cy_profile.h ****     CY_PROFILE_SUCCESS = 0x00U,                                      /**< Operation completed succe
 295:Generated_Source\PSoC6\pdl\drivers\peripheral\profile/cy_profile.h ****     CY_PROFILE_BAD_PARAM = CY_PROFILE_ID | CY_PDL_STATUS_ERROR | 1UL /**< Invalid input parameters 
 296:Generated_Source\PSoC6\pdl\drivers\peripheral\profile/cy_profile.h **** 
 297:Generated_Source\PSoC6\pdl\drivers\peripheral\profile/cy_profile.h ****  } cy_en_profile_status_t;
 298:Generated_Source\PSoC6\pdl\drivers\peripheral\profile/cy_profile.h **** 
 299:Generated_Source\PSoC6\pdl\drivers\peripheral\profile/cy_profile.h ****  /** \} group_profile_enums */
 300:Generated_Source\PSoC6\pdl\drivers\peripheral\profile/cy_profile.h **** 
 301:Generated_Source\PSoC6\pdl\drivers\peripheral\profile/cy_profile.h **** /***************************************
 302:Generated_Source\PSoC6\pdl\drivers\peripheral\profile/cy_profile.h **** *       Configuration Structures
 303:Generated_Source\PSoC6\pdl\drivers\peripheral\profile/cy_profile.h **** ***************************************/
 304:Generated_Source\PSoC6\pdl\drivers\peripheral\profile/cy_profile.h **** 
 305:Generated_Source\PSoC6\pdl\drivers\peripheral\profile/cy_profile.h **** /**
 306:Generated_Source\PSoC6\pdl\drivers\peripheral\profile/cy_profile.h **** * \addtogroup group_profile_data_structures
 307:Generated_Source\PSoC6\pdl\drivers\peripheral\profile/cy_profile.h **** * \{
 308:Generated_Source\PSoC6\pdl\drivers\peripheral\profile/cy_profile.h **** */
 309:Generated_Source\PSoC6\pdl\drivers\peripheral\profile/cy_profile.h **** 
 310:Generated_Source\PSoC6\pdl\drivers\peripheral\profile/cy_profile.h **** /**
 311:Generated_Source\PSoC6\pdl\drivers\peripheral\profile/cy_profile.h **** * Profile counter control register structure. For each counter, holds the CTL register fields.
 312:Generated_Source\PSoC6\pdl\drivers\peripheral\profile/cy_profile.h **** */
 313:Generated_Source\PSoC6\pdl\drivers\peripheral\profile/cy_profile.h **** typedef struct
 314:Generated_Source\PSoC6\pdl\drivers\peripheral\profile/cy_profile.h **** {
 315:Generated_Source\PSoC6\pdl\drivers\peripheral\profile/cy_profile.h ****     cy_en_profile_duration_t  cntDuration; /**< 0 = event; 1 = duration */
 316:Generated_Source\PSoC6\pdl\drivers\peripheral\profile/cy_profile.h ****     cy_en_profile_ref_clk_t   refClkSel;   /**< The reference clock used by the counter */
ARM GAS  C:\Users\JC\AppData\Local\Temp\ccZlMrPB.s 			page 7


 317:Generated_Source\PSoC6\pdl\drivers\peripheral\profile/cy_profile.h ****     en_ep_mon_sel_t           monSel;      /**< The monitor signal to be observed by the counter */
 318:Generated_Source\PSoC6\pdl\drivers\peripheral\profile/cy_profile.h **** } cy_stc_profile_ctr_ctl_t; 
 319:Generated_Source\PSoC6\pdl\drivers\peripheral\profile/cy_profile.h **** 
 320:Generated_Source\PSoC6\pdl\drivers\peripheral\profile/cy_profile.h **** /**
 321:Generated_Source\PSoC6\pdl\drivers\peripheral\profile/cy_profile.h **** * Software structure for holding a profile counter status and configuration information.
 322:Generated_Source\PSoC6\pdl\drivers\peripheral\profile/cy_profile.h **** */
 323:Generated_Source\PSoC6\pdl\drivers\peripheral\profile/cy_profile.h **** typedef struct
 324:Generated_Source\PSoC6\pdl\drivers\peripheral\profile/cy_profile.h **** {
 325:Generated_Source\PSoC6\pdl\drivers\peripheral\profile/cy_profile.h ****     uint8_t                   ctrNum;      /**< Profile counter number */ 
 326:Generated_Source\PSoC6\pdl\drivers\peripheral\profile/cy_profile.h ****     uint8_t                   used;        /**< 0 = available; 1 = used */
 327:Generated_Source\PSoC6\pdl\drivers\peripheral\profile/cy_profile.h ****     cy_stc_profile_ctr_ctl_t  ctlRegVals;  /**< Initial counter CTL register settings */
 328:Generated_Source\PSoC6\pdl\drivers\peripheral\profile/cy_profile.h ****     PROFILE_CNT_STRUCT_Type * cntAddr;     /**< Base address of the counter instance registers */
 329:Generated_Source\PSoC6\pdl\drivers\peripheral\profile/cy_profile.h ****     uint32_t                  ctlReg;      /**< Current CTL register value */
 330:Generated_Source\PSoC6\pdl\drivers\peripheral\profile/cy_profile.h ****     uint32_t                  cntReg;      /**< Current CNT register value */
 331:Generated_Source\PSoC6\pdl\drivers\peripheral\profile/cy_profile.h ****     uint32_t                  overflow;    /**< Extension of cntReg to form a 64-bit counter value 
 332:Generated_Source\PSoC6\pdl\drivers\peripheral\profile/cy_profile.h ****     uint32_t                  weight;      /**< Weighting factor for the counter */
 333:Generated_Source\PSoC6\pdl\drivers\peripheral\profile/cy_profile.h **** } cy_stc_profile_ctr_t;
 334:Generated_Source\PSoC6\pdl\drivers\peripheral\profile/cy_profile.h **** 
 335:Generated_Source\PSoC6\pdl\drivers\peripheral\profile/cy_profile.h **** /**
 336:Generated_Source\PSoC6\pdl\drivers\peripheral\profile/cy_profile.h **** * Pointer to a structure holding the status information for a profile counter.
 337:Generated_Source\PSoC6\pdl\drivers\peripheral\profile/cy_profile.h **** */
 338:Generated_Source\PSoC6\pdl\drivers\peripheral\profile/cy_profile.h **** typedef cy_stc_profile_ctr_t * cy_stc_profile_ctr_ptr_t;
 339:Generated_Source\PSoC6\pdl\drivers\peripheral\profile/cy_profile.h **** /** \} group_profile_data_structures */
 340:Generated_Source\PSoC6\pdl\drivers\peripheral\profile/cy_profile.h **** 
 341:Generated_Source\PSoC6\pdl\drivers\peripheral\profile/cy_profile.h **** /**
 342:Generated_Source\PSoC6\pdl\drivers\peripheral\profile/cy_profile.h **** * \addtogroup group_profile_functions
 343:Generated_Source\PSoC6\pdl\drivers\peripheral\profile/cy_profile.h **** * \{
 344:Generated_Source\PSoC6\pdl\drivers\peripheral\profile/cy_profile.h **** */
 345:Generated_Source\PSoC6\pdl\drivers\peripheral\profile/cy_profile.h **** 
 346:Generated_Source\PSoC6\pdl\drivers\peripheral\profile/cy_profile.h **** /**
 347:Generated_Source\PSoC6\pdl\drivers\peripheral\profile/cy_profile.h **** * \addtogroup group_profile_functions_interrupt
 348:Generated_Source\PSoC6\pdl\drivers\peripheral\profile/cy_profile.h **** * \{
 349:Generated_Source\PSoC6\pdl\drivers\peripheral\profile/cy_profile.h **** */
 350:Generated_Source\PSoC6\pdl\drivers\peripheral\profile/cy_profile.h **** /* ========================================================================== */
 351:Generated_Source\PSoC6\pdl\drivers\peripheral\profile/cy_profile.h **** /* ====================    INTERRUPT FUNCTION SECTION    ==================== */
 352:Generated_Source\PSoC6\pdl\drivers\peripheral\profile/cy_profile.h **** /* ========================================================================== */
 353:Generated_Source\PSoC6\pdl\drivers\peripheral\profile/cy_profile.h **** void Cy_Profile_ISR(void);
 354:Generated_Source\PSoC6\pdl\drivers\peripheral\profile/cy_profile.h **** /** \} group_profile_functions_interrupt */
 355:Generated_Source\PSoC6\pdl\drivers\peripheral\profile/cy_profile.h **** 
 356:Generated_Source\PSoC6\pdl\drivers\peripheral\profile/cy_profile.h **** /**
 357:Generated_Source\PSoC6\pdl\drivers\peripheral\profile/cy_profile.h **** * \addtogroup group_profile_functions_general
 358:Generated_Source\PSoC6\pdl\drivers\peripheral\profile/cy_profile.h **** * \{
 359:Generated_Source\PSoC6\pdl\drivers\peripheral\profile/cy_profile.h **** */
 360:Generated_Source\PSoC6\pdl\drivers\peripheral\profile/cy_profile.h **** __STATIC_INLINE void Cy_Profile_Init(void);
 361:Generated_Source\PSoC6\pdl\drivers\peripheral\profile/cy_profile.h **** __STATIC_INLINE void Cy_Profile_DeInit(void);
 362:Generated_Source\PSoC6\pdl\drivers\peripheral\profile/cy_profile.h ****                 void Cy_Profile_StartProfiling(void);
 363:Generated_Source\PSoC6\pdl\drivers\peripheral\profile/cy_profile.h **** __STATIC_INLINE void Cy_Profile_StopProfiling(void);
 364:Generated_Source\PSoC6\pdl\drivers\peripheral\profile/cy_profile.h **** __STATIC_INLINE uint32_t Cy_Profile_IsProfiling(void);
 365:Generated_Source\PSoC6\pdl\drivers\peripheral\profile/cy_profile.h **** 
 366:Generated_Source\PSoC6\pdl\drivers\peripheral\profile/cy_profile.h **** 
 367:Generated_Source\PSoC6\pdl\drivers\peripheral\profile/cy_profile.h **** /* ========================================================================== */
 368:Generated_Source\PSoC6\pdl\drivers\peripheral\profile/cy_profile.h **** /* ===============    GENERAL PROFILE FUNCTIONS SECTION     ================= */
 369:Generated_Source\PSoC6\pdl\drivers\peripheral\profile/cy_profile.h **** /* ========================================================================== */
 370:Generated_Source\PSoC6\pdl\drivers\peripheral\profile/cy_profile.h **** /*******************************************************************************
 371:Generated_Source\PSoC6\pdl\drivers\peripheral\profile/cy_profile.h **** * Function Name: Cy_Profile_Init
 372:Generated_Source\PSoC6\pdl\drivers\peripheral\profile/cy_profile.h **** ****************************************************************************//**
 373:Generated_Source\PSoC6\pdl\drivers\peripheral\profile/cy_profile.h **** *
ARM GAS  C:\Users\JC\AppData\Local\Temp\ccZlMrPB.s 			page 8


 374:Generated_Source\PSoC6\pdl\drivers\peripheral\profile/cy_profile.h **** * Initializes and enables the profile hardware. 
 375:Generated_Source\PSoC6\pdl\drivers\peripheral\profile/cy_profile.h **** *
 376:Generated_Source\PSoC6\pdl\drivers\peripheral\profile/cy_profile.h **** * This function must be called once when energy profiling is desired. The 
 377:Generated_Source\PSoC6\pdl\drivers\peripheral\profile/cy_profile.h **** * operation does not start a profiling session.
 378:Generated_Source\PSoC6\pdl\drivers\peripheral\profile/cy_profile.h **** *
 379:Generated_Source\PSoC6\pdl\drivers\peripheral\profile/cy_profile.h **** * \note The profile interrupt must also be configured. \ref Cy_Profile_ISR() 
 380:Generated_Source\PSoC6\pdl\drivers\peripheral\profile/cy_profile.h **** * can be used as its handler.
 381:Generated_Source\PSoC6\pdl\drivers\peripheral\profile/cy_profile.h **** *
 382:Generated_Source\PSoC6\pdl\drivers\peripheral\profile/cy_profile.h **** * \funcusage
 383:Generated_Source\PSoC6\pdl\drivers\peripheral\profile/cy_profile.h **** * \snippet profile/profile_v1_0_sut_01.cydsn/main_cm4.c snippet_Cy_Profile_Init
 384:Generated_Source\PSoC6\pdl\drivers\peripheral\profile/cy_profile.h **** *
 385:Generated_Source\PSoC6\pdl\drivers\peripheral\profile/cy_profile.h **** *******************************************************************************/
 386:Generated_Source\PSoC6\pdl\drivers\peripheral\profile/cy_profile.h **** __STATIC_INLINE void Cy_Profile_Init(void)
 387:Generated_Source\PSoC6\pdl\drivers\peripheral\profile/cy_profile.h **** {
 388:Generated_Source\PSoC6\pdl\drivers\peripheral\profile/cy_profile.h ****     PROFILE_CTL = _VAL2FLD(PROFILE_CTL_ENABLED,  1UL/*enabled */) | 
 389:Generated_Source\PSoC6\pdl\drivers\peripheral\profile/cy_profile.h ****                   _VAL2FLD(PROFILE_CTL_WIN_MODE, 0UL/*start/stop mode*/);
 390:Generated_Source\PSoC6\pdl\drivers\peripheral\profile/cy_profile.h ****     PROFILE_INTR_MASK = 0UL; /* clear all counter interrupt mask bits */
 391:Generated_Source\PSoC6\pdl\drivers\peripheral\profile/cy_profile.h **** }
 392:Generated_Source\PSoC6\pdl\drivers\peripheral\profile/cy_profile.h **** 
 393:Generated_Source\PSoC6\pdl\drivers\peripheral\profile/cy_profile.h **** 
 394:Generated_Source\PSoC6\pdl\drivers\peripheral\profile/cy_profile.h **** /*******************************************************************************
 395:Generated_Source\PSoC6\pdl\drivers\peripheral\profile/cy_profile.h **** * Function Name: Cy_Profile_DeInit
 396:Generated_Source\PSoC6\pdl\drivers\peripheral\profile/cy_profile.h **** ****************************************************************************//**
 397:Generated_Source\PSoC6\pdl\drivers\peripheral\profile/cy_profile.h **** *
 398:Generated_Source\PSoC6\pdl\drivers\peripheral\profile/cy_profile.h **** * Clears the interrupt mask and disables the profile hardware. 
 399:Generated_Source\PSoC6\pdl\drivers\peripheral\profile/cy_profile.h **** *
 400:Generated_Source\PSoC6\pdl\drivers\peripheral\profile/cy_profile.h **** * This function should be called when energy profiling is no longer desired.
 401:Generated_Source\PSoC6\pdl\drivers\peripheral\profile/cy_profile.h **** *
 402:Generated_Source\PSoC6\pdl\drivers\peripheral\profile/cy_profile.h **** * \note The profile interrupt is not disabled by this operation and must be
 403:Generated_Source\PSoC6\pdl\drivers\peripheral\profile/cy_profile.h **** * disabled separately.
 404:Generated_Source\PSoC6\pdl\drivers\peripheral\profile/cy_profile.h **** *
 405:Generated_Source\PSoC6\pdl\drivers\peripheral\profile/cy_profile.h **** * \funcusage
 406:Generated_Source\PSoC6\pdl\drivers\peripheral\profile/cy_profile.h **** * \snippet profile/profile_v1_0_sut_01.cydsn/main_cm4.c snippet_Cy_Profile_DeInit
 407:Generated_Source\PSoC6\pdl\drivers\peripheral\profile/cy_profile.h **** *
 408:Generated_Source\PSoC6\pdl\drivers\peripheral\profile/cy_profile.h **** *******************************************************************************/
 409:Generated_Source\PSoC6\pdl\drivers\peripheral\profile/cy_profile.h **** __STATIC_INLINE void Cy_Profile_DeInit(void)
 410:Generated_Source\PSoC6\pdl\drivers\peripheral\profile/cy_profile.h **** {
 411:Generated_Source\PSoC6\pdl\drivers\peripheral\profile/cy_profile.h ****     PROFILE_CTL = _VAL2FLD(PROFILE_CTL_ENABLED, 0UL/*disabled */);
 412:Generated_Source\PSoC6\pdl\drivers\peripheral\profile/cy_profile.h ****     PROFILE_INTR_MASK = 0UL; /* clear all counter interrupt mask bits */
 413:Generated_Source\PSoC6\pdl\drivers\peripheral\profile/cy_profile.h **** }
 414:Generated_Source\PSoC6\pdl\drivers\peripheral\profile/cy_profile.h **** 
 415:Generated_Source\PSoC6\pdl\drivers\peripheral\profile/cy_profile.h **** 
 416:Generated_Source\PSoC6\pdl\drivers\peripheral\profile/cy_profile.h **** /*******************************************************************************
 417:Generated_Source\PSoC6\pdl\drivers\peripheral\profile/cy_profile.h **** * Function Name: Cy_Profile_StopProfiling
 418:Generated_Source\PSoC6\pdl\drivers\peripheral\profile/cy_profile.h **** ****************************************************************************//**
 419:Generated_Source\PSoC6\pdl\drivers\peripheral\profile/cy_profile.h **** *
 420:Generated_Source\PSoC6\pdl\drivers\peripheral\profile/cy_profile.h **** * Stops the profiling/measurement window.
 421:Generated_Source\PSoC6\pdl\drivers\peripheral\profile/cy_profile.h **** *
 422:Generated_Source\PSoC6\pdl\drivers\peripheral\profile/cy_profile.h **** * This operation prevents the enabled profile counters from counting.
 423:Generated_Source\PSoC6\pdl\drivers\peripheral\profile/cy_profile.h **** *
 424:Generated_Source\PSoC6\pdl\drivers\peripheral\profile/cy_profile.h **** * \note The profile interrupt should be disabled before calling this function.
 425:Generated_Source\PSoC6\pdl\drivers\peripheral\profile/cy_profile.h **** *
 426:Generated_Source\PSoC6\pdl\drivers\peripheral\profile/cy_profile.h **** * \funcusage
 427:Generated_Source\PSoC6\pdl\drivers\peripheral\profile/cy_profile.h **** * \snippet profile/profile_v1_0_sut_01.cydsn/main_cm4.c snippet_Cy_Profile_StopProfiling
 428:Generated_Source\PSoC6\pdl\drivers\peripheral\profile/cy_profile.h **** *
 429:Generated_Source\PSoC6\pdl\drivers\peripheral\profile/cy_profile.h **** *******************************************************************************/
 430:Generated_Source\PSoC6\pdl\drivers\peripheral\profile/cy_profile.h **** __STATIC_INLINE void Cy_Profile_StopProfiling(void)
ARM GAS  C:\Users\JC\AppData\Local\Temp\ccZlMrPB.s 			page 9


 431:Generated_Source\PSoC6\pdl\drivers\peripheral\profile/cy_profile.h **** {
 432:Generated_Source\PSoC6\pdl\drivers\peripheral\profile/cy_profile.h ****     PROFILE_CMD = CY_PROFILE_STOP_TR;
 433:Generated_Source\PSoC6\pdl\drivers\peripheral\profile/cy_profile.h **** }
 434:Generated_Source\PSoC6\pdl\drivers\peripheral\profile/cy_profile.h **** 
 435:Generated_Source\PSoC6\pdl\drivers\peripheral\profile/cy_profile.h **** 
 436:Generated_Source\PSoC6\pdl\drivers\peripheral\profile/cy_profile.h **** /*******************************************************************************
 437:Generated_Source\PSoC6\pdl\drivers\peripheral\profile/cy_profile.h **** * Function Name: Cy_Profile_IsProfiling
 438:Generated_Source\PSoC6\pdl\drivers\peripheral\profile/cy_profile.h **** ****************************************************************************//**
 439:Generated_Source\PSoC6\pdl\drivers\peripheral\profile/cy_profile.h **** *
 440:Generated_Source\PSoC6\pdl\drivers\peripheral\profile/cy_profile.h **** * Reports the active status of the profiling window.
 441:Generated_Source\PSoC6\pdl\drivers\peripheral\profile/cy_profile.h **** *
 442:Generated_Source\PSoC6\pdl\drivers\peripheral\profile/cy_profile.h **** * \return 0 = profiling is not active; 1 = profiling is active
 443:Generated_Source\PSoC6\pdl\drivers\peripheral\profile/cy_profile.h **** *
 444:Generated_Source\PSoC6\pdl\drivers\peripheral\profile/cy_profile.h **** * \funcusage
 445:Generated_Source\PSoC6\pdl\drivers\peripheral\profile/cy_profile.h **** * \snippet profile/profile_v1_0_sut_01.cydsn/main_cm4.c snippet_Cy_Profile_IsProfiling
 446:Generated_Source\PSoC6\pdl\drivers\peripheral\profile/cy_profile.h **** *
 447:Generated_Source\PSoC6\pdl\drivers\peripheral\profile/cy_profile.h **** *******************************************************************************/
 448:Generated_Source\PSoC6\pdl\drivers\peripheral\profile/cy_profile.h **** __STATIC_INLINE uint32_t Cy_Profile_IsProfiling(void)
 449:Generated_Source\PSoC6\pdl\drivers\peripheral\profile/cy_profile.h **** {
 450:Generated_Source\PSoC6\pdl\drivers\peripheral\profile/cy_profile.h ****     return _FLD2VAL(PROFILE_STATUS_WIN_ACTIVE, PROFILE_STATUS);
 451:Generated_Source\PSoC6\pdl\drivers\peripheral\profile/cy_profile.h **** }
 452:Generated_Source\PSoC6\pdl\drivers\peripheral\profile/cy_profile.h **** /** \} group_profile_functions_general */
 453:Generated_Source\PSoC6\pdl\drivers\peripheral\profile/cy_profile.h **** 
 454:Generated_Source\PSoC6\pdl\drivers\peripheral\profile/cy_profile.h **** /**
 455:Generated_Source\PSoC6\pdl\drivers\peripheral\profile/cy_profile.h **** * \addtogroup group_profile_functions_counter
 456:Generated_Source\PSoC6\pdl\drivers\peripheral\profile/cy_profile.h **** * \{
 457:Generated_Source\PSoC6\pdl\drivers\peripheral\profile/cy_profile.h **** */
 458:Generated_Source\PSoC6\pdl\drivers\peripheral\profile/cy_profile.h **** void Cy_Profile_ClearConfiguration(void);
 459:Generated_Source\PSoC6\pdl\drivers\peripheral\profile/cy_profile.h **** __STATIC_INLINE void Cy_Profile_ClearCounters(void);
 460:Generated_Source\PSoC6\pdl\drivers\peripheral\profile/cy_profile.h **** cy_stc_profile_ctr_ptr_t Cy_Profile_ConfigureCounter(en_ep_mon_sel_t monitor, cy_en_profile_duratio
 461:Generated_Source\PSoC6\pdl\drivers\peripheral\profile/cy_profile.h **** cy_en_profile_status_t Cy_Profile_FreeCounter(cy_stc_profile_ctr_ptr_t ctrAddr);
 462:Generated_Source\PSoC6\pdl\drivers\peripheral\profile/cy_profile.h **** cy_en_profile_status_t Cy_Profile_EnableCounter(cy_stc_profile_ctr_ptr_t ctrAddr);
 463:Generated_Source\PSoC6\pdl\drivers\peripheral\profile/cy_profile.h **** cy_en_profile_status_t Cy_Profile_DisableCounter(cy_stc_profile_ctr_ptr_t ctrAddr);
 464:Generated_Source\PSoC6\pdl\drivers\peripheral\profile/cy_profile.h **** 
 465:Generated_Source\PSoC6\pdl\drivers\peripheral\profile/cy_profile.h **** /* ========================================================================== */
 466:Generated_Source\PSoC6\pdl\drivers\peripheral\profile/cy_profile.h **** /* ===================    COUNTER FUNCTIONS SECTION    ====================== */
 467:Generated_Source\PSoC6\pdl\drivers\peripheral\profile/cy_profile.h **** /* ========================================================================== */
 468:Generated_Source\PSoC6\pdl\drivers\peripheral\profile/cy_profile.h **** /*******************************************************************************
 469:Generated_Source\PSoC6\pdl\drivers\peripheral\profile/cy_profile.h **** * Function Name: Cy_Profile_ClearCounters
 470:Generated_Source\PSoC6\pdl\drivers\peripheral\profile/cy_profile.h **** ****************************************************************************//**
 471:Generated_Source\PSoC6\pdl\drivers\peripheral\profile/cy_profile.h **** *
 472:Generated_Source\PSoC6\pdl\drivers\peripheral\profile/cy_profile.h **** * Clears all hardware counters to 0.
 473:Generated_Source\PSoC6\pdl\drivers\peripheral\profile/cy_profile.h **** *
 474:Generated_Source\PSoC6\pdl\drivers\peripheral\profile/cy_profile.h **** * \funcusage
 475:Generated_Source\PSoC6\pdl\drivers\peripheral\profile/cy_profile.h **** * \snippet profile/profile_v1_0_sut_01.cydsn/main_cm4.c snippet_Cy_Profile_ClearCounters
 476:Generated_Source\PSoC6\pdl\drivers\peripheral\profile/cy_profile.h **** *
 477:Generated_Source\PSoC6\pdl\drivers\peripheral\profile/cy_profile.h **** *******************************************************************************/
 478:Generated_Source\PSoC6\pdl\drivers\peripheral\profile/cy_profile.h **** __STATIC_INLINE void Cy_Profile_ClearCounters(void)
 479:Generated_Source\PSoC6\pdl\drivers\peripheral\profile/cy_profile.h **** {
  27              		.loc 1 479 0
  28              		.cfi_startproc
  29              		@ args = 0, pretend = 0, frame = 0
  30              		@ frame_needed = 1, uses_anonymous_args = 0
  31 0000 80B5     		push	{r7, lr}
  32              		.cfi_def_cfa_offset 8
  33              		.cfi_offset 7, -8
  34              		.cfi_offset 14, -4
ARM GAS  C:\Users\JC\AppData\Local\Temp\ccZlMrPB.s 			page 10


  35 0002 00AF     		add	r7, sp, #0
  36              		.cfi_def_cfa_register 7
 480:Generated_Source\PSoC6\pdl\drivers\peripheral\profile/cy_profile.h ****     PROFILE_CMD = CY_PROFILE_CLR_ALL_CNT;
  37              		.loc 1 480 0
  38 0004 034B     		ldr	r3, .L2
  39 0006 8022     		movs	r2, #128
  40 0008 5200     		lsls	r2, r2, #1
  41 000a 1A61     		str	r2, [r3, #16]
 481:Generated_Source\PSoC6\pdl\drivers\peripheral\profile/cy_profile.h **** }
  42              		.loc 1 481 0
  43 000c C046     		nop
  44 000e BD46     		mov	sp, r7
  45              		@ sp needed
  46 0010 80BD     		pop	{r7, pc}
  47              	.L3:
  48 0012 C046     		.align	2
  49              	.L2:
  50 0014 00002D40 		.word	1076690944
  51              		.cfi_endproc
  52              	.LFE49:
  53              		.size	Cy_Profile_ClearCounters, .-Cy_Profile_ClearCounters
  54              		.bss
  55              		.align	2
  56              	cy_ep_ctrs:
  57 0000 00000000 		.space	224
  57      00000000 
  57      00000000 
  57      00000000 
  57      00000000 
  58              		.section	.text.Cy_Profile_IsPtrValid,"ax",%progbits
  59              		.align	2
  60              		.code	16
  61              		.thumb_func
  62              		.type	Cy_Profile_IsPtrValid, %function
  63              	Cy_Profile_IsPtrValid:
  64              	.LFB50:
  65              		.file 2 "Generated_Source\\PSoC6\\pdl\\drivers\\peripheral\\profile\\cy_profile.c"
   1:Generated_Source\PSoC6\pdl\drivers\peripheral\profile/cy_profile.c **** /***************************************************************************//** 
   2:Generated_Source\PSoC6\pdl\drivers\peripheral\profile/cy_profile.c **** * \file cy_profile.c
   3:Generated_Source\PSoC6\pdl\drivers\peripheral\profile/cy_profile.c **** * \version 1.10
   4:Generated_Source\PSoC6\pdl\drivers\peripheral\profile/cy_profile.c **** * 
   5:Generated_Source\PSoC6\pdl\drivers\peripheral\profile/cy_profile.c **** * Provides an API declaration of the energy profiler (EP) driver. 
   6:Generated_Source\PSoC6\pdl\drivers\peripheral\profile/cy_profile.c **** *
   7:Generated_Source\PSoC6\pdl\drivers\peripheral\profile/cy_profile.c **** ******************************************************************************** 
   8:Generated_Source\PSoC6\pdl\drivers\peripheral\profile/cy_profile.c **** * \copyright 
   9:Generated_Source\PSoC6\pdl\drivers\peripheral\profile/cy_profile.c **** * Copyright 2016-2018, Cypress Semiconductor Corporation. All rights reserved. 
  10:Generated_Source\PSoC6\pdl\drivers\peripheral\profile/cy_profile.c **** * You may use this file only in accordance with the license, terms, conditions, 
  11:Generated_Source\PSoC6\pdl\drivers\peripheral\profile/cy_profile.c **** * disclaimers, and limitations in the end user license agreement accompanying 
  12:Generated_Source\PSoC6\pdl\drivers\peripheral\profile/cy_profile.c **** * the software package with which this file was provided.
  13:Generated_Source\PSoC6\pdl\drivers\peripheral\profile/cy_profile.c **** *******************************************************************************/
  14:Generated_Source\PSoC6\pdl\drivers\peripheral\profile/cy_profile.c **** 
  15:Generated_Source\PSoC6\pdl\drivers\peripheral\profile/cy_profile.c **** #include "cy_profile.h"
  16:Generated_Source\PSoC6\pdl\drivers\peripheral\profile/cy_profile.c **** #include <string.h>
  17:Generated_Source\PSoC6\pdl\drivers\peripheral\profile/cy_profile.c **** 
  18:Generated_Source\PSoC6\pdl\drivers\peripheral\profile/cy_profile.c **** #ifdef CY_IP_MXPROFILE
  19:Generated_Source\PSoC6\pdl\drivers\peripheral\profile/cy_profile.c **** 
  20:Generated_Source\PSoC6\pdl\drivers\peripheral\profile/cy_profile.c **** #if defined(__cplusplus)
ARM GAS  C:\Users\JC\AppData\Local\Temp\ccZlMrPB.s 			page 11


  21:Generated_Source\PSoC6\pdl\drivers\peripheral\profile/cy_profile.c **** extern "C" {
  22:Generated_Source\PSoC6\pdl\drivers\peripheral\profile/cy_profile.c **** #endif /* __cplusplus */
  23:Generated_Source\PSoC6\pdl\drivers\peripheral\profile/cy_profile.c **** 
  24:Generated_Source\PSoC6\pdl\drivers\peripheral\profile/cy_profile.c **** /* Number of elements in an array */
  25:Generated_Source\PSoC6\pdl\drivers\peripheral\profile/cy_profile.c **** #define CY_N_ELMTS(a) (sizeof(a)/sizeof((a)[0]))
  26:Generated_Source\PSoC6\pdl\drivers\peripheral\profile/cy_profile.c **** 
  27:Generated_Source\PSoC6\pdl\drivers\peripheral\profile/cy_profile.c **** static cy_en_profile_status_t Cy_Profile_IsPtrValid(const cy_stc_profile_ctr_ptr_t ctrAddr);
  28:Generated_Source\PSoC6\pdl\drivers\peripheral\profile/cy_profile.c **** 
  29:Generated_Source\PSoC6\pdl\drivers\peripheral\profile/cy_profile.c **** /* Internal structure - Control and status information for each counter */
  30:Generated_Source\PSoC6\pdl\drivers\peripheral\profile/cy_profile.c **** static cy_stc_profile_ctr_t cy_ep_ctrs[CY_PROFILE_PRFL_CNT_NR];
  31:Generated_Source\PSoC6\pdl\drivers\peripheral\profile/cy_profile.c **** 
  32:Generated_Source\PSoC6\pdl\drivers\peripheral\profile/cy_profile.c **** 
  33:Generated_Source\PSoC6\pdl\drivers\peripheral\profile/cy_profile.c **** /* ========================================================================== */
  34:Generated_Source\PSoC6\pdl\drivers\peripheral\profile/cy_profile.c **** /* =====================     LOCAL FUNCTION SECTION    ====================== */
  35:Generated_Source\PSoC6\pdl\drivers\peripheral\profile/cy_profile.c **** /* ========================================================================== */
  36:Generated_Source\PSoC6\pdl\drivers\peripheral\profile/cy_profile.c **** /*******************************************************************************
  37:Generated_Source\PSoC6\pdl\drivers\peripheral\profile/cy_profile.c **** * Function Name: Cy_Profile_IsPtrValid
  38:Generated_Source\PSoC6\pdl\drivers\peripheral\profile/cy_profile.c **** ****************************************************************************//**
  39:Generated_Source\PSoC6\pdl\drivers\peripheral\profile/cy_profile.c **** *
  40:Generated_Source\PSoC6\pdl\drivers\peripheral\profile/cy_profile.c **** * Local utility function: reports (1) whether or not a given pointer points into
  41:Generated_Source\PSoC6\pdl\drivers\peripheral\profile/cy_profile.c **** * the cy_ep_ctrs[] array, and (2) whether the counter has been assigned.
  42:Generated_Source\PSoC6\pdl\drivers\peripheral\profile/cy_profile.c **** *
  43:Generated_Source\PSoC6\pdl\drivers\peripheral\profile/cy_profile.c **** * \param ctrAddr The handle to (address of) the assigned counter
  44:Generated_Source\PSoC6\pdl\drivers\peripheral\profile/cy_profile.c **** * 
  45:Generated_Source\PSoC6\pdl\drivers\peripheral\profile/cy_profile.c **** * \return CY_PROFILE_SUCCESS, or CY_PROFILE_BAD_PARAM for invalid ctrAddr or counter not
  46:Generated_Source\PSoC6\pdl\drivers\peripheral\profile/cy_profile.c **** * in use.
  47:Generated_Source\PSoC6\pdl\drivers\peripheral\profile/cy_profile.c **** *
  48:Generated_Source\PSoC6\pdl\drivers\peripheral\profile/cy_profile.c **** *******************************************************************************/
  49:Generated_Source\PSoC6\pdl\drivers\peripheral\profile/cy_profile.c **** static cy_en_profile_status_t Cy_Profile_IsPtrValid(const cy_stc_profile_ctr_ptr_t ctrAddr)
  50:Generated_Source\PSoC6\pdl\drivers\peripheral\profile/cy_profile.c **** {
  66              		.loc 2 50 0
  67              		.cfi_startproc
  68              		@ args = 0, pretend = 0, frame = 16
  69              		@ frame_needed = 1, uses_anonymous_args = 0
  70 0000 80B5     		push	{r7, lr}
  71              		.cfi_def_cfa_offset 8
  72              		.cfi_offset 7, -8
  73              		.cfi_offset 14, -4
  74 0002 84B0     		sub	sp, sp, #16
  75              		.cfi_def_cfa_offset 24
  76 0004 00AF     		add	r7, sp, #0
  77              		.cfi_def_cfa_register 7
  78 0006 7860     		str	r0, [r7, #4]
  51:Generated_Source\PSoC6\pdl\drivers\peripheral\profile/cy_profile.c ****     cy_en_profile_status_t retStatus = CY_PROFILE_BAD_PARAM;
  79              		.loc 2 51 0
  80 0008 0C4B     		ldr	r3, .L7
  81 000a FB60     		str	r3, [r7, #12]
  52:Generated_Source\PSoC6\pdl\drivers\peripheral\profile/cy_profile.c **** 
  53:Generated_Source\PSoC6\pdl\drivers\peripheral\profile/cy_profile.c ****     /* check for valid ctrAddr */
  54:Generated_Source\PSoC6\pdl\drivers\peripheral\profile/cy_profile.c ****     uint32_t p_epCtrs = (uint32_t)cy_ep_ctrs;
  82              		.loc 2 54 0
  83 000c 0C4B     		ldr	r3, .L7+4
  84 000e BB60     		str	r3, [r7, #8]
  55:Generated_Source\PSoC6\pdl\drivers\peripheral\profile/cy_profile.c ****     if ((p_epCtrs <= (uint32_t)ctrAddr) && ((uint32_t)ctrAddr < (p_epCtrs + (uint32_t)sizeof(cy_ep_
  85              		.loc 2 55 0
  86 0010 7B68     		ldr	r3, [r7, #4]
  87 0012 BA68     		ldr	r2, [r7, #8]
ARM GAS  C:\Users\JC\AppData\Local\Temp\ccZlMrPB.s 			page 12


  88 0014 9A42     		cmp	r2, r3
  89 0016 0BD8     		bhi	.L5
  90              		.loc 2 55 0 is_stmt 0 discriminator 1
  91 0018 BB68     		ldr	r3, [r7, #8]
  92 001a E033     		adds	r3, r3, #224
  93 001c 1A00     		movs	r2, r3
  94 001e 7B68     		ldr	r3, [r7, #4]
  95 0020 9A42     		cmp	r2, r3
  96 0022 05D9     		bls	.L5
  56:Generated_Source\PSoC6\pdl\drivers\peripheral\profile/cy_profile.c ****     {
  57:Generated_Source\PSoC6\pdl\drivers\peripheral\profile/cy_profile.c ****         if (ctrAddr->used != 0u) /* check for counter being used */
  97              		.loc 2 57 0 is_stmt 1
  98 0024 7B68     		ldr	r3, [r7, #4]
  99 0026 5B78     		ldrb	r3, [r3, #1]
 100 0028 002B     		cmp	r3, #0
 101 002a 01D0     		beq	.L5
  58:Generated_Source\PSoC6\pdl\drivers\peripheral\profile/cy_profile.c ****         {
  59:Generated_Source\PSoC6\pdl\drivers\peripheral\profile/cy_profile.c ****             retStatus = CY_PROFILE_SUCCESS;
 102              		.loc 2 59 0
 103 002c 0023     		movs	r3, #0
 104 002e FB60     		str	r3, [r7, #12]
 105              	.L5:
  60:Generated_Source\PSoC6\pdl\drivers\peripheral\profile/cy_profile.c ****         }
  61:Generated_Source\PSoC6\pdl\drivers\peripheral\profile/cy_profile.c ****     }
  62:Generated_Source\PSoC6\pdl\drivers\peripheral\profile/cy_profile.c ****     return (retStatus);
 106              		.loc 2 62 0
 107 0030 FB68     		ldr	r3, [r7, #12]
  63:Generated_Source\PSoC6\pdl\drivers\peripheral\profile/cy_profile.c **** }
 108              		.loc 2 63 0
 109 0032 1800     		movs	r0, r3
 110 0034 BD46     		mov	sp, r7
 111 0036 04B0     		add	sp, sp, #16
 112              		@ sp needed
 113 0038 80BD     		pop	{r7, pc}
 114              	.L8:
 115 003a C046     		.align	2
 116              	.L7:
 117 003c 01007A00 		.word	7995393
 118 0040 00000000 		.word	cy_ep_ctrs
 119              		.cfi_endproc
 120              	.LFE50:
 121              		.size	Cy_Profile_IsPtrValid, .-Cy_Profile_IsPtrValid
 122              		.section	.text.Cy_Profile_ISR,"ax",%progbits
 123              		.align	2
 124              		.global	Cy_Profile_ISR
 125              		.code	16
 126              		.thumb_func
 127              		.type	Cy_Profile_ISR, %function
 128              	Cy_Profile_ISR:
 129              	.LFB51:
  64:Generated_Source\PSoC6\pdl\drivers\peripheral\profile/cy_profile.c **** 
  65:Generated_Source\PSoC6\pdl\drivers\peripheral\profile/cy_profile.c **** 
  66:Generated_Source\PSoC6\pdl\drivers\peripheral\profile/cy_profile.c **** /* ========================================================================== */
  67:Generated_Source\PSoC6\pdl\drivers\peripheral\profile/cy_profile.c **** /* ====================    INTERRUPT FUNCTION SECTION    ==================== */
  68:Generated_Source\PSoC6\pdl\drivers\peripheral\profile/cy_profile.c **** /* ========================================================================== */
  69:Generated_Source\PSoC6\pdl\drivers\peripheral\profile/cy_profile.c **** /*******************************************************************************
  70:Generated_Source\PSoC6\pdl\drivers\peripheral\profile/cy_profile.c **** * Function Name: Cy_Profile_ISR
ARM GAS  C:\Users\JC\AppData\Local\Temp\ccZlMrPB.s 			page 13


  71:Generated_Source\PSoC6\pdl\drivers\peripheral\profile/cy_profile.c **** ****************************************************************************//**
  72:Generated_Source\PSoC6\pdl\drivers\peripheral\profile/cy_profile.c **** *
  73:Generated_Source\PSoC6\pdl\drivers\peripheral\profile/cy_profile.c **** * EP interrupt handler: Increments the overflow member of the counter structure,
  74:Generated_Source\PSoC6\pdl\drivers\peripheral\profile/cy_profile.c **** * for each counter that is in use and has an overflow.
  75:Generated_Source\PSoC6\pdl\drivers\peripheral\profile/cy_profile.c **** *
  76:Generated_Source\PSoC6\pdl\drivers\peripheral\profile/cy_profile.c **** * This handler is not configured or used automatically. You must configure the 
  77:Generated_Source\PSoC6\pdl\drivers\peripheral\profile/cy_profile.c **** * interrupt handler for the EP, using Cy_SysInt_Init(). Typically you configure 
  78:Generated_Source\PSoC6\pdl\drivers\peripheral\profile/cy_profile.c **** * the system to use \ref Cy_Profile_ISR() as the overflow interrupt handler. You
  79:Generated_Source\PSoC6\pdl\drivers\peripheral\profile/cy_profile.c **** * can provide a custom interrupt handler to perform additional operations if
  80:Generated_Source\PSoC6\pdl\drivers\peripheral\profile/cy_profile.c **** * required. Your handler can call \ref Cy_Profile_ISR() to handle counter
  81:Generated_Source\PSoC6\pdl\drivers\peripheral\profile/cy_profile.c **** * overflow. 
  82:Generated_Source\PSoC6\pdl\drivers\peripheral\profile/cy_profile.c **** *
  83:Generated_Source\PSoC6\pdl\drivers\peripheral\profile/cy_profile.c **** *******************************************************************************/
  84:Generated_Source\PSoC6\pdl\drivers\peripheral\profile/cy_profile.c **** void Cy_Profile_ISR(void)
  85:Generated_Source\PSoC6\pdl\drivers\peripheral\profile/cy_profile.c **** {
 130              		.loc 2 85 0
 131              		.cfi_startproc
 132              		@ args = 0, pretend = 0, frame = 8
 133              		@ frame_needed = 1, uses_anonymous_args = 0
 134 0000 80B5     		push	{r7, lr}
 135              		.cfi_def_cfa_offset 8
 136              		.cfi_offset 7, -8
 137              		.cfi_offset 14, -4
 138 0002 82B0     		sub	sp, sp, #8
 139              		.cfi_def_cfa_offset 16
 140 0004 00AF     		add	r7, sp, #0
 141              		.cfi_def_cfa_register 7
  86:Generated_Source\PSoC6\pdl\drivers\peripheral\profile/cy_profile.c ****     uint32_t ctr;
  87:Generated_Source\PSoC6\pdl\drivers\peripheral\profile/cy_profile.c **** 
  88:Generated_Source\PSoC6\pdl\drivers\peripheral\profile/cy_profile.c ****     /* Grab a copy of the overflow register. Each bit in the register indicates
  89:Generated_Source\PSoC6\pdl\drivers\peripheral\profile/cy_profile.c ****        whether or not the respective counter has overflowed. */
  90:Generated_Source\PSoC6\pdl\drivers\peripheral\profile/cy_profile.c ****     uint32_t ovflowBits = _FLD2VAL(PROFILE_INTR_MASKED_CNT_OVFLW, PROFILE_INTR_MASKED);
 142              		.loc 2 90 0
 143 0006 1F4A     		ldr	r2, .L15
 144 0008 1F4B     		ldr	r3, .L15+4
 145 000a D358     		ldr	r3, [r2, r3]
 146 000c 3B60     		str	r3, [r7]
  91:Generated_Source\PSoC6\pdl\drivers\peripheral\profile/cy_profile.c **** 
  92:Generated_Source\PSoC6\pdl\drivers\peripheral\profile/cy_profile.c ****     PROFILE_INTR = ovflowBits; /* clear the sources of the interrupts */
 147              		.loc 2 92 0
 148 000e 1D49     		ldr	r1, .L15
 149 0010 F823     		movs	r3, #248
 150 0012 DB00     		lsls	r3, r3, #3
 151 0014 3A68     		ldr	r2, [r7]
 152 0016 CA50     		str	r2, [r1, r3]
  93:Generated_Source\PSoC6\pdl\drivers\peripheral\profile/cy_profile.c **** 
  94:Generated_Source\PSoC6\pdl\drivers\peripheral\profile/cy_profile.c ****     /* scan through the overflow bits, i.e., for each counter */
  95:Generated_Source\PSoC6\pdl\drivers\peripheral\profile/cy_profile.c ****     for (ctr = 0UL; (ctr < (uint32_t)(CY_PROFILE_PRFL_CNT_NR)) && (ovflowBits != 0UL); ctr++)
 153              		.loc 2 95 0
 154 0018 0023     		movs	r3, #0
 155 001a 7B60     		str	r3, [r7, #4]
 156 001c 27E0     		b	.L10
 157              	.L13:
  96:Generated_Source\PSoC6\pdl\drivers\peripheral\profile/cy_profile.c ****     {
  97:Generated_Source\PSoC6\pdl\drivers\peripheral\profile/cy_profile.c ****         /* Increment the overflow bit only if the counter is being used.
  98:Generated_Source\PSoC6\pdl\drivers\peripheral\profile/cy_profile.c ****            (which should always be the case.) */
  99:Generated_Source\PSoC6\pdl\drivers\peripheral\profile/cy_profile.c ****         if (((ovflowBits & 1UL) != 0UL) && (cy_ep_ctrs[ctr].used != 0u))
ARM GAS  C:\Users\JC\AppData\Local\Temp\ccZlMrPB.s 			page 14


 158              		.loc 2 99 0
 159 001e 3B68     		ldr	r3, [r7]
 160 0020 0122     		movs	r2, #1
 161 0022 1340     		ands	r3, r2
 162 0024 1DD0     		beq	.L11
 163              		.loc 2 99 0 is_stmt 0 discriminator 1
 164 0026 1949     		ldr	r1, .L15+8
 165 0028 7A68     		ldr	r2, [r7, #4]
 166 002a 1300     		movs	r3, r2
 167 002c DB00     		lsls	r3, r3, #3
 168 002e 9B1A     		subs	r3, r3, r2
 169 0030 9B00     		lsls	r3, r3, #2
 170 0032 CB18     		adds	r3, r1, r3
 171 0034 0133     		adds	r3, r3, #1
 172 0036 1B78     		ldrb	r3, [r3]
 173 0038 002B     		cmp	r3, #0
 174 003a 12D0     		beq	.L11
 100:Generated_Source\PSoC6\pdl\drivers\peripheral\profile/cy_profile.c ****         {
 101:Generated_Source\PSoC6\pdl\drivers\peripheral\profile/cy_profile.c ****             cy_ep_ctrs[ctr].overflow++;
 175              		.loc 2 101 0 is_stmt 1
 176 003c 1349     		ldr	r1, .L15+8
 177 003e 7A68     		ldr	r2, [r7, #4]
 178 0040 1300     		movs	r3, r2
 179 0042 DB00     		lsls	r3, r3, #3
 180 0044 9B1A     		subs	r3, r3, r2
 181 0046 9B00     		lsls	r3, r3, #2
 182 0048 CB18     		adds	r3, r1, r3
 183 004a 1433     		adds	r3, r3, #20
 184 004c 1B68     		ldr	r3, [r3]
 185 004e 591C     		adds	r1, r3, #1
 186 0050 0E48     		ldr	r0, .L15+8
 187 0052 7A68     		ldr	r2, [r7, #4]
 188 0054 1300     		movs	r3, r2
 189 0056 DB00     		lsls	r3, r3, #3
 190 0058 9B1A     		subs	r3, r3, r2
 191 005a 9B00     		lsls	r3, r3, #2
 192 005c C318     		adds	r3, r0, r3
 193 005e 1433     		adds	r3, r3, #20
 194 0060 1960     		str	r1, [r3]
 195              	.L11:
 102:Generated_Source\PSoC6\pdl\drivers\peripheral\profile/cy_profile.c ****         }
 103:Generated_Source\PSoC6\pdl\drivers\peripheral\profile/cy_profile.c ****         ovflowBits >>= 1; /* check the next bit, by shifting it into the LS position */
 196              		.loc 2 103 0 discriminator 2
 197 0062 3B68     		ldr	r3, [r7]
 198 0064 5B08     		lsrs	r3, r3, #1
 199 0066 3B60     		str	r3, [r7]
  95:Generated_Source\PSoC6\pdl\drivers\peripheral\profile/cy_profile.c ****     {
 200              		.loc 2 95 0 discriminator 2
 201 0068 7B68     		ldr	r3, [r7, #4]
 202 006a 0133     		adds	r3, r3, #1
 203 006c 7B60     		str	r3, [r7, #4]
 204              	.L10:
  95:Generated_Source\PSoC6\pdl\drivers\peripheral\profile/cy_profile.c ****     {
 205              		.loc 2 95 0 is_stmt 0 discriminator 1
 206 006e 7B68     		ldr	r3, [r7, #4]
 207 0070 072B     		cmp	r3, #7
 208 0072 02D8     		bhi	.L14
ARM GAS  C:\Users\JC\AppData\Local\Temp\ccZlMrPB.s 			page 15


  95:Generated_Source\PSoC6\pdl\drivers\peripheral\profile/cy_profile.c ****     {
 209              		.loc 2 95 0 discriminator 3
 210 0074 3B68     		ldr	r3, [r7]
 211 0076 002B     		cmp	r3, #0
 212 0078 D1D1     		bne	.L13
 213              	.L14:
 104:Generated_Source\PSoC6\pdl\drivers\peripheral\profile/cy_profile.c ****     }
 105:Generated_Source\PSoC6\pdl\drivers\peripheral\profile/cy_profile.c **** }
 214              		.loc 2 105 0 is_stmt 1
 215 007a C046     		nop
 216 007c BD46     		mov	sp, r7
 217 007e 02B0     		add	sp, sp, #8
 218              		@ sp needed
 219 0080 80BD     		pop	{r7, pc}
 220              	.L16:
 221 0082 C046     		.align	2
 222              	.L15:
 223 0084 00002D40 		.word	1076690944
 224 0088 CC070000 		.word	1996
 225 008c 00000000 		.word	cy_ep_ctrs
 226              		.cfi_endproc
 227              	.LFE51:
 228              		.size	Cy_Profile_ISR, .-Cy_Profile_ISR
 229              		.section	.text.Cy_Profile_StartProfiling,"ax",%progbits
 230              		.align	2
 231              		.global	Cy_Profile_StartProfiling
 232              		.code	16
 233              		.thumb_func
 234              		.type	Cy_Profile_StartProfiling, %function
 235              	Cy_Profile_StartProfiling:
 236              	.LFB52:
 106:Generated_Source\PSoC6\pdl\drivers\peripheral\profile/cy_profile.c **** 
 107:Generated_Source\PSoC6\pdl\drivers\peripheral\profile/cy_profile.c **** 
 108:Generated_Source\PSoC6\pdl\drivers\peripheral\profile/cy_profile.c **** /* ========================================================================== */
 109:Generated_Source\PSoC6\pdl\drivers\peripheral\profile/cy_profile.c **** /* ==================      GENERAL PROFILE FUNCTIONS     ==================== */
 110:Generated_Source\PSoC6\pdl\drivers\peripheral\profile/cy_profile.c **** /* ========================================================================== */
 111:Generated_Source\PSoC6\pdl\drivers\peripheral\profile/cy_profile.c **** /*******************************************************************************
 112:Generated_Source\PSoC6\pdl\drivers\peripheral\profile/cy_profile.c **** * Function Name: Cy_Profile_StartProfiling
 113:Generated_Source\PSoC6\pdl\drivers\peripheral\profile/cy_profile.c **** ****************************************************************************//**
 114:Generated_Source\PSoC6\pdl\drivers\peripheral\profile/cy_profile.c **** *
 115:Generated_Source\PSoC6\pdl\drivers\peripheral\profile/cy_profile.c **** * Starts the profiling/measurement window.
 116:Generated_Source\PSoC6\pdl\drivers\peripheral\profile/cy_profile.c **** *
 117:Generated_Source\PSoC6\pdl\drivers\peripheral\profile/cy_profile.c **** * This operation allows the enabled profile counters to start counting.
 118:Generated_Source\PSoC6\pdl\drivers\peripheral\profile/cy_profile.c **** *
 119:Generated_Source\PSoC6\pdl\drivers\peripheral\profile/cy_profile.c **** * \note The profile interrupt should be enabled before calling this function
 120:Generated_Source\PSoC6\pdl\drivers\peripheral\profile/cy_profile.c **** * for the firmware to be notified when a counter overflow occurs.
 121:Generated_Source\PSoC6\pdl\drivers\peripheral\profile/cy_profile.c **** *
 122:Generated_Source\PSoC6\pdl\drivers\peripheral\profile/cy_profile.c **** * \funcusage
 123:Generated_Source\PSoC6\pdl\drivers\peripheral\profile/cy_profile.c **** * \snippet profile/profile_v1_0_sut_01.cydsn/main_cm4.c snippet_Cy_Profile_StartProfiling
 124:Generated_Source\PSoC6\pdl\drivers\peripheral\profile/cy_profile.c **** *
 125:Generated_Source\PSoC6\pdl\drivers\peripheral\profile/cy_profile.c **** *******************************************************************************/
 126:Generated_Source\PSoC6\pdl\drivers\peripheral\profile/cy_profile.c **** void Cy_Profile_StartProfiling(void)
 127:Generated_Source\PSoC6\pdl\drivers\peripheral\profile/cy_profile.c **** {
 237              		.loc 2 127 0
 238              		.cfi_startproc
 239              		@ args = 0, pretend = 0, frame = 8
 240              		@ frame_needed = 1, uses_anonymous_args = 0
ARM GAS  C:\Users\JC\AppData\Local\Temp\ccZlMrPB.s 			page 16


 241 0000 80B5     		push	{r7, lr}
 242              		.cfi_def_cfa_offset 8
 243              		.cfi_offset 7, -8
 244              		.cfi_offset 14, -4
 245 0002 82B0     		sub	sp, sp, #8
 246              		.cfi_def_cfa_offset 16
 247 0004 00AF     		add	r7, sp, #0
 248              		.cfi_def_cfa_register 7
 128:Generated_Source\PSoC6\pdl\drivers\peripheral\profile/cy_profile.c ****     uint32_t i;
 129:Generated_Source\PSoC6\pdl\drivers\peripheral\profile/cy_profile.c **** 
 130:Generated_Source\PSoC6\pdl\drivers\peripheral\profile/cy_profile.c ****     /* clear all of the counter array overflow variables */
 131:Generated_Source\PSoC6\pdl\drivers\peripheral\profile/cy_profile.c ****     for (i = 0UL; i < CY_N_ELMTS(cy_ep_ctrs); cy_ep_ctrs[i++].overflow = 0UL){}
 249              		.loc 2 131 0
 250 0006 0023     		movs	r3, #0
 251 0008 7B60     		str	r3, [r7, #4]
 252 000a 0BE0     		b	.L18
 253              	.L19:
 254              		.loc 2 131 0 is_stmt 0 discriminator 3
 255 000c 7A68     		ldr	r2, [r7, #4]
 256 000e 531C     		adds	r3, r2, #1
 257 0010 7B60     		str	r3, [r7, #4]
 258 0012 0949     		ldr	r1, .L20
 259 0014 1300     		movs	r3, r2
 260 0016 DB00     		lsls	r3, r3, #3
 261 0018 9B1A     		subs	r3, r3, r2
 262 001a 9B00     		lsls	r3, r3, #2
 263 001c CB18     		adds	r3, r1, r3
 264 001e 1433     		adds	r3, r3, #20
 265 0020 0022     		movs	r2, #0
 266 0022 1A60     		str	r2, [r3]
 267              	.L18:
 268              		.loc 2 131 0 discriminator 1
 269 0024 7B68     		ldr	r3, [r7, #4]
 270 0026 072B     		cmp	r3, #7
 271 0028 F0D9     		bls	.L19
 132:Generated_Source\PSoC6\pdl\drivers\peripheral\profile/cy_profile.c ****     /* send the hardware command */
 133:Generated_Source\PSoC6\pdl\drivers\peripheral\profile/cy_profile.c ****     PROFILE_CMD = CY_PROFILE_START_TR;
 272              		.loc 2 133 0 is_stmt 1
 273 002a 044B     		ldr	r3, .L20+4
 274 002c 0122     		movs	r2, #1
 275 002e 1A61     		str	r2, [r3, #16]
 134:Generated_Source\PSoC6\pdl\drivers\peripheral\profile/cy_profile.c **** }
 276              		.loc 2 134 0
 277 0030 C046     		nop
 278 0032 BD46     		mov	sp, r7
 279 0034 02B0     		add	sp, sp, #8
 280              		@ sp needed
 281 0036 80BD     		pop	{r7, pc}
 282              	.L21:
 283              		.align	2
 284              	.L20:
 285 0038 00000000 		.word	cy_ep_ctrs
 286 003c 00002D40 		.word	1076690944
 287              		.cfi_endproc
 288              	.LFE52:
 289              		.size	Cy_Profile_StartProfiling, .-Cy_Profile_StartProfiling
 290              		.section	.text.Cy_Profile_ClearConfiguration,"ax",%progbits
ARM GAS  C:\Users\JC\AppData\Local\Temp\ccZlMrPB.s 			page 17


 291              		.align	2
 292              		.global	Cy_Profile_ClearConfiguration
 293              		.code	16
 294              		.thumb_func
 295              		.type	Cy_Profile_ClearConfiguration, %function
 296              	Cy_Profile_ClearConfiguration:
 297              	.LFB53:
 135:Generated_Source\PSoC6\pdl\drivers\peripheral\profile/cy_profile.c **** 
 136:Generated_Source\PSoC6\pdl\drivers\peripheral\profile/cy_profile.c **** 
 137:Generated_Source\PSoC6\pdl\drivers\peripheral\profile/cy_profile.c **** /* ========================================================================== */
 138:Generated_Source\PSoC6\pdl\drivers\peripheral\profile/cy_profile.c **** /* ===================    COUNTER FUNCTIONS SECTION    ====================== */
 139:Generated_Source\PSoC6\pdl\drivers\peripheral\profile/cy_profile.c **** /* ========================================================================== */
 140:Generated_Source\PSoC6\pdl\drivers\peripheral\profile/cy_profile.c **** /*******************************************************************************
 141:Generated_Source\PSoC6\pdl\drivers\peripheral\profile/cy_profile.c **** * Function Name: Cy_Profile_ClearConfiguration
 142:Generated_Source\PSoC6\pdl\drivers\peripheral\profile/cy_profile.c **** ****************************************************************************//**
 143:Generated_Source\PSoC6\pdl\drivers\peripheral\profile/cy_profile.c **** *
 144:Generated_Source\PSoC6\pdl\drivers\peripheral\profile/cy_profile.c **** * Clears all counter configurations and sets all counters and overflow counters 
 145:Generated_Source\PSoC6\pdl\drivers\peripheral\profile/cy_profile.c **** * to 0. Calls Cy_Profile_ClearCounters() to clear counter registers.
 146:Generated_Source\PSoC6\pdl\drivers\peripheral\profile/cy_profile.c **** *
 147:Generated_Source\PSoC6\pdl\drivers\peripheral\profile/cy_profile.c **** * \funcusage
 148:Generated_Source\PSoC6\pdl\drivers\peripheral\profile/cy_profile.c **** * \snippet profile/profile_v1_0_sut_01.cydsn/main_cm4.c snippet_Cy_Profile_ClearConfiguration
 149:Generated_Source\PSoC6\pdl\drivers\peripheral\profile/cy_profile.c **** *
 150:Generated_Source\PSoC6\pdl\drivers\peripheral\profile/cy_profile.c **** *******************************************************************************/
 151:Generated_Source\PSoC6\pdl\drivers\peripheral\profile/cy_profile.c **** void Cy_Profile_ClearConfiguration(void)
 152:Generated_Source\PSoC6\pdl\drivers\peripheral\profile/cy_profile.c **** {
 298              		.loc 2 152 0
 299              		.cfi_startproc
 300              		@ args = 0, pretend = 0, frame = 0
 301              		@ frame_needed = 1, uses_anonymous_args = 0
 302 0000 80B5     		push	{r7, lr}
 303              		.cfi_def_cfa_offset 8
 304              		.cfi_offset 7, -8
 305              		.cfi_offset 14, -4
 306 0002 00AF     		add	r7, sp, #0
 307              		.cfi_def_cfa_register 7
 153:Generated_Source\PSoC6\pdl\drivers\peripheral\profile/cy_profile.c ****     (void)memset((void *)cy_ep_ctrs, 0, sizeof(cy_ep_ctrs));
 308              		.loc 2 153 0
 309 0004 054B     		ldr	r3, .L23
 310 0006 E022     		movs	r2, #224
 311 0008 0021     		movs	r1, #0
 312 000a 1800     		movs	r0, r3
 313 000c FFF7FEFF 		bl	memset
 154:Generated_Source\PSoC6\pdl\drivers\peripheral\profile/cy_profile.c ****     Cy_Profile_ClearCounters();
 314              		.loc 2 154 0
 315 0010 FFF7FEFF 		bl	Cy_Profile_ClearCounters
 155:Generated_Source\PSoC6\pdl\drivers\peripheral\profile/cy_profile.c **** }
 316              		.loc 2 155 0
 317 0014 C046     		nop
 318 0016 BD46     		mov	sp, r7
 319              		@ sp needed
 320 0018 80BD     		pop	{r7, pc}
 321              	.L24:
 322 001a C046     		.align	2
 323              	.L23:
 324 001c 00000000 		.word	cy_ep_ctrs
 325              		.cfi_endproc
 326              	.LFE53:
ARM GAS  C:\Users\JC\AppData\Local\Temp\ccZlMrPB.s 			page 18


 327              		.size	Cy_Profile_ClearConfiguration, .-Cy_Profile_ClearConfiguration
 328              		.section	.rodata
 329              		.align	2
 330              	.LC5:
 331 0000 47656E65 		.ascii	"Generated_Source\\PSoC6\\pdl\\drivers\\peripheral\\"
 331      72617465 
 331      645F536F 
 331      75726365 
 331      5C50536F 
 332 002e 70726F66 		.ascii	"profile\\cy_profile.c\000"
 332      696C655C 
 332      63795F70 
 332      726F6669 
 332      6C652E63 
 333              		.section	.text.Cy_Profile_ConfigureCounter,"ax",%progbits
 334              		.align	2
 335              		.global	Cy_Profile_ConfigureCounter
 336              		.code	16
 337              		.thumb_func
 338              		.type	Cy_Profile_ConfigureCounter, %function
 339              	Cy_Profile_ConfigureCounter:
 340              	.LFB54:
 156:Generated_Source\PSoC6\pdl\drivers\peripheral\profile/cy_profile.c **** 
 157:Generated_Source\PSoC6\pdl\drivers\peripheral\profile/cy_profile.c **** 
 158:Generated_Source\PSoC6\pdl\drivers\peripheral\profile/cy_profile.c **** /*******************************************************************************
 159:Generated_Source\PSoC6\pdl\drivers\peripheral\profile/cy_profile.c **** * Function Name: Cy_Profile_ConfigureCounter
 160:Generated_Source\PSoC6\pdl\drivers\peripheral\profile/cy_profile.c **** ****************************************************************************//**
 161:Generated_Source\PSoC6\pdl\drivers\peripheral\profile/cy_profile.c **** *
 162:Generated_Source\PSoC6\pdl\drivers\peripheral\profile/cy_profile.c **** * Configures and assigns a hardware profile counter to the list of used counters.
 163:Generated_Source\PSoC6\pdl\drivers\peripheral\profile/cy_profile.c **** *
 164:Generated_Source\PSoC6\pdl\drivers\peripheral\profile/cy_profile.c **** * This function assigns an available profile counter to a slot in the internal 
 165:Generated_Source\PSoC6\pdl\drivers\peripheral\profile/cy_profile.c **** * software data structure and returns the handle for that slot location. The data
 166:Generated_Source\PSoC6\pdl\drivers\peripheral\profile/cy_profile.c **** * structure is used to keep track of the counter status and to implement a 64-bit
 167:Generated_Source\PSoC6\pdl\drivers\peripheral\profile/cy_profile.c **** * profile counter. If no counter slots are available, the function returns a
 168:Generated_Source\PSoC6\pdl\drivers\peripheral\profile/cy_profile.c **** * NULL pointer.
 169:Generated_Source\PSoC6\pdl\drivers\peripheral\profile/cy_profile.c **** * 
 170:Generated_Source\PSoC6\pdl\drivers\peripheral\profile/cy_profile.c **** * \param monitor The monitor source number
 171:Generated_Source\PSoC6\pdl\drivers\peripheral\profile/cy_profile.c **** *
 172:Generated_Source\PSoC6\pdl\drivers\peripheral\profile/cy_profile.c **** * \param duration Events are monitored (0), or duration is monitored (1)
 173:Generated_Source\PSoC6\pdl\drivers\peripheral\profile/cy_profile.c **** *
 174:Generated_Source\PSoC6\pdl\drivers\peripheral\profile/cy_profile.c **** * \param refClk Counter reference clock
 175:Generated_Source\PSoC6\pdl\drivers\peripheral\profile/cy_profile.c **** *
 176:Generated_Source\PSoC6\pdl\drivers\peripheral\profile/cy_profile.c **** * \param weight Weighting factor for the counter value
 177:Generated_Source\PSoC6\pdl\drivers\peripheral\profile/cy_profile.c **** * 
 178:Generated_Source\PSoC6\pdl\drivers\peripheral\profile/cy_profile.c **** * \return A pointer to the counter data structure. NULL if no counter is
 179:Generated_Source\PSoC6\pdl\drivers\peripheral\profile/cy_profile.c **** * available.
 180:Generated_Source\PSoC6\pdl\drivers\peripheral\profile/cy_profile.c **** *
 181:Generated_Source\PSoC6\pdl\drivers\peripheral\profile/cy_profile.c **** * \funcusage
 182:Generated_Source\PSoC6\pdl\drivers\peripheral\profile/cy_profile.c **** * \snippet profile/profile_v1_0_sut_01.cydsn/main_cm4.c snippet_Cy_Profile_ConfigureCounter
 183:Generated_Source\PSoC6\pdl\drivers\peripheral\profile/cy_profile.c **** *
 184:Generated_Source\PSoC6\pdl\drivers\peripheral\profile/cy_profile.c **** *******************************************************************************/
 185:Generated_Source\PSoC6\pdl\drivers\peripheral\profile/cy_profile.c **** cy_stc_profile_ctr_ptr_t Cy_Profile_ConfigureCounter(en_ep_mon_sel_t monitor, cy_en_profile_duratio
 186:Generated_Source\PSoC6\pdl\drivers\peripheral\profile/cy_profile.c ****                                                      cy_en_profile_ref_clk_t refClk,  uint32_t weig
 187:Generated_Source\PSoC6\pdl\drivers\peripheral\profile/cy_profile.c **** {
 341              		.loc 2 187 0
 342              		.cfi_startproc
 343              		@ args = 0, pretend = 0, frame = 16
ARM GAS  C:\Users\JC\AppData\Local\Temp\ccZlMrPB.s 			page 19


 344              		@ frame_needed = 1, uses_anonymous_args = 0
 345 0000 90B5     		push	{r4, r7, lr}
 346              		.cfi_def_cfa_offset 12
 347              		.cfi_offset 4, -12
 348              		.cfi_offset 7, -8
 349              		.cfi_offset 14, -4
 350 0002 85B0     		sub	sp, sp, #20
 351              		.cfi_def_cfa_offset 32
 352 0004 00AF     		add	r7, sp, #0
 353              		.cfi_def_cfa_register 7
 354 0006 0400     		movs	r4, r0
 355 0008 0800     		movs	r0, r1
 356 000a 1100     		movs	r1, r2
 357 000c 3B60     		str	r3, [r7]
 358 000e FB1D     		adds	r3, r7, #7
 359 0010 221C     		adds	r2, r4, #0
 360 0012 1A70     		strb	r2, [r3]
 361 0014 BB1D     		adds	r3, r7, #6
 362 0016 021C     		adds	r2, r0, #0
 363 0018 1A70     		strb	r2, [r3]
 364 001a 7B1D     		adds	r3, r7, #5
 365 001c 0A1C     		adds	r2, r1, #0
 366 001e 1A70     		strb	r2, [r3]
 188:Generated_Source\PSoC6\pdl\drivers\peripheral\profile/cy_profile.c ****     CY_ASSERT_L1(CY_PROFILE_IS_MONITOR_VALID(monitor));
 367              		.loc 2 188 0
 368 0020 814B     		ldr	r3, .L34
 369 0022 1B68     		ldr	r3, [r3]
 370 0024 4222     		movs	r2, #66
 371 0026 9B5C     		ldrb	r3, [r3, r2]
 372 0028 FA1D     		adds	r2, r7, #7
 373 002a 1278     		ldrb	r2, [r2]
 374 002c 9A42     		cmp	r2, r3
 375 002e 04D3     		bcc	.L26
 376              		.loc 2 188 0 is_stmt 0 discriminator 1
 377 0030 7E4B     		ldr	r3, .L34+4
 378 0032 BC21     		movs	r1, #188
 379 0034 1800     		movs	r0, r3
 380 0036 FFF7FEFF 		bl	Cy_SysLib_AssertFailed
 381              	.L26:
 189:Generated_Source\PSoC6\pdl\drivers\peripheral\profile/cy_profile.c ****     CY_ASSERT_L3(CY_PROFILE_IS_DURATION_VALID(duration));
 382              		.loc 2 189 0 is_stmt 1
 383 003a BB1D     		adds	r3, r7, #6
 384 003c 1B78     		ldrb	r3, [r3]
 385 003e 002B     		cmp	r3, #0
 386 0040 08D0     		beq	.L27
 387              		.loc 2 189 0 is_stmt 0 discriminator 1
 388 0042 BB1D     		adds	r3, r7, #6
 389 0044 1B78     		ldrb	r3, [r3]
 390 0046 012B     		cmp	r3, #1
 391 0048 04D0     		beq	.L27
 392              		.loc 2 189 0 discriminator 2
 393 004a 784B     		ldr	r3, .L34+4
 394 004c BD21     		movs	r1, #189
 395 004e 1800     		movs	r0, r3
 396 0050 FFF7FEFF 		bl	Cy_SysLib_AssertFailed
 397              	.L27:
 190:Generated_Source\PSoC6\pdl\drivers\peripheral\profile/cy_profile.c ****     CY_ASSERT_L3(CY_PROFILE_IS_REFCLK_VALID(refClk));
ARM GAS  C:\Users\JC\AppData\Local\Temp\ccZlMrPB.s 			page 20


 398              		.loc 2 190 0 is_stmt 1
 399 0054 7B1D     		adds	r3, r7, #5
 400 0056 1B78     		ldrb	r3, [r3]
 401 0058 002B     		cmp	r3, #0
 402 005a 18D0     		beq	.L28
 403              		.loc 2 190 0 is_stmt 0 discriminator 1
 404 005c 7B1D     		adds	r3, r7, #5
 405 005e 1B78     		ldrb	r3, [r3]
 406 0060 012B     		cmp	r3, #1
 407 0062 14D0     		beq	.L28
 408              		.loc 2 190 0 discriminator 2
 409 0064 7B1D     		adds	r3, r7, #5
 410 0066 1B78     		ldrb	r3, [r3]
 411 0068 022B     		cmp	r3, #2
 412 006a 10D0     		beq	.L28
 413              		.loc 2 190 0 discriminator 3
 414 006c 7B1D     		adds	r3, r7, #5
 415 006e 1B78     		ldrb	r3, [r3]
 416 0070 032B     		cmp	r3, #3
 417 0072 0CD0     		beq	.L28
 418              		.loc 2 190 0 discriminator 4
 419 0074 7B1D     		adds	r3, r7, #5
 420 0076 1B78     		ldrb	r3, [r3]
 421 0078 042B     		cmp	r3, #4
 422 007a 08D0     		beq	.L28
 423              		.loc 2 190 0 discriminator 5
 424 007c 7B1D     		adds	r3, r7, #5
 425 007e 1B78     		ldrb	r3, [r3]
 426 0080 052B     		cmp	r3, #5
 427 0082 04D0     		beq	.L28
 428              		.loc 2 190 0 discriminator 6
 429 0084 694B     		ldr	r3, .L34+4
 430 0086 BE21     		movs	r1, #190
 431 0088 1800     		movs	r0, r3
 432 008a FFF7FEFF 		bl	Cy_SysLib_AssertFailed
 433              	.L28:
 191:Generated_Source\PSoC6\pdl\drivers\peripheral\profile/cy_profile.c ****     
 192:Generated_Source\PSoC6\pdl\drivers\peripheral\profile/cy_profile.c ****     cy_stc_profile_ctr_ptr_t retVal = NULL; /* error value if no counter is available */
 434              		.loc 2 192 0 is_stmt 1
 435 008e 0023     		movs	r3, #0
 436 0090 FB60     		str	r3, [r7, #12]
 193:Generated_Source\PSoC6\pdl\drivers\peripheral\profile/cy_profile.c ****     volatile uint8_t i;
 194:Generated_Source\PSoC6\pdl\drivers\peripheral\profile/cy_profile.c ****     
 195:Generated_Source\PSoC6\pdl\drivers\peripheral\profile/cy_profile.c ****     /* Scan through the counters for an unused one */
 196:Generated_Source\PSoC6\pdl\drivers\peripheral\profile/cy_profile.c ****     for (i = 0u; (cy_ep_ctrs[i].used != 0u) && (i < (CY_N_ELMTS(cy_ep_ctrs))); i++){}
 437              		.loc 2 196 0
 438 0092 0B23     		movs	r3, #11
 439 0094 FB18     		adds	r3, r7, r3
 440 0096 0022     		movs	r2, #0
 441 0098 1A70     		strb	r2, [r3]
 442 009a 08E0     		b	.L29
 443              	.L31:
 444              		.loc 2 196 0 is_stmt 0 discriminator 4
 445 009c 0B23     		movs	r3, #11
 446 009e FB18     		adds	r3, r7, r3
 447 00a0 1B78     		ldrb	r3, [r3]
 448 00a2 DBB2     		uxtb	r3, r3
ARM GAS  C:\Users\JC\AppData\Local\Temp\ccZlMrPB.s 			page 21


 449 00a4 0133     		adds	r3, r3, #1
 450 00a6 DAB2     		uxtb	r2, r3
 451 00a8 0B23     		movs	r3, #11
 452 00aa FB18     		adds	r3, r7, r3
 453 00ac 1A70     		strb	r2, [r3]
 454              	.L29:
 455              		.loc 2 196 0 discriminator 1
 456 00ae 0B23     		movs	r3, #11
 457 00b0 FB18     		adds	r3, r7, r3
 458 00b2 1B78     		ldrb	r3, [r3]
 459 00b4 DBB2     		uxtb	r3, r3
 460 00b6 1900     		movs	r1, r3
 461 00b8 5D4A     		ldr	r2, .L34+8
 462 00ba 0B00     		movs	r3, r1
 463 00bc DB00     		lsls	r3, r3, #3
 464 00be 5B1A     		subs	r3, r3, r1
 465 00c0 9B00     		lsls	r3, r3, #2
 466 00c2 D318     		adds	r3, r2, r3
 467 00c4 0133     		adds	r3, r3, #1
 468 00c6 1B78     		ldrb	r3, [r3]
 469 00c8 002B     		cmp	r3, #0
 470 00ca 05D0     		beq	.L30
 471              		.loc 2 196 0 discriminator 3
 472 00cc 0B23     		movs	r3, #11
 473 00ce FB18     		adds	r3, r7, r3
 474 00d0 1B78     		ldrb	r3, [r3]
 475 00d2 DBB2     		uxtb	r3, r3
 476 00d4 072B     		cmp	r3, #7
 477 00d6 E1D9     		bls	.L31
 478              	.L30:
 197:Generated_Source\PSoC6\pdl\drivers\peripheral\profile/cy_profile.c ****     if (i < CY_N_ELMTS(cy_ep_ctrs))
 479              		.loc 2 197 0 is_stmt 1
 480 00d8 0B23     		movs	r3, #11
 481 00da FB18     		adds	r3, r7, r3
 482 00dc 1B78     		ldrb	r3, [r3]
 483 00de DBB2     		uxtb	r3, r3
 484 00e0 072B     		cmp	r3, #7
 485 00e2 00D9     		bls	.LCB400
 486 00e4 9BE0     		b	.L32	@long jump
 487              	.LCB400:
 198:Generated_Source\PSoC6\pdl\drivers\peripheral\profile/cy_profile.c ****     { /* found one, fill in its data structure */
 199:Generated_Source\PSoC6\pdl\drivers\peripheral\profile/cy_profile.c ****         cy_ep_ctrs[i].ctrNum = i;
 488              		.loc 2 199 0
 489 00e6 0B23     		movs	r3, #11
 490 00e8 FB18     		adds	r3, r7, r3
 491 00ea 1B78     		ldrb	r3, [r3]
 492 00ec DBB2     		uxtb	r3, r3
 493 00ee 1900     		movs	r1, r3
 494 00f0 0B23     		movs	r3, #11
 495 00f2 FB18     		adds	r3, r7, r3
 496 00f4 1B78     		ldrb	r3, [r3]
 497 00f6 D8B2     		uxtb	r0, r3
 498 00f8 4D4A     		ldr	r2, .L34+8
 499 00fa 0B00     		movs	r3, r1
 500 00fc DB00     		lsls	r3, r3, #3
 501 00fe 5B1A     		subs	r3, r3, r1
 502 0100 9B00     		lsls	r3, r3, #2
ARM GAS  C:\Users\JC\AppData\Local\Temp\ccZlMrPB.s 			page 22


 503 0102 011C     		adds	r1, r0, #0
 504 0104 9954     		strb	r1, [r3, r2]
 200:Generated_Source\PSoC6\pdl\drivers\peripheral\profile/cy_profile.c ****         cy_ep_ctrs[i].used = 1u;
 505              		.loc 2 200 0
 506 0106 0B23     		movs	r3, #11
 507 0108 FB18     		adds	r3, r7, r3
 508 010a 1B78     		ldrb	r3, [r3]
 509 010c DBB2     		uxtb	r3, r3
 510 010e 1900     		movs	r1, r3
 511 0110 474A     		ldr	r2, .L34+8
 512 0112 0B00     		movs	r3, r1
 513 0114 DB00     		lsls	r3, r3, #3
 514 0116 5B1A     		subs	r3, r3, r1
 515 0118 9B00     		lsls	r3, r3, #2
 516 011a D318     		adds	r3, r2, r3
 517 011c 0133     		adds	r3, r3, #1
 518 011e 0122     		movs	r2, #1
 519 0120 1A70     		strb	r2, [r3]
 201:Generated_Source\PSoC6\pdl\drivers\peripheral\profile/cy_profile.c ****         cy_ep_ctrs[i].cntAddr = (PROFILE_CNT_STRUCT_Type *)&(PROFILE_CNT_STRUCT[i]);
 520              		.loc 2 201 0
 521 0122 0B23     		movs	r3, #11
 522 0124 FB18     		adds	r3, r7, r3
 523 0126 1B78     		ldrb	r3, [r3]
 524 0128 DBB2     		uxtb	r3, r3
 525 012a 1800     		movs	r0, r3
 526 012c 0B23     		movs	r3, #11
 527 012e FB18     		adds	r3, r7, r3
 528 0130 1B78     		ldrb	r3, [r3]
 529 0132 DBB2     		uxtb	r3, r3
 530 0134 1B01     		lsls	r3, r3, #4
 531 0136 3F4A     		ldr	r2, .L34+12
 532 0138 9A18     		adds	r2, r3, r2
 533 013a 3D49     		ldr	r1, .L34+8
 534 013c 0300     		movs	r3, r0
 535 013e DB00     		lsls	r3, r3, #3
 536 0140 1B1A     		subs	r3, r3, r0
 537 0142 9B00     		lsls	r3, r3, #2
 538 0144 CB18     		adds	r3, r1, r3
 539 0146 0833     		adds	r3, r3, #8
 540 0148 1A60     		str	r2, [r3]
 202:Generated_Source\PSoC6\pdl\drivers\peripheral\profile/cy_profile.c ****         cy_ep_ctrs[i].ctlRegVals.cntDuration = duration;
 541              		.loc 2 202 0
 542 014a 0B23     		movs	r3, #11
 543 014c FB18     		adds	r3, r7, r3
 544 014e 1B78     		ldrb	r3, [r3]
 545 0150 DBB2     		uxtb	r3, r3
 546 0152 1900     		movs	r1, r3
 547 0154 364A     		ldr	r2, .L34+8
 548 0156 0B00     		movs	r3, r1
 549 0158 DB00     		lsls	r3, r3, #3
 550 015a 5B1A     		subs	r3, r3, r1
 551 015c 9B00     		lsls	r3, r3, #2
 552 015e D318     		adds	r3, r2, r3
 553 0160 0233     		adds	r3, r3, #2
 554 0162 BA1D     		adds	r2, r7, #6
 555 0164 1278     		ldrb	r2, [r2]
 556 0166 1A70     		strb	r2, [r3]
ARM GAS  C:\Users\JC\AppData\Local\Temp\ccZlMrPB.s 			page 23


 203:Generated_Source\PSoC6\pdl\drivers\peripheral\profile/cy_profile.c ****         cy_ep_ctrs[i].ctlRegVals.refClkSel = refClk;
 557              		.loc 2 203 0
 558 0168 0B23     		movs	r3, #11
 559 016a FB18     		adds	r3, r7, r3
 560 016c 1B78     		ldrb	r3, [r3]
 561 016e DBB2     		uxtb	r3, r3
 562 0170 1900     		movs	r1, r3
 563 0172 2F4A     		ldr	r2, .L34+8
 564 0174 0B00     		movs	r3, r1
 565 0176 DB00     		lsls	r3, r3, #3
 566 0178 5B1A     		subs	r3, r3, r1
 567 017a 9B00     		lsls	r3, r3, #2
 568 017c D318     		adds	r3, r2, r3
 569 017e 0333     		adds	r3, r3, #3
 570 0180 7A1D     		adds	r2, r7, #5
 571 0182 1278     		ldrb	r2, [r2]
 572 0184 1A70     		strb	r2, [r3]
 204:Generated_Source\PSoC6\pdl\drivers\peripheral\profile/cy_profile.c ****         cy_ep_ctrs[i].ctlRegVals.monSel = monitor;
 573              		.loc 2 204 0
 574 0186 0B23     		movs	r3, #11
 575 0188 FB18     		adds	r3, r7, r3
 576 018a 1B78     		ldrb	r3, [r3]
 577 018c DBB2     		uxtb	r3, r3
 578 018e 1900     		movs	r1, r3
 579 0190 274A     		ldr	r2, .L34+8
 580 0192 0B00     		movs	r3, r1
 581 0194 DB00     		lsls	r3, r3, #3
 582 0196 5B1A     		subs	r3, r3, r1
 583 0198 9B00     		lsls	r3, r3, #2
 584 019a D318     		adds	r3, r2, r3
 585 019c 0433     		adds	r3, r3, #4
 586 019e FA1D     		adds	r2, r7, #7
 587 01a0 1278     		ldrb	r2, [r2]
 588 01a2 1A70     		strb	r2, [r3]
 205:Generated_Source\PSoC6\pdl\drivers\peripheral\profile/cy_profile.c ****         cy_ep_ctrs[i].overflow = 0UL;
 589              		.loc 2 205 0
 590 01a4 0B23     		movs	r3, #11
 591 01a6 FB18     		adds	r3, r7, r3
 592 01a8 1B78     		ldrb	r3, [r3]
 593 01aa DBB2     		uxtb	r3, r3
 594 01ac 1900     		movs	r1, r3
 595 01ae 204A     		ldr	r2, .L34+8
 596 01b0 0B00     		movs	r3, r1
 597 01b2 DB00     		lsls	r3, r3, #3
 598 01b4 5B1A     		subs	r3, r3, r1
 599 01b6 9B00     		lsls	r3, r3, #2
 600 01b8 D318     		adds	r3, r2, r3
 601 01ba 1433     		adds	r3, r3, #20
 602 01bc 0022     		movs	r2, #0
 603 01be 1A60     		str	r2, [r3]
 206:Generated_Source\PSoC6\pdl\drivers\peripheral\profile/cy_profile.c ****         cy_ep_ctrs[i].weight = weight;
 604              		.loc 2 206 0
 605 01c0 0B23     		movs	r3, #11
 606 01c2 FB18     		adds	r3, r7, r3
 607 01c4 1B78     		ldrb	r3, [r3]
 608 01c6 DBB2     		uxtb	r3, r3
 609 01c8 1900     		movs	r1, r3
ARM GAS  C:\Users\JC\AppData\Local\Temp\ccZlMrPB.s 			page 24


 610 01ca 194A     		ldr	r2, .L34+8
 611 01cc 0B00     		movs	r3, r1
 612 01ce DB00     		lsls	r3, r3, #3
 613 01d0 5B1A     		subs	r3, r3, r1
 614 01d2 9B00     		lsls	r3, r3, #2
 615 01d4 D318     		adds	r3, r2, r3
 616 01d6 1833     		adds	r3, r3, #24
 617 01d8 3A68     		ldr	r2, [r7]
 618 01da 1A60     		str	r2, [r3]
 207:Generated_Source\PSoC6\pdl\drivers\peripheral\profile/cy_profile.c ****         /* Pass back the handle to (address of) the counter data structure */
 208:Generated_Source\PSoC6\pdl\drivers\peripheral\profile/cy_profile.c ****         retVal = &cy_ep_ctrs[i];
 619              		.loc 2 208 0
 620 01dc 0B23     		movs	r3, #11
 621 01de FB18     		adds	r3, r7, r3
 622 01e0 1B78     		ldrb	r3, [r3]
 623 01e2 DBB2     		uxtb	r3, r3
 624 01e4 1A00     		movs	r2, r3
 625 01e6 1300     		movs	r3, r2
 626 01e8 DB00     		lsls	r3, r3, #3
 627 01ea 9B1A     		subs	r3, r3, r2
 628 01ec 9B00     		lsls	r3, r3, #2
 629 01ee 104A     		ldr	r2, .L34+8
 630 01f0 9B18     		adds	r3, r3, r2
 631 01f2 FB60     		str	r3, [r7, #12]
 209:Generated_Source\PSoC6\pdl\drivers\peripheral\profile/cy_profile.c ****         
 210:Generated_Source\PSoC6\pdl\drivers\peripheral\profile/cy_profile.c ****         /* Load the CTL register bitfields of the assigned counter. */
 211:Generated_Source\PSoC6\pdl\drivers\peripheral\profile/cy_profile.c ****         retVal->cntAddr->CTL =
 632              		.loc 2 211 0
 633 01f4 FB68     		ldr	r3, [r7, #12]
 634 01f6 9B68     		ldr	r3, [r3, #8]
 212:Generated_Source\PSoC6\pdl\drivers\peripheral\profile/cy_profile.c ****             _VAL2FLD(PROFILE_CNT_STRUCT_CTL_CNT_DURATION, retVal->ctlRegVals.cntDuration) |
 635              		.loc 2 212 0
 636 01f8 FA68     		ldr	r2, [r7, #12]
 637 01fa 9278     		ldrb	r2, [r2, #2]
 638 01fc 1100     		movs	r1, r2
 639 01fe 0122     		movs	r2, #1
 640 0200 1140     		ands	r1, r2
 213:Generated_Source\PSoC6\pdl\drivers\peripheral\profile/cy_profile.c ****             _VAL2FLD(PROFILE_CNT_STRUCT_CTL_REF_CLK_SEL,  retVal->ctlRegVals.refClkSel)   |
 641              		.loc 2 213 0
 642 0202 FA68     		ldr	r2, [r7, #12]
 643 0204 D278     		ldrb	r2, [r2, #3]
 644 0206 1201     		lsls	r2, r2, #4
 645 0208 7020     		movs	r0, #112
 646 020a 0240     		ands	r2, r0
 212:Generated_Source\PSoC6\pdl\drivers\peripheral\profile/cy_profile.c ****             _VAL2FLD(PROFILE_CNT_STRUCT_CTL_CNT_DURATION, retVal->ctlRegVals.cntDuration) |
 647              		.loc 2 212 0
 648 020c 1143     		orrs	r1, r2
 214:Generated_Source\PSoC6\pdl\drivers\peripheral\profile/cy_profile.c ****             _VAL2FLD(PROFILE_CNT_STRUCT_CTL_MON_SEL,      retVal->ctlRegVals.monSel);
 649              		.loc 2 214 0
 650 020e FA68     		ldr	r2, [r7, #12]
 651 0210 1279     		ldrb	r2, [r2, #4]
 652 0212 1004     		lsls	r0, r2, #16
 653 0214 FE22     		movs	r2, #254
 654 0216 D203     		lsls	r2, r2, #15
 655 0218 0240     		ands	r2, r0
 213:Generated_Source\PSoC6\pdl\drivers\peripheral\profile/cy_profile.c ****             _VAL2FLD(PROFILE_CNT_STRUCT_CTL_REF_CLK_SEL,  retVal->ctlRegVals.refClkSel)   |
 656              		.loc 2 213 0
ARM GAS  C:\Users\JC\AppData\Local\Temp\ccZlMrPB.s 			page 25


 657 021a 0A43     		orrs	r2, r1
 211:Generated_Source\PSoC6\pdl\drivers\peripheral\profile/cy_profile.c ****             _VAL2FLD(PROFILE_CNT_STRUCT_CTL_CNT_DURATION, retVal->ctlRegVals.cntDuration) |
 658              		.loc 2 211 0
 659 021c 1A60     		str	r2, [r3]
 660              	.L32:
 215:Generated_Source\PSoC6\pdl\drivers\peripheral\profile/cy_profile.c **** 
 216:Generated_Source\PSoC6\pdl\drivers\peripheral\profile/cy_profile.c ****     }
 217:Generated_Source\PSoC6\pdl\drivers\peripheral\profile/cy_profile.c ****     return (retVal);
 661              		.loc 2 217 0
 662 021e FB68     		ldr	r3, [r7, #12]
 218:Generated_Source\PSoC6\pdl\drivers\peripheral\profile/cy_profile.c **** }
 663              		.loc 2 218 0
 664 0220 1800     		movs	r0, r3
 665 0222 BD46     		mov	sp, r7
 666 0224 05B0     		add	sp, sp, #20
 667              		@ sp needed
 668 0226 90BD     		pop	{r4, r7, pc}
 669              	.L35:
 670              		.align	2
 671              	.L34:
 672 0228 00000000 		.word	cy_device
 673 022c 00000000 		.word	.LC5
 674 0230 00000000 		.word	cy_ep_ctrs
 675 0234 00082D40 		.word	1076692992
 676              		.cfi_endproc
 677              	.LFE54:
 678              		.size	Cy_Profile_ConfigureCounter, .-Cy_Profile_ConfigureCounter
 679              		.section	.text.Cy_Profile_FreeCounter,"ax",%progbits
 680              		.align	2
 681              		.global	Cy_Profile_FreeCounter
 682              		.code	16
 683              		.thumb_func
 684              		.type	Cy_Profile_FreeCounter, %function
 685              	Cy_Profile_FreeCounter:
 686              	.LFB55:
 219:Generated_Source\PSoC6\pdl\drivers\peripheral\profile/cy_profile.c **** 
 220:Generated_Source\PSoC6\pdl\drivers\peripheral\profile/cy_profile.c **** 
 221:Generated_Source\PSoC6\pdl\drivers\peripheral\profile/cy_profile.c **** /*******************************************************************************
 222:Generated_Source\PSoC6\pdl\drivers\peripheral\profile/cy_profile.c **** * Function Name: Cy_Profile_FreeCounter
 223:Generated_Source\PSoC6\pdl\drivers\peripheral\profile/cy_profile.c **** ****************************************************************************//**
 224:Generated_Source\PSoC6\pdl\drivers\peripheral\profile/cy_profile.c **** *
 225:Generated_Source\PSoC6\pdl\drivers\peripheral\profile/cy_profile.c **** * Frees up a counter from a previously-assigned monitor source.
 226:Generated_Source\PSoC6\pdl\drivers\peripheral\profile/cy_profile.c **** *
 227:Generated_Source\PSoC6\pdl\drivers\peripheral\profile/cy_profile.c **** * \ref Cy_Profile_ConfigureCounter() must have been called for this counter
 228:Generated_Source\PSoC6\pdl\drivers\peripheral\profile/cy_profile.c **** * before calling this function.
 229:Generated_Source\PSoC6\pdl\drivers\peripheral\profile/cy_profile.c **** *
 230:Generated_Source\PSoC6\pdl\drivers\peripheral\profile/cy_profile.c **** * \param ctrAddr The handle to the assigned counter (returned by calling
 231:Generated_Source\PSoC6\pdl\drivers\peripheral\profile/cy_profile.c **** * \ref Cy_Profile_ConfigureCounter()).
 232:Generated_Source\PSoC6\pdl\drivers\peripheral\profile/cy_profile.c **** * 
 233:Generated_Source\PSoC6\pdl\drivers\peripheral\profile/cy_profile.c **** * \return 
 234:Generated_Source\PSoC6\pdl\drivers\peripheral\profile/cy_profile.c **** * Status of the operation.
 235:Generated_Source\PSoC6\pdl\drivers\peripheral\profile/cy_profile.c **** *
 236:Generated_Source\PSoC6\pdl\drivers\peripheral\profile/cy_profile.c **** * \note The counter is not disabled by this function.
 237:Generated_Source\PSoC6\pdl\drivers\peripheral\profile/cy_profile.c **** *
 238:Generated_Source\PSoC6\pdl\drivers\peripheral\profile/cy_profile.c **** * \funcusage
 239:Generated_Source\PSoC6\pdl\drivers\peripheral\profile/cy_profile.c **** * \snippet profile/profile_v1_0_sut_01.cydsn/main_cm4.c snippet_Cy_Profile_FreeCounter
 240:Generated_Source\PSoC6\pdl\drivers\peripheral\profile/cy_profile.c **** *
ARM GAS  C:\Users\JC\AppData\Local\Temp\ccZlMrPB.s 			page 26


 241:Generated_Source\PSoC6\pdl\drivers\peripheral\profile/cy_profile.c **** *******************************************************************************/
 242:Generated_Source\PSoC6\pdl\drivers\peripheral\profile/cy_profile.c **** cy_en_profile_status_t Cy_Profile_FreeCounter(cy_stc_profile_ctr_ptr_t ctrAddr)
 243:Generated_Source\PSoC6\pdl\drivers\peripheral\profile/cy_profile.c **** {
 687              		.loc 2 243 0
 688              		.cfi_startproc
 689              		@ args = 0, pretend = 0, frame = 16
 690              		@ frame_needed = 1, uses_anonymous_args = 0
 691 0000 80B5     		push	{r7, lr}
 692              		.cfi_def_cfa_offset 8
 693              		.cfi_offset 7, -8
 694              		.cfi_offset 14, -4
 695 0002 84B0     		sub	sp, sp, #16
 696              		.cfi_def_cfa_offset 24
 697 0004 00AF     		add	r7, sp, #0
 698              		.cfi_def_cfa_register 7
 699 0006 7860     		str	r0, [r7, #4]
 244:Generated_Source\PSoC6\pdl\drivers\peripheral\profile/cy_profile.c ****    cy_en_profile_status_t retStatus = CY_PROFILE_BAD_PARAM;
 700              		.loc 2 244 0
 701 0008 094B     		ldr	r3, .L39
 702 000a FB60     		str	r3, [r7, #12]
 245:Generated_Source\PSoC6\pdl\drivers\peripheral\profile/cy_profile.c ****    
 246:Generated_Source\PSoC6\pdl\drivers\peripheral\profile/cy_profile.c ****     retStatus = Cy_Profile_IsPtrValid(ctrAddr);
 703              		.loc 2 246 0
 704 000c 7B68     		ldr	r3, [r7, #4]
 705 000e 1800     		movs	r0, r3
 706 0010 FFF7FEFF 		bl	Cy_Profile_IsPtrValid
 707 0014 0300     		movs	r3, r0
 708 0016 FB60     		str	r3, [r7, #12]
 247:Generated_Source\PSoC6\pdl\drivers\peripheral\profile/cy_profile.c ****     if (retStatus == CY_PROFILE_SUCCESS)
 709              		.loc 2 247 0
 710 0018 FB68     		ldr	r3, [r7, #12]
 711 001a 002B     		cmp	r3, #0
 712 001c 02D1     		bne	.L37
 248:Generated_Source\PSoC6\pdl\drivers\peripheral\profile/cy_profile.c ****     {
 249:Generated_Source\PSoC6\pdl\drivers\peripheral\profile/cy_profile.c ****         ctrAddr->used = 0u;
 713              		.loc 2 249 0
 714 001e 7B68     		ldr	r3, [r7, #4]
 715 0020 0022     		movs	r2, #0
 716 0022 5A70     		strb	r2, [r3, #1]
 717              	.L37:
 250:Generated_Source\PSoC6\pdl\drivers\peripheral\profile/cy_profile.c ****     }
 251:Generated_Source\PSoC6\pdl\drivers\peripheral\profile/cy_profile.c ****     return (retStatus);
 718              		.loc 2 251 0
 719 0024 FB68     		ldr	r3, [r7, #12]
 252:Generated_Source\PSoC6\pdl\drivers\peripheral\profile/cy_profile.c **** }
 720              		.loc 2 252 0
 721 0026 1800     		movs	r0, r3
 722 0028 BD46     		mov	sp, r7
 723 002a 04B0     		add	sp, sp, #16
 724              		@ sp needed
 725 002c 80BD     		pop	{r7, pc}
 726              	.L40:
 727 002e C046     		.align	2
 728              	.L39:
 729 0030 01007A00 		.word	7995393
 730              		.cfi_endproc
 731              	.LFE55:
ARM GAS  C:\Users\JC\AppData\Local\Temp\ccZlMrPB.s 			page 27


 732              		.size	Cy_Profile_FreeCounter, .-Cy_Profile_FreeCounter
 733              		.section	.text.Cy_Profile_EnableCounter,"ax",%progbits
 734              		.align	2
 735              		.global	Cy_Profile_EnableCounter
 736              		.code	16
 737              		.thumb_func
 738              		.type	Cy_Profile_EnableCounter, %function
 739              	Cy_Profile_EnableCounter:
 740              	.LFB56:
 253:Generated_Source\PSoC6\pdl\drivers\peripheral\profile/cy_profile.c **** 
 254:Generated_Source\PSoC6\pdl\drivers\peripheral\profile/cy_profile.c **** 
 255:Generated_Source\PSoC6\pdl\drivers\peripheral\profile/cy_profile.c **** /*******************************************************************************
 256:Generated_Source\PSoC6\pdl\drivers\peripheral\profile/cy_profile.c **** * Function Name: Cy_Profile_EnableCounter
 257:Generated_Source\PSoC6\pdl\drivers\peripheral\profile/cy_profile.c **** ****************************************************************************//**
 258:Generated_Source\PSoC6\pdl\drivers\peripheral\profile/cy_profile.c **** *
 259:Generated_Source\PSoC6\pdl\drivers\peripheral\profile/cy_profile.c **** * Enables an assigned counter. 
 260:Generated_Source\PSoC6\pdl\drivers\peripheral\profile/cy_profile.c **** *
 261:Generated_Source\PSoC6\pdl\drivers\peripheral\profile/cy_profile.c **** * \ref Cy_Profile_ConfigureCounter() must have been called for this counter
 262:Generated_Source\PSoC6\pdl\drivers\peripheral\profile/cy_profile.c **** * before calling this function.
 263:Generated_Source\PSoC6\pdl\drivers\peripheral\profile/cy_profile.c **** *
 264:Generated_Source\PSoC6\pdl\drivers\peripheral\profile/cy_profile.c **** * \param ctrAddr The handle to the assigned counter, (returned by calling
 265:Generated_Source\PSoC6\pdl\drivers\peripheral\profile/cy_profile.c **** * \ref Cy_Profile_ConfigureCounter()).
 266:Generated_Source\PSoC6\pdl\drivers\peripheral\profile/cy_profile.c **** * 
 267:Generated_Source\PSoC6\pdl\drivers\peripheral\profile/cy_profile.c **** * \return 
 268:Generated_Source\PSoC6\pdl\drivers\peripheral\profile/cy_profile.c **** * Status of the operation.
 269:Generated_Source\PSoC6\pdl\drivers\peripheral\profile/cy_profile.c **** *
 270:Generated_Source\PSoC6\pdl\drivers\peripheral\profile/cy_profile.c **** * \funcusage
 271:Generated_Source\PSoC6\pdl\drivers\peripheral\profile/cy_profile.c **** * \snippet profile/profile_v1_0_sut_01.cydsn/main_cm4.c snippet_Cy_Profile_EnableCounter
 272:Generated_Source\PSoC6\pdl\drivers\peripheral\profile/cy_profile.c **** *
 273:Generated_Source\PSoC6\pdl\drivers\peripheral\profile/cy_profile.c **** *******************************************************************************/
 274:Generated_Source\PSoC6\pdl\drivers\peripheral\profile/cy_profile.c **** cy_en_profile_status_t Cy_Profile_EnableCounter(cy_stc_profile_ctr_ptr_t ctrAddr)
 275:Generated_Source\PSoC6\pdl\drivers\peripheral\profile/cy_profile.c **** {
 741              		.loc 2 275 0
 742              		.cfi_startproc
 743              		@ args = 0, pretend = 0, frame = 16
 744              		@ frame_needed = 1, uses_anonymous_args = 0
 745 0000 80B5     		push	{r7, lr}
 746              		.cfi_def_cfa_offset 8
 747              		.cfi_offset 7, -8
 748              		.cfi_offset 14, -4
 749 0002 84B0     		sub	sp, sp, #16
 750              		.cfi_def_cfa_offset 24
 751 0004 00AF     		add	r7, sp, #0
 752              		.cfi_def_cfa_register 7
 753 0006 7860     		str	r0, [r7, #4]
 276:Generated_Source\PSoC6\pdl\drivers\peripheral\profile/cy_profile.c ****     cy_en_profile_status_t retStatus = Cy_Profile_IsPtrValid(ctrAddr);
 754              		.loc 2 276 0
 755 0008 7B68     		ldr	r3, [r7, #4]
 756 000a 1800     		movs	r0, r3
 757 000c FFF7FEFF 		bl	Cy_Profile_IsPtrValid
 758 0010 0300     		movs	r3, r0
 759 0012 FB60     		str	r3, [r7, #12]
 277:Generated_Source\PSoC6\pdl\drivers\peripheral\profile/cy_profile.c ****     
 278:Generated_Source\PSoC6\pdl\drivers\peripheral\profile/cy_profile.c ****     if (CY_PROFILE_SUCCESS == retStatus)
 760              		.loc 2 278 0
 761 0014 FB68     		ldr	r3, [r7, #12]
 762 0016 002B     		cmp	r3, #0
ARM GAS  C:\Users\JC\AppData\Local\Temp\ccZlMrPB.s 			page 28


 763 0018 16D1     		bne	.L42
 279:Generated_Source\PSoC6\pdl\drivers\peripheral\profile/cy_profile.c ****     {
 280:Generated_Source\PSoC6\pdl\drivers\peripheral\profile/cy_profile.c ****         /* set the ENABLED bit */
 281:Generated_Source\PSoC6\pdl\drivers\peripheral\profile/cy_profile.c ****         ctrAddr->cntAddr->CTL |= _VAL2FLD(PROFILE_CNT_STRUCT_CTL_ENABLED, 1UL);
 764              		.loc 2 281 0
 765 001a 7B68     		ldr	r3, [r7, #4]
 766 001c 9B68     		ldr	r3, [r3, #8]
 767 001e 7A68     		ldr	r2, [r7, #4]
 768 0020 9268     		ldr	r2, [r2, #8]
 769 0022 1268     		ldr	r2, [r2]
 770 0024 8021     		movs	r1, #128
 771 0026 0906     		lsls	r1, r1, #24
 772 0028 0A43     		orrs	r2, r1
 773 002a 1A60     		str	r2, [r3]
 282:Generated_Source\PSoC6\pdl\drivers\peripheral\profile/cy_profile.c ****         /* set the INTR_MASK bit for the counter being used */
 283:Generated_Source\PSoC6\pdl\drivers\peripheral\profile/cy_profile.c ****         PROFILE_INTR_MASK |= (1UL << (ctrAddr->ctrNum));
 774              		.loc 2 283 0
 775 002c 0949     		ldr	r1, .L44
 776 002e 094A     		ldr	r2, .L44
 777 0030 F923     		movs	r3, #249
 778 0032 DB00     		lsls	r3, r3, #3
 779 0034 D258     		ldr	r2, [r2, r3]
 780 0036 7B68     		ldr	r3, [r7, #4]
 781 0038 1B78     		ldrb	r3, [r3]
 782 003a 1800     		movs	r0, r3
 783 003c 0123     		movs	r3, #1
 784 003e 8340     		lsls	r3, r3, r0
 785 0040 1A43     		orrs	r2, r3
 786 0042 F923     		movs	r3, #249
 787 0044 DB00     		lsls	r3, r3, #3
 788 0046 CA50     		str	r2, [r1, r3]
 789              	.L42:
 284:Generated_Source\PSoC6\pdl\drivers\peripheral\profile/cy_profile.c ****     }
 285:Generated_Source\PSoC6\pdl\drivers\peripheral\profile/cy_profile.c ****     
 286:Generated_Source\PSoC6\pdl\drivers\peripheral\profile/cy_profile.c ****     return (retStatus);
 790              		.loc 2 286 0
 791 0048 FB68     		ldr	r3, [r7, #12]
 287:Generated_Source\PSoC6\pdl\drivers\peripheral\profile/cy_profile.c **** }
 792              		.loc 2 287 0
 793 004a 1800     		movs	r0, r3
 794 004c BD46     		mov	sp, r7
 795 004e 04B0     		add	sp, sp, #16
 796              		@ sp needed
 797 0050 80BD     		pop	{r7, pc}
 798              	.L45:
 799 0052 C046     		.align	2
 800              	.L44:
 801 0054 00002D40 		.word	1076690944
 802              		.cfi_endproc
 803              	.LFE56:
 804              		.size	Cy_Profile_EnableCounter, .-Cy_Profile_EnableCounter
 805              		.section	.text.Cy_Profile_DisableCounter,"ax",%progbits
 806              		.align	2
 807              		.global	Cy_Profile_DisableCounter
 808              		.code	16
 809              		.thumb_func
 810              		.type	Cy_Profile_DisableCounter, %function
ARM GAS  C:\Users\JC\AppData\Local\Temp\ccZlMrPB.s 			page 29


 811              	Cy_Profile_DisableCounter:
 812              	.LFB57:
 288:Generated_Source\PSoC6\pdl\drivers\peripheral\profile/cy_profile.c **** 
 289:Generated_Source\PSoC6\pdl\drivers\peripheral\profile/cy_profile.c **** 
 290:Generated_Source\PSoC6\pdl\drivers\peripheral\profile/cy_profile.c **** /*******************************************************************************
 291:Generated_Source\PSoC6\pdl\drivers\peripheral\profile/cy_profile.c **** * Function Name: Cy_Profile_DisableCounter
 292:Generated_Source\PSoC6\pdl\drivers\peripheral\profile/cy_profile.c **** ****************************************************************************//**
 293:Generated_Source\PSoC6\pdl\drivers\peripheral\profile/cy_profile.c **** *
 294:Generated_Source\PSoC6\pdl\drivers\peripheral\profile/cy_profile.c **** * Disables an assigned counter.
 295:Generated_Source\PSoC6\pdl\drivers\peripheral\profile/cy_profile.c **** *
 296:Generated_Source\PSoC6\pdl\drivers\peripheral\profile/cy_profile.c **** * \ref Cy_Profile_ConfigureCounter() must have been called for this counter
 297:Generated_Source\PSoC6\pdl\drivers\peripheral\profile/cy_profile.c **** * before calling this function.
 298:Generated_Source\PSoC6\pdl\drivers\peripheral\profile/cy_profile.c **** *
 299:Generated_Source\PSoC6\pdl\drivers\peripheral\profile/cy_profile.c **** * \param ctrAddr The handle to the assigned counter, (returned by calling
 300:Generated_Source\PSoC6\pdl\drivers\peripheral\profile/cy_profile.c **** * \ref Cy_Profile_ConfigureCounter()).
 301:Generated_Source\PSoC6\pdl\drivers\peripheral\profile/cy_profile.c **** * 
 302:Generated_Source\PSoC6\pdl\drivers\peripheral\profile/cy_profile.c **** * \return 
 303:Generated_Source\PSoC6\pdl\drivers\peripheral\profile/cy_profile.c **** * Status of the operation.
 304:Generated_Source\PSoC6\pdl\drivers\peripheral\profile/cy_profile.c **** *
 305:Generated_Source\PSoC6\pdl\drivers\peripheral\profile/cy_profile.c **** * \funcusage
 306:Generated_Source\PSoC6\pdl\drivers\peripheral\profile/cy_profile.c **** * \snippet profile/profile_v1_0_sut_01.cydsn/main_cm4.c snippet_Cy_Profile_DisableCounter
 307:Generated_Source\PSoC6\pdl\drivers\peripheral\profile/cy_profile.c **** *
 308:Generated_Source\PSoC6\pdl\drivers\peripheral\profile/cy_profile.c **** *******************************************************************************/
 309:Generated_Source\PSoC6\pdl\drivers\peripheral\profile/cy_profile.c **** cy_en_profile_status_t Cy_Profile_DisableCounter(cy_stc_profile_ctr_ptr_t ctrAddr)
 310:Generated_Source\PSoC6\pdl\drivers\peripheral\profile/cy_profile.c **** {
 813              		.loc 2 310 0
 814              		.cfi_startproc
 815              		@ args = 0, pretend = 0, frame = 16
 816              		@ frame_needed = 1, uses_anonymous_args = 0
 817 0000 80B5     		push	{r7, lr}
 818              		.cfi_def_cfa_offset 8
 819              		.cfi_offset 7, -8
 820              		.cfi_offset 14, -4
 821 0002 84B0     		sub	sp, sp, #16
 822              		.cfi_def_cfa_offset 24
 823 0004 00AF     		add	r7, sp, #0
 824              		.cfi_def_cfa_register 7
 825 0006 7860     		str	r0, [r7, #4]
 311:Generated_Source\PSoC6\pdl\drivers\peripheral\profile/cy_profile.c ****     cy_en_profile_status_t retStatus = Cy_Profile_IsPtrValid(ctrAddr);
 826              		.loc 2 311 0
 827 0008 7B68     		ldr	r3, [r7, #4]
 828 000a 1800     		movs	r0, r3
 829 000c FFF7FEFF 		bl	Cy_Profile_IsPtrValid
 830 0010 0300     		movs	r3, r0
 831 0012 FB60     		str	r3, [r7, #12]
 312:Generated_Source\PSoC6\pdl\drivers\peripheral\profile/cy_profile.c ****     
 313:Generated_Source\PSoC6\pdl\drivers\peripheral\profile/cy_profile.c ****     if (CY_PROFILE_SUCCESS == retStatus)
 832              		.loc 2 313 0
 833 0014 FB68     		ldr	r3, [r7, #12]
 834 0016 002B     		cmp	r3, #0
 835 0018 16D1     		bne	.L47
 314:Generated_Source\PSoC6\pdl\drivers\peripheral\profile/cy_profile.c ****     {
 315:Generated_Source\PSoC6\pdl\drivers\peripheral\profile/cy_profile.c ****         /* clear the ENABLED bit */
 316:Generated_Source\PSoC6\pdl\drivers\peripheral\profile/cy_profile.c ****         ctrAddr->cntAddr->CTL &= ~(_VAL2FLD(PROFILE_CNT_STRUCT_CTL_ENABLED, 1UL));
 836              		.loc 2 316 0
 837 001a 7B68     		ldr	r3, [r7, #4]
 838 001c 9B68     		ldr	r3, [r3, #8]
ARM GAS  C:\Users\JC\AppData\Local\Temp\ccZlMrPB.s 			page 30


 839 001e 7A68     		ldr	r2, [r7, #4]
 840 0020 9268     		ldr	r2, [r2, #8]
 841 0022 1268     		ldr	r2, [r2]
 842 0024 5200     		lsls	r2, r2, #1
 843 0026 5208     		lsrs	r2, r2, #1
 844 0028 1A60     		str	r2, [r3]
 317:Generated_Source\PSoC6\pdl\drivers\peripheral\profile/cy_profile.c ****         /* clear the INTR_MASK bit for the counter being used */
 318:Generated_Source\PSoC6\pdl\drivers\peripheral\profile/cy_profile.c ****         PROFILE_INTR_MASK &= ~(1UL << (ctrAddr->ctrNum));
 845              		.loc 2 318 0
 846 002a 0A49     		ldr	r1, .L49
 847 002c 094A     		ldr	r2, .L49
 848 002e F923     		movs	r3, #249
 849 0030 DB00     		lsls	r3, r3, #3
 850 0032 D358     		ldr	r3, [r2, r3]
 851 0034 7A68     		ldr	r2, [r7, #4]
 852 0036 1278     		ldrb	r2, [r2]
 853 0038 1000     		movs	r0, r2
 854 003a 0122     		movs	r2, #1
 855 003c 8240     		lsls	r2, r2, r0
 856 003e D243     		mvns	r2, r2
 857 0040 1A40     		ands	r2, r3
 858 0042 F923     		movs	r3, #249
 859 0044 DB00     		lsls	r3, r3, #3
 860 0046 CA50     		str	r2, [r1, r3]
 861              	.L47:
 319:Generated_Source\PSoC6\pdl\drivers\peripheral\profile/cy_profile.c ****     }
 320:Generated_Source\PSoC6\pdl\drivers\peripheral\profile/cy_profile.c ****     
 321:Generated_Source\PSoC6\pdl\drivers\peripheral\profile/cy_profile.c ****     return (retStatus);
 862              		.loc 2 321 0
 863 0048 FB68     		ldr	r3, [r7, #12]
 322:Generated_Source\PSoC6\pdl\drivers\peripheral\profile/cy_profile.c **** }
 864              		.loc 2 322 0
 865 004a 1800     		movs	r0, r3
 866 004c BD46     		mov	sp, r7
 867 004e 04B0     		add	sp, sp, #16
 868              		@ sp needed
 869 0050 80BD     		pop	{r7, pc}
 870              	.L50:
 871 0052 C046     		.align	2
 872              	.L49:
 873 0054 00002D40 		.word	1076690944
 874              		.cfi_endproc
 875              	.LFE57:
 876              		.size	Cy_Profile_DisableCounter, .-Cy_Profile_DisableCounter
 877              		.section	.text.Cy_Profile_GetRawCount,"ax",%progbits
 878              		.align	2
 879              		.global	Cy_Profile_GetRawCount
 880              		.code	16
 881              		.thumb_func
 882              		.type	Cy_Profile_GetRawCount, %function
 883              	Cy_Profile_GetRawCount:
 884              	.LFB58:
 323:Generated_Source\PSoC6\pdl\drivers\peripheral\profile/cy_profile.c **** 
 324:Generated_Source\PSoC6\pdl\drivers\peripheral\profile/cy_profile.c **** 
 325:Generated_Source\PSoC6\pdl\drivers\peripheral\profile/cy_profile.c **** /* ========================================================================== */
 326:Generated_Source\PSoC6\pdl\drivers\peripheral\profile/cy_profile.c **** /* ==================    CALCULATION FUNCTIONS SECTION    =================== */
 327:Generated_Source\PSoC6\pdl\drivers\peripheral\profile/cy_profile.c **** /* ========================================================================== */
ARM GAS  C:\Users\JC\AppData\Local\Temp\ccZlMrPB.s 			page 31


 328:Generated_Source\PSoC6\pdl\drivers\peripheral\profile/cy_profile.c **** /*******************************************************************************
 329:Generated_Source\PSoC6\pdl\drivers\peripheral\profile/cy_profile.c **** * Function Name: Cy_Profile_GetRawCount
 330:Generated_Source\PSoC6\pdl\drivers\peripheral\profile/cy_profile.c **** ****************************************************************************//**
 331:Generated_Source\PSoC6\pdl\drivers\peripheral\profile/cy_profile.c **** *
 332:Generated_Source\PSoC6\pdl\drivers\peripheral\profile/cy_profile.c **** * Reports the raw count value for a specified counter.
 333:Generated_Source\PSoC6\pdl\drivers\peripheral\profile/cy_profile.c **** *
 334:Generated_Source\PSoC6\pdl\drivers\peripheral\profile/cy_profile.c **** * \param ctrAddr The handle to the assigned counter, (returned by calling
 335:Generated_Source\PSoC6\pdl\drivers\peripheral\profile/cy_profile.c **** * \ref Cy_Profile_ConfigureCounter()).
 336:Generated_Source\PSoC6\pdl\drivers\peripheral\profile/cy_profile.c **** *
 337:Generated_Source\PSoC6\pdl\drivers\peripheral\profile/cy_profile.c **** * \param result Output parameter used to write in the result.
 338:Generated_Source\PSoC6\pdl\drivers\peripheral\profile/cy_profile.c **** * 
 339:Generated_Source\PSoC6\pdl\drivers\peripheral\profile/cy_profile.c **** * \return 
 340:Generated_Source\PSoC6\pdl\drivers\peripheral\profile/cy_profile.c **** * Status of the operation.
 341:Generated_Source\PSoC6\pdl\drivers\peripheral\profile/cy_profile.c **** *
 342:Generated_Source\PSoC6\pdl\drivers\peripheral\profile/cy_profile.c **** * \funcusage
 343:Generated_Source\PSoC6\pdl\drivers\peripheral\profile/cy_profile.c **** * \snippet profile/profile_v1_0_sut_01.cydsn/main_cm4.c snippet_Cy_Profile_GetRawCount
 344:Generated_Source\PSoC6\pdl\drivers\peripheral\profile/cy_profile.c **** *
 345:Generated_Source\PSoC6\pdl\drivers\peripheral\profile/cy_profile.c **** *******************************************************************************/
 346:Generated_Source\PSoC6\pdl\drivers\peripheral\profile/cy_profile.c **** cy_en_profile_status_t Cy_Profile_GetRawCount(cy_stc_profile_ctr_ptr_t ctrAddr, uint64_t *result)
 347:Generated_Source\PSoC6\pdl\drivers\peripheral\profile/cy_profile.c **** {
 885              		.loc 2 347 0
 886              		.cfi_startproc
 887              		@ args = 0, pretend = 0, frame = 40
 888              		@ frame_needed = 1, uses_anonymous_args = 0
 889 0000 B0B5     		push	{r4, r5, r7, lr}
 890              		.cfi_def_cfa_offset 16
 891              		.cfi_offset 4, -16
 892              		.cfi_offset 5, -12
 893              		.cfi_offset 7, -8
 894              		.cfi_offset 14, -4
 895 0002 8AB0     		sub	sp, sp, #40
 896              		.cfi_def_cfa_offset 56
 897 0004 00AF     		add	r7, sp, #0
 898              		.cfi_def_cfa_register 7
 899 0006 F861     		str	r0, [r7, #28]
 900 0008 B961     		str	r1, [r7, #24]
 348:Generated_Source\PSoC6\pdl\drivers\peripheral\profile/cy_profile.c ****     cy_en_profile_status_t retStatus = Cy_Profile_IsPtrValid(ctrAddr);
 901              		.loc 2 348 0
 902 000a FB69     		ldr	r3, [r7, #28]
 903 000c 1800     		movs	r0, r3
 904 000e FFF7FEFF 		bl	Cy_Profile_IsPtrValid
 905 0012 0300     		movs	r3, r0
 906 0014 7B62     		str	r3, [r7, #36]
 349:Generated_Source\PSoC6\pdl\drivers\peripheral\profile/cy_profile.c ****     
 350:Generated_Source\PSoC6\pdl\drivers\peripheral\profile/cy_profile.c ****     if ((result != NULL) && (CY_PROFILE_SUCCESS == retStatus))
 907              		.loc 2 350 0
 908 0016 BB69     		ldr	r3, [r7, #24]
 909 0018 002B     		cmp	r3, #0
 910 001a 26D0     		beq	.L52
 911              		.loc 2 350 0 is_stmt 0 discriminator 1
 912 001c 7B6A     		ldr	r3, [r7, #36]
 913 001e 002B     		cmp	r3, #0
 914 0020 23D1     		bne	.L52
 351:Generated_Source\PSoC6\pdl\drivers\peripheral\profile/cy_profile.c ****     {
 352:Generated_Source\PSoC6\pdl\drivers\peripheral\profile/cy_profile.c ****         /* read the counter control register, and the counter current value */
 353:Generated_Source\PSoC6\pdl\drivers\peripheral\profile/cy_profile.c ****         ctrAddr->ctlReg = ctrAddr->cntAddr->CTL;
 915              		.loc 2 353 0 is_stmt 1
ARM GAS  C:\Users\JC\AppData\Local\Temp\ccZlMrPB.s 			page 32


 916 0022 FB69     		ldr	r3, [r7, #28]
 917 0024 9B68     		ldr	r3, [r3, #8]
 918 0026 1A68     		ldr	r2, [r3]
 919 0028 FB69     		ldr	r3, [r7, #28]
 920 002a DA60     		str	r2, [r3, #12]
 354:Generated_Source\PSoC6\pdl\drivers\peripheral\profile/cy_profile.c ****         ctrAddr->cntReg = ctrAddr->cntAddr->CNT;
 921              		.loc 2 354 0
 922 002c FB69     		ldr	r3, [r7, #28]
 923 002e 9B68     		ldr	r3, [r3, #8]
 924 0030 9A68     		ldr	r2, [r3, #8]
 925 0032 FB69     		ldr	r3, [r7, #28]
 926 0034 1A61     		str	r2, [r3, #16]
 355:Generated_Source\PSoC6\pdl\drivers\peripheral\profile/cy_profile.c **** 
 356:Generated_Source\PSoC6\pdl\drivers\peripheral\profile/cy_profile.c ****         /* report the count with overflow */
 357:Generated_Source\PSoC6\pdl\drivers\peripheral\profile/cy_profile.c ****         *result = ((uint64_t)(ctrAddr->overflow) << 32) | (uint64_t)(ctrAddr->cntReg);
 927              		.loc 2 357 0
 928 0036 FB69     		ldr	r3, [r7, #28]
 929 0038 5B69     		ldr	r3, [r3, #20]
 930 003a 3B61     		str	r3, [r7, #16]
 931 003c 0023     		movs	r3, #0
 932 003e 7B61     		str	r3, [r7, #20]
 933 0040 3B69     		ldr	r3, [r7, #16]
 934 0042 1D00     		lsls	r5, r3, #0
 935 0044 0023     		movs	r3, #0
 936 0046 1C00     		movs	r4, r3
 937 0048 FB69     		ldr	r3, [r7, #28]
 938 004a 1B69     		ldr	r3, [r3, #16]
 939 004c BB60     		str	r3, [r7, #8]
 940 004e 0023     		movs	r3, #0
 941 0050 FB60     		str	r3, [r7, #12]
 942 0052 BA68     		ldr	r2, [r7, #8]
 943 0054 FB68     		ldr	r3, [r7, #12]
 944 0056 1100     		movs	r1, r2
 945 0058 2143     		orrs	r1, r4
 946 005a 3960     		str	r1, [r7]
 947 005c 2B43     		orrs	r3, r5
 948 005e 7B60     		str	r3, [r7, #4]
 949 0060 BB69     		ldr	r3, [r7, #24]
 950 0062 3968     		ldr	r1, [r7]
 951 0064 7A68     		ldr	r2, [r7, #4]
 952 0066 1960     		str	r1, [r3]
 953 0068 5A60     		str	r2, [r3, #4]
 954              	.L52:
 358:Generated_Source\PSoC6\pdl\drivers\peripheral\profile/cy_profile.c ****     }
 359:Generated_Source\PSoC6\pdl\drivers\peripheral\profile/cy_profile.c ****     
 360:Generated_Source\PSoC6\pdl\drivers\peripheral\profile/cy_profile.c ****     return (retStatus);
 955              		.loc 2 360 0
 956 006a 7B6A     		ldr	r3, [r7, #36]
 361:Generated_Source\PSoC6\pdl\drivers\peripheral\profile/cy_profile.c **** }
 957              		.loc 2 361 0
 958 006c 1800     		movs	r0, r3
 959 006e BD46     		mov	sp, r7
 960 0070 0AB0     		add	sp, sp, #40
 961              		@ sp needed
 962 0072 B0BD     		pop	{r4, r5, r7, pc}
 963              		.cfi_endproc
 964              	.LFE58:
ARM GAS  C:\Users\JC\AppData\Local\Temp\ccZlMrPB.s 			page 33


 965              		.size	Cy_Profile_GetRawCount, .-Cy_Profile_GetRawCount
 966              		.global	__aeabi_lmul
 967              		.section	.text.Cy_Profile_GetWeightedCount,"ax",%progbits
 968              		.align	2
 969              		.global	Cy_Profile_GetWeightedCount
 970              		.code	16
 971              		.thumb_func
 972              		.type	Cy_Profile_GetWeightedCount, %function
 973              	Cy_Profile_GetWeightedCount:
 974              	.LFB59:
 362:Generated_Source\PSoC6\pdl\drivers\peripheral\profile/cy_profile.c **** 
 363:Generated_Source\PSoC6\pdl\drivers\peripheral\profile/cy_profile.c **** /*******************************************************************************
 364:Generated_Source\PSoC6\pdl\drivers\peripheral\profile/cy_profile.c **** * Function Name: Cy_Profile_GetWeightedCount
 365:Generated_Source\PSoC6\pdl\drivers\peripheral\profile/cy_profile.c **** ****************************************************************************//**
 366:Generated_Source\PSoC6\pdl\drivers\peripheral\profile/cy_profile.c **** *
 367:Generated_Source\PSoC6\pdl\drivers\peripheral\profile/cy_profile.c **** * Reports the count value for a specified counter, multiplied by the weight
 368:Generated_Source\PSoC6\pdl\drivers\peripheral\profile/cy_profile.c **** * factor for that counter.
 369:Generated_Source\PSoC6\pdl\drivers\peripheral\profile/cy_profile.c **** *
 370:Generated_Source\PSoC6\pdl\drivers\peripheral\profile/cy_profile.c **** * \param ctrAddr The handle to the assigned counter, (returned by calling
 371:Generated_Source\PSoC6\pdl\drivers\peripheral\profile/cy_profile.c **** * \ref Cy_Profile_ConfigureCounter()).
 372:Generated_Source\PSoC6\pdl\drivers\peripheral\profile/cy_profile.c **** *
 373:Generated_Source\PSoC6\pdl\drivers\peripheral\profile/cy_profile.c **** * \param result Output parameter used to write in the result.
 374:Generated_Source\PSoC6\pdl\drivers\peripheral\profile/cy_profile.c **** * 
 375:Generated_Source\PSoC6\pdl\drivers\peripheral\profile/cy_profile.c **** * \return 
 376:Generated_Source\PSoC6\pdl\drivers\peripheral\profile/cy_profile.c **** * Status of the operation.
 377:Generated_Source\PSoC6\pdl\drivers\peripheral\profile/cy_profile.c **** *
 378:Generated_Source\PSoC6\pdl\drivers\peripheral\profile/cy_profile.c **** * \funcusage
 379:Generated_Source\PSoC6\pdl\drivers\peripheral\profile/cy_profile.c **** * \snippet profile/profile_v1_0_sut_01.cydsn/main_cm4.c snippet_Cy_Profile_GetWeightedCount
 380:Generated_Source\PSoC6\pdl\drivers\peripheral\profile/cy_profile.c **** *
 381:Generated_Source\PSoC6\pdl\drivers\peripheral\profile/cy_profile.c **** *******************************************************************************/
 382:Generated_Source\PSoC6\pdl\drivers\peripheral\profile/cy_profile.c **** cy_en_profile_status_t Cy_Profile_GetWeightedCount(cy_stc_profile_ctr_ptr_t ctrAddr, uint64_t *resu
 383:Generated_Source\PSoC6\pdl\drivers\peripheral\profile/cy_profile.c **** {
 975              		.loc 2 383 0
 976              		.cfi_startproc
 977              		@ args = 0, pretend = 0, frame = 24
 978              		@ frame_needed = 1, uses_anonymous_args = 0
 979 0000 F0B5     		push	{r4, r5, r6, r7, lr}
 980              		.cfi_def_cfa_offset 20
 981              		.cfi_offset 4, -20
 982              		.cfi_offset 5, -16
 983              		.cfi_offset 6, -12
 984              		.cfi_offset 7, -8
 985              		.cfi_offset 14, -4
 986 0002 87B0     		sub	sp, sp, #28
 987              		.cfi_def_cfa_offset 48
 988 0004 00AF     		add	r7, sp, #0
 989              		.cfi_def_cfa_register 7
 990 0006 7860     		str	r0, [r7, #4]
 991 0008 3960     		str	r1, [r7]
 384:Generated_Source\PSoC6\pdl\drivers\peripheral\profile/cy_profile.c ****     uint64_t temp;
 385:Generated_Source\PSoC6\pdl\drivers\peripheral\profile/cy_profile.c ****     cy_en_profile_status_t retStatus = Cy_Profile_GetRawCount(ctrAddr, &temp);
 992              		.loc 2 385 0
 993 000a 0823     		movs	r3, #8
 994 000c FA18     		adds	r2, r7, r3
 995 000e 7B68     		ldr	r3, [r7, #4]
 996 0010 1100     		movs	r1, r2
 997 0012 1800     		movs	r0, r3
ARM GAS  C:\Users\JC\AppData\Local\Temp\ccZlMrPB.s 			page 34


 998 0014 FFF7FEFF 		bl	Cy_Profile_GetRawCount
 999 0018 0300     		movs	r3, r0
 1000 001a 7B61     		str	r3, [r7, #20]
 386:Generated_Source\PSoC6\pdl\drivers\peripheral\profile/cy_profile.c ****     
 387:Generated_Source\PSoC6\pdl\drivers\peripheral\profile/cy_profile.c ****     if ((result != NULL) && (CY_PROFILE_SUCCESS == retStatus))
 1001              		.loc 2 387 0
 1002 001c 3B68     		ldr	r3, [r7]
 1003 001e 002B     		cmp	r3, #0
 1004 0020 14D0     		beq	.L55
 1005              		.loc 2 387 0 is_stmt 0 discriminator 1
 1006 0022 7B69     		ldr	r3, [r7, #20]
 1007 0024 002B     		cmp	r3, #0
 1008 0026 11D1     		bne	.L55
 388:Generated_Source\PSoC6\pdl\drivers\peripheral\profile/cy_profile.c ****     {
 389:Generated_Source\PSoC6\pdl\drivers\peripheral\profile/cy_profile.c ****         /* calculate weighted count */
 390:Generated_Source\PSoC6\pdl\drivers\peripheral\profile/cy_profile.c ****         *result = temp * (uint64_t)(ctrAddr->weight);
 1009              		.loc 2 390 0 is_stmt 1
 1010 0028 7B68     		ldr	r3, [r7, #4]
 1011 002a 9B69     		ldr	r3, [r3, #24]
 1012 002c 1D00     		movs	r5, r3
 1013 002e 0023     		movs	r3, #0
 1014 0030 1E00     		movs	r6, r3
 1015 0032 BB68     		ldr	r3, [r7, #8]
 1016 0034 FC68     		ldr	r4, [r7, #12]
 1017 0036 1A00     		movs	r2, r3
 1018 0038 2300     		movs	r3, r4
 1019 003a 2800     		movs	r0, r5
 1020 003c 3100     		movs	r1, r6
 1021 003e FFF7FEFF 		bl	__aeabi_lmul
 1022 0042 0300     		movs	r3, r0
 1023 0044 0C00     		movs	r4, r1
 1024 0046 3A68     		ldr	r2, [r7]
 1025 0048 1360     		str	r3, [r2]
 1026 004a 5460     		str	r4, [r2, #4]
 1027              	.L55:
 391:Generated_Source\PSoC6\pdl\drivers\peripheral\profile/cy_profile.c ****     }
 392:Generated_Source\PSoC6\pdl\drivers\peripheral\profile/cy_profile.c ****     
 393:Generated_Source\PSoC6\pdl\drivers\peripheral\profile/cy_profile.c ****     return (retStatus);
 1028              		.loc 2 393 0
 1029 004c 7B69     		ldr	r3, [r7, #20]
 394:Generated_Source\PSoC6\pdl\drivers\peripheral\profile/cy_profile.c **** }
 1030              		.loc 2 394 0
 1031 004e 1800     		movs	r0, r3
 1032 0050 BD46     		mov	sp, r7
 1033 0052 07B0     		add	sp, sp, #28
 1034              		@ sp needed
 1035 0054 F0BD     		pop	{r4, r5, r6, r7, pc}
 1036              		.cfi_endproc
 1037              	.LFE59:
 1038              		.size	Cy_Profile_GetWeightedCount, .-Cy_Profile_GetWeightedCount
 1039 0056 C046     		.section	.text.Cy_Profile_GetSumWeightedCounts,"ax",%progbits
 1040              		.align	2
 1041              		.global	Cy_Profile_GetSumWeightedCounts
 1042              		.code	16
 1043              		.thumb_func
 1044              		.type	Cy_Profile_GetSumWeightedCounts, %function
 1045              	Cy_Profile_GetSumWeightedCounts:
ARM GAS  C:\Users\JC\AppData\Local\Temp\ccZlMrPB.s 			page 35


 1046              	.LFB60:
 395:Generated_Source\PSoC6\pdl\drivers\peripheral\profile/cy_profile.c **** 
 396:Generated_Source\PSoC6\pdl\drivers\peripheral\profile/cy_profile.c **** /*******************************************************************************
 397:Generated_Source\PSoC6\pdl\drivers\peripheral\profile/cy_profile.c **** * Function Name: Cy_Profile_GetSumWeightedCounts
 398:Generated_Source\PSoC6\pdl\drivers\peripheral\profile/cy_profile.c **** ****************************************************************************//**
 399:Generated_Source\PSoC6\pdl\drivers\peripheral\profile/cy_profile.c **** *
 400:Generated_Source\PSoC6\pdl\drivers\peripheral\profile/cy_profile.c **** * Reports the weighted sum result of the first n number of counter count values
 401:Generated_Source\PSoC6\pdl\drivers\peripheral\profile/cy_profile.c **** * starting from the specified profile counter data structure base address.
 402:Generated_Source\PSoC6\pdl\drivers\peripheral\profile/cy_profile.c **** *
 403:Generated_Source\PSoC6\pdl\drivers\peripheral\profile/cy_profile.c **** * Each count value is multiplied by its weighing factor before the summing
 404:Generated_Source\PSoC6\pdl\drivers\peripheral\profile/cy_profile.c **** * operation is performed.
 405:Generated_Source\PSoC6\pdl\drivers\peripheral\profile/cy_profile.c **** *
 406:Generated_Source\PSoC6\pdl\drivers\peripheral\profile/cy_profile.c **** * \param ptrsArray Base address of the profile counter data structure
 407:Generated_Source\PSoC6\pdl\drivers\peripheral\profile/cy_profile.c **** *
 408:Generated_Source\PSoC6\pdl\drivers\peripheral\profile/cy_profile.c **** * \param numCounters Number of measured counters in ptrsArray[]
 409:Generated_Source\PSoC6\pdl\drivers\peripheral\profile/cy_profile.c **** *
 410:Generated_Source\PSoC6\pdl\drivers\peripheral\profile/cy_profile.c **** * \return
 411:Generated_Source\PSoC6\pdl\drivers\peripheral\profile/cy_profile.c **** * The weighted sum of the specified counters
 412:Generated_Source\PSoC6\pdl\drivers\peripheral\profile/cy_profile.c **** *
 413:Generated_Source\PSoC6\pdl\drivers\peripheral\profile/cy_profile.c **** * \funcusage
 414:Generated_Source\PSoC6\pdl\drivers\peripheral\profile/cy_profile.c **** * \snippet profile/profile_v1_0_sut_01.cydsn/main_cm4.c snippet_Cy_Profile_GetSumWeightedCounts
 415:Generated_Source\PSoC6\pdl\drivers\peripheral\profile/cy_profile.c **** *
 416:Generated_Source\PSoC6\pdl\drivers\peripheral\profile/cy_profile.c **** *******************************************************************************/
 417:Generated_Source\PSoC6\pdl\drivers\peripheral\profile/cy_profile.c **** uint64_t Cy_Profile_GetSumWeightedCounts(cy_stc_profile_ctr_ptr_t ptrsArray[],
 418:Generated_Source\PSoC6\pdl\drivers\peripheral\profile/cy_profile.c ****                                     uint32_t numCounters)
 419:Generated_Source\PSoC6\pdl\drivers\peripheral\profile/cy_profile.c **** {
 1047              		.loc 2 419 0
 1048              		.cfi_startproc
 1049              		@ args = 0, pretend = 0, frame = 32
 1050              		@ frame_needed = 1, uses_anonymous_args = 0
 1051 0000 90B5     		push	{r4, r7, lr}
 1052              		.cfi_def_cfa_offset 12
 1053              		.cfi_offset 4, -12
 1054              		.cfi_offset 7, -8
 1055              		.cfi_offset 14, -4
 1056 0002 89B0     		sub	sp, sp, #36
 1057              		.cfi_def_cfa_offset 48
 1058 0004 00AF     		add	r7, sp, #0
 1059              		.cfi_def_cfa_register 7
 1060 0006 7860     		str	r0, [r7, #4]
 1061 0008 3960     		str	r1, [r7]
 420:Generated_Source\PSoC6\pdl\drivers\peripheral\profile/cy_profile.c ****     uint64_t daSum = (uint64_t)0UL;
 1062              		.loc 2 420 0
 1063 000a 0023     		movs	r3, #0
 1064 000c 0024     		movs	r4, #0
 1065 000e BB61     		str	r3, [r7, #24]
 1066 0010 FC61     		str	r4, [r7, #28]
 421:Generated_Source\PSoC6\pdl\drivers\peripheral\profile/cy_profile.c ****     
 422:Generated_Source\PSoC6\pdl\drivers\peripheral\profile/cy_profile.c ****     CY_ASSERT_L2(CY_PROFILE_IS_CNT_VALID(numCounters));
 1067              		.loc 2 422 0
 1068 0012 3B68     		ldr	r3, [r7]
 1069 0014 072B     		cmp	r3, #7
 1070 0016 06D9     		bls	.L58
 1071              		.loc 2 422 0 is_stmt 0 discriminator 1
 1072 0018 D323     		movs	r3, #211
 1073 001a 5A00     		lsls	r2, r3, #1
 1074 001c 164B     		ldr	r3, .L64
ARM GAS  C:\Users\JC\AppData\Local\Temp\ccZlMrPB.s 			page 36


 1075 001e 1100     		movs	r1, r2
 1076 0020 1800     		movs	r0, r3
 1077 0022 FFF7FEFF 		bl	Cy_SysLib_AssertFailed
 1078              	.L58:
 423:Generated_Source\PSoC6\pdl\drivers\peripheral\profile/cy_profile.c ****     
 424:Generated_Source\PSoC6\pdl\drivers\peripheral\profile/cy_profile.c ****     if(ptrsArray != NULL)
 1079              		.loc 2 424 0 is_stmt 1
 1080 0026 7B68     		ldr	r3, [r7, #4]
 1081 0028 002B     		cmp	r3, #0
 1082 002a 1ED0     		beq	.L59
 1083              	.LBB2:
 425:Generated_Source\PSoC6\pdl\drivers\peripheral\profile/cy_profile.c ****     {
 426:Generated_Source\PSoC6\pdl\drivers\peripheral\profile/cy_profile.c ****         uint64_t num;
 427:Generated_Source\PSoC6\pdl\drivers\peripheral\profile/cy_profile.c ****         uint32_t i;
 428:Generated_Source\PSoC6\pdl\drivers\peripheral\profile/cy_profile.c **** 
 429:Generated_Source\PSoC6\pdl\drivers\peripheral\profile/cy_profile.c ****         for (i = 0UL; i < numCounters; i++)
 1084              		.loc 2 429 0
 1085 002c 0023     		movs	r3, #0
 1086 002e 7B61     		str	r3, [r7, #20]
 1087 0030 17E0     		b	.L60
 1088              	.L62:
 430:Generated_Source\PSoC6\pdl\drivers\peripheral\profile/cy_profile.c ****         {
 431:Generated_Source\PSoC6\pdl\drivers\peripheral\profile/cy_profile.c ****             /* ignore error reported by Ep_GetWeightedCount() */
 432:Generated_Source\PSoC6\pdl\drivers\peripheral\profile/cy_profile.c ****             if (CY_PROFILE_SUCCESS == Cy_Profile_GetWeightedCount(ptrsArray[i], &num))
 1089              		.loc 2 432 0
 1090 0032 7B69     		ldr	r3, [r7, #20]
 1091 0034 9B00     		lsls	r3, r3, #2
 1092 0036 7A68     		ldr	r2, [r7, #4]
 1093 0038 D318     		adds	r3, r2, r3
 1094 003a 1B68     		ldr	r3, [r3]
 1095 003c 0822     		movs	r2, #8
 1096 003e BA18     		adds	r2, r7, r2
 1097 0040 1100     		movs	r1, r2
 1098 0042 1800     		movs	r0, r3
 1099 0044 FFF7FEFF 		bl	Cy_Profile_GetWeightedCount
 1100 0048 031E     		subs	r3, r0, #0
 1101 004a 07D1     		bne	.L61
 433:Generated_Source\PSoC6\pdl\drivers\peripheral\profile/cy_profile.c ****             {
 434:Generated_Source\PSoC6\pdl\drivers\peripheral\profile/cy_profile.c ****                 daSum += num;
 1102              		.loc 2 434 0
 1103 004c BB68     		ldr	r3, [r7, #8]
 1104 004e FC68     		ldr	r4, [r7, #12]
 1105 0050 B969     		ldr	r1, [r7, #24]
 1106 0052 FA69     		ldr	r2, [r7, #28]
 1107 0054 5B18     		adds	r3, r3, r1
 1108 0056 5441     		adcs	r4, r4, r2
 1109 0058 BB61     		str	r3, [r7, #24]
 1110 005a FC61     		str	r4, [r7, #28]
 1111              	.L61:
 429:Generated_Source\PSoC6\pdl\drivers\peripheral\profile/cy_profile.c ****         {
 1112              		.loc 2 429 0 discriminator 2
 1113 005c 7B69     		ldr	r3, [r7, #20]
 1114 005e 0133     		adds	r3, r3, #1
 1115 0060 7B61     		str	r3, [r7, #20]
 1116              	.L60:
 429:Generated_Source\PSoC6\pdl\drivers\peripheral\profile/cy_profile.c ****         {
 1117              		.loc 2 429 0 is_stmt 0 discriminator 1
ARM GAS  C:\Users\JC\AppData\Local\Temp\ccZlMrPB.s 			page 37


 1118 0062 7A69     		ldr	r2, [r7, #20]
 1119 0064 3B68     		ldr	r3, [r7]
 1120 0066 9A42     		cmp	r2, r3
 1121 0068 E3D3     		bcc	.L62
 1122              	.L59:
 1123              	.LBE2:
 435:Generated_Source\PSoC6\pdl\drivers\peripheral\profile/cy_profile.c ****             }
 436:Generated_Source\PSoC6\pdl\drivers\peripheral\profile/cy_profile.c ****         }
 437:Generated_Source\PSoC6\pdl\drivers\peripheral\profile/cy_profile.c ****     }
 438:Generated_Source\PSoC6\pdl\drivers\peripheral\profile/cy_profile.c ****     
 439:Generated_Source\PSoC6\pdl\drivers\peripheral\profile/cy_profile.c ****     return (daSum);
 1124              		.loc 2 439 0 is_stmt 1
 1125 006a BB69     		ldr	r3, [r7, #24]
 1126 006c FC69     		ldr	r4, [r7, #28]
 440:Generated_Source\PSoC6\pdl\drivers\peripheral\profile/cy_profile.c **** }
 1127              		.loc 2 440 0
 1128 006e 1800     		movs	r0, r3
 1129 0070 2100     		movs	r1, r4
 1130 0072 BD46     		mov	sp, r7
 1131 0074 09B0     		add	sp, sp, #36
 1132              		@ sp needed
 1133 0076 90BD     		pop	{r4, r7, pc}
 1134              	.L65:
 1135              		.align	2
 1136              	.L64:
 1137 0078 00000000 		.word	.LC5
 1138              		.cfi_endproc
 1139              	.LFE60:
 1140              		.size	Cy_Profile_GetSumWeightedCounts, .-Cy_Profile_GetSumWeightedCounts
 1141              		.text
 1142              	.Letext0:
 1143              		.file 3 "c:\\program files (x86)\\cypress\\psoc creator\\4.4\\psoc creator\\import\\gnu\\arm\\5.4.
 1144              		.file 4 "c:\\program files (x86)\\cypress\\psoc creator\\4.4\\psoc creator\\import\\gnu\\arm\\5.4.
 1145              		.file 5 "Generated_Source\\PSoC6\\pdl\\devices/psoc6/include/ip/cyip_profile.h"
 1146              		.file 6 "Generated_Source\\PSoC6\\pdl\\drivers/peripheral/device/cy_device.h"
 1147              		.file 7 "Generated_Source\\PSoC6\\pdl\\devices/psoc6/include/psoc6_01_config.h"
 1148              		.file 8 "Generated_Source\\PSoC6\\pdl\\drivers/peripheral/syslib/cy_syslib.h"
 1149              		.section	.debug_info,"",%progbits
 1150              	.Ldebug_info0:
 1151 0000 C40B0000 		.4byte	0xbc4
 1152 0004 0400     		.2byte	0x4
 1153 0006 00000000 		.4byte	.Ldebug_abbrev0
 1154 000a 04       		.byte	0x4
 1155 000b 01       		.uleb128 0x1
 1156 000c 51050000 		.4byte	.LASF203
 1157 0010 0C       		.byte	0xc
 1158 0011 A80B0000 		.4byte	.LASF204
 1159 0015 97020000 		.4byte	.LASF205
 1160 0019 00000000 		.4byte	.Ldebug_ranges0+0
 1161 001d 00000000 		.4byte	0
 1162 0021 00000000 		.4byte	.Ldebug_line0
 1163 0025 02       		.uleb128 0x2
 1164 0026 01       		.byte	0x1
 1165 0027 06       		.byte	0x6
 1166 0028 CD010000 		.4byte	.LASF0
 1167 002c 03       		.uleb128 0x3
 1168 002d B5000000 		.4byte	.LASF2
ARM GAS  C:\Users\JC\AppData\Local\Temp\ccZlMrPB.s 			page 38


 1169 0031 03       		.byte	0x3
 1170 0032 1D       		.byte	0x1d
 1171 0033 37000000 		.4byte	0x37
 1172 0037 02       		.uleb128 0x2
 1173 0038 01       		.byte	0x1
 1174 0039 08       		.byte	0x8
 1175 003a 28090000 		.4byte	.LASF1
 1176 003e 03       		.uleb128 0x3
 1177 003f E9030000 		.4byte	.LASF3
 1178 0043 03       		.byte	0x3
 1179 0044 29       		.byte	0x29
 1180 0045 49000000 		.4byte	0x49
 1181 0049 02       		.uleb128 0x2
 1182 004a 02       		.byte	0x2
 1183 004b 05       		.byte	0x5
 1184 004c A6090000 		.4byte	.LASF4
 1185 0050 03       		.uleb128 0x3
 1186 0051 050B0000 		.4byte	.LASF5
 1187 0055 03       		.byte	0x3
 1188 0056 2B       		.byte	0x2b
 1189 0057 5B000000 		.4byte	0x5b
 1190 005b 02       		.uleb128 0x2
 1191 005c 02       		.byte	0x2
 1192 005d 07       		.byte	0x7
 1193 005e 8C0B0000 		.4byte	.LASF6
 1194 0062 02       		.uleb128 0x2
 1195 0063 04       		.byte	0x4
 1196 0064 05       		.byte	0x5
 1197 0065 75020000 		.4byte	.LASF7
 1198 0069 03       		.uleb128 0x3
 1199 006a BE030000 		.4byte	.LASF8
 1200 006e 03       		.byte	0x3
 1201 006f 41       		.byte	0x41
 1202 0070 74000000 		.4byte	0x74
 1203 0074 02       		.uleb128 0x2
 1204 0075 04       		.byte	0x4
 1205 0076 07       		.byte	0x7
 1206 0077 7C040000 		.4byte	.LASF9
 1207 007b 02       		.uleb128 0x2
 1208 007c 08       		.byte	0x8
 1209 007d 05       		.byte	0x5
 1210 007e BF010000 		.4byte	.LASF10
 1211 0082 03       		.uleb128 0x3
 1212 0083 5F080000 		.4byte	.LASF11
 1213 0087 03       		.byte	0x3
 1214 0088 5B       		.byte	0x5b
 1215 0089 8D000000 		.4byte	0x8d
 1216 008d 02       		.uleb128 0x2
 1217 008e 08       		.byte	0x8
 1218 008f 07       		.byte	0x7
 1219 0090 35010000 		.4byte	.LASF12
 1220 0094 04       		.uleb128 0x4
 1221 0095 04       		.byte	0x4
 1222 0096 05       		.byte	0x5
 1223 0097 696E7400 		.ascii	"int\000"
 1224 009b 02       		.uleb128 0x2
 1225 009c 04       		.byte	0x4
ARM GAS  C:\Users\JC\AppData\Local\Temp\ccZlMrPB.s 			page 39


 1226 009d 07       		.byte	0x7
 1227 009e 31040000 		.4byte	.LASF13
 1228 00a2 03       		.uleb128 0x3
 1229 00a3 A20C0000 		.4byte	.LASF14
 1230 00a7 04       		.byte	0x4
 1231 00a8 18       		.byte	0x18
 1232 00a9 2C000000 		.4byte	0x2c
 1233 00ad 03       		.uleb128 0x3
 1234 00ae B7010000 		.4byte	.LASF15
 1235 00b2 04       		.byte	0x4
 1236 00b3 20       		.byte	0x20
 1237 00b4 3E000000 		.4byte	0x3e
 1238 00b8 03       		.uleb128 0x3
 1239 00b9 3E040000 		.4byte	.LASF16
 1240 00bd 04       		.byte	0x4
 1241 00be 24       		.byte	0x24
 1242 00bf 50000000 		.4byte	0x50
 1243 00c3 03       		.uleb128 0x3
 1244 00c4 7C0A0000 		.4byte	.LASF17
 1245 00c8 04       		.byte	0x4
 1246 00c9 30       		.byte	0x30
 1247 00ca 69000000 		.4byte	0x69
 1248 00ce 03       		.uleb128 0x3
 1249 00cf 90000000 		.4byte	.LASF18
 1250 00d3 04       		.byte	0x4
 1251 00d4 3C       		.byte	0x3c
 1252 00d5 82000000 		.4byte	0x82
 1253 00d9 02       		.uleb128 0x2
 1254 00da 08       		.byte	0x8
 1255 00db 04       		.byte	0x4
 1256 00dc AB0A0000 		.4byte	.LASF19
 1257 00e0 05       		.uleb128 0x5
 1258 00e1 C3000000 		.4byte	0xc3
 1259 00e5 06       		.uleb128 0x6
 1260 00e6 E0000000 		.4byte	0xe0
 1261 00ea 02       		.uleb128 0x2
 1262 00eb 04       		.byte	0x4
 1263 00ec 07       		.byte	0x7
 1264 00ed 16070000 		.4byte	.LASF20
 1265 00f1 07       		.uleb128 0x7
 1266 00f2 E5000000 		.4byte	0xe5
 1267 00f6 01010000 		.4byte	0x101
 1268 00fa 08       		.uleb128 0x8
 1269 00fb EA000000 		.4byte	0xea
 1270 00ff 0B       		.byte	0xb
 1271 0100 00       		.byte	0
 1272 0101 07       		.uleb128 0x7
 1273 0102 E5000000 		.4byte	0xe5
 1274 0106 11010000 		.4byte	0x111
 1275 010a 08       		.uleb128 0x8
 1276 010b EA000000 		.4byte	0xea
 1277 010f 01       		.byte	0x1
 1278 0110 00       		.byte	0
 1279 0111 05       		.uleb128 0x5
 1280 0112 A2000000 		.4byte	0xa2
 1281 0116 07       		.uleb128 0x7
 1282 0117 E5000000 		.4byte	0xe5
ARM GAS  C:\Users\JC\AppData\Local\Temp\ccZlMrPB.s 			page 40


 1283 011b 27010000 		.4byte	0x127
 1284 011f 09       		.uleb128 0x9
 1285 0120 EA000000 		.4byte	0xea
 1286 0124 EA01     		.2byte	0x1ea
 1287 0126 00       		.byte	0
 1288 0127 0A       		.uleb128 0xa
 1289 0128 10       		.byte	0x10
 1290 0129 05       		.byte	0x5
 1291 012a 22       		.byte	0x22
 1292 012b 60010000 		.4byte	0x160
 1293 012f 0B       		.uleb128 0xb
 1294 0130 43544C00 		.ascii	"CTL\000"
 1295 0134 05       		.byte	0x5
 1296 0135 23       		.byte	0x23
 1297 0136 E0000000 		.4byte	0xe0
 1298 013a 00       		.byte	0
 1299 013b 0C       		.uleb128 0xc
 1300 013c 230B0000 		.4byte	.LASF21
 1301 0140 05       		.byte	0x5
 1302 0141 24       		.byte	0x24
 1303 0142 E5000000 		.4byte	0xe5
 1304 0146 04       		.byte	0x4
 1305 0147 0B       		.uleb128 0xb
 1306 0148 434E5400 		.ascii	"CNT\000"
 1307 014c 05       		.byte	0x5
 1308 014d 25       		.byte	0x25
 1309 014e E0000000 		.4byte	0xe0
 1310 0152 08       		.byte	0x8
 1311 0153 0C       		.uleb128 0xc
 1312 0154 BC080000 		.4byte	.LASF22
 1313 0158 05       		.byte	0x5
 1314 0159 26       		.byte	0x26
 1315 015a E5000000 		.4byte	0xe5
 1316 015e 0C       		.byte	0xc
 1317 015f 00       		.byte	0
 1318 0160 03       		.uleb128 0x3
 1319 0161 4C0B0000 		.4byte	.LASF23
 1320 0165 05       		.byte	0x5
 1321 0166 27       		.byte	0x27
 1322 0167 27010000 		.4byte	0x127
 1323 016b 0D       		.uleb128 0xd
 1324 016c 0009     		.2byte	0x900
 1325 016e 05       		.byte	0x5
 1326 016f 2C       		.byte	0x2c
 1327 0170 FF010000 		.4byte	0x1ff
 1328 0174 0B       		.uleb128 0xb
 1329 0175 43544C00 		.ascii	"CTL\000"
 1330 0179 05       		.byte	0x5
 1331 017a 2D       		.byte	0x2d
 1332 017b E0000000 		.4byte	0xe0
 1333 017f 00       		.byte	0
 1334 0180 0C       		.uleb128 0xc
 1335 0181 2C0C0000 		.4byte	.LASF24
 1336 0185 05       		.byte	0x5
 1337 0186 2E       		.byte	0x2e
 1338 0187 E5000000 		.4byte	0xe5
 1339 018b 04       		.byte	0x4
ARM GAS  C:\Users\JC\AppData\Local\Temp\ccZlMrPB.s 			page 41


 1340 018c 0C       		.uleb128 0xc
 1341 018d 230B0000 		.4byte	.LASF21
 1342 0191 05       		.byte	0x5
 1343 0192 2F       		.byte	0x2f
 1344 0193 04020000 		.4byte	0x204
 1345 0197 08       		.byte	0x8
 1346 0198 0B       		.uleb128 0xb
 1347 0199 434D4400 		.ascii	"CMD\000"
 1348 019d 05       		.byte	0x5
 1349 019e 30       		.byte	0x30
 1350 019f E0000000 		.4byte	0xe0
 1351 01a3 10       		.byte	0x10
 1352 01a4 0C       		.uleb128 0xc
 1353 01a5 BC080000 		.4byte	.LASF22
 1354 01a9 05       		.byte	0x5
 1355 01aa 31       		.byte	0x31
 1356 01ab 0E020000 		.4byte	0x20e
 1357 01af 14       		.byte	0x14
 1358 01b0 0E       		.uleb128 0xe
 1359 01b1 B6070000 		.4byte	.LASF25
 1360 01b5 05       		.byte	0x5
 1361 01b6 32       		.byte	0x32
 1362 01b7 E0000000 		.4byte	0xe0
 1363 01bb C007     		.2byte	0x7c0
 1364 01bd 0E       		.uleb128 0xe
 1365 01be B2060000 		.4byte	.LASF26
 1366 01c2 05       		.byte	0x5
 1367 01c3 33       		.byte	0x33
 1368 01c4 E0000000 		.4byte	0xe0
 1369 01c8 C407     		.2byte	0x7c4
 1370 01ca 0E       		.uleb128 0xe
 1371 01cb BB040000 		.4byte	.LASF27
 1372 01cf 05       		.byte	0x5
 1373 01d0 34       		.byte	0x34
 1374 01d1 E0000000 		.4byte	0xe0
 1375 01d5 C807     		.2byte	0x7c8
 1376 01d7 0E       		.uleb128 0xe
 1377 01d8 6A080000 		.4byte	.LASF28
 1378 01dc 05       		.byte	0x5
 1379 01dd 35       		.byte	0x35
 1380 01de E5000000 		.4byte	0xe5
 1381 01e2 CC07     		.2byte	0x7cc
 1382 01e4 0E       		.uleb128 0xe
 1383 01e5 820B0000 		.4byte	.LASF29
 1384 01e9 05       		.byte	0x5
 1385 01ea 36       		.byte	0x36
 1386 01eb 18020000 		.4byte	0x218
 1387 01ef D007     		.2byte	0x7d0
 1388 01f1 0E       		.uleb128 0xe
 1389 01f2 6E030000 		.4byte	.LASF30
 1390 01f6 05       		.byte	0x5
 1391 01f7 37       		.byte	0x37
 1392 01f8 1D020000 		.4byte	0x21d
 1393 01fc 0008     		.2byte	0x800
 1394 01fe 00       		.byte	0
 1395 01ff 05       		.uleb128 0x5
 1396 0200 01010000 		.4byte	0x101
ARM GAS  C:\Users\JC\AppData\Local\Temp\ccZlMrPB.s 			page 42


 1397 0204 06       		.uleb128 0x6
 1398 0205 FF010000 		.4byte	0x1ff
 1399 0209 05       		.uleb128 0x5
 1400 020a 16010000 		.4byte	0x116
 1401 020e 06       		.uleb128 0x6
 1402 020f 09020000 		.4byte	0x209
 1403 0213 05       		.uleb128 0x5
 1404 0214 F1000000 		.4byte	0xf1
 1405 0218 06       		.uleb128 0x6
 1406 0219 13020000 		.4byte	0x213
 1407 021d 07       		.uleb128 0x7
 1408 021e 60010000 		.4byte	0x160
 1409 0222 2D020000 		.4byte	0x22d
 1410 0226 08       		.uleb128 0x8
 1411 0227 EA000000 		.4byte	0xea
 1412 022b 0F       		.byte	0xf
 1413 022c 00       		.byte	0
 1414 022d 03       		.uleb128 0x3
 1415 022e FC030000 		.4byte	.LASF31
 1416 0232 05       		.byte	0x5
 1417 0233 38       		.byte	0x38
 1418 0234 6B010000 		.4byte	0x16b
 1419 0238 0A       		.uleb128 0xa
 1420 0239 B8       		.byte	0xb8
 1421 023a 06       		.byte	0x6
 1422 023b 34       		.byte	0x34
 1423 023c 49060000 		.4byte	0x649
 1424 0240 0C       		.uleb128 0xc
 1425 0241 03010000 		.4byte	.LASF32
 1426 0245 06       		.byte	0x6
 1427 0246 37       		.byte	0x37
 1428 0247 C3000000 		.4byte	0xc3
 1429 024b 00       		.byte	0
 1430 024c 0C       		.uleb128 0xc
 1431 024d B3030000 		.4byte	.LASF33
 1432 0251 06       		.byte	0x6
 1433 0252 38       		.byte	0x38
 1434 0253 C3000000 		.4byte	0xc3
 1435 0257 04       		.byte	0x4
 1436 0258 0C       		.uleb128 0xc
 1437 0259 F3020000 		.4byte	.LASF34
 1438 025d 06       		.byte	0x6
 1439 025e 39       		.byte	0x39
 1440 025f C3000000 		.4byte	0xc3
 1441 0263 08       		.byte	0x8
 1442 0264 0C       		.uleb128 0xc
 1443 0265 20090000 		.4byte	.LASF35
 1444 0269 06       		.byte	0x6
 1445 026a 3A       		.byte	0x3a
 1446 026b C3000000 		.4byte	0xc3
 1447 026f 0C       		.byte	0xc
 1448 0270 0C       		.uleb128 0xc
 1449 0271 06020000 		.4byte	.LASF36
 1450 0275 06       		.byte	0x6
 1451 0276 3B       		.byte	0x3b
 1452 0277 C3000000 		.4byte	0xc3
 1453 027b 10       		.byte	0x10
ARM GAS  C:\Users\JC\AppData\Local\Temp\ccZlMrPB.s 			page 43


 1454 027c 0C       		.uleb128 0xc
 1455 027d 42020000 		.4byte	.LASF37
 1456 0281 06       		.byte	0x6
 1457 0282 3C       		.byte	0x3c
 1458 0283 C3000000 		.4byte	0xc3
 1459 0287 14       		.byte	0x14
 1460 0288 0C       		.uleb128 0xc
 1461 0289 C5040000 		.4byte	.LASF38
 1462 028d 06       		.byte	0x6
 1463 028e 3D       		.byte	0x3d
 1464 028f C3000000 		.4byte	0xc3
 1465 0293 18       		.byte	0x18
 1466 0294 0C       		.uleb128 0xc
 1467 0295 87000000 		.4byte	.LASF39
 1468 0299 06       		.byte	0x6
 1469 029a 3E       		.byte	0x3e
 1470 029b C3000000 		.4byte	0xc3
 1471 029f 1C       		.byte	0x1c
 1472 02a0 0C       		.uleb128 0xc
 1473 02a1 600D0000 		.4byte	.LASF40
 1474 02a5 06       		.byte	0x6
 1475 02a6 3F       		.byte	0x3f
 1476 02a7 C3000000 		.4byte	0xc3
 1477 02ab 20       		.byte	0x20
 1478 02ac 0C       		.uleb128 0xc
 1479 02ad 9B090000 		.4byte	.LASF41
 1480 02b1 06       		.byte	0x6
 1481 02b2 40       		.byte	0x40
 1482 02b3 C3000000 		.4byte	0xc3
 1483 02b7 24       		.byte	0x24
 1484 02b8 0C       		.uleb128 0xc
 1485 02b9 BB060000 		.4byte	.LASF42
 1486 02bd 06       		.byte	0x6
 1487 02be 43       		.byte	0x43
 1488 02bf A2000000 		.4byte	0xa2
 1489 02c3 28       		.byte	0x28
 1490 02c4 0C       		.uleb128 0xc
 1491 02c5 6D000000 		.4byte	.LASF43
 1492 02c9 06       		.byte	0x6
 1493 02ca 44       		.byte	0x44
 1494 02cb A2000000 		.4byte	0xa2
 1495 02cf 29       		.byte	0x29
 1496 02d0 0C       		.uleb128 0xc
 1497 02d1 560D0000 		.4byte	.LASF44
 1498 02d5 06       		.byte	0x6
 1499 02d6 45       		.byte	0x45
 1500 02d7 A2000000 		.4byte	0xa2
 1501 02db 2A       		.byte	0x2a
 1502 02dc 0C       		.uleb128 0xc
 1503 02dd FC070000 		.4byte	.LASF45
 1504 02e1 06       		.byte	0x6
 1505 02e2 46       		.byte	0x46
 1506 02e3 A2000000 		.4byte	0xa2
 1507 02e7 2B       		.byte	0x2b
 1508 02e8 0C       		.uleb128 0xc
 1509 02e9 E3050000 		.4byte	.LASF46
 1510 02ed 06       		.byte	0x6
ARM GAS  C:\Users\JC\AppData\Local\Temp\ccZlMrPB.s 			page 44


 1511 02ee 47       		.byte	0x47
 1512 02ef A2000000 		.4byte	0xa2
 1513 02f3 2C       		.byte	0x2c
 1514 02f4 0C       		.uleb128 0xc
 1515 02f5 FC020000 		.4byte	.LASF47
 1516 02f9 06       		.byte	0x6
 1517 02fa 48       		.byte	0x48
 1518 02fb A2000000 		.4byte	0xa2
 1519 02ff 2D       		.byte	0x2d
 1520 0300 0C       		.uleb128 0xc
 1521 0301 0F020000 		.4byte	.LASF48
 1522 0305 06       		.byte	0x6
 1523 0306 49       		.byte	0x49
 1524 0307 A2000000 		.4byte	0xa2
 1525 030b 2E       		.byte	0x2e
 1526 030c 0C       		.uleb128 0xc
 1527 030d C8060000 		.4byte	.LASF49
 1528 0311 06       		.byte	0x6
 1529 0312 4A       		.byte	0x4a
 1530 0313 A2000000 		.4byte	0xa2
 1531 0317 2F       		.byte	0x2f
 1532 0318 0C       		.uleb128 0xc
 1533 0319 BC0A0000 		.4byte	.LASF50
 1534 031d 06       		.byte	0x6
 1535 031e 4B       		.byte	0x4b
 1536 031f A2000000 		.4byte	0xa2
 1537 0323 30       		.byte	0x30
 1538 0324 0C       		.uleb128 0xc
 1539 0325 B0040000 		.4byte	.LASF51
 1540 0329 06       		.byte	0x6
 1541 032a 4E       		.byte	0x4e
 1542 032b A2000000 		.4byte	0xa2
 1543 032f 31       		.byte	0x31
 1544 0330 0C       		.uleb128 0xc
 1545 0331 A7000000 		.4byte	.LASF52
 1546 0335 06       		.byte	0x6
 1547 0336 4F       		.byte	0x4f
 1548 0337 A2000000 		.4byte	0xa2
 1549 033b 32       		.byte	0x32
 1550 033c 0C       		.uleb128 0xc
 1551 033d 25040000 		.4byte	.LASF53
 1552 0341 06       		.byte	0x6
 1553 0342 50       		.byte	0x50
 1554 0343 A2000000 		.4byte	0xa2
 1555 0347 33       		.byte	0x33
 1556 0348 0C       		.uleb128 0xc
 1557 0349 53070000 		.4byte	.LASF54
 1558 034d 06       		.byte	0x6
 1559 034e 51       		.byte	0x51
 1560 034f A2000000 		.4byte	0xa2
 1561 0353 34       		.byte	0x34
 1562 0354 0C       		.uleb128 0xc
 1563 0355 F90B0000 		.4byte	.LASF55
 1564 0359 06       		.byte	0x6
 1565 035a 52       		.byte	0x52
 1566 035b AD000000 		.4byte	0xad
 1567 035f 36       		.byte	0x36
ARM GAS  C:\Users\JC\AppData\Local\Temp\ccZlMrPB.s 			page 45


 1568 0360 0C       		.uleb128 0xc
 1569 0361 42030000 		.4byte	.LASF56
 1570 0365 06       		.byte	0x6
 1571 0366 53       		.byte	0x53
 1572 0367 AD000000 		.4byte	0xad
 1573 036b 38       		.byte	0x38
 1574 036c 0C       		.uleb128 0xc
 1575 036d 660C0000 		.4byte	.LASF57
 1576 0371 06       		.byte	0x6
 1577 0372 54       		.byte	0x54
 1578 0373 AD000000 		.4byte	0xad
 1579 0377 3A       		.byte	0x3a
 1580 0378 0C       		.uleb128 0xc
 1581 0379 470D0000 		.4byte	.LASF58
 1582 037d 06       		.byte	0x6
 1583 037e 55       		.byte	0x55
 1584 037f A2000000 		.4byte	0xa2
 1585 0383 3C       		.byte	0x3c
 1586 0384 0C       		.uleb128 0xc
 1587 0385 63030000 		.4byte	.LASF59
 1588 0389 06       		.byte	0x6
 1589 038a 56       		.byte	0x56
 1590 038b A2000000 		.4byte	0xa2
 1591 038f 3D       		.byte	0x3d
 1592 0390 0C       		.uleb128 0xc
 1593 0391 330C0000 		.4byte	.LASF60
 1594 0395 06       		.byte	0x6
 1595 0396 57       		.byte	0x57
 1596 0397 A2000000 		.4byte	0xa2
 1597 039b 3E       		.byte	0x3e
 1598 039c 0C       		.uleb128 0xc
 1599 039d 7B000000 		.4byte	.LASF61
 1600 03a1 06       		.byte	0x6
 1601 03a2 58       		.byte	0x58
 1602 03a3 A2000000 		.4byte	0xa2
 1603 03a7 3F       		.byte	0x3f
 1604 03a8 0C       		.uleb128 0xc
 1605 03a9 11080000 		.4byte	.LASF62
 1606 03ad 06       		.byte	0x6
 1607 03ae 59       		.byte	0x59
 1608 03af A2000000 		.4byte	0xa2
 1609 03b3 40       		.byte	0x40
 1610 03b4 0C       		.uleb128 0xc
 1611 03b5 C9030000 		.4byte	.LASF63
 1612 03b9 06       		.byte	0x6
 1613 03ba 5A       		.byte	0x5a
 1614 03bb A2000000 		.4byte	0xa2
 1615 03bf 41       		.byte	0x41
 1616 03c0 0C       		.uleb128 0xc
 1617 03c1 CE040000 		.4byte	.LASF64
 1618 03c5 06       		.byte	0x6
 1619 03c6 5B       		.byte	0x5b
 1620 03c7 A2000000 		.4byte	0xa2
 1621 03cb 42       		.byte	0x42
 1622 03cc 0C       		.uleb128 0xc
 1623 03cd D1070000 		.4byte	.LASF65
 1624 03d1 06       		.byte	0x6
ARM GAS  C:\Users\JC\AppData\Local\Temp\ccZlMrPB.s 			page 46


 1625 03d2 5C       		.byte	0x5c
 1626 03d3 A2000000 		.4byte	0xa2
 1627 03d7 43       		.byte	0x43
 1628 03d8 0C       		.uleb128 0xc
 1629 03d9 10030000 		.4byte	.LASF66
 1630 03dd 06       		.byte	0x6
 1631 03de 5D       		.byte	0x5d
 1632 03df A2000000 		.4byte	0xa2
 1633 03e3 44       		.byte	0x44
 1634 03e4 0C       		.uleb128 0xc
 1635 03e5 15000000 		.4byte	.LASF67
 1636 03e9 06       		.byte	0x6
 1637 03ea 5E       		.byte	0x5e
 1638 03eb C3000000 		.4byte	0xc3
 1639 03ef 48       		.byte	0x48
 1640 03f0 0C       		.uleb128 0xc
 1641 03f1 89020000 		.4byte	.LASF68
 1642 03f5 06       		.byte	0x6
 1643 03f6 5F       		.byte	0x5f
 1644 03f7 C3000000 		.4byte	0xc3
 1645 03fb 4C       		.byte	0x4c
 1646 03fc 0C       		.uleb128 0xc
 1647 03fd B80D0000 		.4byte	.LASF69
 1648 0401 06       		.byte	0x6
 1649 0402 60       		.byte	0x60
 1650 0403 A2000000 		.4byte	0xa2
 1651 0407 50       		.byte	0x50
 1652 0408 0C       		.uleb128 0xc
 1653 0409 C60C0000 		.4byte	.LASF70
 1654 040d 06       		.byte	0x6
 1655 040e 61       		.byte	0x61
 1656 040f A2000000 		.4byte	0xa2
 1657 0413 51       		.byte	0x51
 1658 0414 0C       		.uleb128 0xc
 1659 0415 920C0000 		.4byte	.LASF71
 1660 0419 06       		.byte	0x6
 1661 041a 62       		.byte	0x62
 1662 041b A2000000 		.4byte	0xa2
 1663 041f 52       		.byte	0x52
 1664 0420 0C       		.uleb128 0xc
 1665 0421 950D0000 		.4byte	.LASF72
 1666 0425 06       		.byte	0x6
 1667 0426 63       		.byte	0x63
 1668 0427 A2000000 		.4byte	0xa2
 1669 042b 53       		.byte	0x53
 1670 042c 0C       		.uleb128 0xc
 1671 042d 5A0A0000 		.4byte	.LASF73
 1672 0431 06       		.byte	0x6
 1673 0432 64       		.byte	0x64
 1674 0433 A2000000 		.4byte	0xa2
 1675 0437 54       		.byte	0x54
 1676 0438 0C       		.uleb128 0xc
 1677 0439 A3010000 		.4byte	.LASF74
 1678 043d 06       		.byte	0x6
 1679 043e 65       		.byte	0x65
 1680 043f A2000000 		.4byte	0xa2
 1681 0443 55       		.byte	0x55
ARM GAS  C:\Users\JC\AppData\Local\Temp\ccZlMrPB.s 			page 47


 1682 0444 0C       		.uleb128 0xc
 1683 0445 6E0B0000 		.4byte	.LASF75
 1684 0449 06       		.byte	0x6
 1685 044a 66       		.byte	0x66
 1686 044b A2000000 		.4byte	0xa2
 1687 044f 56       		.byte	0x56
 1688 0450 0C       		.uleb128 0xc
 1689 0451 DA040000 		.4byte	.LASF76
 1690 0455 06       		.byte	0x6
 1691 0456 67       		.byte	0x67
 1692 0457 A2000000 		.4byte	0xa2
 1693 045b 57       		.byte	0x57
 1694 045c 0C       		.uleb128 0xc
 1695 045d 39000000 		.4byte	.LASF77
 1696 0461 06       		.byte	0x6
 1697 0462 68       		.byte	0x68
 1698 0463 A2000000 		.4byte	0xa2
 1699 0467 58       		.byte	0x58
 1700 0468 0C       		.uleb128 0xc
 1701 0469 87090000 		.4byte	.LASF78
 1702 046d 06       		.byte	0x6
 1703 046e 69       		.byte	0x69
 1704 046f A2000000 		.4byte	0xa2
 1705 0473 59       		.byte	0x59
 1706 0474 0C       		.uleb128 0xc
 1707 0475 35070000 		.4byte	.LASF79
 1708 0479 06       		.byte	0x6
 1709 047a 6E       		.byte	0x6e
 1710 047b B8000000 		.4byte	0xb8
 1711 047f 5A       		.byte	0x5a
 1712 0480 0C       		.uleb128 0xc
 1713 0481 9F0B0000 		.4byte	.LASF80
 1714 0485 06       		.byte	0x6
 1715 0486 6F       		.byte	0x6f
 1716 0487 B8000000 		.4byte	0xb8
 1717 048b 5C       		.byte	0x5c
 1718 048c 0C       		.uleb128 0xc
 1719 048d 0D010000 		.4byte	.LASF81
 1720 0491 06       		.byte	0x6
 1721 0492 70       		.byte	0x70
 1722 0493 A2000000 		.4byte	0xa2
 1723 0497 5E       		.byte	0x5e
 1724 0498 0C       		.uleb128 0xc
 1725 0499 DC080000 		.4byte	.LASF82
 1726 049d 06       		.byte	0x6
 1727 049e 71       		.byte	0x71
 1728 049f A2000000 		.4byte	0xa2
 1729 04a3 5F       		.byte	0x5f
 1730 04a4 0C       		.uleb128 0xc
 1731 04a5 BB070000 		.4byte	.LASF83
 1732 04a9 06       		.byte	0x6
 1733 04aa 72       		.byte	0x72
 1734 04ab A2000000 		.4byte	0xa2
 1735 04af 60       		.byte	0x60
 1736 04b0 0C       		.uleb128 0xc
 1737 04b1 90080000 		.4byte	.LASF84
 1738 04b5 06       		.byte	0x6
ARM GAS  C:\Users\JC\AppData\Local\Temp\ccZlMrPB.s 			page 48


 1739 04b6 73       		.byte	0x73
 1740 04b7 C3000000 		.4byte	0xc3
 1741 04bb 64       		.byte	0x64
 1742 04bc 0C       		.uleb128 0xc
 1743 04bd 5F010000 		.4byte	.LASF85
 1744 04c1 06       		.byte	0x6
 1745 04c2 76       		.byte	0x76
 1746 04c3 B8000000 		.4byte	0xb8
 1747 04c7 68       		.byte	0x68
 1748 04c8 0C       		.uleb128 0xc
 1749 04c9 6A040000 		.4byte	.LASF86
 1750 04cd 06       		.byte	0x6
 1751 04ce 77       		.byte	0x77
 1752 04cf B8000000 		.4byte	0xb8
 1753 04d3 6A       		.byte	0x6a
 1754 04d4 0C       		.uleb128 0xc
 1755 04d5 F7040000 		.4byte	.LASF87
 1756 04d9 06       		.byte	0x6
 1757 04da 78       		.byte	0x78
 1758 04db B8000000 		.4byte	0xb8
 1759 04df 6C       		.byte	0x6c
 1760 04e0 0C       		.uleb128 0xc
 1761 04e1 8E040000 		.4byte	.LASF88
 1762 04e5 06       		.byte	0x6
 1763 04e6 79       		.byte	0x79
 1764 04e7 B8000000 		.4byte	0xb8
 1765 04eb 6E       		.byte	0x6e
 1766 04ec 0C       		.uleb128 0xc
 1767 04ed ED090000 		.4byte	.LASF89
 1768 04f1 06       		.byte	0x6
 1769 04f2 7B       		.byte	0x7b
 1770 04f3 A2000000 		.4byte	0xa2
 1771 04f7 70       		.byte	0x70
 1772 04f8 0C       		.uleb128 0xc
 1773 04f9 D9010000 		.4byte	.LASF90
 1774 04fd 06       		.byte	0x6
 1775 04fe 7C       		.byte	0x7c
 1776 04ff A2000000 		.4byte	0xa2
 1777 0503 71       		.byte	0x71
 1778 0504 0C       		.uleb128 0xc
 1779 0505 7F0D0000 		.4byte	.LASF91
 1780 0509 06       		.byte	0x6
 1781 050a 7D       		.byte	0x7d
 1782 050b A2000000 		.4byte	0xa2
 1783 050f 72       		.byte	0x72
 1784 0510 0C       		.uleb128 0xc
 1785 0511 64070000 		.4byte	.LASF92
 1786 0515 06       		.byte	0x6
 1787 0516 7E       		.byte	0x7e
 1788 0517 A2000000 		.4byte	0xa2
 1789 051b 73       		.byte	0x73
 1790 051c 0C       		.uleb128 0xc
 1791 051d 6A0A0000 		.4byte	.LASF93
 1792 0521 06       		.byte	0x6
 1793 0522 80       		.byte	0x80
 1794 0523 B8000000 		.4byte	0xb8
 1795 0527 74       		.byte	0x74
ARM GAS  C:\Users\JC\AppData\Local\Temp\ccZlMrPB.s 			page 49


 1796 0528 0C       		.uleb128 0xc
 1797 0529 100B0000 		.4byte	.LASF94
 1798 052d 06       		.byte	0x6
 1799 052e 81       		.byte	0x81
 1800 052f B8000000 		.4byte	0xb8
 1801 0533 76       		.byte	0x76
 1802 0534 0C       		.uleb128 0xc
 1803 0535 060C0000 		.4byte	.LASF95
 1804 0539 06       		.byte	0x6
 1805 053a 82       		.byte	0x82
 1806 053b B8000000 		.4byte	0xb8
 1807 053f 78       		.byte	0x78
 1808 0540 0C       		.uleb128 0xc
 1809 0541 BF000000 		.4byte	.LASF96
 1810 0545 06       		.byte	0x6
 1811 0546 83       		.byte	0x83
 1812 0547 B8000000 		.4byte	0xb8
 1813 054b 7A       		.byte	0x7a
 1814 054c 0C       		.uleb128 0xc
 1815 054d 0B0D0000 		.4byte	.LASF97
 1816 0551 06       		.byte	0x6
 1817 0552 86       		.byte	0x86
 1818 0553 A2000000 		.4byte	0xa2
 1819 0557 7C       		.byte	0x7c
 1820 0558 0C       		.uleb128 0xc
 1821 0559 1B0C0000 		.4byte	.LASF98
 1822 055d 06       		.byte	0x6
 1823 055e 87       		.byte	0x87
 1824 055f A2000000 		.4byte	0xa2
 1825 0563 7D       		.byte	0x7d
 1826 0564 0C       		.uleb128 0xc
 1827 0565 240A0000 		.4byte	.LASF99
 1828 0569 06       		.byte	0x6
 1829 056a 88       		.byte	0x88
 1830 056b A2000000 		.4byte	0xa2
 1831 056f 7E       		.byte	0x7e
 1832 0570 0C       		.uleb128 0xc
 1833 0571 9F030000 		.4byte	.LASF100
 1834 0575 06       		.byte	0x6
 1835 0576 89       		.byte	0x89
 1836 0577 A2000000 		.4byte	0xa2
 1837 057b 7F       		.byte	0x7f
 1838 057c 0C       		.uleb128 0xc
 1839 057d 11040000 		.4byte	.LASF101
 1840 0581 06       		.byte	0x6
 1841 0582 8A       		.byte	0x8a
 1842 0583 A2000000 		.4byte	0xa2
 1843 0587 80       		.byte	0x80
 1844 0588 0C       		.uleb128 0xc
 1845 0589 8A060000 		.4byte	.LASF102
 1846 058d 06       		.byte	0x6
 1847 058e 8D       		.byte	0x8d
 1848 058f C3000000 		.4byte	0xc3
 1849 0593 84       		.byte	0x84
 1850 0594 0C       		.uleb128 0xc
 1851 0595 D4000000 		.4byte	.LASF103
 1852 0599 06       		.byte	0x6
ARM GAS  C:\Users\JC\AppData\Local\Temp\ccZlMrPB.s 			page 50


 1853 059a 8E       		.byte	0x8e
 1854 059b C3000000 		.4byte	0xc3
 1855 059f 88       		.byte	0x88
 1856 05a0 0C       		.uleb128 0xc
 1857 05a1 F60C0000 		.4byte	.LASF104
 1858 05a5 06       		.byte	0x6
 1859 05a6 8F       		.byte	0x8f
 1860 05a7 C3000000 		.4byte	0xc3
 1861 05ab 8C       		.byte	0x8c
 1862 05ac 0C       		.uleb128 0xc
 1863 05ad ED060000 		.4byte	.LASF105
 1864 05b1 06       		.byte	0x6
 1865 05b2 90       		.byte	0x90
 1866 05b3 C3000000 		.4byte	0xc3
 1867 05b7 90       		.byte	0x90
 1868 05b8 0C       		.uleb128 0xc
 1869 05b9 06060000 		.4byte	.LASF106
 1870 05bd 06       		.byte	0x6
 1871 05be 91       		.byte	0x91
 1872 05bf C3000000 		.4byte	0xc3
 1873 05c3 94       		.byte	0x94
 1874 05c4 0C       		.uleb128 0xc
 1875 05c5 74060000 		.4byte	.LASF107
 1876 05c9 06       		.byte	0x6
 1877 05ca 92       		.byte	0x92
 1878 05cb C3000000 		.4byte	0xc3
 1879 05cf 98       		.byte	0x98
 1880 05d0 0C       		.uleb128 0xc
 1881 05d1 310D0000 		.4byte	.LASF108
 1882 05d5 06       		.byte	0x6
 1883 05d6 93       		.byte	0x93
 1884 05d7 C3000000 		.4byte	0xc3
 1885 05db 9C       		.byte	0x9c
 1886 05dc 0C       		.uleb128 0xc
 1887 05dd 82010000 		.4byte	.LASF109
 1888 05e1 06       		.byte	0x6
 1889 05e2 94       		.byte	0x94
 1890 05e3 C3000000 		.4byte	0xc3
 1891 05e7 A0       		.byte	0xa0
 1892 05e8 0C       		.uleb128 0xc
 1893 05e9 36090000 		.4byte	.LASF110
 1894 05ed 06       		.byte	0x6
 1895 05ee 95       		.byte	0x95
 1896 05ef B8000000 		.4byte	0xb8
 1897 05f3 A4       		.byte	0xa4
 1898 05f4 0C       		.uleb128 0xc
 1899 05f5 5F060000 		.4byte	.LASF111
 1900 05f9 06       		.byte	0x6
 1901 05fa 96       		.byte	0x96
 1902 05fb B8000000 		.4byte	0xb8
 1903 05ff A6       		.byte	0xa6
 1904 0600 0C       		.uleb128 0xc
 1905 0601 D0080000 		.4byte	.LASF112
 1906 0605 06       		.byte	0x6
 1907 0606 97       		.byte	0x97
 1908 0607 B8000000 		.4byte	0xb8
 1909 060b A8       		.byte	0xa8
ARM GAS  C:\Users\JC\AppData\Local\Temp\ccZlMrPB.s 			page 51


 1910 060c 0C       		.uleb128 0xc
 1911 060d D90A0000 		.4byte	.LASF113
 1912 0611 06       		.byte	0x6
 1913 0612 98       		.byte	0x98
 1914 0613 B8000000 		.4byte	0xb8
 1915 0617 AA       		.byte	0xaa
 1916 0618 0C       		.uleb128 0xc
 1917 0619 06050000 		.4byte	.LASF114
 1918 061d 06       		.byte	0x6
 1919 061e 99       		.byte	0x99
 1920 061f B8000000 		.4byte	0xb8
 1921 0623 AC       		.byte	0xac
 1922 0624 0C       		.uleb128 0xc
 1923 0625 99000000 		.4byte	.LASF115
 1924 0629 06       		.byte	0x6
 1925 062a 9A       		.byte	0x9a
 1926 062b B8000000 		.4byte	0xb8
 1927 062f AE       		.byte	0xae
 1928 0630 0C       		.uleb128 0xc
 1929 0631 EB0B0000 		.4byte	.LASF116
 1930 0635 06       		.byte	0x6
 1931 0636 9D       		.byte	0x9d
 1932 0637 B8000000 		.4byte	0xb8
 1933 063b B0       		.byte	0xb0
 1934 063c 0C       		.uleb128 0xc
 1935 063d 59000000 		.4byte	.LASF117
 1936 0641 06       		.byte	0x6
 1937 0642 9E       		.byte	0x9e
 1938 0643 C3000000 		.4byte	0xc3
 1939 0647 B4       		.byte	0xb4
 1940 0648 00       		.byte	0
 1941 0649 03       		.uleb128 0x3
 1942 064a F6050000 		.4byte	.LASF118
 1943 064e 06       		.byte	0x6
 1944 064f 9F       		.byte	0x9f
 1945 0650 38020000 		.4byte	0x238
 1946 0654 0F       		.uleb128 0xf
 1947 0655 01       		.byte	0x1
 1948 0656 37000000 		.4byte	0x37
 1949 065a 07       		.byte	0x7
 1950 065b BE05     		.2byte	0x5be
 1951 065d 0A070000 		.4byte	0x70a
 1952 0661 10       		.uleb128 0x10
 1953 0662 7B070000 		.4byte	.LASF119
 1954 0666 00       		.byte	0
 1955 0667 10       		.uleb128 0x10
 1956 0668 EB000000 		.4byte	.LASF120
 1957 066c 01       		.byte	0x1
 1958 066d 10       		.uleb128 0x10
 1959 066e 27000000 		.4byte	.LASF121
 1960 0672 02       		.byte	0x2
 1961 0673 10       		.uleb128 0x10
 1962 0674 7C080000 		.4byte	.LASF122
 1963 0678 03       		.byte	0x3
 1964 0679 10       		.uleb128 0x10
 1965 067a A0070000 		.4byte	.LASF123
 1966 067e 04       		.byte	0x4
ARM GAS  C:\Users\JC\AppData\Local\Temp\ccZlMrPB.s 			page 52


 1967 067f 10       		.uleb128 0x10
 1968 0680 2C020000 		.4byte	.LASF124
 1969 0684 05       		.byte	0x5
 1970 0685 10       		.uleb128 0x10
 1971 0686 0B090000 		.4byte	.LASF125
 1972 068a 06       		.byte	0x6
 1973 068b 10       		.uleb128 0x10
 1974 068c AC080000 		.4byte	.LASF126
 1975 0690 07       		.byte	0x7
 1976 0691 10       		.uleb128 0x10
 1977 0692 550C0000 		.4byte	.LASF127
 1978 0696 08       		.byte	0x8
 1979 0697 10       		.uleb128 0x10
 1980 0698 46080000 		.4byte	.LASF128
 1981 069c 09       		.byte	0x9
 1982 069d 10       		.uleb128 0x10
 1983 069e B0090000 		.4byte	.LASF129
 1984 06a2 0A       		.byte	0xa
 1985 06a3 10       		.uleb128 0x10
 1986 06a4 200D0000 		.4byte	.LASF130
 1987 06a8 0B       		.byte	0xb
 1988 06a9 10       		.uleb128 0x10
 1989 06aa A1060000 		.4byte	.LASF131
 1990 06ae 0C       		.byte	0xc
 1991 06af 10       		.uleb128 0x10
 1992 06b0 130A0000 		.4byte	.LASF132
 1993 06b4 0D       		.byte	0xd
 1994 06b5 10       		.uleb128 0x10
 1995 06b6 8E030000 		.4byte	.LASF133
 1996 06ba 0E       		.byte	0xe
 1997 06bb 10       		.uleb128 0x10
 1998 06bc E2020000 		.4byte	.LASF134
 1999 06c0 0F       		.byte	0xf
 2000 06c1 10       		.uleb128 0x10
 2001 06c2 C80A0000 		.4byte	.LASF135
 2002 06c6 10       		.byte	0x10
 2003 06c7 10       		.uleb128 0x10
 2004 06c8 1B060000 		.4byte	.LASF136
 2005 06cc 11       		.byte	0x11
 2006 06cd 10       		.uleb128 0x10
 2007 06ce 2C060000 		.4byte	.LASF137
 2008 06d2 12       		.byte	0x12
 2009 06d3 10       		.uleb128 0x10
 2010 06d4 3D060000 		.4byte	.LASF138
 2011 06d8 13       		.byte	0x13
 2012 06d9 10       		.uleb128 0x10
 2013 06da 4E060000 		.4byte	.LASF139
 2014 06de 14       		.byte	0x14
 2015 06df 10       		.uleb128 0x10
 2016 06e0 E70A0000 		.4byte	.LASF140
 2017 06e4 15       		.byte	0x15
 2018 06e5 10       		.uleb128 0x10
 2019 06e6 D80C0000 		.4byte	.LASF141
 2020 06ea 16       		.byte	0x16
 2021 06eb 10       		.uleb128 0x10
 2022 06ec 4B090000 		.4byte	.LASF142
 2023 06f0 17       		.byte	0x17
ARM GAS  C:\Users\JC\AppData\Local\Temp\ccZlMrPB.s 			page 53


 2024 06f1 10       		.uleb128 0x10
 2025 06f2 69090000 		.4byte	.LASF143
 2026 06f6 18       		.byte	0x18
 2027 06f7 10       		.uleb128 0x10
 2028 06f8 21030000 		.4byte	.LASF144
 2029 06fc 19       		.byte	0x19
 2030 06fd 10       		.uleb128 0x10
 2031 06fe 1C010000 		.4byte	.LASF145
 2032 0702 1A       		.byte	0x1a
 2033 0703 10       		.uleb128 0x10
 2034 0704 1B050000 		.4byte	.LASF146
 2035 0708 1B       		.byte	0x1b
 2036 0709 00       		.byte	0
 2037 070a 11       		.uleb128 0x11
 2038 070b D9030000 		.4byte	.LASF147
 2039 070f 07       		.byte	0x7
 2040 0710 DB05     		.2byte	0x5db
 2041 0712 54060000 		.4byte	0x654
 2042 0716 11       		.uleb128 0x11
 2043 0717 EE010000 		.4byte	.LASF148
 2044 071b 07       		.byte	0x7
 2045 071c 2D06     		.2byte	0x62d
 2046 071e 60010000 		.4byte	0x160
 2047 0722 11       		.uleb128 0x11
 2048 0723 47040000 		.4byte	.LASF149
 2049 0727 08       		.byte	0x8
 2050 0728 F601     		.2byte	0x1f6
 2051 072a 2E070000 		.4byte	0x72e
 2052 072e 02       		.uleb128 0x2
 2053 072f 01       		.byte	0x1
 2054 0730 08       		.byte	0x8
 2055 0731 B70A0000 		.4byte	.LASF150
 2056 0735 02       		.uleb128 0x2
 2057 0736 04       		.byte	0x4
 2058 0737 04       		.byte	0x4
 2059 0738 76080000 		.4byte	.LASF151
 2060 073c 02       		.uleb128 0x2
 2061 073d 08       		.byte	0x8
 2062 073e 04       		.byte	0x4
 2063 073f 4D030000 		.4byte	.LASF152
 2064 0743 0F       		.uleb128 0xf
 2065 0744 01       		.byte	0x1
 2066 0745 37000000 		.4byte	0x37
 2067 0749 01       		.byte	0x1
 2068 074a 1101     		.2byte	0x111
 2069 074c 75070000 		.4byte	0x775
 2070 0750 10       		.uleb128 0x10
 2071 0751 9B040000 		.4byte	.LASF153
 2072 0755 00       		.byte	0
 2073 0756 10       		.uleb128 0x10
 2074 0757 6F010000 		.4byte	.LASF154
 2075 075b 01       		.byte	0x1
 2076 075c 10       		.uleb128 0x10
 2077 075d 40070000 		.4byte	.LASF155
 2078 0761 02       		.byte	0x2
 2079 0762 10       		.uleb128 0x10
 2080 0763 DB090000 		.4byte	.LASF156
ARM GAS  C:\Users\JC\AppData\Local\Temp\ccZlMrPB.s 			page 54


 2081 0767 03       		.byte	0x3
 2082 0768 10       		.uleb128 0x10
 2083 0769 1A020000 		.4byte	.LASF157
 2084 076d 04       		.byte	0x4
 2085 076e 10       		.uleb128 0x10
 2086 076f 02070000 		.4byte	.LASF158
 2087 0773 05       		.byte	0x5
 2088 0774 00       		.byte	0
 2089 0775 11       		.uleb128 0x11
 2090 0776 4C020000 		.4byte	.LASF159
 2091 077a 01       		.byte	0x1
 2092 077b 1801     		.2byte	0x118
 2093 077d 43070000 		.4byte	0x743
 2094 0781 0F       		.uleb128 0xf
 2095 0782 01       		.byte	0x1
 2096 0783 37000000 		.4byte	0x37
 2097 0787 01       		.byte	0x1
 2098 0788 1E01     		.2byte	0x11e
 2099 078a 9B070000 		.4byte	0x79b
 2100 078e 10       		.uleb128 0x10
 2101 078f 64020000 		.4byte	.LASF160
 2102 0793 00       		.byte	0
 2103 0794 10       		.uleb128 0x10
 2104 0795 410C0000 		.4byte	.LASF161
 2105 0799 01       		.byte	0x1
 2106 079a 00       		.byte	0
 2107 079b 11       		.uleb128 0x11
 2108 079c 87070000 		.4byte	.LASF162
 2109 07a0 01       		.byte	0x1
 2110 07a1 2101     		.2byte	0x121
 2111 07a3 81070000 		.4byte	0x781
 2112 07a7 0F       		.uleb128 0xf
 2113 07a8 04       		.byte	0x4
 2114 07a9 9B000000 		.4byte	0x9b
 2115 07ad 01       		.byte	0x1
 2116 07ae 2501     		.2byte	0x125
 2117 07b0 C4070000 		.4byte	0x7c4
 2118 07b4 10       		.uleb128 0x10
 2119 07b5 4C010000 		.4byte	.LASF163
 2120 07b9 00       		.byte	0
 2121 07ba 12       		.uleb128 0x12
 2122 07bb 79030000 		.4byte	.LASF164
 2123 07bf 01007A00 		.4byte	0x7a0001
 2124 07c3 00       		.byte	0
 2125 07c4 11       		.uleb128 0x11
 2126 07c5 7B0C0000 		.4byte	.LASF165
 2127 07c9 01       		.byte	0x1
 2128 07ca 2901     		.2byte	0x129
 2129 07cc A7070000 		.4byte	0x7a7
 2130 07d0 13       		.uleb128 0x13
 2131 07d1 03       		.byte	0x3
 2132 07d2 01       		.byte	0x1
 2133 07d3 3901     		.2byte	0x139
 2134 07d5 01080000 		.4byte	0x801
 2135 07d9 14       		.uleb128 0x14
 2136 07da 4D000000 		.4byte	.LASF166
 2137 07de 01       		.byte	0x1
ARM GAS  C:\Users\JC\AppData\Local\Temp\ccZlMrPB.s 			page 55


 2138 07df 3B01     		.2byte	0x13b
 2139 07e1 9B070000 		.4byte	0x79b
 2140 07e5 00       		.byte	0
 2141 07e6 14       		.uleb128 0x14
 2142 07e7 370A0000 		.4byte	.LASF167
 2143 07eb 01       		.byte	0x1
 2144 07ec 3C01     		.2byte	0x13c
 2145 07ee 75070000 		.4byte	0x775
 2146 07f2 01       		.byte	0x1
 2147 07f3 14       		.uleb128 0x14
 2148 07f4 670B0000 		.4byte	.LASF168
 2149 07f8 01       		.byte	0x1
 2150 07f9 3D01     		.2byte	0x13d
 2151 07fb 0A070000 		.4byte	0x70a
 2152 07ff 02       		.byte	0x2
 2153 0800 00       		.byte	0
 2154 0801 11       		.uleb128 0x11
 2155 0802 D4060000 		.4byte	.LASF169
 2156 0806 01       		.byte	0x1
 2157 0807 3E01     		.2byte	0x13e
 2158 0809 D0070000 		.4byte	0x7d0
 2159 080d 13       		.uleb128 0x13
 2160 080e 1C       		.byte	0x1c
 2161 080f 01       		.byte	0x1
 2162 0810 4301     		.2byte	0x143
 2163 0812 7F080000 		.4byte	0x87f
 2164 0816 14       		.uleb128 0x14
 2165 0817 14050000 		.4byte	.LASF170
 2166 081b 01       		.byte	0x1
 2167 081c 4501     		.2byte	0x145
 2168 081e A2000000 		.4byte	0xa2
 2169 0822 00       		.byte	0
 2170 0823 14       		.uleb128 0x14
 2171 0824 CC070000 		.4byte	.LASF171
 2172 0828 01       		.byte	0x1
 2173 0829 4601     		.2byte	0x146
 2174 082b A2000000 		.4byte	0xa2
 2175 082f 01       		.byte	0x1
 2176 0830 14       		.uleb128 0x14
 2177 0831 A1080000 		.4byte	.LASF172
 2178 0835 01       		.byte	0x1
 2179 0836 4701     		.2byte	0x147
 2180 0838 01080000 		.4byte	0x801
 2181 083c 02       		.byte	0x2
 2182 083d 14       		.uleb128 0x14
 2183 083e 1E080000 		.4byte	.LASF173
 2184 0842 01       		.byte	0x1
 2185 0843 4801     		.2byte	0x148
 2186 0845 7F080000 		.4byte	0x87f
 2187 0849 08       		.byte	0x8
 2188 084a 14       		.uleb128 0x14
 2189 084b 09030000 		.4byte	.LASF174
 2190 084f 01       		.byte	0x1
 2191 0850 4901     		.2byte	0x149
 2192 0852 C3000000 		.4byte	0xc3
 2193 0856 0C       		.byte	0xc
 2194 0857 14       		.uleb128 0x14
ARM GAS  C:\Users\JC\AppData\Local\Temp\ccZlMrPB.s 			page 56


 2195 0858 0A080000 		.4byte	.LASF175
 2196 085c 01       		.byte	0x1
 2197 085d 4A01     		.2byte	0x14a
 2198 085f C3000000 		.4byte	0xc3
 2199 0863 10       		.byte	0x10
 2200 0864 14       		.uleb128 0x14
 2201 0865 430B0000 		.4byte	.LASF176
 2202 0869 01       		.byte	0x1
 2203 086a 4B01     		.2byte	0x14b
 2204 086c C3000000 		.4byte	0xc3
 2205 0870 14       		.byte	0x14
 2206 0871 14       		.uleb128 0x14
 2207 0872 C90D0000 		.4byte	.LASF177
 2208 0876 01       		.byte	0x1
 2209 0877 4C01     		.2byte	0x14c
 2210 0879 C3000000 		.4byte	0xc3
 2211 087d 18       		.byte	0x18
 2212 087e 00       		.byte	0
 2213 087f 15       		.uleb128 0x15
 2214 0880 04       		.byte	0x4
 2215 0881 16070000 		.4byte	0x716
 2216 0885 11       		.uleb128 0x11
 2217 0886 00000000 		.4byte	.LASF178
 2218 088a 01       		.byte	0x1
 2219 088b 4D01     		.2byte	0x14d
 2220 088d 0D080000 		.4byte	0x80d
 2221 0891 11       		.uleb128 0x11
 2222 0892 26080000 		.4byte	.LASF179
 2223 0896 01       		.byte	0x1
 2224 0897 5201     		.2byte	0x152
 2225 0899 9D080000 		.4byte	0x89d
 2226 089d 15       		.uleb128 0x15
 2227 089e 04       		.byte	0x4
 2228 089f 85080000 		.4byte	0x885
 2229 08a3 16       		.uleb128 0x16
 2230 08a4 410A0000 		.4byte	.LASF206
 2231 08a8 01       		.byte	0x1
 2232 08a9 DE01     		.2byte	0x1de
 2233 08ab 00000000 		.4byte	.LFB49
 2234 08af 18000000 		.4byte	.LFE49-.LFB49
 2235 08b3 01       		.uleb128 0x1
 2236 08b4 9C       		.byte	0x9c
 2237 08b5 17       		.uleb128 0x17
 2238 08b6 1F070000 		.4byte	.LASF207
 2239 08ba 02       		.byte	0x2
 2240 08bb 31       		.byte	0x31
 2241 08bc C4070000 		.4byte	0x7c4
 2242 08c0 00000000 		.4byte	.LFB50
 2243 08c4 44000000 		.4byte	.LFE50-.LFB50
 2244 08c8 01       		.uleb128 0x1
 2245 08c9 9C       		.byte	0x9c
 2246 08ca F9080000 		.4byte	0x8f9
 2247 08ce 18       		.uleb128 0x18
 2248 08cf 0B0A0000 		.4byte	.LASF185
 2249 08d3 02       		.byte	0x2
 2250 08d4 31       		.byte	0x31
 2251 08d5 F9080000 		.4byte	0x8f9
ARM GAS  C:\Users\JC\AppData\Local\Temp\ccZlMrPB.s 			page 57


 2252 08d9 02       		.uleb128 0x2
 2253 08da 91       		.byte	0x91
 2254 08db 6C       		.sleb128 -20
 2255 08dc 19       		.uleb128 0x19
 2256 08dd A70D0000 		.4byte	.LASF180
 2257 08e1 02       		.byte	0x2
 2258 08e2 33       		.byte	0x33
 2259 08e3 C4070000 		.4byte	0x7c4
 2260 08e7 02       		.uleb128 0x2
 2261 08e8 91       		.byte	0x91
 2262 08e9 74       		.sleb128 -12
 2263 08ea 19       		.uleb128 0x19
 2264 08eb EE040000 		.4byte	.LASF181
 2265 08ef 02       		.byte	0x2
 2266 08f0 36       		.byte	0x36
 2267 08f1 C3000000 		.4byte	0xc3
 2268 08f5 02       		.uleb128 0x2
 2269 08f6 91       		.byte	0x91
 2270 08f7 70       		.sleb128 -16
 2271 08f8 00       		.byte	0
 2272 08f9 06       		.uleb128 0x6
 2273 08fa 91080000 		.4byte	0x891
 2274 08fe 1A       		.uleb128 0x1a
 2275 08ff 54030000 		.4byte	.LASF183
 2276 0903 02       		.byte	0x2
 2277 0904 54       		.byte	0x54
 2278 0905 00000000 		.4byte	.LFB51
 2279 0909 90000000 		.4byte	.LFE51-.LFB51
 2280 090d 01       		.uleb128 0x1
 2281 090e 9C       		.byte	0x9c
 2282 090f 30090000 		.4byte	0x930
 2283 0913 1B       		.uleb128 0x1b
 2284 0914 63747200 		.ascii	"ctr\000"
 2285 0918 02       		.byte	0x2
 2286 0919 56       		.byte	0x56
 2287 091a C3000000 		.4byte	0xc3
 2288 091e 02       		.uleb128 0x2
 2289 091f 91       		.byte	0x91
 2290 0920 74       		.sleb128 -12
 2291 0921 19       		.uleb128 0x19
 2292 0922 98010000 		.4byte	.LASF182
 2293 0926 02       		.byte	0x2
 2294 0927 5A       		.byte	0x5a
 2295 0928 C3000000 		.4byte	0xc3
 2296 092c 02       		.uleb128 0x2
 2297 092d 91       		.byte	0x91
 2298 092e 70       		.sleb128 -16
 2299 092f 00       		.byte	0
 2300 0930 1A       		.uleb128 0x1a
 2301 0931 850A0000 		.4byte	.LASF184
 2302 0935 02       		.byte	0x2
 2303 0936 7E       		.byte	0x7e
 2304 0937 00000000 		.4byte	.LFB52
 2305 093b 40000000 		.4byte	.LFE52-.LFB52
 2306 093f 01       		.uleb128 0x1
 2307 0940 9C       		.byte	0x9c
 2308 0941 52090000 		.4byte	0x952
ARM GAS  C:\Users\JC\AppData\Local\Temp\ccZlMrPB.s 			page 58


 2309 0945 1B       		.uleb128 0x1b
 2310 0946 6900     		.ascii	"i\000"
 2311 0948 02       		.byte	0x2
 2312 0949 80       		.byte	0x80
 2313 094a C3000000 		.4byte	0xc3
 2314 094e 02       		.uleb128 0x2
 2315 094f 91       		.byte	0x91
 2316 0950 74       		.sleb128 -12
 2317 0951 00       		.byte	0
 2318 0952 1C       		.uleb128 0x1c
 2319 0953 33050000 		.4byte	.LASF208
 2320 0957 02       		.byte	0x2
 2321 0958 97       		.byte	0x97
 2322 0959 00000000 		.4byte	.LFB53
 2323 095d 20000000 		.4byte	.LFE53-.LFB53
 2324 0961 01       		.uleb128 0x1
 2325 0962 9C       		.byte	0x9c
 2326 0963 1D       		.uleb128 0x1d
 2327 0964 AA0C0000 		.4byte	.LASF190
 2328 0968 02       		.byte	0x2
 2329 0969 B9       		.byte	0xb9
 2330 096a 91080000 		.4byte	0x891
 2331 096e 00000000 		.4byte	.LFB54
 2332 0972 38020000 		.4byte	.LFE54-.LFB54
 2333 0976 01       		.uleb128 0x1
 2334 0977 9C       		.byte	0x9c
 2335 0978 CF090000 		.4byte	0x9cf
 2336 097c 18       		.uleb128 0x18
 2337 097d 57080000 		.4byte	.LASF186
 2338 0981 02       		.byte	0x2
 2339 0982 B9       		.byte	0xb9
 2340 0983 0A070000 		.4byte	0x70a
 2341 0987 02       		.uleb128 0x2
 2342 0988 91       		.byte	0x91
 2343 0989 67       		.sleb128 -25
 2344 098a 18       		.uleb128 0x18
 2345 098b F3030000 		.4byte	.LASF187
 2346 098f 02       		.byte	0x2
 2347 0990 B9       		.byte	0xb9
 2348 0991 9B070000 		.4byte	0x79b
 2349 0995 02       		.uleb128 0x2
 2350 0996 91       		.byte	0x91
 2351 0997 66       		.sleb128 -26
 2352 0998 18       		.uleb128 0x18
 2353 0999 EF050000 		.4byte	.LASF188
 2354 099d 02       		.byte	0x2
 2355 099e BA       		.byte	0xba
 2356 099f 75070000 		.4byte	0x775
 2357 09a3 02       		.uleb128 0x2
 2358 09a4 91       		.byte	0x91
 2359 09a5 65       		.sleb128 -27
 2360 09a6 18       		.uleb128 0x18
 2361 09a7 C90D0000 		.4byte	.LASF177
 2362 09ab 02       		.byte	0x2
 2363 09ac BA       		.byte	0xba
 2364 09ad C3000000 		.4byte	0xc3
 2365 09b1 02       		.uleb128 0x2
ARM GAS  C:\Users\JC\AppData\Local\Temp\ccZlMrPB.s 			page 59


 2366 09b2 91       		.byte	0x91
 2367 09b3 60       		.sleb128 -32
 2368 09b4 19       		.uleb128 0x19
 2369 09b5 3F080000 		.4byte	.LASF189
 2370 09b9 02       		.byte	0x2
 2371 09ba C0       		.byte	0xc0
 2372 09bb 91080000 		.4byte	0x891
 2373 09bf 02       		.uleb128 0x2
 2374 09c0 91       		.byte	0x91
 2375 09c1 6C       		.sleb128 -20
 2376 09c2 1B       		.uleb128 0x1b
 2377 09c3 6900     		.ascii	"i\000"
 2378 09c5 02       		.byte	0x2
 2379 09c6 C1       		.byte	0xc1
 2380 09c7 11010000 		.4byte	0x111
 2381 09cb 02       		.uleb128 0x2
 2382 09cc 91       		.byte	0x91
 2383 09cd 6B       		.sleb128 -21
 2384 09ce 00       		.byte	0
 2385 09cf 1D       		.uleb128 0x1d
 2386 09d0 2C0B0000 		.4byte	.LASF191
 2387 09d4 02       		.byte	0x2
 2388 09d5 F2       		.byte	0xf2
 2389 09d6 C4070000 		.4byte	0x7c4
 2390 09da 00000000 		.4byte	.LFB55
 2391 09de 34000000 		.4byte	.LFE55-.LFB55
 2392 09e2 01       		.uleb128 0x1
 2393 09e3 9C       		.byte	0x9c
 2394 09e4 050A0000 		.4byte	0xa05
 2395 09e8 18       		.uleb128 0x18
 2396 09e9 0B0A0000 		.4byte	.LASF185
 2397 09ed 02       		.byte	0x2
 2398 09ee F2       		.byte	0xf2
 2399 09ef 91080000 		.4byte	0x891
 2400 09f3 02       		.uleb128 0x2
 2401 09f4 91       		.byte	0x91
 2402 09f5 6C       		.sleb128 -20
 2403 09f6 19       		.uleb128 0x19
 2404 09f7 A70D0000 		.4byte	.LASF180
 2405 09fb 02       		.byte	0x2
 2406 09fc F4       		.byte	0xf4
 2407 09fd C4070000 		.4byte	0x7c4
 2408 0a01 02       		.uleb128 0x2
 2409 0a02 91       		.byte	0x91
 2410 0a03 74       		.sleb128 -12
 2411 0a04 00       		.byte	0
 2412 0a05 1E       		.uleb128 0x1e
 2413 0a06 F2080000 		.4byte	.LASF192
 2414 0a0a 02       		.byte	0x2
 2415 0a0b 1201     		.2byte	0x112
 2416 0a0d C4070000 		.4byte	0x7c4
 2417 0a11 00000000 		.4byte	.LFB56
 2418 0a15 58000000 		.4byte	.LFE56-.LFB56
 2419 0a19 01       		.uleb128 0x1
 2420 0a1a 9C       		.byte	0x9c
 2421 0a1b 3E0A0000 		.4byte	0xa3e
 2422 0a1f 1F       		.uleb128 0x1f
ARM GAS  C:\Users\JC\AppData\Local\Temp\ccZlMrPB.s 			page 60


 2423 0a20 0B0A0000 		.4byte	.LASF185
 2424 0a24 02       		.byte	0x2
 2425 0a25 1201     		.2byte	0x112
 2426 0a27 91080000 		.4byte	0x891
 2427 0a2b 02       		.uleb128 0x2
 2428 0a2c 91       		.byte	0x91
 2429 0a2d 6C       		.sleb128 -20
 2430 0a2e 20       		.uleb128 0x20
 2431 0a2f A70D0000 		.4byte	.LASF180
 2432 0a33 02       		.byte	0x2
 2433 0a34 1401     		.2byte	0x114
 2434 0a36 C4070000 		.4byte	0x7c4
 2435 0a3a 02       		.uleb128 0x2
 2436 0a3b 91       		.byte	0x91
 2437 0a3c 74       		.sleb128 -12
 2438 0a3d 00       		.byte	0
 2439 0a3e 1E       		.uleb128 0x1e
 2440 0a3f C1090000 		.4byte	.LASF193
 2441 0a43 02       		.byte	0x2
 2442 0a44 3501     		.2byte	0x135
 2443 0a46 C4070000 		.4byte	0x7c4
 2444 0a4a 00000000 		.4byte	.LFB57
 2445 0a4e 58000000 		.4byte	.LFE57-.LFB57
 2446 0a52 01       		.uleb128 0x1
 2447 0a53 9C       		.byte	0x9c
 2448 0a54 770A0000 		.4byte	0xa77
 2449 0a58 1F       		.uleb128 0x1f
 2450 0a59 0B0A0000 		.4byte	.LASF185
 2451 0a5d 02       		.byte	0x2
 2452 0a5e 3501     		.2byte	0x135
 2453 0a60 91080000 		.4byte	0x891
 2454 0a64 02       		.uleb128 0x2
 2455 0a65 91       		.byte	0x91
 2456 0a66 6C       		.sleb128 -20
 2457 0a67 20       		.uleb128 0x20
 2458 0a68 A70D0000 		.4byte	.LASF180
 2459 0a6c 02       		.byte	0x2
 2460 0a6d 3701     		.2byte	0x137
 2461 0a6f C4070000 		.4byte	0x7c4
 2462 0a73 02       		.uleb128 0x2
 2463 0a74 91       		.byte	0x91
 2464 0a75 74       		.sleb128 -12
 2465 0a76 00       		.byte	0
 2466 0a77 1E       		.uleb128 0x1e
 2467 0a78 680D0000 		.4byte	.LASF194
 2468 0a7c 02       		.byte	0x2
 2469 0a7d 5A01     		.2byte	0x15a
 2470 0a7f C4070000 		.4byte	0x7c4
 2471 0a83 00000000 		.4byte	.LFB58
 2472 0a87 74000000 		.4byte	.LFE58-.LFB58
 2473 0a8b 01       		.uleb128 0x1
 2474 0a8c 9C       		.byte	0x9c
 2475 0a8d BF0A0000 		.4byte	0xabf
 2476 0a91 1F       		.uleb128 0x1f
 2477 0a92 0B0A0000 		.4byte	.LASF185
 2478 0a96 02       		.byte	0x2
 2479 0a97 5A01     		.2byte	0x15a
ARM GAS  C:\Users\JC\AppData\Local\Temp\ccZlMrPB.s 			page 61


 2480 0a99 91080000 		.4byte	0x891
 2481 0a9d 02       		.uleb128 0x2
 2482 0a9e 91       		.byte	0x91
 2483 0a9f 64       		.sleb128 -28
 2484 0aa0 1F       		.uleb128 0x1f
 2485 0aa1 B10D0000 		.4byte	.LASF195
 2486 0aa5 02       		.byte	0x2
 2487 0aa6 5A01     		.2byte	0x15a
 2488 0aa8 BF0A0000 		.4byte	0xabf
 2489 0aac 02       		.uleb128 0x2
 2490 0aad 91       		.byte	0x91
 2491 0aae 60       		.sleb128 -32
 2492 0aaf 20       		.uleb128 0x20
 2493 0ab0 A70D0000 		.4byte	.LASF180
 2494 0ab4 02       		.byte	0x2
 2495 0ab5 5C01     		.2byte	0x15c
 2496 0ab7 C4070000 		.4byte	0x7c4
 2497 0abb 02       		.uleb128 0x2
 2498 0abc 91       		.byte	0x91
 2499 0abd 6C       		.sleb128 -20
 2500 0abe 00       		.byte	0
 2501 0abf 15       		.uleb128 0x15
 2502 0ac0 04       		.byte	0x4
 2503 0ac1 CE000000 		.4byte	0xce
 2504 0ac5 1E       		.uleb128 0x1e
 2505 0ac6 4E040000 		.4byte	.LASF196
 2506 0aca 02       		.byte	0x2
 2507 0acb 7E01     		.2byte	0x17e
 2508 0acd C4070000 		.4byte	0x7c4
 2509 0ad1 00000000 		.4byte	.LFB59
 2510 0ad5 56000000 		.4byte	.LFE59-.LFB59
 2511 0ad9 01       		.uleb128 0x1
 2512 0ada 9C       		.byte	0x9c
 2513 0adb 1C0B0000 		.4byte	0xb1c
 2514 0adf 1F       		.uleb128 0x1f
 2515 0ae0 0B0A0000 		.4byte	.LASF185
 2516 0ae4 02       		.byte	0x2
 2517 0ae5 7E01     		.2byte	0x17e
 2518 0ae7 91080000 		.4byte	0x891
 2519 0aeb 02       		.uleb128 0x2
 2520 0aec 91       		.byte	0x91
 2521 0aed 54       		.sleb128 -44
 2522 0aee 1F       		.uleb128 0x1f
 2523 0aef B10D0000 		.4byte	.LASF195
 2524 0af3 02       		.byte	0x2
 2525 0af4 7E01     		.2byte	0x17e
 2526 0af6 BF0A0000 		.4byte	0xabf
 2527 0afa 02       		.uleb128 0x2
 2528 0afb 91       		.byte	0x91
 2529 0afc 50       		.sleb128 -48
 2530 0afd 20       		.uleb128 0x20
 2531 0afe 0C040000 		.4byte	.LASF197
 2532 0b02 02       		.byte	0x2
 2533 0b03 8001     		.2byte	0x180
 2534 0b05 CE000000 		.4byte	0xce
 2535 0b09 02       		.uleb128 0x2
 2536 0b0a 91       		.byte	0x91
ARM GAS  C:\Users\JC\AppData\Local\Temp\ccZlMrPB.s 			page 62


 2537 0b0b 58       		.sleb128 -40
 2538 0b0c 20       		.uleb128 0x20
 2539 0b0d A70D0000 		.4byte	.LASF180
 2540 0b11 02       		.byte	0x2
 2541 0b12 8101     		.2byte	0x181
 2542 0b14 C4070000 		.4byte	0x7c4
 2543 0b18 02       		.uleb128 0x2
 2544 0b19 91       		.byte	0x91
 2545 0b1a 64       		.sleb128 -28
 2546 0b1b 00       		.byte	0
 2547 0b1c 1E       		.uleb128 0x1e
 2548 0b1d DC070000 		.4byte	.LASF198
 2549 0b21 02       		.byte	0x2
 2550 0b22 A101     		.2byte	0x1a1
 2551 0b24 CE000000 		.4byte	0xce
 2552 0b28 00000000 		.4byte	.LFB60
 2553 0b2c 7C000000 		.4byte	.LFE60-.LFB60
 2554 0b30 01       		.uleb128 0x1
 2555 0b31 9C       		.byte	0x9c
 2556 0b32 8A0B0000 		.4byte	0xb8a
 2557 0b36 1F       		.uleb128 0x1f
 2558 0b37 010A0000 		.4byte	.LASF199
 2559 0b3b 02       		.byte	0x2
 2560 0b3c A101     		.2byte	0x1a1
 2561 0b3e 8A0B0000 		.4byte	0xb8a
 2562 0b42 02       		.uleb128 0x2
 2563 0b43 91       		.byte	0x91
 2564 0b44 54       		.sleb128 -44
 2565 0b45 1F       		.uleb128 0x1f
 2566 0b46 9F0A0000 		.4byte	.LASF200
 2567 0b4a 02       		.byte	0x2
 2568 0b4b A201     		.2byte	0x1a2
 2569 0b4d C3000000 		.4byte	0xc3
 2570 0b51 02       		.uleb128 0x2
 2571 0b52 91       		.byte	0x91
 2572 0b53 50       		.sleb128 -48
 2573 0b54 20       		.uleb128 0x20
 2574 0b55 FD000000 		.4byte	.LASF201
 2575 0b59 02       		.byte	0x2
 2576 0b5a A401     		.2byte	0x1a4
 2577 0b5c CE000000 		.4byte	0xce
 2578 0b60 02       		.uleb128 0x2
 2579 0b61 91       		.byte	0x91
 2580 0b62 68       		.sleb128 -24
 2581 0b63 21       		.uleb128 0x21
 2582 0b64 2C000000 		.4byte	.LBB2
 2583 0b68 3E000000 		.4byte	.LBE2-.LBB2
 2584 0b6c 22       		.uleb128 0x22
 2585 0b6d 6E756D00 		.ascii	"num\000"
 2586 0b71 02       		.byte	0x2
 2587 0b72 AA01     		.2byte	0x1aa
 2588 0b74 CE000000 		.4byte	0xce
 2589 0b78 02       		.uleb128 0x2
 2590 0b79 91       		.byte	0x91
 2591 0b7a 58       		.sleb128 -40
 2592 0b7b 22       		.uleb128 0x22
 2593 0b7c 6900     		.ascii	"i\000"
ARM GAS  C:\Users\JC\AppData\Local\Temp\ccZlMrPB.s 			page 63


 2594 0b7e 02       		.byte	0x2
 2595 0b7f AB01     		.2byte	0x1ab
 2596 0b81 C3000000 		.4byte	0xc3
 2597 0b85 02       		.uleb128 0x2
 2598 0b86 91       		.byte	0x91
 2599 0b87 64       		.sleb128 -28
 2600 0b88 00       		.byte	0
 2601 0b89 00       		.byte	0
 2602 0b8a 15       		.uleb128 0x15
 2603 0b8b 04       		.byte	0x4
 2604 0b8c 91080000 		.4byte	0x891
 2605 0b90 07       		.uleb128 0x7
 2606 0b91 85080000 		.4byte	0x885
 2607 0b95 A00B0000 		.4byte	0xba0
 2608 0b99 08       		.uleb128 0x8
 2609 0b9a EA000000 		.4byte	0xea
 2610 0b9e 07       		.byte	0x7
 2611 0b9f 00       		.byte	0
 2612 0ba0 19       		.uleb128 0x19
 2613 0ba1 7E020000 		.4byte	.LASF202
 2614 0ba5 02       		.byte	0x2
 2615 0ba6 1E       		.byte	0x1e
 2616 0ba7 900B0000 		.4byte	0xb90
 2617 0bab 05       		.uleb128 0x5
 2618 0bac 03       		.byte	0x3
 2619 0bad 00000000 		.4byte	cy_ep_ctrs
 2620 0bb1 23       		.uleb128 0x23
 2621 0bb2 C6080000 		.4byte	.LASF209
 2622 0bb6 06       		.byte	0x6
 2623 0bb7 A7       		.byte	0xa7
 2624 0bb8 BC0B0000 		.4byte	0xbbc
 2625 0bbc 15       		.uleb128 0x15
 2626 0bbd 04       		.byte	0x4
 2627 0bbe C20B0000 		.4byte	0xbc2
 2628 0bc2 06       		.uleb128 0x6
 2629 0bc3 49060000 		.4byte	0x649
 2630 0bc7 00       		.byte	0
 2631              		.section	.debug_abbrev,"",%progbits
 2632              	.Ldebug_abbrev0:
 2633 0000 01       		.uleb128 0x1
 2634 0001 11       		.uleb128 0x11
 2635 0002 01       		.byte	0x1
 2636 0003 25       		.uleb128 0x25
 2637 0004 0E       		.uleb128 0xe
 2638 0005 13       		.uleb128 0x13
 2639 0006 0B       		.uleb128 0xb
 2640 0007 03       		.uleb128 0x3
 2641 0008 0E       		.uleb128 0xe
 2642 0009 1B       		.uleb128 0x1b
 2643 000a 0E       		.uleb128 0xe
 2644 000b 55       		.uleb128 0x55
 2645 000c 17       		.uleb128 0x17
 2646 000d 11       		.uleb128 0x11
 2647 000e 01       		.uleb128 0x1
 2648 000f 10       		.uleb128 0x10
 2649 0010 17       		.uleb128 0x17
 2650 0011 00       		.byte	0
ARM GAS  C:\Users\JC\AppData\Local\Temp\ccZlMrPB.s 			page 64


 2651 0012 00       		.byte	0
 2652 0013 02       		.uleb128 0x2
 2653 0014 24       		.uleb128 0x24
 2654 0015 00       		.byte	0
 2655 0016 0B       		.uleb128 0xb
 2656 0017 0B       		.uleb128 0xb
 2657 0018 3E       		.uleb128 0x3e
 2658 0019 0B       		.uleb128 0xb
 2659 001a 03       		.uleb128 0x3
 2660 001b 0E       		.uleb128 0xe
 2661 001c 00       		.byte	0
 2662 001d 00       		.byte	0
 2663 001e 03       		.uleb128 0x3
 2664 001f 16       		.uleb128 0x16
 2665 0020 00       		.byte	0
 2666 0021 03       		.uleb128 0x3
 2667 0022 0E       		.uleb128 0xe
 2668 0023 3A       		.uleb128 0x3a
 2669 0024 0B       		.uleb128 0xb
 2670 0025 3B       		.uleb128 0x3b
 2671 0026 0B       		.uleb128 0xb
 2672 0027 49       		.uleb128 0x49
 2673 0028 13       		.uleb128 0x13
 2674 0029 00       		.byte	0
 2675 002a 00       		.byte	0
 2676 002b 04       		.uleb128 0x4
 2677 002c 24       		.uleb128 0x24
 2678 002d 00       		.byte	0
 2679 002e 0B       		.uleb128 0xb
 2680 002f 0B       		.uleb128 0xb
 2681 0030 3E       		.uleb128 0x3e
 2682 0031 0B       		.uleb128 0xb
 2683 0032 03       		.uleb128 0x3
 2684 0033 08       		.uleb128 0x8
 2685 0034 00       		.byte	0
 2686 0035 00       		.byte	0
 2687 0036 05       		.uleb128 0x5
 2688 0037 35       		.uleb128 0x35
 2689 0038 00       		.byte	0
 2690 0039 49       		.uleb128 0x49
 2691 003a 13       		.uleb128 0x13
 2692 003b 00       		.byte	0
 2693 003c 00       		.byte	0
 2694 003d 06       		.uleb128 0x6
 2695 003e 26       		.uleb128 0x26
 2696 003f 00       		.byte	0
 2697 0040 49       		.uleb128 0x49
 2698 0041 13       		.uleb128 0x13
 2699 0042 00       		.byte	0
 2700 0043 00       		.byte	0
 2701 0044 07       		.uleb128 0x7
 2702 0045 01       		.uleb128 0x1
 2703 0046 01       		.byte	0x1
 2704 0047 49       		.uleb128 0x49
 2705 0048 13       		.uleb128 0x13
 2706 0049 01       		.uleb128 0x1
 2707 004a 13       		.uleb128 0x13
ARM GAS  C:\Users\JC\AppData\Local\Temp\ccZlMrPB.s 			page 65


 2708 004b 00       		.byte	0
 2709 004c 00       		.byte	0
 2710 004d 08       		.uleb128 0x8
 2711 004e 21       		.uleb128 0x21
 2712 004f 00       		.byte	0
 2713 0050 49       		.uleb128 0x49
 2714 0051 13       		.uleb128 0x13
 2715 0052 2F       		.uleb128 0x2f
 2716 0053 0B       		.uleb128 0xb
 2717 0054 00       		.byte	0
 2718 0055 00       		.byte	0
 2719 0056 09       		.uleb128 0x9
 2720 0057 21       		.uleb128 0x21
 2721 0058 00       		.byte	0
 2722 0059 49       		.uleb128 0x49
 2723 005a 13       		.uleb128 0x13
 2724 005b 2F       		.uleb128 0x2f
 2725 005c 05       		.uleb128 0x5
 2726 005d 00       		.byte	0
 2727 005e 00       		.byte	0
 2728 005f 0A       		.uleb128 0xa
 2729 0060 13       		.uleb128 0x13
 2730 0061 01       		.byte	0x1
 2731 0062 0B       		.uleb128 0xb
 2732 0063 0B       		.uleb128 0xb
 2733 0064 3A       		.uleb128 0x3a
 2734 0065 0B       		.uleb128 0xb
 2735 0066 3B       		.uleb128 0x3b
 2736 0067 0B       		.uleb128 0xb
 2737 0068 01       		.uleb128 0x1
 2738 0069 13       		.uleb128 0x13
 2739 006a 00       		.byte	0
 2740 006b 00       		.byte	0
 2741 006c 0B       		.uleb128 0xb
 2742 006d 0D       		.uleb128 0xd
 2743 006e 00       		.byte	0
 2744 006f 03       		.uleb128 0x3
 2745 0070 08       		.uleb128 0x8
 2746 0071 3A       		.uleb128 0x3a
 2747 0072 0B       		.uleb128 0xb
 2748 0073 3B       		.uleb128 0x3b
 2749 0074 0B       		.uleb128 0xb
 2750 0075 49       		.uleb128 0x49
 2751 0076 13       		.uleb128 0x13
 2752 0077 38       		.uleb128 0x38
 2753 0078 0B       		.uleb128 0xb
 2754 0079 00       		.byte	0
 2755 007a 00       		.byte	0
 2756 007b 0C       		.uleb128 0xc
 2757 007c 0D       		.uleb128 0xd
 2758 007d 00       		.byte	0
 2759 007e 03       		.uleb128 0x3
 2760 007f 0E       		.uleb128 0xe
 2761 0080 3A       		.uleb128 0x3a
 2762 0081 0B       		.uleb128 0xb
 2763 0082 3B       		.uleb128 0x3b
 2764 0083 0B       		.uleb128 0xb
ARM GAS  C:\Users\JC\AppData\Local\Temp\ccZlMrPB.s 			page 66


 2765 0084 49       		.uleb128 0x49
 2766 0085 13       		.uleb128 0x13
 2767 0086 38       		.uleb128 0x38
 2768 0087 0B       		.uleb128 0xb
 2769 0088 00       		.byte	0
 2770 0089 00       		.byte	0
 2771 008a 0D       		.uleb128 0xd
 2772 008b 13       		.uleb128 0x13
 2773 008c 01       		.byte	0x1
 2774 008d 0B       		.uleb128 0xb
 2775 008e 05       		.uleb128 0x5
 2776 008f 3A       		.uleb128 0x3a
 2777 0090 0B       		.uleb128 0xb
 2778 0091 3B       		.uleb128 0x3b
 2779 0092 0B       		.uleb128 0xb
 2780 0093 01       		.uleb128 0x1
 2781 0094 13       		.uleb128 0x13
 2782 0095 00       		.byte	0
 2783 0096 00       		.byte	0
 2784 0097 0E       		.uleb128 0xe
 2785 0098 0D       		.uleb128 0xd
 2786 0099 00       		.byte	0
 2787 009a 03       		.uleb128 0x3
 2788 009b 0E       		.uleb128 0xe
 2789 009c 3A       		.uleb128 0x3a
 2790 009d 0B       		.uleb128 0xb
 2791 009e 3B       		.uleb128 0x3b
 2792 009f 0B       		.uleb128 0xb
 2793 00a0 49       		.uleb128 0x49
 2794 00a1 13       		.uleb128 0x13
 2795 00a2 38       		.uleb128 0x38
 2796 00a3 05       		.uleb128 0x5
 2797 00a4 00       		.byte	0
 2798 00a5 00       		.byte	0
 2799 00a6 0F       		.uleb128 0xf
 2800 00a7 04       		.uleb128 0x4
 2801 00a8 01       		.byte	0x1
 2802 00a9 0B       		.uleb128 0xb
 2803 00aa 0B       		.uleb128 0xb
 2804 00ab 49       		.uleb128 0x49
 2805 00ac 13       		.uleb128 0x13
 2806 00ad 3A       		.uleb128 0x3a
 2807 00ae 0B       		.uleb128 0xb
 2808 00af 3B       		.uleb128 0x3b
 2809 00b0 05       		.uleb128 0x5
 2810 00b1 01       		.uleb128 0x1
 2811 00b2 13       		.uleb128 0x13
 2812 00b3 00       		.byte	0
 2813 00b4 00       		.byte	0
 2814 00b5 10       		.uleb128 0x10
 2815 00b6 28       		.uleb128 0x28
 2816 00b7 00       		.byte	0
 2817 00b8 03       		.uleb128 0x3
 2818 00b9 0E       		.uleb128 0xe
 2819 00ba 1C       		.uleb128 0x1c
 2820 00bb 0B       		.uleb128 0xb
 2821 00bc 00       		.byte	0
ARM GAS  C:\Users\JC\AppData\Local\Temp\ccZlMrPB.s 			page 67


 2822 00bd 00       		.byte	0
 2823 00be 11       		.uleb128 0x11
 2824 00bf 16       		.uleb128 0x16
 2825 00c0 00       		.byte	0
 2826 00c1 03       		.uleb128 0x3
 2827 00c2 0E       		.uleb128 0xe
 2828 00c3 3A       		.uleb128 0x3a
 2829 00c4 0B       		.uleb128 0xb
 2830 00c5 3B       		.uleb128 0x3b
 2831 00c6 05       		.uleb128 0x5
 2832 00c7 49       		.uleb128 0x49
 2833 00c8 13       		.uleb128 0x13
 2834 00c9 00       		.byte	0
 2835 00ca 00       		.byte	0
 2836 00cb 12       		.uleb128 0x12
 2837 00cc 28       		.uleb128 0x28
 2838 00cd 00       		.byte	0
 2839 00ce 03       		.uleb128 0x3
 2840 00cf 0E       		.uleb128 0xe
 2841 00d0 1C       		.uleb128 0x1c
 2842 00d1 06       		.uleb128 0x6
 2843 00d2 00       		.byte	0
 2844 00d3 00       		.byte	0
 2845 00d4 13       		.uleb128 0x13
 2846 00d5 13       		.uleb128 0x13
 2847 00d6 01       		.byte	0x1
 2848 00d7 0B       		.uleb128 0xb
 2849 00d8 0B       		.uleb128 0xb
 2850 00d9 3A       		.uleb128 0x3a
 2851 00da 0B       		.uleb128 0xb
 2852 00db 3B       		.uleb128 0x3b
 2853 00dc 05       		.uleb128 0x5
 2854 00dd 01       		.uleb128 0x1
 2855 00de 13       		.uleb128 0x13
 2856 00df 00       		.byte	0
 2857 00e0 00       		.byte	0
 2858 00e1 14       		.uleb128 0x14
 2859 00e2 0D       		.uleb128 0xd
 2860 00e3 00       		.byte	0
 2861 00e4 03       		.uleb128 0x3
 2862 00e5 0E       		.uleb128 0xe
 2863 00e6 3A       		.uleb128 0x3a
 2864 00e7 0B       		.uleb128 0xb
 2865 00e8 3B       		.uleb128 0x3b
 2866 00e9 05       		.uleb128 0x5
 2867 00ea 49       		.uleb128 0x49
 2868 00eb 13       		.uleb128 0x13
 2869 00ec 38       		.uleb128 0x38
 2870 00ed 0B       		.uleb128 0xb
 2871 00ee 00       		.byte	0
 2872 00ef 00       		.byte	0
 2873 00f0 15       		.uleb128 0x15
 2874 00f1 0F       		.uleb128 0xf
 2875 00f2 00       		.byte	0
 2876 00f3 0B       		.uleb128 0xb
 2877 00f4 0B       		.uleb128 0xb
 2878 00f5 49       		.uleb128 0x49
ARM GAS  C:\Users\JC\AppData\Local\Temp\ccZlMrPB.s 			page 68


 2879 00f6 13       		.uleb128 0x13
 2880 00f7 00       		.byte	0
 2881 00f8 00       		.byte	0
 2882 00f9 16       		.uleb128 0x16
 2883 00fa 2E       		.uleb128 0x2e
 2884 00fb 00       		.byte	0
 2885 00fc 03       		.uleb128 0x3
 2886 00fd 0E       		.uleb128 0xe
 2887 00fe 3A       		.uleb128 0x3a
 2888 00ff 0B       		.uleb128 0xb
 2889 0100 3B       		.uleb128 0x3b
 2890 0101 05       		.uleb128 0x5
 2891 0102 27       		.uleb128 0x27
 2892 0103 19       		.uleb128 0x19
 2893 0104 11       		.uleb128 0x11
 2894 0105 01       		.uleb128 0x1
 2895 0106 12       		.uleb128 0x12
 2896 0107 06       		.uleb128 0x6
 2897 0108 40       		.uleb128 0x40
 2898 0109 18       		.uleb128 0x18
 2899 010a 9742     		.uleb128 0x2117
 2900 010c 19       		.uleb128 0x19
 2901 010d 00       		.byte	0
 2902 010e 00       		.byte	0
 2903 010f 17       		.uleb128 0x17
 2904 0110 2E       		.uleb128 0x2e
 2905 0111 01       		.byte	0x1
 2906 0112 03       		.uleb128 0x3
 2907 0113 0E       		.uleb128 0xe
 2908 0114 3A       		.uleb128 0x3a
 2909 0115 0B       		.uleb128 0xb
 2910 0116 3B       		.uleb128 0x3b
 2911 0117 0B       		.uleb128 0xb
 2912 0118 27       		.uleb128 0x27
 2913 0119 19       		.uleb128 0x19
 2914 011a 49       		.uleb128 0x49
 2915 011b 13       		.uleb128 0x13
 2916 011c 11       		.uleb128 0x11
 2917 011d 01       		.uleb128 0x1
 2918 011e 12       		.uleb128 0x12
 2919 011f 06       		.uleb128 0x6
 2920 0120 40       		.uleb128 0x40
 2921 0121 18       		.uleb128 0x18
 2922 0122 9742     		.uleb128 0x2117
 2923 0124 19       		.uleb128 0x19
 2924 0125 01       		.uleb128 0x1
 2925 0126 13       		.uleb128 0x13
 2926 0127 00       		.byte	0
 2927 0128 00       		.byte	0
 2928 0129 18       		.uleb128 0x18
 2929 012a 05       		.uleb128 0x5
 2930 012b 00       		.byte	0
 2931 012c 03       		.uleb128 0x3
 2932 012d 0E       		.uleb128 0xe
 2933 012e 3A       		.uleb128 0x3a
 2934 012f 0B       		.uleb128 0xb
 2935 0130 3B       		.uleb128 0x3b
ARM GAS  C:\Users\JC\AppData\Local\Temp\ccZlMrPB.s 			page 69


 2936 0131 0B       		.uleb128 0xb
 2937 0132 49       		.uleb128 0x49
 2938 0133 13       		.uleb128 0x13
 2939 0134 02       		.uleb128 0x2
 2940 0135 18       		.uleb128 0x18
 2941 0136 00       		.byte	0
 2942 0137 00       		.byte	0
 2943 0138 19       		.uleb128 0x19
 2944 0139 34       		.uleb128 0x34
 2945 013a 00       		.byte	0
 2946 013b 03       		.uleb128 0x3
 2947 013c 0E       		.uleb128 0xe
 2948 013d 3A       		.uleb128 0x3a
 2949 013e 0B       		.uleb128 0xb
 2950 013f 3B       		.uleb128 0x3b
 2951 0140 0B       		.uleb128 0xb
 2952 0141 49       		.uleb128 0x49
 2953 0142 13       		.uleb128 0x13
 2954 0143 02       		.uleb128 0x2
 2955 0144 18       		.uleb128 0x18
 2956 0145 00       		.byte	0
 2957 0146 00       		.byte	0
 2958 0147 1A       		.uleb128 0x1a
 2959 0148 2E       		.uleb128 0x2e
 2960 0149 01       		.byte	0x1
 2961 014a 3F       		.uleb128 0x3f
 2962 014b 19       		.uleb128 0x19
 2963 014c 03       		.uleb128 0x3
 2964 014d 0E       		.uleb128 0xe
 2965 014e 3A       		.uleb128 0x3a
 2966 014f 0B       		.uleb128 0xb
 2967 0150 3B       		.uleb128 0x3b
 2968 0151 0B       		.uleb128 0xb
 2969 0152 27       		.uleb128 0x27
 2970 0153 19       		.uleb128 0x19
 2971 0154 11       		.uleb128 0x11
 2972 0155 01       		.uleb128 0x1
 2973 0156 12       		.uleb128 0x12
 2974 0157 06       		.uleb128 0x6
 2975 0158 40       		.uleb128 0x40
 2976 0159 18       		.uleb128 0x18
 2977 015a 9742     		.uleb128 0x2117
 2978 015c 19       		.uleb128 0x19
 2979 015d 01       		.uleb128 0x1
 2980 015e 13       		.uleb128 0x13
 2981 015f 00       		.byte	0
 2982 0160 00       		.byte	0
 2983 0161 1B       		.uleb128 0x1b
 2984 0162 34       		.uleb128 0x34
 2985 0163 00       		.byte	0
 2986 0164 03       		.uleb128 0x3
 2987 0165 08       		.uleb128 0x8
 2988 0166 3A       		.uleb128 0x3a
 2989 0167 0B       		.uleb128 0xb
 2990 0168 3B       		.uleb128 0x3b
 2991 0169 0B       		.uleb128 0xb
 2992 016a 49       		.uleb128 0x49
ARM GAS  C:\Users\JC\AppData\Local\Temp\ccZlMrPB.s 			page 70


 2993 016b 13       		.uleb128 0x13
 2994 016c 02       		.uleb128 0x2
 2995 016d 18       		.uleb128 0x18
 2996 016e 00       		.byte	0
 2997 016f 00       		.byte	0
 2998 0170 1C       		.uleb128 0x1c
 2999 0171 2E       		.uleb128 0x2e
 3000 0172 00       		.byte	0
 3001 0173 3F       		.uleb128 0x3f
 3002 0174 19       		.uleb128 0x19
 3003 0175 03       		.uleb128 0x3
 3004 0176 0E       		.uleb128 0xe
 3005 0177 3A       		.uleb128 0x3a
 3006 0178 0B       		.uleb128 0xb
 3007 0179 3B       		.uleb128 0x3b
 3008 017a 0B       		.uleb128 0xb
 3009 017b 27       		.uleb128 0x27
 3010 017c 19       		.uleb128 0x19
 3011 017d 11       		.uleb128 0x11
 3012 017e 01       		.uleb128 0x1
 3013 017f 12       		.uleb128 0x12
 3014 0180 06       		.uleb128 0x6
 3015 0181 40       		.uleb128 0x40
 3016 0182 18       		.uleb128 0x18
 3017 0183 9642     		.uleb128 0x2116
 3018 0185 19       		.uleb128 0x19
 3019 0186 00       		.byte	0
 3020 0187 00       		.byte	0
 3021 0188 1D       		.uleb128 0x1d
 3022 0189 2E       		.uleb128 0x2e
 3023 018a 01       		.byte	0x1
 3024 018b 3F       		.uleb128 0x3f
 3025 018c 19       		.uleb128 0x19
 3026 018d 03       		.uleb128 0x3
 3027 018e 0E       		.uleb128 0xe
 3028 018f 3A       		.uleb128 0x3a
 3029 0190 0B       		.uleb128 0xb
 3030 0191 3B       		.uleb128 0x3b
 3031 0192 0B       		.uleb128 0xb
 3032 0193 27       		.uleb128 0x27
 3033 0194 19       		.uleb128 0x19
 3034 0195 49       		.uleb128 0x49
 3035 0196 13       		.uleb128 0x13
 3036 0197 11       		.uleb128 0x11
 3037 0198 01       		.uleb128 0x1
 3038 0199 12       		.uleb128 0x12
 3039 019a 06       		.uleb128 0x6
 3040 019b 40       		.uleb128 0x40
 3041 019c 18       		.uleb128 0x18
 3042 019d 9642     		.uleb128 0x2116
 3043 019f 19       		.uleb128 0x19
 3044 01a0 01       		.uleb128 0x1
 3045 01a1 13       		.uleb128 0x13
 3046 01a2 00       		.byte	0
 3047 01a3 00       		.byte	0
 3048 01a4 1E       		.uleb128 0x1e
 3049 01a5 2E       		.uleb128 0x2e
ARM GAS  C:\Users\JC\AppData\Local\Temp\ccZlMrPB.s 			page 71


 3050 01a6 01       		.byte	0x1
 3051 01a7 3F       		.uleb128 0x3f
 3052 01a8 19       		.uleb128 0x19
 3053 01a9 03       		.uleb128 0x3
 3054 01aa 0E       		.uleb128 0xe
 3055 01ab 3A       		.uleb128 0x3a
 3056 01ac 0B       		.uleb128 0xb
 3057 01ad 3B       		.uleb128 0x3b
 3058 01ae 05       		.uleb128 0x5
 3059 01af 27       		.uleb128 0x27
 3060 01b0 19       		.uleb128 0x19
 3061 01b1 49       		.uleb128 0x49
 3062 01b2 13       		.uleb128 0x13
 3063 01b3 11       		.uleb128 0x11
 3064 01b4 01       		.uleb128 0x1
 3065 01b5 12       		.uleb128 0x12
 3066 01b6 06       		.uleb128 0x6
 3067 01b7 40       		.uleb128 0x40
 3068 01b8 18       		.uleb128 0x18
 3069 01b9 9642     		.uleb128 0x2116
 3070 01bb 19       		.uleb128 0x19
 3071 01bc 01       		.uleb128 0x1
 3072 01bd 13       		.uleb128 0x13
 3073 01be 00       		.byte	0
 3074 01bf 00       		.byte	0
 3075 01c0 1F       		.uleb128 0x1f
 3076 01c1 05       		.uleb128 0x5
 3077 01c2 00       		.byte	0
 3078 01c3 03       		.uleb128 0x3
 3079 01c4 0E       		.uleb128 0xe
 3080 01c5 3A       		.uleb128 0x3a
 3081 01c6 0B       		.uleb128 0xb
 3082 01c7 3B       		.uleb128 0x3b
 3083 01c8 05       		.uleb128 0x5
 3084 01c9 49       		.uleb128 0x49
 3085 01ca 13       		.uleb128 0x13
 3086 01cb 02       		.uleb128 0x2
 3087 01cc 18       		.uleb128 0x18
 3088 01cd 00       		.byte	0
 3089 01ce 00       		.byte	0
 3090 01cf 20       		.uleb128 0x20
 3091 01d0 34       		.uleb128 0x34
 3092 01d1 00       		.byte	0
 3093 01d2 03       		.uleb128 0x3
 3094 01d3 0E       		.uleb128 0xe
 3095 01d4 3A       		.uleb128 0x3a
 3096 01d5 0B       		.uleb128 0xb
 3097 01d6 3B       		.uleb128 0x3b
 3098 01d7 05       		.uleb128 0x5
 3099 01d8 49       		.uleb128 0x49
 3100 01d9 13       		.uleb128 0x13
 3101 01da 02       		.uleb128 0x2
 3102 01db 18       		.uleb128 0x18
 3103 01dc 00       		.byte	0
 3104 01dd 00       		.byte	0
 3105 01de 21       		.uleb128 0x21
 3106 01df 0B       		.uleb128 0xb
ARM GAS  C:\Users\JC\AppData\Local\Temp\ccZlMrPB.s 			page 72


 3107 01e0 01       		.byte	0x1
 3108 01e1 11       		.uleb128 0x11
 3109 01e2 01       		.uleb128 0x1
 3110 01e3 12       		.uleb128 0x12
 3111 01e4 06       		.uleb128 0x6
 3112 01e5 00       		.byte	0
 3113 01e6 00       		.byte	0
 3114 01e7 22       		.uleb128 0x22
 3115 01e8 34       		.uleb128 0x34
 3116 01e9 00       		.byte	0
 3117 01ea 03       		.uleb128 0x3
 3118 01eb 08       		.uleb128 0x8
 3119 01ec 3A       		.uleb128 0x3a
 3120 01ed 0B       		.uleb128 0xb
 3121 01ee 3B       		.uleb128 0x3b
 3122 01ef 05       		.uleb128 0x5
 3123 01f0 49       		.uleb128 0x49
 3124 01f1 13       		.uleb128 0x13
 3125 01f2 02       		.uleb128 0x2
 3126 01f3 18       		.uleb128 0x18
 3127 01f4 00       		.byte	0
 3128 01f5 00       		.byte	0
 3129 01f6 23       		.uleb128 0x23
 3130 01f7 34       		.uleb128 0x34
 3131 01f8 00       		.byte	0
 3132 01f9 03       		.uleb128 0x3
 3133 01fa 0E       		.uleb128 0xe
 3134 01fb 3A       		.uleb128 0x3a
 3135 01fc 0B       		.uleb128 0xb
 3136 01fd 3B       		.uleb128 0x3b
 3137 01fe 0B       		.uleb128 0xb
 3138 01ff 49       		.uleb128 0x49
 3139 0200 13       		.uleb128 0x13
 3140 0201 3F       		.uleb128 0x3f
 3141 0202 19       		.uleb128 0x19
 3142 0203 3C       		.uleb128 0x3c
 3143 0204 19       		.uleb128 0x19
 3144 0205 00       		.byte	0
 3145 0206 00       		.byte	0
 3146 0207 00       		.byte	0
 3147              		.section	.debug_aranges,"",%progbits
 3148 0000 74000000 		.4byte	0x74
 3149 0004 0200     		.2byte	0x2
 3150 0006 00000000 		.4byte	.Ldebug_info0
 3151 000a 04       		.byte	0x4
 3152 000b 00       		.byte	0
 3153 000c 0000     		.2byte	0
 3154 000e 0000     		.2byte	0
 3155 0010 00000000 		.4byte	.LFB49
 3156 0014 18000000 		.4byte	.LFE49-.LFB49
 3157 0018 00000000 		.4byte	.LFB50
 3158 001c 44000000 		.4byte	.LFE50-.LFB50
 3159 0020 00000000 		.4byte	.LFB51
 3160 0024 90000000 		.4byte	.LFE51-.LFB51
 3161 0028 00000000 		.4byte	.LFB52
 3162 002c 40000000 		.4byte	.LFE52-.LFB52
 3163 0030 00000000 		.4byte	.LFB53
ARM GAS  C:\Users\JC\AppData\Local\Temp\ccZlMrPB.s 			page 73


 3164 0034 20000000 		.4byte	.LFE53-.LFB53
 3165 0038 00000000 		.4byte	.LFB54
 3166 003c 38020000 		.4byte	.LFE54-.LFB54
 3167 0040 00000000 		.4byte	.LFB55
 3168 0044 34000000 		.4byte	.LFE55-.LFB55
 3169 0048 00000000 		.4byte	.LFB56
 3170 004c 58000000 		.4byte	.LFE56-.LFB56
 3171 0050 00000000 		.4byte	.LFB57
 3172 0054 58000000 		.4byte	.LFE57-.LFB57
 3173 0058 00000000 		.4byte	.LFB58
 3174 005c 74000000 		.4byte	.LFE58-.LFB58
 3175 0060 00000000 		.4byte	.LFB59
 3176 0064 56000000 		.4byte	.LFE59-.LFB59
 3177 0068 00000000 		.4byte	.LFB60
 3178 006c 7C000000 		.4byte	.LFE60-.LFB60
 3179 0070 00000000 		.4byte	0
 3180 0074 00000000 		.4byte	0
 3181              		.section	.debug_ranges,"",%progbits
 3182              	.Ldebug_ranges0:
 3183 0000 00000000 		.4byte	.LFB49
 3184 0004 18000000 		.4byte	.LFE49
 3185 0008 00000000 		.4byte	.LFB50
 3186 000c 44000000 		.4byte	.LFE50
 3187 0010 00000000 		.4byte	.LFB51
 3188 0014 90000000 		.4byte	.LFE51
 3189 0018 00000000 		.4byte	.LFB52
 3190 001c 40000000 		.4byte	.LFE52
 3191 0020 00000000 		.4byte	.LFB53
 3192 0024 20000000 		.4byte	.LFE53
 3193 0028 00000000 		.4byte	.LFB54
 3194 002c 38020000 		.4byte	.LFE54
 3195 0030 00000000 		.4byte	.LFB55
 3196 0034 34000000 		.4byte	.LFE55
 3197 0038 00000000 		.4byte	.LFB56
 3198 003c 58000000 		.4byte	.LFE56
 3199 0040 00000000 		.4byte	.LFB57
 3200 0044 58000000 		.4byte	.LFE57
 3201 0048 00000000 		.4byte	.LFB58
 3202 004c 74000000 		.4byte	.LFE58
 3203 0050 00000000 		.4byte	.LFB59
 3204 0054 56000000 		.4byte	.LFE59
 3205 0058 00000000 		.4byte	.LFB60
 3206 005c 7C000000 		.4byte	.LFE60
 3207 0060 00000000 		.4byte	0
 3208 0064 00000000 		.4byte	0
 3209              		.section	.debug_line,"",%progbits
 3210              	.Ldebug_line0:
 3211 0000 47040000 		.section	.debug_str,"MS",%progbits,1
 3211      02007A02 
 3211      00000201 
 3211      FB0E0D00 
 3211      01010101 
 3212              	.LASF178:
 3213 0000 63795F73 		.ascii	"cy_stc_profile_ctr_t\000"
 3213      74635F70 
 3213      726F6669 
 3213      6C655F63 
ARM GAS  C:\Users\JC\AppData\Local\Temp\ccZlMrPB.s 			page 74


 3213      74725F74 
 3214              	.LASF67:
 3215 0015 70726F74 		.ascii	"protBusMasterMask\000"
 3215      4275734D 
 3215      61737465 
 3215      724D6173 
 3215      6B00
 3216              	.LASF121:
 3217 0027 43505553 		.ascii	"CPUSS_MONITOR_CM4\000"
 3217      535F4D4F 
 3217      4E49544F 
 3217      525F434D 
 3217      3400
 3218              	.LASF77:
 3219 0039 666C6173 		.ascii	"flashCtlMainWs3Freq\000"
 3219      6843746C 
 3219      4D61696E 
 3219      57733346 
 3219      72657100 
 3220              	.LASF166:
 3221 004d 636E7444 		.ascii	"cntDuration\000"
 3221      75726174 
 3221      696F6E00 
 3222              	.LASF117:
 3223 0059 6970634C 		.ascii	"ipcLockStatusOffset\000"
 3223      6F636B53 
 3223      74617475 
 3223      734F6666 
 3223      73657400 
 3224              	.LASF43:
 3225 006d 63727970 		.ascii	"cryptoVersion\000"
 3225      746F5665 
 3225      7273696F 
 3225      6E00
 3226              	.LASF61:
 3227 007b 70657269 		.ascii	"periClockNr\000"
 3227      436C6F63 
 3227      6B4E7200 
 3228              	.LASF39:
 3229 0087 70617373 		.ascii	"passBase\000"
 3229      42617365 
 3229      00
 3230              	.LASF18:
 3231 0090 75696E74 		.ascii	"uint64_t\000"
 3231      36345F74 
 3231      00
 3232              	.LASF115:
 3233 0099 63707573 		.ascii	"cpussRam2Ctl0\000"
 3233      7352616D 
 3233      3243746C 
 3233      3000
 3234              	.LASF52:
 3235 00a7 63707573 		.ascii	"cpussIpcIrqNr\000"
 3235      73497063 
 3235      4972714E 
 3235      7200
 3236              	.LASF2:
ARM GAS  C:\Users\JC\AppData\Local\Temp\ccZlMrPB.s 			page 75


 3237 00b5 5F5F7569 		.ascii	"__uint8_t\000"
 3237      6E74385F 
 3237      7400
 3238              	.LASF96:
 3239 00bf 70657269 		.ascii	"periDiv24_5CtlOffset\000"
 3239      44697632 
 3239      345F3543 
 3239      746C4F66 
 3239      66736574 
 3240              	.LASF103:
 3241 00d4 63707573 		.ascii	"cpussCm4ClockCtlOffset\000"
 3241      73436D34 
 3241      436C6F63 
 3241      6B43746C 
 3241      4F666673 
 3242              	.LASF120:
 3243 00eb 43505553 		.ascii	"CPUSS_MONITOR_CM0\000"
 3243      535F4D4F 
 3243      4E49544F 
 3243      525F434D 
 3243      3000
 3244              	.LASF201:
 3245 00fd 64615375 		.ascii	"daSum\000"
 3245      6D00
 3246              	.LASF32:
 3247 0103 63707573 		.ascii	"cpussBase\000"
 3247      73426173 
 3247      6500
 3248              	.LASF81:
 3249 010d 64774368 		.ascii	"dwChCtlPrioPos\000"
 3249      43746C50 
 3249      72696F50 
 3249      6F7300
 3250              	.LASF145:
 3251 011c 424C4553 		.ascii	"BLESS_EXT_LNA_RX_CTL_OUT\000"
 3251      535F4558 
 3251      545F4C4E 
 3251      415F5258 
 3251      5F43544C 
 3252              	.LASF12:
 3253 0135 6C6F6E67 		.ascii	"long long unsigned int\000"
 3253      206C6F6E 
 3253      6720756E 
 3253      7369676E 
 3253      65642069 
 3254              	.LASF163:
 3255 014c 43595F50 		.ascii	"CY_PROFILE_SUCCESS\000"
 3255      524F4649 
 3255      4C455F53 
 3255      55434345 
 3255      535300
 3256              	.LASF85:
 3257 015f 70657269 		.ascii	"periTrCmdOffset\000"
 3257      5472436D 
 3257      644F6666 
 3257      73657400 
 3258              	.LASF154:
ARM GAS  C:\Users\JC\AppData\Local\Temp\ccZlMrPB.s 			page 76


 3259 016f 43595F50 		.ascii	"CY_PROFILE_CLK_IMO\000"
 3259      524F4649 
 3259      4C455F43 
 3259      4C4B5F49 
 3259      4D4F00
 3260              	.LASF109:
 3261 0182 63707573 		.ascii	"cpussSysTickCtlOffset\000"
 3261      73537973 
 3261      5469636B 
 3261      43746C4F 
 3261      66667365 
 3262              	.LASF182:
 3263 0198 6F76666C 		.ascii	"ovflowBits\000"
 3263      6F774269 
 3263      747300
 3264              	.LASF74:
 3265 01a3 666C6173 		.ascii	"flashCtlMainWs0Freq\000"
 3265      6843746C 
 3265      4D61696E 
 3265      57733046 
 3265      72657100 
 3266              	.LASF15:
 3267 01b7 696E7431 		.ascii	"int16_t\000"
 3267      365F7400 
 3268              	.LASF10:
 3269 01bf 6C6F6E67 		.ascii	"long long int\000"
 3269      206C6F6E 
 3269      6720696E 
 3269      7400
 3270              	.LASF0:
 3271 01cd 7369676E 		.ascii	"signed char\000"
 3271      65642063 
 3271      68617200 
 3272              	.LASF90:
 3273 01d9 70657269 		.ascii	"periDivCmdTypeSelPos\000"
 3273      44697643 
 3273      6D645479 
 3273      70655365 
 3273      6C506F73 
 3274              	.LASF148:
 3275 01ee 50524F46 		.ascii	"PROFILE_CNT_STRUCT_Type\000"
 3275      494C455F 
 3275      434E545F 
 3275      53545255 
 3275      43545F54 
 3276              	.LASF36:
 3277 0206 70726F74 		.ascii	"protBase\000"
 3277      42617365 
 3277      00
 3278              	.LASF48:
 3279 020f 69706356 		.ascii	"ipcVersion\000"
 3279      65727369 
 3279      6F6E00
 3280              	.LASF157:
 3281 021a 43595F50 		.ascii	"CY_PROFILE_CLK_HF\000"
 3281      524F4649 
 3281      4C455F43 
ARM GAS  C:\Users\JC\AppData\Local\Temp\ccZlMrPB.s 			page 77


 3281      4C4B5F48 
 3281      4600
 3282              	.LASF124:
 3283 022c 43505553 		.ascii	"CPUSS_MONITOR_DW1_AHB\000"
 3283      535F4D4F 
 3283      4E49544F 
 3283      525F4457 
 3283      315F4148 
 3284              	.LASF37:
 3285 0242 6873696F 		.ascii	"hsiomBase\000"
 3285      6D426173 
 3285      6500
 3286              	.LASF159:
 3287 024c 63795F65 		.ascii	"cy_en_profile_ref_clk_t\000"
 3287      6E5F7072 
 3287      6F66696C 
 3287      655F7265 
 3287      665F636C 
 3288              	.LASF160:
 3289 0264 43595F50 		.ascii	"CY_PROFILE_EVENT\000"
 3289      524F4649 
 3289      4C455F45 
 3289      56454E54 
 3289      00
 3290              	.LASF7:
 3291 0275 6C6F6E67 		.ascii	"long int\000"
 3291      20696E74 
 3291      00
 3292              	.LASF202:
 3293 027e 63795F65 		.ascii	"cy_ep_ctrs\000"
 3293      705F6374 
 3293      727300
 3294              	.LASF68:
 3295 0289 63727970 		.ascii	"cryptoMemSize\000"
 3295      746F4D65 
 3295      6D53697A 
 3295      6500
 3296              	.LASF205:
 3297 0297 443A5C4F 		.ascii	"D:\\OneDrive\\OneDrive - UNSW\\2022_T1\\Thesis A\\d"
 3297      6E654472 
 3297      6976655C 
 3297      4F6E6544 
 3297      72697665 
 3298 02c5 61726179 		.ascii	"arayus\\UART + TRIANGLE.cydsn\000"
 3298      75735C55 
 3298      41525420 
 3298      2B205452 
 3298      49414E47 
 3299              	.LASF134:
 3300 02e2 53434237 		.ascii	"SCB7_MONITOR_AHB\000"
 3300      5F4D4F4E 
 3300      49544F52 
 3300      5F414842 
 3300      00
 3301              	.LASF34:
 3302 02f3 70657269 		.ascii	"periBase\000"
 3302      42617365 
ARM GAS  C:\Users\JC\AppData\Local\Temp\ccZlMrPB.s 			page 78


 3302      00
 3303              	.LASF47:
 3304 02fc 6873696F 		.ascii	"hsiomVersion\000"
 3304      6D566572 
 3304      73696F6E 
 3304      00
 3305              	.LASF174:
 3306 0309 63746C52 		.ascii	"ctlReg\000"
 3306      656700
 3307              	.LASF66:
 3308 0310 73797350 		.ascii	"sysPmSimoPresent\000"
 3308      6D53696D 
 3308      6F507265 
 3308      73656E74 
 3308      00
 3309              	.LASF144:
 3310 0321 534D4946 		.ascii	"SMIF_MONITOR_SMIF_SPI_SELECT_ANY\000"
 3310      5F4D4F4E 
 3310      49544F52 
 3310      5F534D49 
 3310      465F5350 
 3311              	.LASF56:
 3312 0342 63707573 		.ascii	"cpussFmIrq\000"
 3312      73466D49 
 3312      727100
 3313              	.LASF152:
 3314 034d 646F7562 		.ascii	"double\000"
 3314      6C6500
 3315              	.LASF183:
 3316 0354 43795F50 		.ascii	"Cy_Profile_ISR\000"
 3316      726F6669 
 3316      6C655F49 
 3316      535200
 3317              	.LASF59:
 3318 0363 73727373 		.ascii	"srssNumPll\000"
 3318      4E756D50 
 3318      6C6C00
 3319              	.LASF30:
 3320 036e 434E545F 		.ascii	"CNT_STRUCT\000"
 3320      53545255 
 3320      435400
 3321              	.LASF164:
 3322 0379 43595F50 		.ascii	"CY_PROFILE_BAD_PARAM\000"
 3322      524F4649 
 3322      4C455F42 
 3322      41445F50 
 3322      4152414D 
 3323              	.LASF133:
 3324 038e 53434236 		.ascii	"SCB6_MONITOR_AHB\000"
 3324      5F4D4F4E 
 3324      49544F52 
 3324      5F414842 
 3324      00
 3325              	.LASF100:
 3326 039f 6770696F 		.ascii	"gpioPrtCfgOutOffset\000"
 3326      50727443 
 3326      66674F75 
ARM GAS  C:\Users\JC\AppData\Local\Temp\ccZlMrPB.s 			page 79


 3326      744F6666 
 3326      73657400 
 3327              	.LASF33:
 3328 03b3 666C6173 		.ascii	"flashcBase\000"
 3328      68634261 
 3328      736500
 3329              	.LASF8:
 3330 03be 5F5F7569 		.ascii	"__uint32_t\000"
 3330      6E743332 
 3330      5F7400
 3331              	.LASF63:
 3332 03c9 70617373 		.ascii	"passSarChannels\000"
 3332      53617243 
 3332      68616E6E 
 3332      656C7300 
 3333              	.LASF147:
 3334 03d9 656E5F65 		.ascii	"en_ep_mon_sel_t\000"
 3334      705F6D6F 
 3334      6E5F7365 
 3334      6C5F7400 
 3335              	.LASF3:
 3336 03e9 5F5F696E 		.ascii	"__int16_t\000"
 3336      7431365F 
 3336      7400
 3337              	.LASF187:
 3338 03f3 64757261 		.ascii	"duration\000"
 3338      74696F6E 
 3338      00
 3339              	.LASF31:
 3340 03fc 50524F46 		.ascii	"PROFILE_V1_Type\000"
 3340      494C455F 
 3340      56315F54 
 3340      79706500 
 3341              	.LASF197:
 3342 040c 74656D70 		.ascii	"temp\000"
 3342      00
 3343              	.LASF101:
 3344 0411 6770696F 		.ascii	"gpioPrtCfgSioOffset\000"
 3344      50727443 
 3344      66675369 
 3344      6F4F6666 
 3344      73657400 
 3345              	.LASF53:
 3346 0425 63707573 		.ascii	"cpussDwChNr\000"
 3346      73447743 
 3346      684E7200 
 3347              	.LASF13:
 3348 0431 756E7369 		.ascii	"unsigned int\000"
 3348      676E6564 
 3348      20696E74 
 3348      00
 3349              	.LASF16:
 3350 043e 75696E74 		.ascii	"uint16_t\000"
 3350      31365F74 
 3350      00
 3351              	.LASF149:
 3352 0447 63686172 		.ascii	"char_t\000"
ARM GAS  C:\Users\JC\AppData\Local\Temp\ccZlMrPB.s 			page 80


 3352      5F7400
 3353              	.LASF196:
 3354 044e 43795F50 		.ascii	"Cy_Profile_GetWeightedCount\000"
 3354      726F6669 
 3354      6C655F47 
 3354      65745765 
 3354      69676874 
 3355              	.LASF86:
 3356 046a 70657269 		.ascii	"periTrCmdGrSelMsk\000"
 3356      5472436D 
 3356      64477253 
 3356      656C4D73 
 3356      6B00
 3357              	.LASF9:
 3358 047c 6C6F6E67 		.ascii	"long unsigned int\000"
 3358      20756E73 
 3358      69676E65 
 3358      6420696E 
 3358      7400
 3359              	.LASF88:
 3360 048e 70657269 		.ascii	"periTrGrSize\000"
 3360      54724772 
 3360      53697A65 
 3360      00
 3361              	.LASF153:
 3362 049b 43595F50 		.ascii	"CY_PROFILE_CLK_TIMER\000"
 3362      524F4649 
 3362      4C455F43 
 3362      4C4B5F54 
 3362      494D4552 
 3363              	.LASF51:
 3364 04b0 63707573 		.ascii	"cpussIpcNr\000"
 3364      73497063 
 3364      4E7200
 3365              	.LASF27:
 3366 04bb 494E5452 		.ascii	"INTR_MASK\000"
 3366      5F4D4153 
 3366      4B00
 3367              	.LASF38:
 3368 04c5 6770696F 		.ascii	"gpioBase\000"
 3368      42617365 
 3368      00
 3369              	.LASF64:
 3370 04ce 65704D6F 		.ascii	"epMonitorNr\000"
 3370      6E69746F 
 3370      724E7200 
 3371              	.LASF76:
 3372 04da 666C6173 		.ascii	"flashCtlMainWs2Freq\000"
 3372      6843746C 
 3372      4D61696E 
 3372      57733246 
 3372      72657100 
 3373              	.LASF181:
 3374 04ee 705F6570 		.ascii	"p_epCtrs\000"
 3374      43747273 
 3374      00
 3375              	.LASF87:
ARM GAS  C:\Users\JC\AppData\Local\Temp\ccZlMrPB.s 			page 81


 3376 04f7 70657269 		.ascii	"periTrGrOffset\000"
 3376      54724772 
 3376      4F666673 
 3376      657400
 3377              	.LASF114:
 3378 0506 63707573 		.ascii	"cpussRam1Ctl0\000"
 3378      7352616D 
 3378      3143746C 
 3378      3000
 3379              	.LASF170:
 3380 0514 6374724E 		.ascii	"ctrNum\000"
 3380      756D00
 3381              	.LASF146:
 3382 051b 424C4553 		.ascii	"BLESS_EXT_PA_TX_CTL_OUT\000"
 3382      535F4558 
 3382      545F5041 
 3382      5F54585F 
 3382      43544C5F 
 3383              	.LASF208:
 3384 0533 43795F50 		.ascii	"Cy_Profile_ClearConfiguration\000"
 3384      726F6669 
 3384      6C655F43 
 3384      6C656172 
 3384      436F6E66 
 3385              	.LASF203:
 3386 0551 474E5520 		.ascii	"GNU C11 5.4.1 20160609 (release) [ARM/embedded-5-br"
 3386      43313120 
 3386      352E342E 
 3386      31203230 
 3386      31363036 
 3387 0584 616E6368 		.ascii	"anch revision 237715] -mcpu=cortex-m0plus -mthumb -"
 3387      20726576 
 3387      6973696F 
 3387      6E203233 
 3387      37373135 
 3388 05b7 67202D4F 		.ascii	"g -O0 -ffunction-sections -ffat-lto-objects\000"
 3388      30202D66 
 3388      66756E63 
 3388      74696F6E 
 3388      2D736563 
 3389              	.LASF46:
 3390 05e3 6770696F 		.ascii	"gpioVersion\000"
 3390      56657273 
 3390      696F6E00 
 3391              	.LASF188:
 3392 05ef 72656643 		.ascii	"refClk\000"
 3392      6C6B00
 3393              	.LASF118:
 3394 05f6 63795F73 		.ascii	"cy_stc_device_t\000"
 3394      74635F64 
 3394      65766963 
 3394      655F7400 
 3395              	.LASF106:
 3396 0606 63707573 		.ascii	"cpussCm4PwrCtlOffset\000"
 3396      73436D34 
 3396      50777243 
 3396      746C4F66 
ARM GAS  C:\Users\JC\AppData\Local\Temp\ccZlMrPB.s 			page 82


 3396      66736574 
 3397              	.LASF136:
 3398 061b 5544425F 		.ascii	"UDB_MONITOR_UDB0\000"
 3398      4D4F4E49 
 3398      544F525F 
 3398      55444230 
 3398      00
 3399              	.LASF137:
 3400 062c 5544425F 		.ascii	"UDB_MONITOR_UDB1\000"
 3400      4D4F4E49 
 3400      544F525F 
 3400      55444231 
 3400      00
 3401              	.LASF138:
 3402 063d 5544425F 		.ascii	"UDB_MONITOR_UDB2\000"
 3402      4D4F4E49 
 3402      544F525F 
 3402      55444232 
 3402      00
 3403              	.LASF139:
 3404 064e 5544425F 		.ascii	"UDB_MONITOR_UDB3\000"
 3404      4D4F4E49 
 3404      544F525F 
 3404      55444233 
 3404      00
 3405              	.LASF111:
 3406 065f 63707573 		.ascii	"cpussCm4NmiCtlOffset\000"
 3406      73436D34 
 3406      4E6D6943 
 3406      746C4F66 
 3406      66736574 
 3407              	.LASF107:
 3408 0674 63707573 		.ascii	"cpussTrimRamCtlOffset\000"
 3408      73547269 
 3408      6D52616D 
 3408      43746C4F 
 3408      66667365 
 3409              	.LASF102:
 3410 068a 63707573 		.ascii	"cpussCm0ClockCtlOffset\000"
 3410      73436D30 
 3410      436C6F63 
 3410      6B43746C 
 3410      4F666673 
 3411              	.LASF131:
 3412 06a1 53434234 		.ascii	"SCB4_MONITOR_AHB\000"
 3412      5F4D4F4E 
 3412      49544F52 
 3412      5F414842 
 3412      00
 3413              	.LASF26:
 3414 06b2 494E5452 		.ascii	"INTR_SET\000"
 3414      5F534554 
 3414      00
 3415              	.LASF42:
 3416 06bb 63707573 		.ascii	"cpussVersion\000"
 3416      73566572 
 3416      73696F6E 
ARM GAS  C:\Users\JC\AppData\Local\Temp\ccZlMrPB.s 			page 83


 3416      00
 3417              	.LASF49:
 3418 06c8 70657269 		.ascii	"periVersion\000"
 3418      56657273 
 3418      696F6E00 
 3419              	.LASF169:
 3420 06d4 63795F73 		.ascii	"cy_stc_profile_ctr_ctl_t\000"
 3420      74635F70 
 3420      726F6669 
 3420      6C655F63 
 3420      74725F63 
 3421              	.LASF105:
 3422 06ed 63707573 		.ascii	"cpussCm0StatusOffset\000"
 3422      73436D30 
 3422      53746174 
 3422      75734F66 
 3422      66736574 
 3423              	.LASF158:
 3424 0702 43595F50 		.ascii	"CY_PROFILE_CLK_PERI\000"
 3424      524F4649 
 3424      4C455F43 
 3424      4C4B5F50 
 3424      45524900 
 3425              	.LASF20:
 3426 0716 73697A65 		.ascii	"sizetype\000"
 3426      74797065 
 3426      00
 3427              	.LASF207:
 3428 071f 43795F50 		.ascii	"Cy_Profile_IsPtrValid\000"
 3428      726F6669 
 3428      6C655F49 
 3428      73507472 
 3428      56616C69 
 3429              	.LASF79:
 3430 0735 64774368 		.ascii	"dwChOffset\000"
 3430      4F666673 
 3430      657400
 3431              	.LASF155:
 3432 0740 43595F50 		.ascii	"CY_PROFILE_CLK_ECO\000"
 3432      524F4649 
 3432      4C455F43 
 3432      4C4B5F45 
 3432      434F00
 3433              	.LASF54:
 3434 0753 63707573 		.ascii	"cpussFlashPaSize\000"
 3434      73466C61 
 3434      73685061 
 3434      53697A65 
 3434      00
 3435              	.LASF92:
 3436 0764 70657269 		.ascii	"periDivCmdPaTypeSelPos\000"
 3436      44697643 
 3436      6D645061 
 3436      54797065 
 3436      53656C50 
 3437              	.LASF119:
 3438 077b 50524F46 		.ascii	"PROFILE_ONE\000"
ARM GAS  C:\Users\JC\AppData\Local\Temp\ccZlMrPB.s 			page 84


 3438      494C455F 
 3438      4F4E4500 
 3439              	.LASF162:
 3440 0787 63795F65 		.ascii	"cy_en_profile_duration_t\000"
 3440      6E5F7072 
 3440      6F66696C 
 3440      655F6475 
 3440      72617469 
 3441              	.LASF123:
 3442 07a0 43505553 		.ascii	"CPUSS_MONITOR_DW0_AHB\000"
 3442      535F4D4F 
 3442      4E49544F 
 3442      525F4457 
 3442      305F4148 
 3443              	.LASF25:
 3444 07b6 494E5452 		.ascii	"INTR\000"
 3444      00
 3445              	.LASF83:
 3446 07bb 64775374 		.ascii	"dwStatusChIdxPos\000"
 3446      61747573 
 3446      43684964 
 3446      78506F73 
 3446      00
 3447              	.LASF171:
 3448 07cc 75736564 		.ascii	"used\000"
 3448      00
 3449              	.LASF65:
 3450 07d1 75646250 		.ascii	"udbPresent\000"
 3450      72657365 
 3450      6E7400
 3451              	.LASF198:
 3452 07dc 43795F50 		.ascii	"Cy_Profile_GetSumWeightedCounts\000"
 3452      726F6669 
 3452      6C655F47 
 3452      65745375 
 3452      6D576569 
 3453              	.LASF45:
 3454 07fc 666C6173 		.ascii	"flashcVersion\000"
 3454      68635665 
 3454      7273696F 
 3454      6E00
 3455              	.LASF175:
 3456 080a 636E7452 		.ascii	"cntReg\000"
 3456      656700
 3457              	.LASF62:
 3458 0811 736D6966 		.ascii	"smifDeviceNr\000"
 3458      44657669 
 3458      63654E72 
 3458      00
 3459              	.LASF173:
 3460 081e 636E7441 		.ascii	"cntAddr\000"
 3460      64647200 
 3461              	.LASF179:
 3462 0826 63795F73 		.ascii	"cy_stc_profile_ctr_ptr_t\000"
 3462      74635F70 
 3462      726F6669 
 3462      6C655F63 
ARM GAS  C:\Users\JC\AppData\Local\Temp\ccZlMrPB.s 			page 85


 3462      74725F70 
 3463              	.LASF189:
 3464 083f 72657456 		.ascii	"retVal\000"
 3464      616C00
 3465              	.LASF128:
 3466 0846 53434231 		.ascii	"SCB1_MONITOR_AHB\000"
 3466      5F4D4F4E 
 3466      49544F52 
 3466      5F414842 
 3466      00
 3467              	.LASF186:
 3468 0857 6D6F6E69 		.ascii	"monitor\000"
 3468      746F7200 
 3469              	.LASF11:
 3470 085f 5F5F7569 		.ascii	"__uint64_t\000"
 3470      6E743634 
 3470      5F7400
 3471              	.LASF28:
 3472 086a 494E5452 		.ascii	"INTR_MASKED\000"
 3472      5F4D4153 
 3472      4B454400 
 3473              	.LASF151:
 3474 0876 666C6F61 		.ascii	"float\000"
 3474      7400
 3475              	.LASF122:
 3476 087c 43505553 		.ascii	"CPUSS_MONITOR_FLASH\000"
 3476      535F4D4F 
 3476      4E49544F 
 3476      525F464C 
 3476      41534800 
 3477              	.LASF84:
 3478 0890 64775374 		.ascii	"dwStatusChIdxMsk\000"
 3478      61747573 
 3478      43684964 
 3478      784D736B 
 3478      00
 3479              	.LASF172:
 3480 08a1 63746C52 		.ascii	"ctlRegVals\000"
 3480      65675661 
 3480      6C7300
 3481              	.LASF126:
 3482 08ac 5553425F 		.ascii	"USB_MONITOR_AHB\000"
 3482      4D4F4E49 
 3482      544F525F 
 3482      41484200 
 3483              	.LASF22:
 3484 08bc 52455345 		.ascii	"RESERVED1\000"
 3484      52564544 
 3484      3100
 3485              	.LASF209:
 3486 08c6 63795F64 		.ascii	"cy_device\000"
 3486      65766963 
 3486      6500
 3487              	.LASF112:
 3488 08d0 63707573 		.ascii	"cpussRomCtl\000"
 3488      73526F6D 
 3488      43746C00 
ARM GAS  C:\Users\JC\AppData\Local\Temp\ccZlMrPB.s 			page 86


 3489              	.LASF82:
 3490 08dc 64774368 		.ascii	"dwChCtlPreemptablePos\000"
 3490      43746C50 
 3490      7265656D 
 3490      70746162 
 3490      6C65506F 
 3491              	.LASF192:
 3492 08f2 43795F50 		.ascii	"Cy_Profile_EnableCounter\000"
 3492      726F6669 
 3492      6C655F45 
 3492      6E61626C 
 3492      65436F75 
 3493              	.LASF125:
 3494 090b 43505553 		.ascii	"CPUSS_MONITOR_CRYPTO\000"
 3494      535F4D4F 
 3494      4E49544F 
 3494      525F4352 
 3494      5950544F 
 3495              	.LASF35:
 3496 0920 75646242 		.ascii	"udbBase\000"
 3496      61736500 
 3497              	.LASF1:
 3498 0928 756E7369 		.ascii	"unsigned char\000"
 3498      676E6564 
 3498      20636861 
 3498      7200
 3499              	.LASF110:
 3500 0936 63707573 		.ascii	"cpussCm0NmiCtlOffset\000"
 3500      73436D30 
 3500      4E6D6943 
 3500      746C4F66 
 3500      66736574 
 3501              	.LASF142:
 3502 094b 534D4946 		.ascii	"SMIF_MONITOR_SMIF_SPI_SELECT2\000"
 3502      5F4D4F4E 
 3502      49544F52 
 3502      5F534D49 
 3502      465F5350 
 3503              	.LASF143:
 3504 0969 534D4946 		.ascii	"SMIF_MONITOR_SMIF_SPI_SELECT3\000"
 3504      5F4D4F4E 
 3504      49544F52 
 3504      5F534D49 
 3504      465F5350 
 3505              	.LASF78:
 3506 0987 666C6173 		.ascii	"flashCtlMainWs4Freq\000"
 3506      6843746C 
 3506      4D61696E 
 3506      57733446 
 3506      72657100 
 3507              	.LASF41:
 3508 099b 63727970 		.ascii	"cryptoBase\000"
 3508      746F4261 
 3508      736500
 3509              	.LASF4:
 3510 09a6 73686F72 		.ascii	"short int\000"
 3510      7420696E 
ARM GAS  C:\Users\JC\AppData\Local\Temp\ccZlMrPB.s 			page 87


 3510      7400
 3511              	.LASF129:
 3512 09b0 53434232 		.ascii	"SCB2_MONITOR_AHB\000"
 3512      5F4D4F4E 
 3512      49544F52 
 3512      5F414842 
 3512      00
 3513              	.LASF193:
 3514 09c1 43795F50 		.ascii	"Cy_Profile_DisableCounter\000"
 3514      726F6669 
 3514      6C655F44 
 3514      69736162 
 3514      6C65436F 
 3515              	.LASF156:
 3516 09db 43595F50 		.ascii	"CY_PROFILE_CLK_LF\000"
 3516      524F4649 
 3516      4C455F43 
 3516      4C4B5F4C 
 3516      4600
 3517              	.LASF89:
 3518 09ed 70657269 		.ascii	"periDivCmdDivSelMsk\000"
 3518      44697643 
 3518      6D644469 
 3518      7653656C 
 3518      4D736B00 
 3519              	.LASF199:
 3520 0a01 70747273 		.ascii	"ptrsArray\000"
 3520      41727261 
 3520      7900
 3521              	.LASF185:
 3522 0a0b 63747241 		.ascii	"ctrAddr\000"
 3522      64647200 
 3523              	.LASF132:
 3524 0a13 53434235 		.ascii	"SCB5_MONITOR_AHB\000"
 3524      5F4D4F4E 
 3524      49544F52 
 3524      5F414842 
 3524      00
 3525              	.LASF99:
 3526 0a24 6770696F 		.ascii	"gpioPrtCfgInOffset\000"
 3526      50727443 
 3526      6667496E 
 3526      4F666673 
 3526      657400
 3527              	.LASF167:
 3528 0a37 72656643 		.ascii	"refClkSel\000"
 3528      6C6B5365 
 3528      6C00
 3529              	.LASF206:
 3530 0a41 43795F50 		.ascii	"Cy_Profile_ClearCounters\000"
 3530      726F6669 
 3530      6C655F43 
 3530      6C656172 
 3530      436F756E 
 3531              	.LASF73:
 3532 0a5a 666C6173 		.ascii	"flashEraseDelay\000"
 3532      68457261 
ARM GAS  C:\Users\JC\AppData\Local\Temp\ccZlMrPB.s 			page 88


 3532      73654465 
 3532      6C617900 
 3533              	.LASF93:
 3534 0a6a 70657269 		.ascii	"periDiv8CtlOffset\000"
 3534      44697638 
 3534      43746C4F 
 3534      66667365 
 3534      7400
 3535              	.LASF17:
 3536 0a7c 75696E74 		.ascii	"uint32_t\000"
 3536      33325F74 
 3536      00
 3537              	.LASF184:
 3538 0a85 43795F50 		.ascii	"Cy_Profile_StartProfiling\000"
 3538      726F6669 
 3538      6C655F53 
 3538      74617274 
 3538      50726F66 
 3539              	.LASF200:
 3540 0a9f 6E756D43 		.ascii	"numCounters\000"
 3540      6F756E74 
 3540      65727300 
 3541              	.LASF19:
 3542 0aab 6C6F6E67 		.ascii	"long double\000"
 3542      20646F75 
 3542      626C6500 
 3543              	.LASF150:
 3544 0ab7 63686172 		.ascii	"char\000"
 3544      00
 3545              	.LASF50:
 3546 0abc 70726F74 		.ascii	"protVersion\000"
 3546      56657273 
 3546      696F6E00 
 3547              	.LASF135:
 3548 0ac8 53434238 		.ascii	"SCB8_MONITOR_AHB\000"
 3548      5F4D4F4E 
 3548      49544F52 
 3548      5F414842 
 3548      00
 3549              	.LASF113:
 3550 0ad9 63707573 		.ascii	"cpussRam0Ctl0\000"
 3550      7352616D 
 3550      3043746C 
 3550      3000
 3551              	.LASF140:
 3552 0ae7 534D4946 		.ascii	"SMIF_MONITOR_SMIF_SPI_SELECT0\000"
 3552      5F4D4F4E 
 3552      49544F52 
 3552      5F534D49 
 3552      465F5350 
 3553              	.LASF5:
 3554 0b05 5F5F7569 		.ascii	"__uint16_t\000"
 3554      6E743136 
 3554      5F7400
 3555              	.LASF94:
 3556 0b10 70657269 		.ascii	"periDiv16CtlOffset\000"
 3556      44697631 
ARM GAS  C:\Users\JC\AppData\Local\Temp\ccZlMrPB.s 			page 89


 3556      3643746C 
 3556      4F666673 
 3556      657400
 3557              	.LASF21:
 3558 0b23 52455345 		.ascii	"RESERVED\000"
 3558      52564544 
 3558      00
 3559              	.LASF191:
 3560 0b2c 43795F50 		.ascii	"Cy_Profile_FreeCounter\000"
 3560      726F6669 
 3560      6C655F46 
 3560      72656543 
 3560      6F756E74 
 3561              	.LASF176:
 3562 0b43 6F766572 		.ascii	"overflow\000"
 3562      666C6F77 
 3562      00
 3563              	.LASF23:
 3564 0b4c 50524F46 		.ascii	"PROFILE_CNT_STRUCT_V1_Type\000"
 3564      494C455F 
 3564      434E545F 
 3564      53545255 
 3564      43545F56 
 3565              	.LASF168:
 3566 0b67 6D6F6E53 		.ascii	"monSel\000"
 3566      656C00
 3567              	.LASF75:
 3568 0b6e 666C6173 		.ascii	"flashCtlMainWs1Freq\000"
 3568      6843746C 
 3568      4D61696E 
 3568      57733146 
 3568      72657100 
 3569              	.LASF29:
 3570 0b82 52455345 		.ascii	"RESERVED2\000"
 3570      52564544 
 3570      3200
 3571              	.LASF6:
 3572 0b8c 73686F72 		.ascii	"short unsigned int\000"
 3572      7420756E 
 3572      7369676E 
 3572      65642069 
 3572      6E7400
 3573              	.LASF80:
 3574 0b9f 64774368 		.ascii	"dwChSize\000"
 3574      53697A65 
 3574      00
 3575              	.LASF204:
 3576 0ba8 47656E65 		.ascii	"Generated_Source\\PSoC6\\pdl\\drivers\\peripheral\\"
 3576      72617465 
 3576      645F536F 
 3576      75726365 
 3576      5C50536F 
 3577 0bd6 70726F66 		.ascii	"profile\\cy_profile.c\000"
 3577      696C655C 
 3577      63795F70 
 3577      726F6669 
 3577      6C652E63 
ARM GAS  C:\Users\JC\AppData\Local\Temp\ccZlMrPB.s 			page 90


 3578              	.LASF116:
 3579 0beb 69706353 		.ascii	"ipcStructSize\000"
 3579      74727563 
 3579      7453697A 
 3579      6500
 3580              	.LASF55:
 3581 0bf9 63707573 		.ascii	"cpussIpc0Irq\000"
 3581      73497063 
 3581      30497271 
 3581      00
 3582              	.LASF95:
 3583 0c06 70657269 		.ascii	"periDiv16_5CtlOffset\000"
 3583      44697631 
 3583      365F3543 
 3583      746C4F66 
 3583      66736574 
 3584              	.LASF98:
 3585 0c1b 6770696F 		.ascii	"gpioPrtCfgOffset\000"
 3585      50727443 
 3585      66674F66 
 3585      66736574 
 3585      00
 3586              	.LASF24:
 3587 0c2c 53544154 		.ascii	"STATUS\000"
 3587      555300
 3588              	.LASF60:
 3589 0c33 73727373 		.ascii	"srssNumHfroot\000"
 3589      4E756D48 
 3589      66726F6F 
 3589      7400
 3590              	.LASF161:
 3591 0c41 43595F50 		.ascii	"CY_PROFILE_DURATION\000"
 3591      524F4649 
 3591      4C455F44 
 3591      55524154 
 3591      494F4E00 
 3592              	.LASF127:
 3593 0c55 53434230 		.ascii	"SCB0_MONITOR_AHB\000"
 3593      5F4D4F4E 
 3593      49544F52 
 3593      5F414842 
 3593      00
 3594              	.LASF57:
 3595 0c66 63707573 		.ascii	"cpussNotConnectedIrq\000"
 3595      734E6F74 
 3595      436F6E6E 
 3595      65637465 
 3595      64497271 
 3596              	.LASF165:
 3597 0c7b 63795F65 		.ascii	"cy_en_profile_status_t\000"
 3597      6E5F7072 
 3597      6F66696C 
 3597      655F7374 
 3597      61747573 
 3598              	.LASF71:
 3599 0c92 666C6173 		.ascii	"flashWriteDelay\000"
 3599      68577269 
ARM GAS  C:\Users\JC\AppData\Local\Temp\ccZlMrPB.s 			page 91


 3599      74654465 
 3599      6C617900 
 3600              	.LASF14:
 3601 0ca2 75696E74 		.ascii	"uint8_t\000"
 3601      385F7400 
 3602              	.LASF190:
 3603 0caa 43795F50 		.ascii	"Cy_Profile_ConfigureCounter\000"
 3603      726F6669 
 3603      6C655F43 
 3603      6F6E6669 
 3603      67757265 
 3604              	.LASF70:
 3605 0cc6 666C6173 		.ascii	"flashPipeRequired\000"
 3605      68506970 
 3605      65526571 
 3605      75697265 
 3605      6400
 3606              	.LASF141:
 3607 0cd8 534D4946 		.ascii	"SMIF_MONITOR_SMIF_SPI_SELECT1\000"
 3607      5F4D4F4E 
 3607      49544F52 
 3607      5F534D49 
 3607      465F5350 
 3608              	.LASF104:
 3609 0cf6 63707573 		.ascii	"cpussCm4StatusOffset\000"
 3609      73436D34 
 3609      53746174 
 3609      75734F66 
 3609      66736574 
 3610              	.LASF97:
 3611 0d0b 6770696F 		.ascii	"gpioPrtIntrCfgOffset\000"
 3611      50727449 
 3611      6E747243 
 3611      66674F66 
 3611      66736574 
 3612              	.LASF130:
 3613 0d20 53434233 		.ascii	"SCB3_MONITOR_AHB\000"
 3613      5F4D4F4E 
 3613      49544F52 
 3613      5F414842 
 3613      00
 3614              	.LASF108:
 3615 0d31 63707573 		.ascii	"cpussTrimRomCtlOffset\000"
 3615      73547269 
 3615      6D526F6D 
 3615      43746C4F 
 3615      66667365 
 3616              	.LASF58:
 3617 0d47 73727373 		.ascii	"srssNumClkpath\000"
 3617      4E756D43 
 3617      6C6B7061 
 3617      746800
 3618              	.LASF44:
 3619 0d56 64775665 		.ascii	"dwVersion\000"
 3619      7273696F 
 3619      6E00
 3620              	.LASF40:
ARM GAS  C:\Users\JC\AppData\Local\Temp\ccZlMrPB.s 			page 92


 3621 0d60 69706342 		.ascii	"ipcBase\000"
 3621      61736500 
 3622              	.LASF194:
 3623 0d68 43795F50 		.ascii	"Cy_Profile_GetRawCount\000"
 3623      726F6669 
 3623      6C655F47 
 3623      65745261 
 3623      77436F75 
 3624              	.LASF91:
 3625 0d7f 70657269 		.ascii	"periDivCmdPaDivSelPos\000"
 3625      44697643 
 3625      6D645061 
 3625      44697653 
 3625      656C506F 
 3626              	.LASF72:
 3627 0d95 666C6173 		.ascii	"flashProgramDelay\000"
 3627      6850726F 
 3627      6772616D 
 3627      44656C61 
 3627      7900
 3628              	.LASF180:
 3629 0da7 72657453 		.ascii	"retStatus\000"
 3629      74617475 
 3629      7300
 3630              	.LASF195:
 3631 0db1 72657375 		.ascii	"result\000"
 3631      6C7400
 3632              	.LASF69:
 3633 0db8 666C6173 		.ascii	"flashRwwRequired\000"
 3633      68527777 
 3633      52657175 
 3633      69726564 
 3633      00
 3634              	.LASF177:
 3635 0dc9 77656967 		.ascii	"weight\000"
 3635      687400
 3636              		.ident	"GCC: (GNU Tools for ARM Embedded Processors) 5.4.1 20160609 (release) [ARM/embedded-5-bran
