ARM GAS  C:\Users\JC\AppData\Local\Temp\ccZlMrPB.s 			page 1


   1              		.syntax unified
   2              		.cpu cortex-m0plus
   3              		.fpu softvfp
   4              		.eabi_attribute 20, 1
   5              		.eabi_attribute 21, 1
   6              		.eabi_attribute 23, 3
   7              		.eabi_attribute 24, 1
   8              		.eabi_attribute 25, 1
   9              		.eabi_attribute 26, 1
  10              		.eabi_attribute 30, 6
  11              		.eabi_attribute 34, 0
  12              		.eabi_attribute 18, 4
  13              		.thumb
  14              		.syntax unified
  15              		.file	"cy_profile.c"
  16              		.text
  17              	.Ltext0:
  18              		.cfi_sections	.debug_frame
  19              		.section	.text.Cy_Profile_ClearCounters,"ax",%progbits
  20              		.align	2
  21              		.code	16
  22              		.thumb_func
  23              		.type	Cy_Profile_ClearCounters, %function
  24              	Cy_Profile_ClearCounters:
  25              	.LFB49:
  26              		.file 1 "Generated_Source\\PSoC6\\pdl\\drivers\\peripheral\\profile\\cy_profile.h"
   1:Generated_Source\PSoC6\pdl\drivers\peripheral\profile/cy_profile.h **** /***************************************************************************//**
   2:Generated_Source\PSoC6\pdl\drivers\peripheral\profile/cy_profile.h **** * \file cy_profile.h
   3:Generated_Source\PSoC6\pdl\drivers\peripheral\profile/cy_profile.h **** * \version 1.10
   4:Generated_Source\PSoC6\pdl\drivers\peripheral\profile/cy_profile.h **** *
   5:Generated_Source\PSoC6\pdl\drivers\peripheral\profile/cy_profile.h **** * Provides an API declaration of the energy profiler driver.
   6:Generated_Source\PSoC6\pdl\drivers\peripheral\profile/cy_profile.h **** *
   7:Generated_Source\PSoC6\pdl\drivers\peripheral\profile/cy_profile.h **** ********************************************************************************
   8:Generated_Source\PSoC6\pdl\drivers\peripheral\profile/cy_profile.h **** * \copyright
   9:Generated_Source\PSoC6\pdl\drivers\peripheral\profile/cy_profile.h **** * Copyright 2016-2018, Cypress Semiconductor Corporation. All rights reserved.
  10:Generated_Source\PSoC6\pdl\drivers\peripheral\profile/cy_profile.h **** * You may use this file only in accordance with the license, terms, conditions,
  11:Generated_Source\PSoC6\pdl\drivers\peripheral\profile/cy_profile.h **** * disclaimers, and limitations in the end user license agreement accompanying
  12:Generated_Source\PSoC6\pdl\drivers\peripheral\profile/cy_profile.h **** * the software package with which this file was provided.
  13:Generated_Source\PSoC6\pdl\drivers\peripheral\profile/cy_profile.h **** *******************************************************************************/
  14:Generated_Source\PSoC6\pdl\drivers\peripheral\profile/cy_profile.h **** 
  15:Generated_Source\PSoC6\pdl\drivers\peripheral\profile/cy_profile.h **** /**
  16:Generated_Source\PSoC6\pdl\drivers\peripheral\profile/cy_profile.h **** * \addtogroup group_energy_profiler
  17:Generated_Source\PSoC6\pdl\drivers\peripheral\profile/cy_profile.h **** * \{
  18:Generated_Source\PSoC6\pdl\drivers\peripheral\profile/cy_profile.h **** * 
  19:Generated_Source\PSoC6\pdl\drivers\peripheral\profile/cy_profile.h **** * The energy profiler driver is an API for configuring and using the profile 
  20:Generated_Source\PSoC6\pdl\drivers\peripheral\profile/cy_profile.h **** * hardware block. 
  21:Generated_Source\PSoC6\pdl\drivers\peripheral\profile/cy_profile.h **** *
  22:Generated_Source\PSoC6\pdl\drivers\peripheral\profile/cy_profile.h **** * The functions and other declarations used in this driver are in cy_profile.h. 
  23:Generated_Source\PSoC6\pdl\drivers\peripheral\profile/cy_profile.h **** * You can include cy_pdl.h (ModusToolbox only) to get access to all functions 
  24:Generated_Source\PSoC6\pdl\drivers\peripheral\profile/cy_profile.h **** * and declarations in the PDL. 
  25:Generated_Source\PSoC6\pdl\drivers\peripheral\profile/cy_profile.h **** *
  26:Generated_Source\PSoC6\pdl\drivers\peripheral\profile/cy_profile.h **** * The profile block enables measurement of the signal activity
  27:Generated_Source\PSoC6\pdl\drivers\peripheral\profile/cy_profile.h **** * of select peripherals and monitor sources during a measurement window. Using
  28:Generated_Source\PSoC6\pdl\drivers\peripheral\profile/cy_profile.h **** * these measurements, you can construct a profile of the energy consumed
  29:Generated_Source\PSoC6\pdl\drivers\peripheral\profile/cy_profile.h **** * in the device by scaling the individual peripheral activities with appropriate
  30:Generated_Source\PSoC6\pdl\drivers\peripheral\profile/cy_profile.h **** * scaling (weight) factors. This gives the application the ability to monitor
  31:Generated_Source\PSoC6\pdl\drivers\peripheral\profile/cy_profile.h **** * the energy consumed by the internal resources with minimal CPU overhead and
ARM GAS  C:\Users\JC\AppData\Local\Temp\ccZlMrPB.s 			page 2


  32:Generated_Source\PSoC6\pdl\drivers\peripheral\profile/cy_profile.h **** * without external monitoring hardware.
  33:Generated_Source\PSoC6\pdl\drivers\peripheral\profile/cy_profile.h **** *
  34:Generated_Source\PSoC6\pdl\drivers\peripheral\profile/cy_profile.h **** * \section group_profile_details Details
  35:Generated_Source\PSoC6\pdl\drivers\peripheral\profile/cy_profile.h **** *
  36:Generated_Source\PSoC6\pdl\drivers\peripheral\profile/cy_profile.h **** * \subsection group_profile_hardware Profile Hardware
  37:Generated_Source\PSoC6\pdl\drivers\peripheral\profile/cy_profile.h **** *
  38:Generated_Source\PSoC6\pdl\drivers\peripheral\profile/cy_profile.h **** * The profile hardware consists of a number of profile counters that accept specific
  39:Generated_Source\PSoC6\pdl\drivers\peripheral\profile/cy_profile.h **** * triggers for incrementing the count value. This allows the events of the source 
  40:Generated_Source\PSoC6\pdl\drivers\peripheral\profile/cy_profile.h **** * (such as the number of SCB0 bus accesses or the duration of time the BLE RX radio
  41:Generated_Source\PSoC6\pdl\drivers\peripheral\profile/cy_profile.h **** * is active) to be counted during the measurement window. The available monitor 
  42:Generated_Source\PSoC6\pdl\drivers\peripheral\profile/cy_profile.h **** * sources in the device can be found in the en_ep_mon_sel_t enum in the device 
  43:Generated_Source\PSoC6\pdl\drivers\peripheral\profile/cy_profile.h **** * configuration file (e.g. psoc62_config.h). These can be sourced to any of the
  44:Generated_Source\PSoC6\pdl\drivers\peripheral\profile/cy_profile.h **** * profile counters as triggers. There are two methods of using the monitor sources
  45:Generated_Source\PSoC6\pdl\drivers\peripheral\profile/cy_profile.h **** * in a profile counter.
  46:Generated_Source\PSoC6\pdl\drivers\peripheral\profile/cy_profile.h **** *
  47:Generated_Source\PSoC6\pdl\drivers\peripheral\profile/cy_profile.h **** * - Event: The count value is incremented when a pulse event signal is seen by the
  48:Generated_Source\PSoC6\pdl\drivers\peripheral\profile/cy_profile.h **** *   counter. This type of monitoring is suitable when the monitoring source of 
  49:Generated_Source\PSoC6\pdl\drivers\peripheral\profile/cy_profile.h **** *   interest needs to count the discrete events (such as the number of flash read 
  50:Generated_Source\PSoC6\pdl\drivers\peripheral\profile/cy_profile.h **** *   accesses) happening in the measurement window.
  51:Generated_Source\PSoC6\pdl\drivers\peripheral\profile/cy_profile.h **** *
  52:Generated_Source\PSoC6\pdl\drivers\peripheral\profile/cy_profile.h **** * - Duration: The count value is incremented at every clock edge while the monitor
  53:Generated_Source\PSoC6\pdl\drivers\peripheral\profile/cy_profile.h **** *   signal is high. This type of monitoring is suitable when a signal is active for
  54:Generated_Source\PSoC6\pdl\drivers\peripheral\profile/cy_profile.h **** *   a finite amount of time (such as the time the BLE TX radio is active) and the
  55:Generated_Source\PSoC6\pdl\drivers\peripheral\profile/cy_profile.h **** *   duration must be expressed as number of clock cycles in the measurement window.
  56:Generated_Source\PSoC6\pdl\drivers\peripheral\profile/cy_profile.h **** *
  57:Generated_Source\PSoC6\pdl\drivers\peripheral\profile/cy_profile.h **** * Many of the available monitor sources are suitable for event type monitoring.
  58:Generated_Source\PSoC6\pdl\drivers\peripheral\profile/cy_profile.h **** * Using a duration type on these signals may not give valuable information. Review 
  59:Generated_Source\PSoC6\pdl\drivers\peripheral\profile/cy_profile.h **** * the device TRM for more information on the monitor sources and detail on how they
  60:Generated_Source\PSoC6\pdl\drivers\peripheral\profile/cy_profile.h **** * should be used.
  61:Generated_Source\PSoC6\pdl\drivers\peripheral\profile/cy_profile.h **** *
  62:Generated_Source\PSoC6\pdl\drivers\peripheral\profile/cy_profile.h **** * \subsection group_profile_measurement_types Measurement Types
  63:Generated_Source\PSoC6\pdl\drivers\peripheral\profile/cy_profile.h **** *
  64:Generated_Source\PSoC6\pdl\drivers\peripheral\profile/cy_profile.h **** * Depending on the item of interest, energy measurement can be performed by using
  65:Generated_Source\PSoC6\pdl\drivers\peripheral\profile/cy_profile.h **** * the following methods.
  66:Generated_Source\PSoC6\pdl\drivers\peripheral\profile/cy_profile.h **** *
  67:Generated_Source\PSoC6\pdl\drivers\peripheral\profile/cy_profile.h **** * - Continuous measurement: A profile counter can be assigned a monitor signal of
  68:Generated_Source\PSoC6\pdl\drivers\peripheral\profile/cy_profile.h **** *   constant 1 (PROFILE_ONE), which sets the counter to increment at every (assigned)
  69:Generated_Source\PSoC6\pdl\drivers\peripheral\profile/cy_profile.h **** *   clock cycle. This can be used to give a reference time for the measurement window
  70:Generated_Source\PSoC6\pdl\drivers\peripheral\profile/cy_profile.h **** *   and also allows the construction of timestamps. For example, a software controlled
  71:Generated_Source\PSoC6\pdl\drivers\peripheral\profile/cy_profile.h **** *   GPIO can be "timestamped" by reading the counter value (on the fly) before it is
  72:Generated_Source\PSoC6\pdl\drivers\peripheral\profile/cy_profile.h **** *   toggled. When the measurement window ends, the energy contribution caused by the
  73:Generated_Source\PSoC6\pdl\drivers\peripheral\profile/cy_profile.h **** *   GPIO toggle can be incorporated into the final calculation.
  74:Generated_Source\PSoC6\pdl\drivers\peripheral\profile/cy_profile.h **** *
  75:Generated_Source\PSoC6\pdl\drivers\peripheral\profile/cy_profile.h **** * - Event measurement: Monitored events happening in a measurement window can be 
  76:Generated_Source\PSoC6\pdl\drivers\peripheral\profile/cy_profile.h **** *   used to increment a profile counter. This gives the activity numbers, which can
  77:Generated_Source\PSoC6\pdl\drivers\peripheral\profile/cy_profile.h **** *   then be multiplied by the instantaneous power numbers associated with the source
  78:Generated_Source\PSoC6\pdl\drivers\peripheral\profile/cy_profile.h **** *   to give the average energy consumption (Energy = Power x time). For example, the 
  79:Generated_Source\PSoC6\pdl\drivers\peripheral\profile/cy_profile.h **** *   energy consumed by an Operating System (OS) task can be estimated by monitoring
  80:Generated_Source\PSoC6\pdl\drivers\peripheral\profile/cy_profile.h **** *   the processor's active cycle count (E.g. CPUSS_MONITOR_CM4) and the flash read
  81:Generated_Source\PSoC6\pdl\drivers\peripheral\profile/cy_profile.h **** *   accesses (CPUSS_MONITOR_FLASH). Note that these activity numbers can also be 
  82:Generated_Source\PSoC6\pdl\drivers\peripheral\profile/cy_profile.h **** *   timestamped using the continuous measurement method to differentiate between the
  83:Generated_Source\PSoC6\pdl\drivers\peripheral\profile/cy_profile.h **** *   different task switches. The activity numbers are then multiplied by the associated
  84:Generated_Source\PSoC6\pdl\drivers\peripheral\profile/cy_profile.h **** *   processor and flash access power numbers to give the average energy consumed by
  85:Generated_Source\PSoC6\pdl\drivers\peripheral\profile/cy_profile.h **** *   that task.
  86:Generated_Source\PSoC6\pdl\drivers\peripheral\profile/cy_profile.h **** *
  87:Generated_Source\PSoC6\pdl\drivers\peripheral\profile/cy_profile.h **** * - Duration measurement: A peripheral event such as the SMIF select signal can be 
  88:Generated_Source\PSoC6\pdl\drivers\peripheral\profile/cy_profile.h **** *   used by a profile counter to measure the time spent on XIP communication through the 
ARM GAS  C:\Users\JC\AppData\Local\Temp\ccZlMrPB.s 			page 3


  89:Generated_Source\PSoC6\pdl\drivers\peripheral\profile/cy_profile.h **** *   SPI interface. This activity number can then be multiplied by the power associated
  90:Generated_Source\PSoC6\pdl\drivers\peripheral\profile/cy_profile.h **** *   with that activity to give the average energy consumed by that block during the
  91:Generated_Source\PSoC6\pdl\drivers\peripheral\profile/cy_profile.h **** *   measurement window. This type of monitoring should be performed only for signals
  92:Generated_Source\PSoC6\pdl\drivers\peripheral\profile/cy_profile.h **** *   that are difficult to track in software. For example, a combination of interrupts
  93:Generated_Source\PSoC6\pdl\drivers\peripheral\profile/cy_profile.h **** *   and timestamps can be used to track the activity of many peripherals in a continuous
  94:Generated_Source\PSoC6\pdl\drivers\peripheral\profile/cy_profile.h **** *   monitoring model. However tracking the activity of signals such the BLE radio
  95:Generated_Source\PSoC6\pdl\drivers\peripheral\profile/cy_profile.h **** *   should be done using the duration measurement method.
  96:Generated_Source\PSoC6\pdl\drivers\peripheral\profile/cy_profile.h **** *
  97:Generated_Source\PSoC6\pdl\drivers\peripheral\profile/cy_profile.h **** * - Low power measurement: The profile counters do not support measurement during chip 
  98:Generated_Source\PSoC6\pdl\drivers\peripheral\profile/cy_profile.h **** *   Deep Sleep, Hibernate, and off states. I.e. the profile counters are meant for active
  99:Generated_Source\PSoC6\pdl\drivers\peripheral\profile/cy_profile.h **** *   run-time measurements only. To measure the time spent in low power modes (LPM),
 100:Generated_Source\PSoC6\pdl\drivers\peripheral\profile/cy_profile.h **** *   a real-time clock (RTC) should be used. Take a timestamp before LPM entry and a 
 101:Generated_Source\PSoC6\pdl\drivers\peripheral\profile/cy_profile.h **** *   timestamp upon LPM exit in a continuous measurement model. Then multiply the difference
 102:Generated_Source\PSoC6\pdl\drivers\peripheral\profile/cy_profile.h **** *   by the appropriate LPM power numbers.
 103:Generated_Source\PSoC6\pdl\drivers\peripheral\profile/cy_profile.h **** *
 104:Generated_Source\PSoC6\pdl\drivers\peripheral\profile/cy_profile.h **** * \subsection group_profile_usage Driver Usage
 105:Generated_Source\PSoC6\pdl\drivers\peripheral\profile/cy_profile.h **** *
 106:Generated_Source\PSoC6\pdl\drivers\peripheral\profile/cy_profile.h **** * At the highest level, the energy profiler must perform the following steps to 
 107:Generated_Source\PSoC6\pdl\drivers\peripheral\profile/cy_profile.h **** * obtain a measurement:
 108:Generated_Source\PSoC6\pdl\drivers\peripheral\profile/cy_profile.h **** *
 109:Generated_Source\PSoC6\pdl\drivers\peripheral\profile/cy_profile.h **** *  1. Initialize the profile hardware block.
 110:Generated_Source\PSoC6\pdl\drivers\peripheral\profile/cy_profile.h **** *  2. Initialize the profile interrupt (profile_interrupt_IRQn).
 111:Generated_Source\PSoC6\pdl\drivers\peripheral\profile/cy_profile.h **** *  3. Configure, initialize, and enable the profile counters.
 112:Generated_Source\PSoC6\pdl\drivers\peripheral\profile/cy_profile.h **** *  4. Enable the profile interrupt and start the profiling/measurement window.
 113:Generated_Source\PSoC6\pdl\drivers\peripheral\profile/cy_profile.h **** *  5. Perform run-time reads of the counters (if needed).
 114:Generated_Source\PSoC6\pdl\drivers\peripheral\profile/cy_profile.h **** *  6. Disable the profile interrupt and stop the profiling/measurement window.
 115:Generated_Source\PSoC6\pdl\drivers\peripheral\profile/cy_profile.h **** *  7. Read the counters and gather the results.
 116:Generated_Source\PSoC6\pdl\drivers\peripheral\profile/cy_profile.h **** *  8. Calculate the energy consumption.
 117:Generated_Source\PSoC6\pdl\drivers\peripheral\profile/cy_profile.h **** *
 118:Generated_Source\PSoC6\pdl\drivers\peripheral\profile/cy_profile.h **** * Refer to the SysInt driver on the details of configuring the profile hardware interrupt.
 119:Generated_Source\PSoC6\pdl\drivers\peripheral\profile/cy_profile.h **** *
 120:Generated_Source\PSoC6\pdl\drivers\peripheral\profile/cy_profile.h **** * The profile interrupt triggers when a counter overflow event is detected on any of the
 121:Generated_Source\PSoC6\pdl\drivers\peripheral\profile/cy_profile.h **** * enabled profile counters. A sample interrupt service routine Cy_Profile_ISR() is provided,
 122:Generated_Source\PSoC6\pdl\drivers\peripheral\profile/cy_profile.h **** * which can be used to update the internal counter states stored in RAM. Refer to the
 123:Generated_Source\PSoC6\pdl\drivers\peripheral\profile/cy_profile.h **** * Configuration Considerations for more information.
 124:Generated_Source\PSoC6\pdl\drivers\peripheral\profile/cy_profile.h **** *
 125:Generated_Source\PSoC6\pdl\drivers\peripheral\profile/cy_profile.h **** * \section group_profile_configuration Configuration Considerations
 126:Generated_Source\PSoC6\pdl\drivers\peripheral\profile/cy_profile.h **** * 
 127:Generated_Source\PSoC6\pdl\drivers\peripheral\profile/cy_profile.h **** * Each counter is a 32-bit register that counts either a number of clock cycles, 
 128:Generated_Source\PSoC6\pdl\drivers\peripheral\profile/cy_profile.h **** * or a number of events. Overflowing the 32-bit register is possible. To address
 129:Generated_Source\PSoC6\pdl\drivers\peripheral\profile/cy_profile.h **** * this issue, the driver implements a 32-bit overflow counter. Combined with the 32-bit
 130:Generated_Source\PSoC6\pdl\drivers\peripheral\profile/cy_profile.h **** * register, this gives a 64-bit counter for each monitored source. 
 131:Generated_Source\PSoC6\pdl\drivers\peripheral\profile/cy_profile.h **** *
 132:Generated_Source\PSoC6\pdl\drivers\peripheral\profile/cy_profile.h **** * When an overflow occurs, the profile hardware generates an interrupt. The interrupt is 
 133:Generated_Source\PSoC6\pdl\drivers\peripheral\profile/cy_profile.h **** * configured using the SysInt driver, where the sample interrupt handler Cy_Profile_ISR()
 134:Generated_Source\PSoC6\pdl\drivers\peripheral\profile/cy_profile.h **** * can be used as the ISR. The ISR increments the overflow counter for each profiling counter 
 135:Generated_Source\PSoC6\pdl\drivers\peripheral\profile/cy_profile.h **** * and clears the interrupt.
 136:Generated_Source\PSoC6\pdl\drivers\peripheral\profile/cy_profile.h **** *
 137:Generated_Source\PSoC6\pdl\drivers\peripheral\profile/cy_profile.h **** * \section group_profile_more_information More Information
 138:Generated_Source\PSoC6\pdl\drivers\peripheral\profile/cy_profile.h **** *
 139:Generated_Source\PSoC6\pdl\drivers\peripheral\profile/cy_profile.h **** * See the profiler chapter of the device technical reference manual (TRM).
 140:Generated_Source\PSoC6\pdl\drivers\peripheral\profile/cy_profile.h **** *
 141:Generated_Source\PSoC6\pdl\drivers\peripheral\profile/cy_profile.h **** * \section group_profile_MISRA MISRA-C Compliance
 142:Generated_Source\PSoC6\pdl\drivers\peripheral\profile/cy_profile.h **** * <table class="doxtable">
 143:Generated_Source\PSoC6\pdl\drivers\peripheral\profile/cy_profile.h **** *   <tr>
 144:Generated_Source\PSoC6\pdl\drivers\peripheral\profile/cy_profile.h **** *     <th>MISRA Rule</th>
 145:Generated_Source\PSoC6\pdl\drivers\peripheral\profile/cy_profile.h **** *     <th>Rule Class (Required/Advisory)</th>
ARM GAS  C:\Users\JC\AppData\Local\Temp\ccZlMrPB.s 			page 4


 146:Generated_Source\PSoC6\pdl\drivers\peripheral\profile/cy_profile.h **** *     <th>Rule Description</th>
 147:Generated_Source\PSoC6\pdl\drivers\peripheral\profile/cy_profile.h **** *     <th>Description of Deviation(s)</th>
 148:Generated_Source\PSoC6\pdl\drivers\peripheral\profile/cy_profile.h **** *   </tr>
 149:Generated_Source\PSoC6\pdl\drivers\peripheral\profile/cy_profile.h **** *   <tr>
 150:Generated_Source\PSoC6\pdl\drivers\peripheral\profile/cy_profile.h **** *     <td>12.4</td>
 151:Generated_Source\PSoC6\pdl\drivers\peripheral\profile/cy_profile.h **** *     <td>R</td>
 152:Generated_Source\PSoC6\pdl\drivers\peripheral\profile/cy_profile.h **** *     <td>Right hand operand of '&&' or '||' is an expression with possible side effects.</td>
 153:Generated_Source\PSoC6\pdl\drivers\peripheral\profile/cy_profile.h **** *     <td>Function-like macros are used to achieve more efficient code.</td>
 154:Generated_Source\PSoC6\pdl\drivers\peripheral\profile/cy_profile.h **** *   </tr>
 155:Generated_Source\PSoC6\pdl\drivers\peripheral\profile/cy_profile.h **** *   <tr>
 156:Generated_Source\PSoC6\pdl\drivers\peripheral\profile/cy_profile.h **** *     <td>16.7</td>
 157:Generated_Source\PSoC6\pdl\drivers\peripheral\profile/cy_profile.h **** *     <td>A</td>
 158:Generated_Source\PSoC6\pdl\drivers\peripheral\profile/cy_profile.h **** *     <td>A pointer parameter can be of type 'pointer to const'.</td>
 159:Generated_Source\PSoC6\pdl\drivers\peripheral\profile/cy_profile.h **** *     <td>The pointer is cast for comparison purposes and thus can't be a const.</td>
 160:Generated_Source\PSoC6\pdl\drivers\peripheral\profile/cy_profile.h **** *   </tr>
 161:Generated_Source\PSoC6\pdl\drivers\peripheral\profile/cy_profile.h **** * </table>
 162:Generated_Source\PSoC6\pdl\drivers\peripheral\profile/cy_profile.h **** *
 163:Generated_Source\PSoC6\pdl\drivers\peripheral\profile/cy_profile.h **** * \section group_profile_changelog Changelog
 164:Generated_Source\PSoC6\pdl\drivers\peripheral\profile/cy_profile.h **** * <table class="doxtable">
 165:Generated_Source\PSoC6\pdl\drivers\peripheral\profile/cy_profile.h **** *   <tr><th>Version</th><th>Changes</th><th>Reason for Change</th></tr>
 166:Generated_Source\PSoC6\pdl\drivers\peripheral\profile/cy_profile.h **** *   <tr>
 167:Generated_Source\PSoC6\pdl\drivers\peripheral\profile/cy_profile.h **** *     <td rowspan="3">1.10</td>
 168:Generated_Source\PSoC6\pdl\drivers\peripheral\profile/cy_profile.h **** *     <td>Flattened the organization of the driver source code into the single source directory and
 169:Generated_Source\PSoC6\pdl\drivers\peripheral\profile/cy_profile.h **** *     <td>Driver library directory-structure simplification.</td>
 170:Generated_Source\PSoC6\pdl\drivers\peripheral\profile/cy_profile.h **** *   </tr>
 171:Generated_Source\PSoC6\pdl\drivers\peripheral\profile/cy_profile.h **** *   <tr>
 172:Generated_Source\PSoC6\pdl\drivers\peripheral\profile/cy_profile.h **** *     <td>Added register access layer. Use register access macros instead
 173:Generated_Source\PSoC6\pdl\drivers\peripheral\profile/cy_profile.h **** *         of direct register access using dereferenced pointers.</td>
 174:Generated_Source\PSoC6\pdl\drivers\peripheral\profile/cy_profile.h **** *     <td>Makes register access device-independent, so that the PDL does 
 175:Generated_Source\PSoC6\pdl\drivers\peripheral\profile/cy_profile.h **** *         not need to be recompiled for each supported part number.</td>
 176:Generated_Source\PSoC6\pdl\drivers\peripheral\profile/cy_profile.h **** *   </tr>
 177:Generated_Source\PSoC6\pdl\drivers\peripheral\profile/cy_profile.h **** *   <tr>
 178:Generated_Source\PSoC6\pdl\drivers\peripheral\profile/cy_profile.h **** *     <td>Added parameter check asserts.</td>
 179:Generated_Source\PSoC6\pdl\drivers\peripheral\profile/cy_profile.h **** *     <td>Driver defect fix.</td>
 180:Generated_Source\PSoC6\pdl\drivers\peripheral\profile/cy_profile.h **** *   </tr>
 181:Generated_Source\PSoC6\pdl\drivers\peripheral\profile/cy_profile.h **** *   <tr>
 182:Generated_Source\PSoC6\pdl\drivers\peripheral\profile/cy_profile.h **** *     <td>1.0</td>
 183:Generated_Source\PSoC6\pdl\drivers\peripheral\profile/cy_profile.h **** *     <td>Initial version</td>
 184:Generated_Source\PSoC6\pdl\drivers\peripheral\profile/cy_profile.h **** *     <td></td>
 185:Generated_Source\PSoC6\pdl\drivers\peripheral\profile/cy_profile.h **** *   </tr>
 186:Generated_Source\PSoC6\pdl\drivers\peripheral\profile/cy_profile.h **** * </table>
 187:Generated_Source\PSoC6\pdl\drivers\peripheral\profile/cy_profile.h **** *
 188:Generated_Source\PSoC6\pdl\drivers\peripheral\profile/cy_profile.h **** * \defgroup group_profile_macros Macros
 189:Generated_Source\PSoC6\pdl\drivers\peripheral\profile/cy_profile.h **** * \defgroup group_profile_functions Functions
 190:Generated_Source\PSoC6\pdl\drivers\peripheral\profile/cy_profile.h **** * \{
 191:Generated_Source\PSoC6\pdl\drivers\peripheral\profile/cy_profile.h **** *   \defgroup group_profile_functions_interrupt    Interrupt Functions
 192:Generated_Source\PSoC6\pdl\drivers\peripheral\profile/cy_profile.h **** *   \defgroup group_profile_functions_general      General Functions
 193:Generated_Source\PSoC6\pdl\drivers\peripheral\profile/cy_profile.h **** *   \defgroup group_profile_functions_counter      Counter Functions
 194:Generated_Source\PSoC6\pdl\drivers\peripheral\profile/cy_profile.h **** *   \defgroup group_profile_functions_calculation  Calculation Functions
 195:Generated_Source\PSoC6\pdl\drivers\peripheral\profile/cy_profile.h **** * \}
 196:Generated_Source\PSoC6\pdl\drivers\peripheral\profile/cy_profile.h **** * \defgroup group_profile_data_structures Data Structures
 197:Generated_Source\PSoC6\pdl\drivers\peripheral\profile/cy_profile.h **** * \defgroup group_profile_enums Enumerated Types
 198:Generated_Source\PSoC6\pdl\drivers\peripheral\profile/cy_profile.h **** */
 199:Generated_Source\PSoC6\pdl\drivers\peripheral\profile/cy_profile.h **** 
 200:Generated_Source\PSoC6\pdl\drivers\peripheral\profile/cy_profile.h **** #if !defined(CY_PROFILE_H)
 201:Generated_Source\PSoC6\pdl\drivers\peripheral\profile/cy_profile.h **** #define CY_PROFILE_H
 202:Generated_Source\PSoC6\pdl\drivers\peripheral\profile/cy_profile.h **** 
ARM GAS  C:\Users\JC\AppData\Local\Temp\ccZlMrPB.s 			page 5


 203:Generated_Source\PSoC6\pdl\drivers\peripheral\profile/cy_profile.h **** #include "cy_device.h"
 204:Generated_Source\PSoC6\pdl\drivers\peripheral\profile/cy_profile.h **** #include "cy_device_headers.h"
 205:Generated_Source\PSoC6\pdl\drivers\peripheral\profile/cy_profile.h **** #include "cy_syslib.h"
 206:Generated_Source\PSoC6\pdl\drivers\peripheral\profile/cy_profile.h **** #include <stddef.h>
 207:Generated_Source\PSoC6\pdl\drivers\peripheral\profile/cy_profile.h **** 
 208:Generated_Source\PSoC6\pdl\drivers\peripheral\profile/cy_profile.h **** #ifdef CY_IP_MXPROFILE
 209:Generated_Source\PSoC6\pdl\drivers\peripheral\profile/cy_profile.h **** 
 210:Generated_Source\PSoC6\pdl\drivers\peripheral\profile/cy_profile.h **** #if defined(__cplusplus)
 211:Generated_Source\PSoC6\pdl\drivers\peripheral\profile/cy_profile.h **** extern "C" {
 212:Generated_Source\PSoC6\pdl\drivers\peripheral\profile/cy_profile.h **** #endif /* __cplusplus */
 213:Generated_Source\PSoC6\pdl\drivers\peripheral\profile/cy_profile.h **** 
 214:Generated_Source\PSoC6\pdl\drivers\peripheral\profile/cy_profile.h **** /** \addtogroup group_profile_macros
 215:Generated_Source\PSoC6\pdl\drivers\peripheral\profile/cy_profile.h **** * \{
 216:Generated_Source\PSoC6\pdl\drivers\peripheral\profile/cy_profile.h **** */
 217:Generated_Source\PSoC6\pdl\drivers\peripheral\profile/cy_profile.h **** 
 218:Generated_Source\PSoC6\pdl\drivers\peripheral\profile/cy_profile.h **** /** Driver major version */
 219:Generated_Source\PSoC6\pdl\drivers\peripheral\profile/cy_profile.h **** #define CY_PROFILE_DRV_VERSION_MAJOR  1
 220:Generated_Source\PSoC6\pdl\drivers\peripheral\profile/cy_profile.h **** 
 221:Generated_Source\PSoC6\pdl\drivers\peripheral\profile/cy_profile.h **** /** Driver minor version */
 222:Generated_Source\PSoC6\pdl\drivers\peripheral\profile/cy_profile.h **** #define CY_PROFILE_DRV_VERSION_MINOR  10
 223:Generated_Source\PSoC6\pdl\drivers\peripheral\profile/cy_profile.h **** 
 224:Generated_Source\PSoC6\pdl\drivers\peripheral\profile/cy_profile.h **** /** Profile driver identifier */
 225:Generated_Source\PSoC6\pdl\drivers\peripheral\profile/cy_profile.h **** #define CY_PROFILE_ID   CY_PDL_DRV_ID(0x1EU)
 226:Generated_Source\PSoC6\pdl\drivers\peripheral\profile/cy_profile.h **** 
 227:Generated_Source\PSoC6\pdl\drivers\peripheral\profile/cy_profile.h **** /** Start profiling command for the CMD register */
 228:Generated_Source\PSoC6\pdl\drivers\peripheral\profile/cy_profile.h **** #define CY_PROFILE_START_TR    1UL  
 229:Generated_Source\PSoC6\pdl\drivers\peripheral\profile/cy_profile.h **** 
 230:Generated_Source\PSoC6\pdl\drivers\peripheral\profile/cy_profile.h **** /** Stop profiling command for the CMD register */
 231:Generated_Source\PSoC6\pdl\drivers\peripheral\profile/cy_profile.h **** #define CY_PROFILE_STOP_TR     2UL  
 232:Generated_Source\PSoC6\pdl\drivers\peripheral\profile/cy_profile.h **** 
 233:Generated_Source\PSoC6\pdl\drivers\peripheral\profile/cy_profile.h **** /** Command to clear all counter registers to 0 */
 234:Generated_Source\PSoC6\pdl\drivers\peripheral\profile/cy_profile.h **** #define CY_PROFILE_CLR_ALL_CNT 0x100UL
 235:Generated_Source\PSoC6\pdl\drivers\peripheral\profile/cy_profile.h **** 
 236:Generated_Source\PSoC6\pdl\drivers\peripheral\profile/cy_profile.h **** /** \} group_profile_macros */
 237:Generated_Source\PSoC6\pdl\drivers\peripheral\profile/cy_profile.h **** 
 238:Generated_Source\PSoC6\pdl\drivers\peripheral\profile/cy_profile.h **** /***************************************
 239:Generated_Source\PSoC6\pdl\drivers\peripheral\profile/cy_profile.h **** *        Constants
 240:Generated_Source\PSoC6\pdl\drivers\peripheral\profile/cy_profile.h **** ***************************************/
 241:Generated_Source\PSoC6\pdl\drivers\peripheral\profile/cy_profile.h **** 
 242:Generated_Source\PSoC6\pdl\drivers\peripheral\profile/cy_profile.h **** /** \cond INTERNAL */
 243:Generated_Source\PSoC6\pdl\drivers\peripheral\profile/cy_profile.h **** 
 244:Generated_Source\PSoC6\pdl\drivers\peripheral\profile/cy_profile.h **** #define CY_PROFILE_PRFL_CNT_NR                  (8u)
 245:Generated_Source\PSoC6\pdl\drivers\peripheral\profile/cy_profile.h **** 
 246:Generated_Source\PSoC6\pdl\drivers\peripheral\profile/cy_profile.h **** /* Parameter check macros */
 247:Generated_Source\PSoC6\pdl\drivers\peripheral\profile/cy_profile.h **** #define CY_PROFILE_IS_MONITOR_VALID(monitor)    ((uint32_t)CY_EP_MONITOR_COUNT > ((uint32_t)(monito
 248:Generated_Source\PSoC6\pdl\drivers\peripheral\profile/cy_profile.h **** #define CY_PROFILE_IS_DURATION_VALID(duration)  (((duration) == CY_PROFILE_EVENT) || \
 249:Generated_Source\PSoC6\pdl\drivers\peripheral\profile/cy_profile.h ****                                                  ((duration) == CY_PROFILE_DURATION))
 250:Generated_Source\PSoC6\pdl\drivers\peripheral\profile/cy_profile.h **** #define CY_PROFILE_IS_REFCLK_VALID(refClk)      (((refClk) == CY_PROFILE_CLK_TIMER) || \
 251:Generated_Source\PSoC6\pdl\drivers\peripheral\profile/cy_profile.h ****                                                  ((refClk) == CY_PROFILE_CLK_IMO) || \
 252:Generated_Source\PSoC6\pdl\drivers\peripheral\profile/cy_profile.h ****                                                  ((refClk) == CY_PROFILE_CLK_ECO) || \
 253:Generated_Source\PSoC6\pdl\drivers\peripheral\profile/cy_profile.h ****                                                  ((refClk) == CY_PROFILE_CLK_LF) || \
 254:Generated_Source\PSoC6\pdl\drivers\peripheral\profile/cy_profile.h ****                                                  ((refClk) == CY_PROFILE_CLK_HF) || \
 255:Generated_Source\PSoC6\pdl\drivers\peripheral\profile/cy_profile.h ****                                                  ((refClk) == CY_PROFILE_CLK_PERI))
 256:Generated_Source\PSoC6\pdl\drivers\peripheral\profile/cy_profile.h **** #define CY_PROFILE_IS_CNT_VALID(numCounters)    ((uint32_t)CY_PROFILE_PRFL_CNT_NR > (numCounters))
 257:Generated_Source\PSoC6\pdl\drivers\peripheral\profile/cy_profile.h **** 
 258:Generated_Source\PSoC6\pdl\drivers\peripheral\profile/cy_profile.h **** /** \endcond */
 259:Generated_Source\PSoC6\pdl\drivers\peripheral\profile/cy_profile.h **** 
ARM GAS  C:\Users\JC\AppData\Local\Temp\ccZlMrPB.s 			page 6


 260:Generated_Source\PSoC6\pdl\drivers\peripheral\profile/cy_profile.h **** /***************************************
 261:Generated_Source\PSoC6\pdl\drivers\peripheral\profile/cy_profile.h **** *        Enumerations
 262:Generated_Source\PSoC6\pdl\drivers\peripheral\profile/cy_profile.h **** ***************************************/
 263:Generated_Source\PSoC6\pdl\drivers\peripheral\profile/cy_profile.h **** 
 264:Generated_Source\PSoC6\pdl\drivers\peripheral\profile/cy_profile.h **** /**
 265:Generated_Source\PSoC6\pdl\drivers\peripheral\profile/cy_profile.h **** * \addtogroup group_profile_enums
 266:Generated_Source\PSoC6\pdl\drivers\peripheral\profile/cy_profile.h **** * \{
 267:Generated_Source\PSoC6\pdl\drivers\peripheral\profile/cy_profile.h **** */
 268:Generated_Source\PSoC6\pdl\drivers\peripheral\profile/cy_profile.h **** 
 269:Generated_Source\PSoC6\pdl\drivers\peripheral\profile/cy_profile.h **** /**
 270:Generated_Source\PSoC6\pdl\drivers\peripheral\profile/cy_profile.h **** * Profile counter reference clock source. Used when duration monitoring.
 271:Generated_Source\PSoC6\pdl\drivers\peripheral\profile/cy_profile.h **** */
 272:Generated_Source\PSoC6\pdl\drivers\peripheral\profile/cy_profile.h **** typedef enum 
 273:Generated_Source\PSoC6\pdl\drivers\peripheral\profile/cy_profile.h **** {
 274:Generated_Source\PSoC6\pdl\drivers\peripheral\profile/cy_profile.h ****     CY_PROFILE_CLK_TIMER  = 0, /**< Timer clock (TimerClk) */
 275:Generated_Source\PSoC6\pdl\drivers\peripheral\profile/cy_profile.h ****     CY_PROFILE_CLK_IMO    = 1, /**< Internal main oscillator (IMO) */
 276:Generated_Source\PSoC6\pdl\drivers\peripheral\profile/cy_profile.h ****     CY_PROFILE_CLK_ECO    = 2, /**< External crystal oscillator (ECO) */
 277:Generated_Source\PSoC6\pdl\drivers\peripheral\profile/cy_profile.h ****     CY_PROFILE_CLK_LF     = 3, /**< Low-frequency clock (LFCLK) */
 278:Generated_Source\PSoC6\pdl\drivers\peripheral\profile/cy_profile.h ****     CY_PROFILE_CLK_HF     = 4, /**< High-Frequency clock (HFCLK0) */
 279:Generated_Source\PSoC6\pdl\drivers\peripheral\profile/cy_profile.h ****     CY_PROFILE_CLK_PERI   = 5, /**< Peripheral clock (PeriClk) */
 280:Generated_Source\PSoC6\pdl\drivers\peripheral\profile/cy_profile.h **** } cy_en_profile_ref_clk_t;
 281:Generated_Source\PSoC6\pdl\drivers\peripheral\profile/cy_profile.h **** 
 282:Generated_Source\PSoC6\pdl\drivers\peripheral\profile/cy_profile.h **** /**
 283:Generated_Source\PSoC6\pdl\drivers\peripheral\profile/cy_profile.h **** * Monitor method type.
 284:Generated_Source\PSoC6\pdl\drivers\peripheral\profile/cy_profile.h **** */
 285:Generated_Source\PSoC6\pdl\drivers\peripheral\profile/cy_profile.h **** typedef enum 
 286:Generated_Source\PSoC6\pdl\drivers\peripheral\profile/cy_profile.h **** {
 287:Generated_Source\PSoC6\pdl\drivers\peripheral\profile/cy_profile.h ****     CY_PROFILE_EVENT    = 0,  /**< Count (edge-detected) module events  */
 288:Generated_Source\PSoC6\pdl\drivers\peripheral\profile/cy_profile.h ****     CY_PROFILE_DURATION = 1,  /**< Count (level) duration in clock cycles */
 289:Generated_Source\PSoC6\pdl\drivers\peripheral\profile/cy_profile.h **** } cy_en_profile_duration_t;
 290:Generated_Source\PSoC6\pdl\drivers\peripheral\profile/cy_profile.h **** 
 291:Generated_Source\PSoC6\pdl\drivers\peripheral\profile/cy_profile.h **** /** Profiler status codes */
 292:Generated_Source\PSoC6\pdl\drivers\peripheral\profile/cy_profile.h **** typedef enum 
 293:Generated_Source\PSoC6\pdl\drivers\peripheral\profile/cy_profile.h **** {
 294:Generated_Source\PSoC6\pdl\drivers\peripheral\profile/cy_profile.h ****     CY_PROFILE_SUCCESS = 0x00U,                                      /**< Operation completed succe
 295:Generated_Source\PSoC6\pdl\drivers\peripheral\profile/cy_profile.h ****     CY_PROFILE_BAD_PARAM = CY_PROFILE_ID | CY_PDL_STATUS_ERROR | 1UL /**< Invalid input parameters 
 296:Generated_Source\PSoC6\pdl\drivers\peripheral\profile/cy_profile.h **** 
 297:Generated_Source\PSoC6\pdl\drivers\peripheral\profile/cy_profile.h ****  } cy_en_profile_status_t;
 298:Generated_Source\PSoC6\pdl\drivers\peripheral\profile/cy_profile.h **** 
 299:Generated_Source\PSoC6\pdl\drivers\peripheral\profile/cy_profile.h ****  /** \} group_profile_enums */
 300:Generated_Source\PSoC6\pdl\drivers\peripheral\profile/cy_profile.h **** 
 301:Generated_Source\PSoC6\pdl\drivers\peripheral\profile/cy_profile.h **** /***************************************
 302:Generated_Source\PSoC6\pdl\drivers\peripheral\profile/cy_profile.h **** *       Configuration Structures
 303:Generated_Source\PSoC6\pdl\drivers\peripheral\profile/cy_profile.h **** ***************************************/
 304:Generated_Source\PSoC6\pdl\drivers\peripheral\profile/cy_profile.h **** 
 305:Generated_Source\PSoC6\pdl\drivers\peripheral\profile/cy_profile.h **** /**
 306:Generated_Source\PSoC6\pdl\drivers\peripheral\profile/cy_profile.h **** * \addtogroup group_profile_data_structures
 307:Generated_Source\PSoC6\pdl\drivers\peripheral\profile/cy_profile.h **** * \{
 308:Generated_Source\PSoC6\pdl\drivers\peripheral\profile/cy_profile.h **** */
 309:Generated_Source\PSoC6\pdl\drivers\peripheral\profile/cy_profile.h **** 
 310:Generated_Source\PSoC6\pdl\drivers\peripheral\profile/cy_profile.h **** /**
 311:Generated_Source\PSoC6\pdl\drivers\peripheral\profile/cy_profile.h **** * Profile counter control register structure. For each counter, holds the CTL register fields.
 312:Generated_Source\PSoC6\pdl\drivers\peripheral\profile/cy_profile.h **** */
 313:Generated_Source\PSoC6\pdl\drivers\peripheral\profile/cy_profile.h **** typedef struct
 314:Generated_Source\PSoC6\pdl\drivers\peripheral\profile/cy_profile.h **** {
 315:Generated_Source\PSoC6\pdl\drivers\peripheral\profile/cy_profile.h ****     cy_en_profile_duration_t  cntDuration; /**< 0 = event; 1 = duration */
 316:Generated_Source\PSoC6\pdl\drivers\peripheral\profile/cy_profile.h ****     cy_en_profile_ref_clk_t   refClkSel;   /**< The reference clock used by the counter */
ARM GAS  C:\Users\JC\AppData\Local\Temp\ccZlMrPB.s 			page 7


 317:Generated_Source\PSoC6\pdl\drivers\peripheral\profile/cy_profile.h ****     en_ep_mon_sel_t           monSel;      /**< The monitor signal to be observed by the counter */
 318:Generated_Source\PSoC6\pdl\drivers\peripheral\profile/cy_profile.h **** } cy_stc_profile_ctr_ctl_t; 
 319:Generated_Source\PSoC6\pdl\drivers\peripheral\profile/cy_profile.h **** 
 320:Generated_Source\PSoC6\pdl\drivers\peripheral\profile/cy_profile.h **** /**
 321:Generated_Source\PSoC6\pdl\drivers\peripheral\profile/cy_profile.h **** * Software structure for holding a profile counter status and configuration information.
 322:Generated_Source\PSoC6\pdl\drivers\peripheral\profile/cy_profile.h **** */
 323:Generated_Source\PSoC6\pdl\drivers\peripheral\profile/cy_profile.h **** typedef struct
 324:Generated_Source\PSoC6\pdl\drivers\peripheral\profile/cy_profile.h **** {
 325:Generated_Source\PSoC6\pdl\drivers\peripheral\profile/cy_profile.h ****     uint8_t                   ctrNum;      /**< Profile counter number */ 
 326:Generated_Source\PSoC6\pdl\drivers\peripheral\profile/cy_profile.h ****     uint8_t                   used;        /**< 0 = available; 1 = used */
 327:Generated_Source\PSoC6\pdl\drivers\peripheral\profile/cy_profile.h ****     cy_stc_profile_ctr_ctl_t  ctlRegVals;  /**< Initial counter CTL register settings */
 328:Generated_Source\PSoC6\pdl\drivers\peripheral\profile/cy_profile.h ****     PROFILE_CNT_STRUCT_Type * cntAddr;     /**< Base address of the counter instance registers */
 329:Generated_Source\PSoC6\pdl\drivers\peripheral\profile/cy_profile.h ****     uint32_t                  ctlReg;      /**< Current CTL register value */
 330:Generated_Source\PSoC6\pdl\drivers\peripheral\profile/cy_profile.h ****     uint32_t                  cntReg;      /**< Current CNT register value */
 331:Generated_Source\PSoC6\pdl\drivers\peripheral\profile/cy_profile.h ****     uint32_t                  overflow;    /**< Extension of cntReg to form a 64-bit counter value 
 332:Generated_Source\PSoC6\pdl\drivers\peripheral\profile/cy_profile.h ****     uint32_t                  weight;      /**< Weighting factor for the counter */
 333:Generated_Source\PSoC6\pdl\drivers\peripheral\profile/cy_profile.h **** } cy_stc_profile_ctr_t;
 334:Generated_Source\PSoC6\pdl\drivers\peripheral\profile/cy_profile.h **** 
 335:Generated_Source\PSoC6\pdl\drivers\peripheral\profile/cy_profile.h **** /**
 336:Generated_Source\PSoC6\pdl\drivers\peripheral\profile/cy_profile.h **** * Pointer to a structure holding the status information for a profile counter.
 337:Generated_Source\PSoC6\pdl\drivers\peripheral\profile/cy_profile.h **** */
 338:Generated_Source\PSoC6\pdl\drivers\peripheral\profile/cy_profile.h **** typedef cy_stc_profile_ctr_t * cy_stc_profile_ctr_ptr_t;
 339:Generated_Source\PSoC6\pdl\drivers\peripheral\profile/cy_profile.h **** /** \} group_profile_data_structures */
 340:Generated_Source\PSoC6\pdl\drivers\peripheral\profile/cy_profile.h **** 
 341:Generated_Source\PSoC6\pdl\drivers\peripheral\profile/cy_profile.h **** /**
 342:Generated_Source\PSoC6\pdl\drivers\peripheral\profile/cy_profile.h **** * \addtogroup group_profile_functions
 343:Generated_Source\PSoC6\pdl\drivers\peripheral\profile/cy_profile.h **** * \{
 344:Generated_Source\PSoC6\pdl\drivers\peripheral\profile/cy_profile.h **** */
 345:Generated_Source\PSoC6\pdl\drivers\peripheral\profile/cy_profile.h **** 
 346:Generated_Source\PSoC6\pdl\drivers\peripheral\profile/cy_profile.h **** /**
 347:Generated_Source\PSoC6\pdl\drivers\peripheral\profile/cy_profile.h **** * \addtogroup group_profile_functions_interrupt
 348:Generated_Source\PSoC6\pdl\drivers\peripheral\profile/cy_profile.h **** * \{
 349:Generated_Source\PSoC6\pdl\drivers\peripheral\profile/cy_profile.h **** */
 350:Generated_Source\PSoC6\pdl\drivers\peripheral\profile/cy_profile.h **** /* ========================================================================== */
 351:Generated_Source\PSoC6\pdl\drivers\peripheral\profile/cy_profile.h **** /* ====================    INTERRUPT FUNCTION SECTION    ==================== */
 352:Generated_Source\PSoC6\pdl\drivers\peripheral\profile/cy_profile.h **** /* ========================================================================== */
 353:Generated_Source\PSoC6\pdl\drivers\peripheral\profile/cy_profile.h **** void Cy_Profile_ISR(void);
 354:Generated_Source\PSoC6\pdl\drivers\peripheral\profile/cy_profile.h **** /** \} group_profile_functions_interrupt */
 355:Generated_Source\PSoC6\pdl\drivers\peripheral\profile/cy_profile.h **** 
 356:Generated_Source\PSoC6\pdl\drivers\peripheral\profile/cy_profile.h **** /**
 357:Generated_Source\PSoC6\pdl\drivers\peripheral\profile/cy_profile.h **** * \addtogroup group_profile_functions_general
 358:Generated_Source\PSoC6\pdl\drivers\peripheral\profile/cy_profile.h **** * \{
 359:Generated_Source\PSoC6\pdl\drivers\peripheral\profile/cy_profile.h **** */
 360:Generated_Source\PSoC6\pdl\drivers\peripheral\profile/cy_profile.h **** __STATIC_INLINE void Cy_Profile_Init(void);
 361:Generated_Source\PSoC6\pdl\drivers\peripheral\profile/cy_profile.h **** __STATIC_INLINE void Cy_Profile_DeInit(void);
 362:Generated_Source\PSoC6\pdl\drivers\peripheral\profile/cy_profile.h ****                 void Cy_Profile_StartProfiling(void);
 363:Generated_Source\PSoC6\pdl\drivers\peripheral\profile/cy_profile.h **** __STATIC_INLINE void Cy_Profile_StopProfiling(void);
 364:Generated_Source\PSoC6\pdl\drivers\peripheral\profile/cy_profile.h **** __STATIC_INLINE uint32_t Cy_Profile_IsProfiling(void);
 365:Generated_Source\PSoC6\pdl\drivers\peripheral\profile/cy_profile.h **** 
 366:Generated_Source\PSoC6\pdl\drivers\peripheral\profile/cy_profile.h **** 
 367:Generated_Source\PSoC6\pdl\drivers\peripheral\profile/cy_profile.h **** /* ========================================================================== */
 368:Generated_Source\PSoC6\pdl\drivers\peripheral\profile/cy_profile.h **** /* ===============    GENERAL PROFILE FUNCTIONS SECTION     ================= */
 369:Generated_Source\PSoC6\pdl\drivers\peripheral\profile/cy_profile.h **** /* ========================================================================== */
 370:Generated_Source\PSoC6\pdl\drivers\peripheral\profile/cy_profile.h **** /*******************************************************************************
 371:Generated_Source\PSoC6\pdl\drivers\peripheral\profile/cy_profile.h **** * Function Name: Cy_Profile_Init
 372:Generated_Source\PSoC6\pdl\drivers\peripheral\profile/cy_profile.h **** ****************************************************************************//**
 373:Generated_Source\PSoC6\pdl\drivers\peripheral\profile/cy_profile.h **** *
ARM GAS  C:\Users\JC\AppData\Local\Temp\ccZlMrPB.s 			page 8


 374:Generated_Source\PSoC6\pdl\drivers\peripheral\profile/cy_profile.h **** * Initializes and enables the profile hardware. 
 375:Generated_Source\PSoC6\pdl\drivers\peripheral\profile/cy_profile.h **** *
 376:Generated_Source\PSoC6\pdl\drivers\peripheral\profile/cy_profile.h **** * This function must be called once when energy profiling is desired. The 
 377:Generated_Source\PSoC6\pdl\drivers\peripheral\profile/cy_profile.h **** * operation does not start a profiling session.
 378:Generated_Source\PSoC6\pdl\drivers\peripheral\profile/cy_profile.h **** *
 379:Generated_Source\PSoC6\pdl\drivers\peripheral\profile/cy_profile.h **** * \note The profile interrupt must also be configured. \ref Cy_Profile_ISR() 
 380:Generated_Source\PSoC6\pdl\drivers\peripheral\profile/cy_profile.h **** * can be used as its handler.
 381:Generated_Source\PSoC6\pdl\drivers\peripheral\profile/cy_profile.h **** *
 382:Generated_Source\PSoC6\pdl\drivers\peripheral\profile/cy_profile.h **** * \funcusage
 383:Generated_Source\PSoC6\pdl\drivers\peripheral\profile/cy_profile.h **** * \snippet profile/profile_v1_0_sut_01.cydsn/main_cm4.c snippet_Cy_Profile_Init
 384:Generated_Source\PSoC6\pdl\drivers\peripheral\profile/cy_profile.h **** *
 385:Generated_Source\PSoC6\pdl\drivers\peripheral\profile/cy_profile.h **** *******************************************************************************/
 386:Generated_Source\PSoC6\pdl\drivers\peripheral\profile/cy_profile.h **** __STATIC_INLINE void Cy_Profile_Init(void)
 387:Generated_Source\PSoC6\pdl\drivers\peripheral\profile/cy_profile.h **** {
 388:Generated_Source\PSoC6\pdl\drivers\peripheral\profile/cy_profile.h ****     PROFILE_CTL = _VAL2FLD(PROFILE_CTL_ENABLED,  1UL/*enabled */) | 
 389:Generated_Source\PSoC6\pdl\drivers\peripheral\profile/cy_profile.h ****                   _VAL2FLD(PROFILE_CTL_WIN_MODE, 0UL/*start/stop mode*/);
 390:Generated_Source\PSoC6\pdl\drivers\peripheral\profile/cy_profile.h ****     PROFILE_INTR_MASK = 0UL; /* clear all counter interrupt mask bits */
 391:Generated_Source\PSoC6\pdl\drivers\peripheral\profile/cy_profile.h **** }
 392:Generated_Source\PSoC6\pdl\drivers\peripheral\profile/cy_profile.h **** 
 393:Generated_Source\PSoC6\pdl\drivers\peripheral\profile/cy_profile.h **** 
 394:Generated_Source\PSoC6\pdl\drivers\peripheral\profile/cy_profile.h **** /*******************************************************************************
 395:Generated_Source\PSoC6\pdl\drivers\peripheral\profile/cy_profile.h **** * Function Name: Cy_Profile_DeInit
 396:Generated_Source\PSoC6\pdl\drivers\peripheral\profile/cy_profile.h **** ****************************************************************************//**
 397:Generated_Source\PSoC6\pdl\drivers\peripheral\profile/cy_profile.h **** *
 398:Generated_Source\PSoC6\pdl\drivers\peripheral\profile/cy_profile.h **** * Clears the interrupt mask and disables the profile hardware. 
 399:Generated_Source\PSoC6\pdl\drivers\peripheral\profile/cy_profile.h **** *
 400:Generated_Source\PSoC6\pdl\drivers\peripheral\profile/cy_profile.h **** * This function should be called when energy profiling is no longer desired.
 401:Generated_Source\PSoC6\pdl\drivers\peripheral\profile/cy_profile.h **** *
 402:Generated_Source\PSoC6\pdl\drivers\peripheral\profile/cy_profile.h **** * \note The profile interrupt is not disabled by this operation and must be
 403:Generated_Source\PSoC6\pdl\drivers\peripheral\profile/cy_profile.h **** * disabled separately.
 404:Generated_Source\PSoC6\pdl\drivers\peripheral\profile/cy_profile.h **** *
 405:Generated_Source\PSoC6\pdl\drivers\peripheral\profile/cy_profile.h **** * \funcusage
 406:Generated_Source\PSoC6\pdl\drivers\peripheral\profile/cy_profile.h **** * \snippet profile/profile_v1_0_sut_01.cydsn/main_cm4.c snippet_Cy_Profile_DeInit
 407:Generated_Source\PSoC6\pdl\drivers\peripheral\profile/cy_profile.h **** *
 408:Generated_Source\PSoC6\pdl\drivers\peripheral\profile/cy_profile.h **** *******************************************************************************/
 409:Generated_Source\PSoC6\pdl\drivers\peripheral\profile/cy_profile.h **** __STATIC_INLINE void Cy_Profile_DeInit(void)
 410:Generated_Source\PSoC6\pdl\drivers\peripheral\profile/cy_profile.h **** {
 411:Generated_Source\PSoC6\pdl\drivers\peripheral\profile/cy_profile.h ****     PROFILE_CTL = _VAL2FLD(PROFILE_CTL_ENABLED, 0UL/*disabled */);
 412:Generated_Source\PSoC6\pdl\drivers\peripheral\profile/cy_profile.h ****     PROFILE_INTR_MASK = 0UL; /* clear all counter interrupt mask bits */
 413:Generated_Source\PSoC6\pdl\drivers\peripheral\profile/cy_profile.h **** }
 414:Generated_Source\PSoC6\pdl\drivers\peripheral\profile/cy_profile.h **** 
 415:Generated_Source\PSoC6\pdl\drivers\peripheral\profile/cy_profile.h **** 
 416:Generated_Source\PSoC6\pdl\drivers\peripheral\profile/cy_profile.h **** /*******************************************************************************
 417:Generated_Source\PSoC6\pdl\drivers\peripheral\profile/cy_profile.h **** * Function Name: Cy_Profile_StopProfiling
 418:Generated_Source\PSoC6\pdl\drivers\peripheral\profile/cy_profile.h **** ****************************************************************************//**
 419:Generated_Source\PSoC6\pdl\drivers\peripheral\profile/cy_profile.h **** *
 420:Generated_Source\PSoC6\pdl\drivers\peripheral\profile/cy_profile.h **** * Stops the profiling/measurement window.
 421:Generated_Source\PSoC6\pdl\drivers\peripheral\profile/cy_profile.h **** *
 422:Generated_Source\PSoC6\pdl\drivers\peripheral\profile/cy_profile.h **** * This operation prevents the enabled profile counters from counting.
 423:Generated_Source\PSoC6\pdl\drivers\peripheral\profile/cy_profile.h **** *
 424:Generated_Source\PSoC6\pdl\drivers\peripheral\profile/cy_profile.h **** * \note The profile interrupt should be disabled before calling this function.
 425:Generated_Source\PSoC6\pdl\drivers\peripheral\profile/cy_profile.h **** *
 426:Generated_Source\PSoC6\pdl\drivers\peripheral\profile/cy_profile.h **** * \funcusage
 427:Generated_Source\PSoC6\pdl\drivers\peripheral\profile/cy_profile.h **** * \snippet profile/profile_v1_0_sut_01.cydsn/main_cm4.c snippet_Cy_Profile_StopProfiling
 428:Generated_Source\PSoC6\pdl\drivers\peripheral\profile/cy_profile.h **** *
 429:Generated_Source\PSoC6\pdl\drivers\peripheral\profile/cy_profile.h **** *******************************************************************************/
 430:Generated_Source\PSoC6\pdl\drivers\peripheral\profile/cy_profile.h **** __STATIC_INLINE void Cy_Profile_StopProfiling(void)
ARM GAS  C:\Users\JC\AppData\Local\Temp\ccZlMrPB.s 			page 9


 431:Generated_Source\PSoC6\pdl\drivers\peripheral\profile/cy_profile.h **** {
 432:Generated_Source\PSoC6\pdl\drivers\peripheral\profile/cy_profile.h ****     PROFILE_CMD = CY_PROFILE_STOP_TR;
 433:Generated_Source\PSoC6\pdl\drivers\peripheral\profile/cy_profile.h **** }
 434:Generated_Source\PSoC6\pdl\drivers\peripheral\profile/cy_profile.h **** 
 435:Generated_Source\PSoC6\pdl\drivers\peripheral\profile/cy_profile.h **** 
 436:Generated_Source\PSoC6\pdl\drivers\peripheral\profile/cy_profile.h **** /*******************************************************************************
 437:Generated_Source\PSoC6\pdl\drivers\peripheral\profile/cy_profile.h **** * Function Name: Cy_Profile_IsProfiling
 438:Generated_Source\PSoC6\pdl\drivers\peripheral\profile/cy_profile.h **** ****************************************************************************//**
 439:Generated_Source\PSoC6\pdl\drivers\peripheral\profile/cy_profile.h **** *
 440:Generated_Source\PSoC6\pdl\drivers\peripheral\profile/cy_profile.h **** * Reports the active status of the profiling window.
 441:Generated_Source\PSoC6\pdl\drivers\peripheral\profile/cy_profile.h **** *
 442:Generated_Source\PSoC6\pdl\drivers\peripheral\profile/cy_profile.h **** * \return 0 = profiling is not active; 1 = profiling is active
 443:Generated_Source\PSoC6\pdl\drivers\peripheral\profile/cy_profile.h **** *
 444:Generated_Source\PSoC6\pdl\drivers\peripheral\profile/cy_profile.h **** * \funcusage
 445:Generated_Source\PSoC6\pdl\drivers\peripheral\profile/cy_profile.h **** * \snippet profile/profile_v1_0_sut_01.cydsn/main_cm4.c snippet_Cy_Profile_IsProfiling
 446:Generated_Source\PSoC6\pdl\drivers\peripheral\profile/cy_profile.h **** *
 447:Generated_Source\PSoC6\pdl\drivers\peripheral\profile/cy_profile.h **** *******************************************************************************/
 448:Generated_Source\PSoC6\pdl\drivers\peripheral\profile/cy_profile.h **** __STATIC_INLINE uint32_t Cy_Profile_IsProfiling(void)
 449:Generated_Source\PSoC6\pdl\drivers\peripheral\profile/cy_profile.h **** {
 450:Generated_Source\PSoC6\pdl\drivers\peripheral\profile/cy_profile.h ****     return _FLD2VAL(PROFILE_STATUS_WIN_ACTIVE, PROFILE_STATUS);
 451:Generated_Source\PSoC6\pdl\drivers\peripheral\profile/cy_profile.h **** }
 452:Generated_Source\PSoC6\pdl\drivers\peripheral\profile/cy_profile.h **** /** \} group_profile_functions_general */
 453:Generated_Source\PSoC6\pdl\drivers\peripheral\profile/cy_profile.h **** 
 454:Generated_Source\PSoC6\pdl\drivers\peripheral\profile/cy_profile.h **** /**
 455:Generated_Source\PSoC6\pdl\drivers\peripheral\profile/cy_profile.h **** * \addtogroup group_profile_functions_counter
 456:Generated_Source\PSoC6\pdl\drivers\peripheral\profile/cy_profile.h **** * \{
 457:Generated_Source\PSoC6\pdl\drivers\peripheral\profile/cy_profile.h **** */
 458:Generated_Source\PSoC6\pdl\drivers\peripheral\profile/cy_profile.h **** void Cy_Profile_ClearConfiguration(void);
 459:Generated_Source\PSoC6\pdl\drivers\peripheral\profile/cy_profile.h **** __STATIC_INLINE void Cy_Profile_ClearCounters(void);
 460:Generated_Source\PSoC6\pdl\drivers\peripheral\profile/cy_profile.h **** cy_stc_profile_ctr_ptr_t Cy_Profile_ConfigureCounter(en_ep_mon_sel_t monitor, cy_en_profile_duratio
 461:Generated_Source\PSoC6\pdl\drivers\peripheral\profile/cy_profile.h **** cy_en_profile_status_t Cy_Profile_FreeCounter(cy_stc_profile_ctr_ptr_t ctrAddr);
 462:Generated_Source\PSoC6\pdl\drivers\peripheral\profile/cy_profile.h **** cy_en_profile_status_t Cy_Profile_EnableCounter(cy_stc_profile_ctr_ptr_t ctrAddr);
 463:Generated_Source\PSoC6\pdl\drivers\peripheral\profile/cy_profile.h **** cy_en_profile_status_t Cy_Profile_DisableCounter(cy_stc_profile_ctr_ptr_t ctrAddr);
 464:Generated_Source\PSoC6\pdl\drivers\peripheral\profile/cy_profile.h **** 
 465:Generated_Source\PSoC6\pdl\drivers\peripheral\profile/cy_profile.h **** /* ========================================================================== */
 466:Generated_Source\PSoC6\pdl\drivers\peripheral\profile/cy_profile.h **** /* ===================    COUNTER FUNCTIONS SECTION    ====================== */
 467:Generated_Source\PSoC6\pdl\drivers\peripheral\profile/cy_profile.h **** /* ========================================================================== */
 468:Generated_Source\PSoC6\pdl\drivers\peripheral\profile/cy_profile.h **** /*******************************************************************************
 469:Generated_Source\PSoC6\pdl\drivers\peripheral\profile/cy_profile.h **** * Function Name: Cy_Profile_ClearCounters
 470:Generated_Source\PSoC6\pdl\drivers\peripheral\profile/cy_profile.h **** ****************************************************************************//**
 471:Generated_Source\PSoC6\pdl\drivers\peripheral\profile/cy_profile.h **** *
 472:Generated_Source\PSoC6\pdl\drivers\peripheral\profile/cy_profile.h **** * Clears all hardware counters to 0.
 473:Generated_Source\PSoC6\pdl\drivers\peripheral\profile/cy_profile.h **** *
 474:Generated_Source\PSoC6\pdl\drivers\peripheral\profile/cy_profile.h **** * \funcusage
 475:Generated_Source\PSoC6\pdl\drivers\peripheral\profile/cy_profile.h **** * \snippet profile/profile_v1_0_sut_01.cydsn/main_cm4.c snippet_Cy_Profile_ClearCounters
 476:Generated_Source\PSoC6\pdl\drivers\peripheral\profile/cy_profile.h **** *
 477:Generated_Source\PSoC6\pdl\drivers\peripheral\profile/cy_profile.h **** *******************************************************************************/
 478:Generated_Source\PSoC6\pdl\drivers\peripheral\profile/cy_profile.h **** __STATIC_INLINE void Cy_Profile_ClearCounters(void)
 479:Generated_Source\PSoC6\pdl\drivers\peripheral\profile/cy_profile.h **** {
  27              		.loc 1 479 0
  28              		.cfi_startproc
  29              		@ args = 0, pretend = 0, frame = 0
  30              		@ frame_needed = 1, uses_anonymous_args = 0
  31 0000 80B5     		push	{r7, lr}
  32              		.cfi_def_cfa_offset 8
  33              		.cfi_offset 7, -8
  34              		.cfi_offset 14, -4
ARM GAS  C:\Users\JC\AppData\Local\Temp\ccZlMrPB.s 			page 10


  35 0002 00AF     		add	r7, sp, #0
  36              		.cfi_def_cfa_register 7
 480:Generated_Source\PSoC6\pdl\drivers\peripheral\profile/cy_profile.h ****     PROFILE_CMD = CY_PROFILE_CLR_ALL_CNT;
  37              		.loc 1 480 0
  38 0004 034B     		ldr	r3, .L2
  39 0006 8022     		movs	r2, #128
  40 0008 5200     		lsls	r2, r2, #1
  41 000a 1A61     		str	r2, [r3, #16]
 481:Generated_Source\PSoC6\pdl\drivers\peripheral\profile/cy_profile.h **** }
  42              		.loc 1 481 0
  43 000c C046     		nop
  44 000e BD46     		mov	sp, r7
  45              		@ sp needed
  46 0010 80BD     		pop	{r7, pc}
  47              	.L3:
  48 0012 C046     		.align	2
  49              	.L2:
  50 0014 00002D40 		.word	1076690944
  51              		.cfi_endproc
  52              	.LFE49:
  53              		.size	Cy_Profile_ClearCounters, .-Cy_Profile_ClearCounters
  54              		.bss
  55              		.align	2
  56              	cy_ep_ctrs:
  57 0000 00000000 		.space	224
  57      00000000 
  57      00000000 
  57      00000000 
  57      00000000 
  58              		.section	.text.Cy_Profile_IsPtrValid,"ax",%progbits
  59              		.align	2
  60              		.code	16
  61              		.thumb_func
  62              		.type	Cy_Profile_IsPtrValid, %function
  63              	Cy_Profile_IsPtrValid:
  64              	.LFB50:
  65              		.file 2 "Generated_Source\\PSoC6\\pdl\\drivers\\peripheral\\profile\\cy_profile.c"
   1:Generated_Source\PSoC6\pdl\drivers\peripheral\profile/cy_profile.c **** /***************************************************************************//** 
   2:Generated_Source\PSoC6\pdl\drivers\peripheral\profile/cy_profile.c **** * \file cy_profile.c
   3:Generated_Source\PSoC6\pdl\drivers\peripheral\profile/cy_profile.c **** * \version 1.10
   4:Generated_Source\PSoC6\pdl\drivers\peripheral\profile/cy_profile.c **** * 
   5:Generated_Source\PSoC6\pdl\drivers\peripheral\profile/cy_profile.c **** * Provides an API declaration of the energy profiler (EP) driver. 
   6:Generated_Source\PSoC6\pdl\drivers\peripheral\profile/cy_profile.c **** *
   7:Generated_Source\PSoC6\pdl\drivers\peripheral\profile/cy_profile.c **** ******************************************************************************** 
   8:Generated_Source\PSoC6\pdl\drivers\peripheral\profile/cy_profile.c **** * \copyright 
   9:Generated_Source\PSoC6\pdl\drivers\peripheral\profile/cy_profile.c **** * Copyright 2016-2018, Cypress Semiconductor Corporation. All rights reserved. 
  10:Generated_Source\PSoC6\pdl\drivers\peripheral\profile/cy_profile.c **** * You may use this file only in accordance with the license, terms, conditions, 
  11:Generated_Source\PSoC6\pdl\drivers\peripheral\profile/cy_profile.c **** * disclaimers, and limitations in the end user license agreement accompanying 
  12:Generated_Source\PSoC6\pdl\drivers\peripheral\profile/cy_profile.c **** * the software package with which this file was provided.
  13:Generated_Source\PSoC6\pdl\drivers\peripheral\profile/cy_profile.c **** *******************************************************************************/
  14:Generated_Source\PSoC6\pdl\drivers\peripheral\profile/cy_profile.c **** 
  15:Generated_Source\PSoC6\pdl\drivers\peripheral\profile/cy_profile.c **** #include "cy_profile.h"
  16:Generated_Source\PSoC6\pdl\drivers\peripheral\profile/cy_profile.c **** #include <string.h>
  17:Generated_Source\PSoC6\pdl\drivers\peripheral\profile/cy_profile.c **** 
  18:Generated_Source\PSoC6\pdl\drivers\peripheral\profile/cy_profile.c **** #ifdef CY_IP_MXPROFILE
  19:Generated_Source\PSoC6\pdl\drivers\peripheral\profile/cy_profile.c **** 
  20:Generated_Source\PSoC6\pdl\drivers\peripheral\profile/cy_profile.c **** #if defined(__cplusplus)
ARM GAS  C:\Users\JC\AppData\Local\Temp\ccZlMrPB.s 			page 11


  21:Generated_Source\PSoC6\pdl\drivers\peripheral\profile/cy_profile.c **** extern "C" {
  22:Generated_Source\PSoC6\pdl\drivers\peripheral\profile/cy_profile.c **** #endif /* __cplusplus */
  23:Generated_Source\PSoC6\pdl\drivers\peripheral\profile/cy_profile.c **** 
  24:Generated_Source\PSoC6\pdl\drivers\peripheral\profile/cy_profile.c **** /* Number of elements in an array */
  25:Generated_Source\PSoC6\pdl\drivers\peripheral\profile/cy_profile.c **** #define CY_N_ELMTS(a) (sizeof(a)/sizeof((a)[0]))
  26:Generated_Source\PSoC6\pdl\drivers\peripheral\profile/cy_profile.c **** 
  27:Generated_Source\PSoC6\pdl\drivers\peripheral\profile/cy_profile.c **** static cy_en_profile_status_t Cy_Profile_IsPtrValid(const cy_stc_profile_ctr_ptr_t ctrAddr);
  28:Generated_Source\PSoC6\pdl\drivers\peripheral\profile/cy_profile.c **** 
  29:Generated_Source\PSoC6\pdl\drivers\peripheral\profile/cy_profile.c **** /* Internal structure - Control and status information for each counter */
  30:Generated_Source\PSoC6\pdl\drivers\peripheral\profile/cy_profile.c **** static cy_stc_profile_ctr_t cy_ep_ctrs[CY_PROFILE_PRFL_CNT_NR];
  31:Generated_Source\PSoC6\pdl\drivers\peripheral\profile/cy_profile.c **** 
  32:Generated_Source\PSoC6\pdl\drivers\peripheral\profile/cy_profile.c **** 
  33:Generated_Source\PSoC6\pdl\drivers\peripheral\profile/cy_profile.c **** /* ========================================================================== */
  34:Generated_Source\PSoC6\pdl\drivers\peripheral\profile/cy_profile.c **** /* =====================     LOCAL FUNCTION SECTION    ====================== */
  35:Generated_Source\PSoC6\pdl\drivers\peripheral\profile/cy_profile.c **** /* ========================================================================== */
  36:Generated_Source\PSoC6\pdl\drivers\peripheral\profile/cy_profile.c **** /*******************************************************************************
  37:Generated_Source\PSoC6\pdl\drivers\peripheral\profile/cy_profile.c **** * Function Name: Cy_Profile_IsPtrValid
  38:Generated_Source\PSoC6\pdl\drivers\peripheral\profile/cy_profile.c **** ****************************************************************************//**
  39:Generated_Source\PSoC6\pdl\drivers\peripheral\profile/cy_profile.c **** *
  40:Generated_Source\PSoC6\pdl\drivers\peripheral\profile/cy_profile.c **** * Local utility function: reports (1) whether or not a given pointer points into
  41:Generated_Source\PSoC6\pdl\drivers\peripheral\profile/cy_profile.c **** * the cy_ep_ctrs[] array, and (2) whether the counter has been assigned.
  42:Generated_Source\PSoC6\pdl\drivers\peripheral\profile/cy_profile.c **** *
  43:Generated_Source\PSoC6\pdl\drivers\peripheral\profile/cy_profile.c **** * \param ctrAddr The handle to (address of) the assigned counter
  44:Generated_Source\PSoC6\pdl\drivers\peripheral\profile/cy_profile.c **** * 
  45:Generated_Source\PSoC6\pdl\drivers\peripheral\profile/cy_profile.c **** * \return CY_PROFILE_SUCCESS, or CY_PROFILE_BAD_PARAM for invalid ctrAddr or counter not
  46:Generated_Source\PSoC6\pdl\drivers\peripheral\profile/cy_profile.c **** * in use.
  47:Generated_Source\PSoC6\pdl\drivers\peripheral\profile/cy_profile.c **** *
  48:Generated_Source\PSoC6\pdl\drivers\peripheral\profile/cy_profile.c **** *******************************************************************************/
  49:Generated_Source\PSoC6\pdl\drivers\peripheral\profile/cy_profile.c **** static cy_en_profile_status_t Cy_Profile_IsPtrValid(const cy_stc_profile_ctr_ptr_t ctrAddr)
  50:Generated_Source\PSoC6\pdl\drivers\peripheral\profile/cy_profile.c **** {
  66              		.loc 2 50 0
  67              		.cfi_startproc
  68              		@ args = 0, pretend = 0, frame = 16
  69              		@ frame_needed = 1, uses_anonymous_args = 0
  70 0000 80B5     		push	{r7, lr}
  71              		.cfi_def_cfa_offset 8
  72              		.cfi_offset 7, -8
  73              		.cfi_offset 14, -4
  74 0002 84B0     		sub	sp, sp, #16
  75              		.cfi_def_cfa_offset 24
  76 0004 00AF     		add	r7, sp, #0
  77              		.cfi_def_cfa_register 7
  78 0006 7860     		str	r0, [r7, #4]
  51:Generated_Source\PSoC6\pdl\drivers\peripheral\profile/cy_profile.c ****     cy_en_profile_status_t retStatus = CY_PROFILE_BAD_PARAM;
  79              		.loc 2 51 0
  80 0008 0C4B     		ldr	r3, .L7
  81 000a FB60     		str	r3, [r7, #12]
  52:Generated_Source\PSoC6\pdl\drivers\peripheral\profile/cy_profile.c **** 
  53:Generated_Source\PSoC6\pdl\drivers\peripheral\profile/cy_profile.c ****     /* check for valid ctrAddr */
  54:Generated_Source\PSoC6\pdl\drivers\peripheral\profile/cy_profile.c ****     uint32_t p_epCtrs = (uint32_t)cy_ep_ctrs;
  82              		.loc 2 54 0
  83 000c 0C4B     		ldr	r3, .L7+4
  84 000e BB60     		str	r3, [r7, #8]
  55:Generated_Source\PSoC6\pdl\drivers\peripheral\profile/cy_profile.c ****     if ((p_epCtrs <= (uint32_t)ctrAddr) && ((uint32_t)ctrAddr < (p_epCtrs + (uint32_t)sizeof(cy_ep_
  85              		.loc 2 55 0
  86 0010 7B68     		ldr	r3, [r7, #4]
  87 0012 BA68     		ldr	r2, [r7, #8]
ARM GAS  C:\Users\JC\AppData\Local\Temp\ccZlMrPB.s 			page 12


  88 0014 9A42     		cmp	r2, r3
  89 0016 0BD8     		bhi	.L5
  90              		.loc 2 55 0 is_stmt 0 discriminator 1
  91 0018 BB68     		ldr	r3, [r7, #8]
  92 001a E033     		adds	r3, r3, #224
  93 001c 1A00     		movs	r2, r3
  94 001e 7B68     		ldr	r3, [r7, #4]
  95 0020 9A42     		cmp	r2, r3
  96 0022 05D9     		bls	.L5
  56:Generated_Source\PSoC6\pdl\drivers\peripheral\profile/cy_profile.c ****     {
  57:Generated_Source\PSoC6\pdl\drivers\peripheral\profile/cy_profile.c ****         if (ctrAddr->used != 0u) /* check for counter being used */
  97              		.loc 2 57 0 is_stmt 1
  98 0024 7B68     		ldr	r3, [r7, #4]
  99 0026 5B78     		ldrb	r3, [r3, #1]
 100 0028 002B     		cmp	r3, #0
 101 002a 01D0     		beq	.L5
  58:Generated_Source\PSoC6\pdl\drivers\peripheral\profile/cy_profile.c ****         {
  59:Generated_Source\PSoC6\pdl\drivers\peripheral\profile/cy_profile.c ****             retStatus = CY_PROFILE_SUCCESS;
 102              		.loc 2 59 0
 103 002c 0023     		movs	r3, #0
 104 002e FB60     		str	r3, [r7, #12]
 105              	.L5:
  60:Generated_Source\PSoC6\pdl\drivers\peripheral\profile/cy_profile.c ****         }
  61:Generated_Source\PSoC6\pdl\drivers\peripheral\profile/cy_profile.c ****     }
  62:Generated_Source\PSoC6\pdl\drivers\peripheral\profile/cy_profile.c ****     return (retStatus);
 106              		.loc 2 62 0
 107 0030 FB68     		ldr	r3, [r7, #12]
  63:Generated_Source\PSoC6\pdl\drivers\peripheral\profile/cy_profile.c **** }
 108              		.loc 2 63 0
 109 0032 1800     		movs	r0, r3
 110 0034 BD46     		mov	sp, r7
 111 0036 04B0     		add	sp, sp, #16
 112              		@ sp needed
 113 0038 80BD     		pop	{r7, pc}
 114              	.L8:
 115 003a C046     		.align	2
 116              	.L7:
 117 003c 01007A00 		.word	7995393
 118 0040 00000000 		.word	cy_ep_ctrs
 119              		.cfi_endproc
 120              	.LFE50:
 121              		.size	Cy_Profile_IsPtrValid, .-Cy_Profile_IsPtrValid
 122              		.section	.text.Cy_Profile_ISR,"ax",%progbits
 123              		.align	2
 124              		.global	Cy_Profile_ISR
 125              		.code	16
 126              		.thumb_func
 127              		.type	Cy_Profile_ISR, %function
 128              	Cy_Profile_ISR:
 129              	.LFB51:
  64:Generated_Source\PSoC6\pdl\drivers\peripheral\profile/cy_profile.c **** 
  65:Generated_Source\PSoC6\pdl\drivers\peripheral\profile/cy_profile.c **** 
  66:Generated_Source\PSoC6\pdl\drivers\peripheral\profile/cy_profile.c **** /* ========================================================================== */
  67:Generated_Source\PSoC6\pdl\drivers\peripheral\profile/cy_profile.c **** /* ====================    INTERRUPT FUNCTION SECTION    ==================== */
  68:Generated_Source\PSoC6\pdl\drivers\peripheral\profile/cy_profile.c **** /* ========================================================================== */
  69:Generated_Source\PSoC6\pdl\drivers\peripheral\profile/cy_profile.c **** /*******************************************************************************
  70:Generated_Source\PSoC6\pdl\drivers\peripheral\profile/cy_profile.c **** * Function Name: Cy_Profile_ISR
ARM GAS  C:\Users\JC\AppData\Local\Temp\ccZlMrPB.s 			page 13


  71:Generated_Source\PSoC6\pdl\drivers\peripheral\profile/cy_profile.c **** ****************************************************************************//**
  72:Generated_Source\PSoC6\pdl\drivers\peripheral\profile/cy_profile.c **** *
  73:Generated_Source\PSoC6\pdl\drivers\peripheral\profile/cy_profile.c **** * EP interrupt handler: Increments the overflow member of the counter structure,
  74:Generated_Source\PSoC6\pdl\drivers\peripheral\profile/cy_profile.c **** * for each counter that is in use and has an overflow.
  75:Generated_Source\PSoC6\pdl\drivers\peripheral\profile/cy_profile.c **** *
  76:Generated_Source\PSoC6\pdl\drivers\peripheral\profile/cy_profile.c **** * This handler is not configured or used automatically. You must configure the 
  77:Generated_Source\PSoC6\pdl\drivers\peripheral\profile/cy_profile.c **** * interrupt handler for the EP, using Cy_SysInt_Init(). Typically you configure 
  78:Generated_Source\PSoC6\pdl\drivers\peripheral\profile/cy_profile.c **** * the system to use \ref Cy_Profile_ISR() as the overflow interrupt handler. You
  79:Generated_Source\PSoC6\pdl\drivers\peripheral\profile/cy_profile.c **** * can provide a custom interrupt handler to perform additional operations if
  80:Generated_Source\PSoC6\pdl\drivers\peripheral\profile/cy_profile.c **** * required. Your handler can call \ref Cy_Profile_ISR() to handle counter
  81:Generated_Source\PSoC6\pdl\drivers\peripheral\profile/cy_profile.c **** * overflow. 
  82:Generated_Source\PSoC6\pdl\drivers\peripheral\profile/cy_profile.c **** *
  83:Generated_Source\PSoC6\pdl\drivers\peripheral\profile/cy_profile.c **** *******************************************************************************/
  84:Generated_Source\PSoC6\pdl\drivers\peripheral\profile/cy_profile.c **** void Cy_Profile_ISR(void)
  85:Generated_Source\PSoC6\pdl\drivers\peripheral\profile/cy_profile.c **** {
 130              		.loc 2 85 0
 131              		.cfi_startproc
 132              		@ args = 0, pretend = 0, frame = 8
 133              		@ frame_needed = 1, uses_anonymous_args = 0
 134 0000 80B5     		push	{r7, lr}
 135              		.cfi_def_cfa_offset 8
 136              		.cfi_offset 7, -8
 137              		.cfi_offset 14, -4
 138 0002 82B0     		sub	sp, sp, #8
 139              		.cfi_def_cfa_offset 16
 140 0004 00AF     		add	r7, sp, #0
 141              		.cfi_def_cfa_register 7
  86:Generated_Source\PSoC6\pdl\drivers\peripheral\profile/cy_profile.c ****     uint32_t ctr;
  87:Generated_Source\PSoC6\pdl\drivers\peripheral\profile/cy_profile.c **** 
  88:Generated_Source\PSoC6\pdl\drivers\peripheral\profile/cy_profile.c ****     /* Grab a copy of the overflow register. Each bit in the register indicates
  89:Generated_Source\PSoC6\pdl\drivers\peripheral\profile/cy_profile.c ****        whether or not the respective counter has overflowed. */
  90:Generated_Source\PSoC6\pdl\drivers\peripheral\profile/cy_profile.c ****     uint32_t ovflowBits = _FLD2VAL(PROFILE_INTR_MASKED_CNT_OVFLW, PROFILE_INTR_MASKED);
 142              		.loc 2 90 0
 143 0006 1F4A     		ldr	r2, .L15
 144 0008 1F4B     		ldr	r3, .L15+4
 145 000a D358     		ldr	r3, [r2, r3]
 146 000c 3B60     		str	r3, [r7]
  91:Generated_Source\PSoC6\pdl\drivers\peripheral\profile/cy_profile.c **** 
  92:Generated_Source\PSoC6\pdl\drivers\peripheral\profile/cy_profile.c ****     PROFILE_INTR = ovflowBits; /* clear the sources of the interrupts */
 147              		.loc 2 92 0
 148 000e 1D49     		ldr	r1, .L15
 149 0010 F823     		movs	r3, #248
 150 0012 DB00     		lsls	r3, r3, #3
 151 0014 3A68     		ldr	r2, [r7]
 152 0016 CA50     		str	r2, [r1, r3]
  93:Generated_Source\PSoC6\pdl\drivers\peripheral\profile/cy_profile.c **** 
  94:Generated_Source\PSoC6\pdl\drivers\peripheral\profile/cy_profile.c ****     /* scan through the overflow bits, i.e., for each counter */
  95:Generated_Source\PSoC6\pdl\drivers\peripheral\profile/cy_profile.c ****     for (ctr = 0UL; (ctr < (uint32_t)(CY_PROFILE_PRFL_CNT_NR)) && (ovflowBits != 0UL); ctr++)
 153              		.loc 2 95 0
 154 0018 0023     		movs	r3, #0
 155 001a 7B60     		str	r3, [r7, #4]
 156 001c 27E0     		b	.L10
 157              	.L13:
  96:Generated_Source\PSoC6\pdl\drivers\peripheral\profile/cy_profile.c ****     {
  97:Generated_Source\PSoC6\pdl\drivers\peripheral\profile/cy_profile.c ****         /* Increment the overflow bit only if the counter is being used.
  98:Generated_Source\PSoC6\pdl\drivers\peripheral\profile/cy_profile.c ****            (which should always be the case.) */
  99:Generated_Source\PSoC6\pdl\drivers\peripheral\profile/cy_profile.c ****         if (((ovflowBits & 1UL) != 0UL) && (cy_ep_ctrs[ctr].used != 0u))
ARM GAS  C:\Users\JC\AppData\Local\Temp\ccZlMrPB.s 			page 14


 158              		.loc 2 99 0
 159 001e 3B68     		ldr	r3, [r7]
 160 0020 0122     		movs	r2, #1
 161 0022 1340     		ands	r3, r2
 162 0024 1DD0     		beq	.L11
 163              		.loc 2 99 0 is_stmt 0 discriminator 1
 164 0026 1949     		ldr	r1, .L15+8
 165 0028 7A68     		ldr	r2, [r7, #4]
 166 002a 1300     		movs	r3, r2
 167 002c DB00     		lsls	r3, r3, #3
 168 002e 9B1A     		subs	r3, r3, r2
 169 0030 9B00     		lsls	r3, r3, #2
 170 0032 CB18     		adds	r3, r1, r3
 171 0034 0133     		adds	r3, r3, #1
 172 0036 1B78     		ldrb	r3, [r3]
 173 0038 002B     		cmp	r3, #0
 174 003a 12D0     		beq	.L11
 100:Generated_Source\PSoC6\pdl\drivers\peripheral\profile/cy_profile.c ****         {
 101:Generated_Source\PSoC6\pdl\drivers\peripheral\profile/cy_profile.c ****             cy_ep_ctrs[ctr].overflow++;
 175              		.loc 2 101 0 is_stmt 1
 176 003c 1349     		ldr	r1, .L15+8
 177 003e 7A68     		ldr	r2, [r7, #4]
 178 0040 1300     		movs	r3, r2
 179 0042 DB00     		lsls	r3, r3, #3
 180 0044 9B1A     		subs	r3, r3, r2
 181 0046 9B00     		lsls	r3, r3, #2
 182 0048 CB18     		adds	r3, r1, r3
 183 004a 1433     		adds	r3, r3, #20
 184 004c 1B68     		ldr	r3, [r3]
 185 004e 591C     		adds	r1, r3, #1
 186 0050 0E48     		ldr	r0, .L15+8
 187 0052 7A68     		ldr	r2, [r7, #4]
 188 0054 1300     		movs	r3, r2
 189 0056 DB00     		lsls	r3, r3, #3
 190 0058 9B1A     		subs	r3, r3, r2
 191 005a 9B00     		lsls	r3, r3, #2
 192 005c C318     		adds	r3, r0, r3
 193 005e 1433     		adds	r3, r3, #20
 194 0060 1960     		str	r1, [r3]
 195              	.L11:
 102:Generated_Source\PSoC6\pdl\drivers\peripheral\profile/cy_profile.c ****         }
 103:Generated_Source\PSoC6\pdl\drivers\peripheral\profile/cy_profile.c ****         ovflowBits >>= 1; /* check the next bit, by shifting it into the LS position */
 196              		.loc 2 103 0 discriminator 2
 197 0062 3B68     		ldr	r3, [r7]
 198 0064 5B08     		lsrs	r3, r3, #1
 199 0066 3B60     		str	r3, [r7]
  95:Generated_Source\PSoC6\pdl\drivers\peripheral\profile/cy_profile.c ****     {
 200              		.loc 2 95 0 discriminator 2
 201 0068 7B68     		ldr	r3, [r7, #4]
 202 006a 0133     		adds	r3, r3, #1
 203 006c 7B60     		str	r3, [r7, #4]
 204              	.L10:
  95:Generated_Source\PSoC6\pdl\drivers\peripheral\profile/cy_profile.c ****     {
 205              		.loc 2 95 0 is_stmt 0 discriminator 1
 206 006e 7B68     		ldr	r3, [r7, #4]
 207 0070 072B     		cmp	r3, #7
 208 0072 02D8     		bhi	.L14
ARM GAS  C:\Users\JC\AppData\Local\Temp\ccZlMrPB.s 			page 15


  95:Generated_Source\PSoC6\pdl\drivers\peripheral\profile/cy_profile.c ****     {
 209              		.loc 2 95 0 discriminator 3
 210 0074 3B68     		ldr	r3, [r7]
 211 0076 002B     		cmp	r3, #0
 212 0078 D1D1     		bne	.L13
 213              	.L14:
 104:Generated_Source\PSoC6\pdl\drivers\peripheral\profile/cy_profile.c ****     }
 105:Generated_Source\PSoC6\pdl\drivers\peripheral\profile/cy_profile.c **** }
 214              		.loc 2 105 0 is_stmt 1
 215 007a C046     		nop
 216 007c BD46     		mov	sp, r7
 217 007e 02B0     		add	sp, sp, #8
 218              		@ sp needed
 219 0080 80BD     		pop	{r7, pc}
 220              	.L16:
 221 0082 C046     		.align	2
 222              	.L15:
 223 0084 00002D40 		.word	1076690944
 224 0088 CC070000 		.word	1996
 225 008c 00000000 		.word	cy_ep_ctrs
 226              		.cfi_endproc
 227              	.LFE51:
 228              		.size	Cy_Profile_ISR, .-Cy_Profile_ISR
 229              		.section	.text.Cy_Profile_StartProfiling,"ax",%progbits
 230              		.align	2
 231              		.global	Cy_Profile_StartProfiling
 232              		.code	16
 233              		.thumb_func
 234              		.type	Cy_Profile_StartProfiling, %function
 235              	Cy_Profile_StartProfiling:
 236              	.LFB52:
 106:Generated_Source\PSoC6\pdl\drivers\peripheral\profile/cy_profile.c **** 
 107:Generated_Source\PSoC6\pdl\drivers\peripheral\profile/cy_profile.c **** 
 108:Generated_Source\PSoC6\pdl\drivers\peripheral\profile/cy_profile.c **** /* ========================================================================== */
 109:Generated_Source\PSoC6\pdl\drivers\peripheral\profile/cy_profile.c **** /* ==================      GENERAL PROFILE FUNCTIONS     ==================== */
 110:Generated_Source\PSoC6\pdl\drivers\peripheral\profile/cy_profile.c **** /* ========================================================================== */
 111:Generated_Source\PSoC6\pdl\drivers\peripheral\profile/cy_profile.c **** /*******************************************************************************
 112:Generated_Source\PSoC6\pdl\drivers\peripheral\profile/cy_profile.c **** * Function Name: Cy_Profile_StartProfiling
 113:Generated_Source\PSoC6\pdl\drivers\peripheral\profile/cy_profile.c **** ****************************************************************************//**
 114:Generated_Source\PSoC6\pdl\drivers\peripheral\profile/cy_profile.c **** *
 115:Generated_Source\PSoC6\pdl\drivers\peripheral\profile/cy_profile.c **** * Starts the profiling/measurement window.
 116:Generated_Source\PSoC6\pdl\drivers\peripheral\profile/cy_profile.c **** *
 117:Generated_Source\PSoC6\pdl\drivers\peripheral\profile/cy_profile.c **** * This operation allows the enabled profile counters to start counting.
 118:Generated_Source\PSoC6\pdl\drivers\peripheral\profile/cy_profile.c **** *
 119:Generated_Source\PSoC6\pdl\drivers\peripheral\profile/cy_profile.c **** * \note The profile interrupt should be enabled before calling this function
 120:Generated_Source\PSoC6\pdl\drivers\peripheral\profile/cy_profile.c **** * for the firmware to be notified when a counter overflow occurs.
 121:Generated_Source\PSoC6\pdl\drivers\peripheral\profile/cy_profile.c **** *
 122:Generated_Source\PSoC6\pdl\drivers\peripheral\profile/cy_profile.c **** * \funcusage
 123:Generated_Source\PSoC6\pdl\drivers\peripheral\profile/cy_profile.c **** * \snippet profile/profile_v1_0_sut_01.cydsn/main_cm4.c snippet_Cy_Profile_StartProfiling
 124:Generated_Source\PSoC6\pdl\drivers\peripheral\profile/cy_profile.c **** *
 125:Generated_Source\PSoC6\pdl\drivers\peripheral\profile/cy_profile.c **** *******************************************************************************/
 126:Generated_Source\PSoC6\pdl\drivers\peripheral\profile/cy_profile.c **** void Cy_Profile_StartProfiling(void)
 127:Generated_Source\PSoC6\pdl\drivers\peripheral\profile/cy_profile.c **** {
 237              		.loc 2 127 0
 238              		.cfi_startproc
 239              		@ args = 0, pretend = 0, frame = 8
 240              		@ frame_needed = 1, uses_anonymous_args = 0
ARM GAS  C:\Users\JC\AppData\Local\Temp\ccZlMrPB.s 			page 16


 241 0000 80B5     		push	{r7, lr}
 242              		.cfi_def_cfa_offset 8
 243              		.cfi_offset 7, -8
 244              		.cfi_offset 14, -4
 245 0002 82B0     		sub	sp, sp, #8
 246              		.cfi_def_cfa_offset 16
 247 0004 00AF     		add	r7, sp, #0
 248              		.cfi_def_cfa_register 7
 128:Generated_Source\PSoC6\pdl\drivers\peripheral\profile/cy_profile.c ****     uint32_t i;
 129:Generated_Source\PSoC6\pdl\drivers\peripheral\profile/cy_profile.c **** 
 130:Generated_Source\PSoC6\pdl\drivers\peripheral\profile/cy_profile.c ****     /* clear all of the counter array overflow variables */
 131:Generated_Source\PSoC6\pdl\drivers\peripheral\profile/cy_profile.c ****     for (i = 0UL; i < CY_N_ELMTS(cy_ep_ctrs); cy_ep_ctrs[i++].overflow = 0UL){}
 249              		.loc 2 131 0
 250 0006 0023     		movs	r3, #0
 251 0008 7B60     		str	r3, [r7, #4]
 252 000a 0BE0     		b	.L18
 253              	.L19:
 254              		.loc 2 131 0 is_stmt 0 discriminator 3
 255 000c 7A68     		ldr	r2, [r7, #4]
 256 000e 531C     		adds	r3, r2, #1
 257 0010 7B60     		str	r3, [r7, #4]
 258 0012 0949     		ldr	r1, .L20
 259 0014 1300     		movs	r3, r2
 260 0016 DB00     		lsls	r3, r3, #3
 261 0018 9B1A     		subs	r3, r3, r2
 262 001a 9B00     		lsls	r3, r3, #2
 263 001c CB18     		adds	r3, r1, r3
 264 001e 1433     		adds	r3, r3, #20
 265 0020 0022     		movs	r2, #0
 266 0022 1A60     		str	r2, [r3]
 267              	.L18:
 268              		.loc 2 131 0 discriminator 1
 269 0024 7B68     		ldr	r3, [r7, #4]
 270 0026 072B     		cmp	r3, #7
 271 0028 F0D9     		bls	.L19
 132:Generated_Source\PSoC6\pdl\drivers\peripheral\profile/cy_profile.c ****     /* send the hardware command */
 133:Generated_Source\PSoC6\pdl\drivers\peripheral\profile/cy_profile.c ****     PROFILE_CMD = CY_PROFILE_START_TR;
 272              		.loc 2 133 0 is_stmt 1
 273 002a 044B     		ldr	r3, .L20+4
 274 002c 0122     		movs	r2, #1
 275 002e 1A61     		str	r2, [r3, #16]
 134:Generated_Source\PSoC6\pdl\drivers\peripheral\profile/cy_profile.c **** }
 276              		.loc 2 134 0
 277 0030 C046     		nop
 278 0032 BD46     		mov	sp, r7
 279 0034 02B0     		add	sp, sp, #8
 280              		@ sp needed
 281 0036 80BD     		pop	{r7, pc}
 282              	.L21:
 283              		.align	2
 284              	.L20:
 285 0038 00000000 		.word	cy_ep_ctrs
 286 003c 00002D40 		.word	1076690944
 287              		.cfi_endproc
 288              	.LFE52:
 289              		.size	Cy_Profile_StartProfiling, .-Cy_Profile_StartProfiling
 290              		.section	.text.Cy_Profile_ClearConfiguration,"ax",%progbits
ARM GAS  C:\Users\JC\AppData\Local\Temp\ccZlMrPB.s 			page 17


 291              		.align	2
 292              		.global	Cy_Profile_ClearConfiguration
 293              		.code	16
 294              		.thumb_func
 295              		.type	Cy_Profile_ClearConfiguration, %function
 296              	Cy_Profile_ClearConfiguration:
 297              	.LFB53:
 135:Generated_Source\PSoC6\pdl\drivers\peripheral\profile/cy_profile.c **** 
 136:Generated_Source\PSoC6\pdl\drivers\peripheral\profile/cy_profile.c **** 
 137:Generated_Source\PSoC6\pdl\drivers\peripheral\profile/cy_profile.c **** /* ========================================================================== */
 138:Generated_Source\PSoC6\pdl\drivers\peripheral\profile/cy_profile.c **** /* ===================    COUNTER FUNCTIONS SECTION    ====================== */
 139:Generated_Source\PSoC6\pdl\drivers\peripheral\profile/cy_profile.c **** /* ========================================================================== */
 140:Generated_Source\PSoC6\pdl\drivers\peripheral\profile/cy_profile.c **** /*******************************************************************************
 141:Generated_Source\PSoC6\pdl\drivers\peripheral\profile/cy_profile.c **** * Function Name: Cy_Profile_ClearConfiguration
 142:Generated_Source\PSoC6\pdl\drivers\peripheral\profile/cy_profile.c **** ****************************************************************************//**
 143:Generated_Source\PSoC6\pdl\drivers\peripheral\profile/cy_profile.c **** *
 144:Generated_Source\PSoC6\pdl\drivers\peripheral\profile/cy_profile.c **** * Clears all counter configurations and sets all counters and overflow counters 
 145:Generated_Source\PSoC6\pdl\drivers\peripheral\profile/cy_profile.c **** * to 0. Calls Cy_Profile_ClearCounters() to clear counter registers.
 146:Generated_Source\PSoC6\pdl\drivers\peripheral\profile/cy_profile.c **** *
 147:Generated_Source\PSoC6\pdl\drivers\peripheral\profile/cy_profile.c **** * \funcusage
 148:Generated_Source\PSoC6\pdl\drivers\peripheral\profile/cy_profile.c **** * \snippet profile/profile_v1_0_sut_01.cydsn/main_cm4.c snippet_Cy_Profile_ClearConfiguration
 149:Generated_Source\PSoC6\pdl\drivers\peripheral\profile/cy_profile.c **** *
 150:Generated_Source\PSoC6\pdl\drivers\peripheral\profile/cy_profile.c **** *******************************************************************************/
 151:Generated_Source\PSoC6\pdl\drivers\peripheral\profile/cy_profile.c **** void Cy_Profile_ClearConfiguration(void)
 152:Generated_Source\PSoC6\pdl\drivers\peripheral\profile/cy_profile.c **** {
 298              		.loc 2 152 0
 299              		.cfi_startproc
 300              		@ args = 0, pretend = 0, frame = 0
 301              		@ frame_needed = 1, uses_anonymous_args = 0
 302 0000 80B5     		push	{r7, lr}
 303              		.cfi_def_cfa_offset 8
 304              		.cfi_offset 7, -8
 305              		.cfi_offset 14, -4
 306 0002 00AF     		add	r7, sp, #0
 307              		.cfi_def_cfa_register 7
 153:Generated_Source\PSoC6\pdl\drivers\peripheral\profile/cy_profile.c ****     (void)memset((void *)cy_ep_ctrs, 0, sizeof(cy_ep_ctrs));
 308              		.loc 2 153 0
 309 0004 054B     		ldr	r3, .L23
 310 0006 E022     		movs	r2, #224
 311 0008 0021     		movs	r1, #0
 312 000a 1800     		movs	r0, r3
 313 000c FFF7FEFF 		bl	memset
 154:Generated_Source\PSoC6\pdl\drivers\peripheral\profile/cy_profile.c ****     Cy_Profile_ClearCounters();
 314              		.loc 2 154 0
 315 0010 FFF7FEFF 		bl	Cy_Profile_ClearCounters
 155:Generated_Source\PSoC6\pdl\drivers\peripheral\profile/cy_profile.c **** }
 316              		.loc 2 155 0
 317 0014 C046     		nop
 318 0016 BD46     		mov	sp, r7
 319              		@ sp needed
 320 0018 80BD     		pop	{r7, pc}
 321              	.L24:
 322 001a C046     		.align	2
 323              	.L23:
 324 001c 00000000 		.word	cy_ep_ctrs
 325              		.cfi_endproc
 326              	.LFE53:
ARM GAS  C:\Users\JC\AppData\Local\Temp\ccZlMrPB.s 			page 18


 327              		.size	Cy_Profile_ClearConfiguration, .-Cy_Profile_ClearConfiguration
 328              		.section	.rodata
 329              		.align	2
 330              	.LC5:
 331 0000 47656E65 		.ascii	"Generated_Source\\PSoC6\\pdl\\drivers\\peripheral\\"
 331      72617465 
 331      645F536F 
 331      75726365 
 331      5C50536F 
 332 002e 70726F66 		.ascii	"profile\\cy_profile.c\000"
 332      696C655C 
 332      63795F70 
 332      726F6669 
 332      6C652E63 
 333              		.section	.text.Cy_Profile_ConfigureCounter,"ax",%progbits
 334              		.align	2
 335              		.global	Cy_Profile_ConfigureCounter
 336              		.code	16
 337              		.thumb_func
 338              		.type	Cy_Profile_ConfigureCounter, %function
 339              	Cy_Profile_ConfigureCounter:
 340              	.LFB54:
 156:Generated_Source\PSoC6\pdl\drivers\peripheral\profile/cy_profile.c **** 
 157:Generated_Source\PSoC6\pdl\drivers\peripheral\profile/cy_profile.c **** 
 158:Generated_Source\PSoC6\pdl\drivers\peripheral\profile/cy_profile.c **** /*******************************************************************************
 159:Generated_Source\PSoC6\pdl\drivers\peripheral\profile/cy_profile.c **** * Function Name: Cy_Profile_ConfigureCounter
 160:Generated_Source\PSoC6\pdl\drivers\peripheral\profile/cy_profile.c **** ****************************************************************************//**
 161:Generated_Source\PSoC6\pdl\drivers\peripheral\profile/cy_profile.c **** *
 162:Generated_Source\PSoC6\pdl\drivers\peripheral\profile/cy_profile.c **** * Configures and assigns a hardware profile counter to the list of used counters.
 163:Generated_Source\PSoC6\pdl\drivers\peripheral\profile/cy_profile.c **** *
 164:Generated_Source\PSoC6\pdl\drivers\peripheral\profile/cy_profile.c **** * This function assigns an available profile counter to a slot in the internal 
 165:Generated_Source\PSoC6\pdl\drivers\peripheral\profile/cy_profile.c **** * software data structure and returns the handle for that slot location. The data
 166:Generated_Source\PSoC6\pdl\drivers\peripheral\profile/cy_profile.c **** * structure is used to keep track of the counter status and to implement a 64-bit
 167:Generated_Source\PSoC6\pdl\drivers\peripheral\profile/cy_profile.c **** * profile counter. If no counter slots are available, the function returns a
 168:Generated_Source\PSoC6\pdl\drivers\peripheral\profile/cy_profile.c **** * NULL pointer.
 169:Generated_Source\PSoC6\pdl\drivers\peripheral\profile/cy_profile.c **** * 
 170:Generated_Source\PSoC6\pdl\drivers\peripheral\profile/cy_profile.c **** * \param monitor The monitor source number
 171:Generated_Source\PSoC6\pdl\drivers\peripheral\profile/cy_profile.c **** *
 172:Generated_Source\PSoC6\pdl\drivers\peripheral\profile/cy_profile.c **** * \param duration Events are monitored (0), or duration is monitored (1)
 173:Generated_Source\PSoC6\pdl\drivers\peripheral\profile/cy_profile.c **** *
 174:Generated_Source\PSoC6\pdl\drivers\peripheral\profile/cy_profile.c **** * \param refClk Counter reference clock
 175:Generated_Source\PSoC6\pdl\drivers\peripheral\profile/cy_profile.c **** *
 176:Generated_Source\PSoC6\pdl\drivers\peripheral\profile/cy_profile.c **** * \param weight Weighting factor for the counter value
 177:Generated_Source\PSoC6\pdl\drivers\peripheral\profile/cy_profile.c **** * 
 178:Generated_Source\PSoC6\pdl\drivers\peripheral\profile/cy_profile.c **** * \return A pointer to the counter data structure. NULL if no counter is
 179:Generated_Source\PSoC6\pdl\drivers\peripheral\profile/cy_profile.c **** * available.
 180:Generated_Source\PSoC6\pdl\drivers\peripheral\profile/cy_profile.c **** *
 181:Generated_Source\PSoC6\pdl\drivers\peripheral\profile/cy_profile.c **** * \funcusage
 182:Generated_Source\PSoC6\pdl\drivers\peripheral\profile/cy_profile.c **** * \snippet profile/profile_v1_0_sut_01.cydsn/main_cm4.c snippet_Cy_Profile_ConfigureCounter
 183:Generated_Source\PSoC6\pdl\drivers\peripheral\profile/cy_profile.c **** *
 184:Generated_Source\PSoC6\pdl\drivers\peripheral\profile/cy_profile.c **** *******************************************************************************/
 185:Generated_Source\PSoC6\pdl\drivers\peripheral\profile/cy_profile.c **** cy_stc_profile_ctr_ptr_t Cy_Profile_ConfigureCounter(en_ep_mon_sel_t monitor, cy_en_profile_duratio
 186:Generated_Source\PSoC6\pdl\drivers\peripheral\profile/cy_profile.c ****                                                      cy_en_profile_ref_clk_t refClk,  uint32_t weig
 187:Generated_Source\PSoC6\pdl\drivers\peripheral\profile/cy_profile.c **** {
 341              		.loc 2 187 0
 342              		.cfi_startproc
 343              		@ args = 0, pretend = 0, frame = 16
ARM GAS  C:\Users\JC\AppData\Local\Temp\ccZlMrPB.s 			page 19


 344              		@ frame_needed = 1, uses_anonymous_args = 0
 345 0000 90B5     		push	{r4, r7, lr}
 346              		.cfi_def_cfa_offset 12
 347              		.cfi_offset 4, -12
 348              		.cfi_offset 7, -8
 349              		.cfi_offset 14, -4
 350 0002 85B0     		sub	sp, sp, #20
 351              		.cfi_def_cfa_offset 32
 352 0004 00AF     		add	r7, sp, #0
 353              		.cfi_def_cfa_register 7
 354 0006 0400     		movs	r4, r0
 355 0008 0800     		movs	r0, r1
 356 000a 1100     		movs	r1, r2
 357 000c 3B60     		str	r3, [r7]
 358 000e FB1D     		adds	r3, r7, #7
 359 0010 221C     		adds	r2, r4, #0
 360 0012 1A70     		strb	r2, [r3]
 361 0014 BB1D     		adds	r3, r7, #6
 362 0016 021C     		adds	r2, r0, #0
 363 0018 1A70     		strb	r2, [r3]
 364 001a 7B1D     		adds	r3, r7, #5
 365 001c 0A1C     		adds	r2, r1, #0
 366 001e 1A70     		strb	r2, [r3]
 188:Generated_Source\PSoC6\pdl\drivers\peripheral\profile/cy_profile.c ****     CY_ASSERT_L1(CY_PROFILE_IS_MONITOR_VALID(monitor));
 367              		.loc 2 188 0
 368 0020 814B     		ldr	r3, .L34
 369 0022 1B68     		ldr	r3, [r3]
 370 0024 4222     		movs	r2, #66
 371 0026 9B5C     		ldrb	r3, [r3, r2]
 372 0028 FA1D     		adds	r2, r7, #7
 373 002a 1278     		ldrb	r2, [r2]
 374 002c 9A42     		cmp	r2, r3
 375 002e 04D3     		bcc	.L26
 376              		.loc 2 188 0 is_stmt 0 discriminator 1
 377 0030 7E4B     		ldr	r3, .L34+4
 378 0032 BC21     		movs	r1, #188
 379 0034 1800     		movs	r0, r3
 380 0036 FFF7FEFF 		bl	Cy_SysLib_AssertFailed
 381              	.L26:
 189:Generated_Source\PSoC6\pdl\drivers\peripheral\profile/cy_profile.c ****     CY_ASSERT_L3(CY_PROFILE_IS_DURATION_VALID(duration));
 382              		.loc 2 189 0 is_stmt 1
 383 003a BB1D     		adds	r3, r7, #6
 384 003c 1B78     		ldrb	r3, [r3]
 385 003e 002B     		cmp	r3, #0
 386 0040 08D0     		beq	.L27
 387              		.loc 2 189 0 is_stmt 0 discriminator 1
 388 0042 BB1D     		adds	r3, r7, #6
 389 0044 1B78     		ldrb	r3, [r3]
 390 0046 012B     		cmp	r3, #1
 391 0048 04D0     		beq	.L27
 392              		.loc 2 189 0 discriminator 2
 393 004a 784B     		ldr	r3, .L34+4
 394 004c BD21     		movs	r1, #189
 395 004e 1800     		movs	r0, r3
 396 0050 FFF7FEFF 		bl	Cy_SysLib_AssertFailed
 397              	.L27:
 190:Generated_Source\PSoC6\pdl\drivers\peripheral\profile/cy_profile.c ****     CY_ASSERT_L3(CY_PROFILE_IS_REFCLK_VALID(refClk));
ARM GAS  C:\Users\JC\AppData\Local\Temp\ccZlMrPB.s 			page 20


 398              		.loc 2 190 0 is_stmt 1
 399 0054 7B1D     		adds	r3, r7, #5
 400 0056 1B78     		ldrb	r3, [r3]
 401 0058 002B     		cmp	r3, #0
 402 005a 18D0     		beq	.L28
 403              		.loc 2 190 0 is_stmt 0 discriminator 1
 404 005c 7B1D     		adds	r3, r7, #5
 405 005e 1B78     		ldrb	r3, [r3]
 406 0060 012B     		cmp	r3, #1
 407 0062 14D0     		beq	.L28
 408              		.loc 2 190 0 discriminator 2
 409 0064 7B1D     		adds	r3, r7, #5
 410 0066 1B78     		ldrb	r3, [r3]
 411 0068 022B     		cmp	r3, #2
 412 006a 10D0     		beq	.L28
 413              		.loc 2 190 0 discriminator 3
 414 006c 7B1D     		adds	r3, r7, #5
 415 006e 1B78     		ldrb	r3, [r3]
 416 0070 032B     		cmp	r3, #3
 417 0072 0CD0     		beq	.L28
 418              		.loc 2 190 0 discriminator 4
 419 0074 7B1D     		adds	r3, r7, #5
 420 0076 1B78     		ldrb	r3, [r3]
 421 0078 042B     		cmp	r3, #4
 422 007a 08D0     		beq	.L28
 423              		.loc 2 190 0 discriminator 5
 424 007c 7B1D     		adds	r3, r7, #5
 425 007e 1B78     		ldrb	r3, [r3]
 426 0080 052B     		cmp	r3, #5
 427 0082 04D0     		beq	.L28
 428              		.loc 2 190 0 discriminator 6
 429 0084 694B     		ldr	r3, .L34+4
 430 0086 BE21     		movs	r1, #190
 431 0088 1800     		movs	r0, r3
 432 008a FFF7FEFF 		bl	Cy_SysLib_AssertFailed
 433              	.L28:
 191:Generated_Source\PSoC6\pdl\drivers\peripheral\profile/cy_profile.c ****     
 192:Generated_Source\PSoC6\pdl\drivers\peripheral\profile/cy_profile.c ****     cy_stc_profile_ctr_ptr_t retVal = NULL; /* error value if no counter is available */
 434              		.loc 2 192 0 is_stmt 1
 435 008e 0023     		movs	r3, #0
 436 0090 FB60     		str	r3, [r7, #12]
 193:Generated_Source\PSoC6\pdl\drivers\peripheral\profile/cy_profile.c ****     volatile uint8_t i;
 194:Generated_Source\PSoC6\pdl\drivers\peripheral\profile/cy_profile.c ****     
 195:Generated_Source\PSoC6\pdl\drivers\peripheral\profile/cy_profile.c ****     /* Scan through the counters for an unused one */
 196:Generated_Source\PSoC6\pdl\drivers\peripheral\profile/cy_profile.c ****     for (i = 0u; (cy_ep_ctrs[i].used != 0u) && (i < (CY_N_ELMTS(cy_ep_ctrs))); i++){}
 437              		.loc 2 196 0
 438 0092 0B23     		movs	r3, #11
 439 0094 FB18     		adds	r3, r7, r3
 440 0096 0022     		movs	r2, #0
 441 0098 1A70     		strb	r2, [r3]
 442 009a 08E0     		b	.L29
 443              	.L31:
 444              		.loc 2 196 0 is_stmt 0 discriminator 4
 445 009c 0B23     		movs	r3, #11
 446 009e FB18     		adds	r3, r7, r3
 447 00a0 1B78     		ldrb	r3, [r3]
 448 00a2 DBB2     		uxtb	r3, r3
ARM GAS  C:\Users\JC\AppData\Local\Temp\ccZlMrPB.s 			page 21


 449 00a4 0133     		adds	r3, r3, #1
 450 00a6 DAB2     		uxtb	r2, r3
 451 00a8 0B23     		movs	r3, #11
 452 00aa FB18     		adds	r3, r7, r3
 453 00ac 1A70     		strb	r2, [r3]
 454              	.L29:
 455              		.loc 2 196 0 discriminator 1
 456 00ae 0B23     		movs	r3, #11
 457 00b0 FB18     		adds	r3, r7, r3
 458 00b2 1B78     		ldrb	r3, [r3]
 459 00b4 DBB2     		uxtb	r3, r3
 460 00b6 1900     		movs	r1, r3
 461 00b8 5D4A     		ldr	r2, .L34+8
 462 00ba 0B00     		movs	r3, r1
 463 00bc DB00     		lsls	r3, r3, #3
 464 00be 5B1A     		subs	r3, r3, r1
 465 00c0 9B00     		lsls	r3, r3, #2
 466 00c2 D318     		adds	r3, r2, r3
 467 00c4 0133     		adds	r3, r3, #1
 468 00c6 1B78     		ldrb	r3, [r3]
 469 00c8 002B     		cmp	r3, #0
 470 00ca 05D0     		beq	.L30
 471              		.loc 2 196 0 discriminator 3
 472 00cc 0B23     		movs	r3, #11
 473 00ce FB18     		adds	r3, r7, r3
 474 00d0 1B78     		ldrb	r3, [r3]
 475 00d2 DBB2     		uxtb	r3, r3
 476 00d4 072B     		cmp	r3, #7
 477 00d6 E1D9     		bls	.L31
 478              	.L30:
 197:Generated_Source\PSoC6\pdl\drivers\peripheral\profile/cy_profile.c ****     if (i < CY_N_ELMTS(cy_ep_ctrs))
 479              		.loc 2 197 0 is_stmt 1
 480 00d8 0B23     		movs	r3, #11
 481 00da FB18     		adds	r3, r7, r3
 482 00dc 1B78     		ldrb	r3, [r3]
 483 00de DBB2     		uxtb	r3, r3
 484 00e0 072B     		cmp	r3, #7
 485 00e2 00D9     		bls	.LCB400
 486 00e4 9BE0     		b	.L32	@long jump
 487              	.LCB400:
 198:Generated_Source\PSoC6\pdl\drivers\peripheral\profile/cy_profile.c ****     { /* found one, fill in its data structure */
 199:Generated_Source\PSoC6\pdl\drivers\peripheral\profile/cy_profile.c ****         cy_ep_ctrs[i].ctrNum = i;
 488              		.loc 2 199 0
 489 00e6 0B23     		movs	r3, #11
 490 00e8 FB18     		adds	r3, r7, r3
 491 00ea 1B78     		ldrb	r3, [r3]
 492 00ec DBB2     		uxtb	r3, r3
 493 00ee 1900     		movs	r1, r3
 494 00f0 0B23     		movs	r3, #11
 495 00f2 FB18     		adds	r3, r7, r3
 496 00f4 1B78     		ldrb	r3, [r3]
 497 00f6 D8B2     		uxtb	r0, r3
 498 00f8 4D4A     		ldr	r2, .L34+8
 499 00fa 0B00     		movs	r3, r1
 500 00fc DB00     		lsls	r3, r3, #3
 501 00fe 5B1A     		subs	r3, r3, r1
 502 0100 9B00     		lsls	r3, r3, #2
ARM GAS  C:\Users\JC\AppData\Local\Temp\ccZlMrPB.s 			page 22


 503 0102 011C     		adds	r1, r0, #0
 504 0104 9954     		strb	r1, [r3, r2]
 200:Generated_Source\PSoC6\pdl\drivers\peripheral\profile/cy_profile.c ****         cy_ep_ctrs[i].used = 1u;
 505              		.loc 2 200 0
 506 0106 0B23     		movs	r3, #11
 507 0108 FB18     		adds	r3, r7, r3
 508 010a 1B78     		ldrb	r3, [r3]
 509 010c DBB2     		uxtb	r3, r3
 510 010e 1900     		movs	r1, r3
 511 0110 474A     		ldr	r2, .L34+8
 512 0112 0B00     		movs	r3, r1
 513 0114 DB00     		lsls	r3, r3, #3
 514 0116 5B1A     		subs	r3, r3, r1
 515 0118 9B00     		lsls	r3, r3, #2
 516 011a D318     		adds	r3, r2, r3
 517 011c 0133     		adds	r3, r3, #1
 518 011e 0122     		movs	r2, #1
 519 0120 1A70     		strb	r2, [r3]
 201:Generated_Source\PSoC6\pdl\drivers\peripheral\profile/cy_profile.c ****         cy_ep_ctrs[i].cntAddr = (PROFILE_CNT_STRUCT_Type *)&(PROFILE_CNT_STRUCT[i]);
 520              		.loc 2 201 0
 521 0122 0B23     		movs	r3, #11
 522 0124 FB18     		adds	r3, r7, r3
 523 0126 1B78     		ldrb	r3, [r3]
 524 0128 DBB2     		uxtb	r3, r3
 525 012a 1800     		movs	r0, r3
 526 012c 0B23     		movs	r3, #11
 527 012e FB18     		adds	r3, r7, r3
 528 0130 1B78     		ldrb	r3, [r3]
 529 0132 DBB2     		uxtb	r3, r3
 530 0134 1B01     		lsls	r3, r3, #4
 531 0136 3F4A     		ldr	r2, .L34+12
 532 0138 9A18     		adds	r2, r3, r2
 533 013a 3D49     		ldr	r1, .L34+8
 534 013c 0300     		movs	r3, r0
 535 013e DB00     		lsls	r3, r3, #3
 536 0140 1B1A     		subs	r3, r3, r0
 537 0142 9B00     		lsls	r3, r3, #2
 538 0144 CB18     		adds	r3, r1, r3
 539 0146 0833     		adds	r3, r3, #8
 540 0148 1A60     		str	r2, [r3]
 202:Generated_Source\PSoC6\pdl\drivers\peripheral\profile/cy_profile.c ****         cy_ep_ctrs[i].ctlRegVals.cntDuration = duration;
 541              		.loc 2 202 0
 542 014a 0B23     		movs	r3, #11
 543 014c FB18     		adds	r3, r7, r3
 544 014e 1B78     		ldrb	r3, [r3]
 545 0150 DBB2     		uxtb	r3, r3
 546 0152 1900     		movs	r1, r3
 547 0154 364A     		ldr	r2, .L34+8
 548 0156 0B00     		movs	r3, r1
 549 0158 DB00     		lsls	r3, r3, #3
 550 015a 5B1A     		subs	r3, r3, r1
 551 015c 9B00     		lsls	r3, r3, #2
 552 015e D318     		adds	r3, r2, r3
 553 0160 0233     		adds	r3, r3, #2
 554 0162 BA1D     		adds	r2, r7, #6
 555 0164 1278     		ldrb	r2, [r2]
 556 0166 1A70     		strb	r2, [r3]
ARM GAS  C:\Users\JC\AppData\Local\Temp\ccZlMrPB.s 			page 23


 203:Generated_Source\PSoC6\pdl\drivers\peripheral\profile/cy_profile.c ****         cy_ep_ctrs[i].ctlRegVals.refClkSel = refClk;
 557              		.loc 2 203 0
 558 0168 0B23     		movs	r3, #11
 559 016a FB18     		adds	r3, r7, r3
 560 016c 1B78     		ldrb	r3, [r3]
 561 016e DBB2     		uxtb	r3, r3
 562 0170 1900     		movs	r1, r3
 563 0172 2F4A     		ldr	r2, .L34+8
 564 0174 0B00     		movs	r3, r1
 565 0176 DB00     		lsls	r3, r3, #3
 566 0178 5B1A     		subs	r3, r3, r1
 567 017a 9B00     		lsls	r3, r3, #2
 568 017c D318     		adds	r3, r2, r3
 569 017e 0333     		adds	r3, r3, #3
 570 0180 7A1D     		adds	r2, r7, #5
 571 0182 1278     		ldrb	r2, [r2]
 572 0184 1A70     		strb	r2, [r3]
 204:Generated_Source\PSoC6\pdl\drivers\peripheral\profile/cy_profile.c ****         cy_ep_ctrs[i].ctlRegVals.monSel = monitor;
 573              		.loc 2 204 0
 574 0186 0B23     		movs	r3, #11
 575 0188 FB18     		adds	r3, r7, r3
 576 018a 1B78     		ldrb	r3, [r3]
 577 018c DBB2     		uxtb	r3, r3
 578 018e 1900     		movs	r1, r3
 579 0190 274A     		ldr	r2, .L34+8
 580 0192 0B00     		movs	r3, r1
 581 0194 DB00     		lsls	r3, r3, #3
 582 0196 5B1A     		subs	r3, r3, r1
 583 0198 9B00     		lsls	r3, r3, #2
 584 019a D318     		adds	r3, r2, r3
 585 019c 0433     		adds	r3, r3, #4
 586 019e FA1D     		adds	r2, r7, #7
 587 01a0 1278     		ldrb	r2, [r2]
 588 01a2 1A70     		strb	r2, [r3]
 205:Generated_Source\PSoC6\pdl\drivers\peripheral\profile/cy_profile.c ****         cy_ep_ctrs[i].overflow = 0UL;
 589              		.loc 2 205 0
 590 01a4 0B23     		movs	r3, #11
 591 01a6 FB18     		adds	r3, r7, r3
 592 01a8 1B78     		ldrb	r3, [r3]
 593 01aa DBB2     		uxtb	r3, r3
 594 01ac 1900     		movs	r1, r3
 595 01ae 204A     		ldr	r2, .L34+8
 596 01b0 0B00     		movs	r3, r1
 597 01b2 DB00     		lsls	r3, r3, #3
 598 01b4 5B1A     		subs	r3, r3, r1
 599 01b6 9B00     		lsls	r3, r3, #2
 600 01b8 D318     		adds	r3, r2, r3
 601 01ba 1433     		adds	r3, r3, #20
 602 01bc 0022     		movs	r2, #0
 603 01be 1A60     		str	r2, [r3]
 206:Generated_Source\PSoC6\pdl\drivers\peripheral\profile/cy_profile.c ****         cy_ep_ctrs[i].weight = weight;
 604              		.loc 2 206 0
 605 01c0 0B23     		movs	r3, #11
 606 01c2 FB18     		adds	r3, r7, r3
 607 01c4 1B78     		ldrb	r3, [r3]
 608 01c6 DBB2     		uxtb	r3, r3
 609 01c8 1900     		movs	r1, r3
ARM GAS  C:\Users\JC\AppData\Local\Temp\ccZlMrPB.s 			page 24


 610 01ca 194A     		ldr	r2, .L34+8
 611 01cc 0B00     		movs	r3, r1
 612 01ce DB00     		lsls	r3, r3, #3
 613 01d0 5B1A     		subs	r3, r3, r1
 614 01d2 9B00     		lsls	r3, r3, #2
 615 01d4 D318     		adds	r3, r2, r3
 616 01d6 1833     		adds	r3, r3, #24
 617 01d8 3A68     		ldr	r2, [r7]
 618 01da 1A60     		str	r2, [r3]
 207:Generated_Source\PSoC6\pdl\drivers\peripheral\profile/cy_profile.c ****         /* Pass back the handle to (address of) the counter data structure */
 208:Generated_Source\PSoC6\pdl\drivers\peripheral\profile/cy_profile.c ****         retVal = &cy_ep_ctrs[i];
 619              		.loc 2 208 0
 620 01dc 0B23     		movs	r3, #11
 621 01de FB18     		adds	r3, r7, r3
 622 01e0 1B78     		ldrb	r3, [r3]
 623 01e2 DBB2     		uxtb	r3, r3
 624 01e4 1A00     		movs	r2, r3
 625 01e6 1300     		movs	r3, r2
 626 01e8 DB00     		lsls	r3, r3, #3
 627 01ea 9B1A     		subs	r3, r3, r2
 628 01ec 9B00     		lsls	r3, r3, #2
 629 01ee 104A     		ldr	r2, .L34+8
 630 01f0 9B18     		adds	r3, r3, r2
 631 01f2 FB60     		str	r3, [r7, #12]
 209:Generated_Source\PSoC6\pdl\drivers\peripheral\profile/cy_profile.c ****         
 210:Generated_Source\PSoC6\pdl\drivers\peripheral\profile/cy_profile.c ****         /* Load the CTL register bitfields of the assigned counter. */
 211:Generated_Source\PSoC6\pdl\drivers\peripheral\profile/cy_profile.c ****         retVal->cntAddr->CTL =
 632              		.loc 2 211 0
 633 01f4 FB68     		ldr	r3, [r7, #12]
 634 01f6 9B68     		ldr	r3, [r3, #8]
 212:Generated_Source\PSoC6\pdl\drivers\peripheral\profile/cy_profile.c ****             _VAL2FLD(PROFILE_CNT_STRUCT_CTL_CNT_DURATION, retVal->ctlRegVals.cntDuration) |
 635              		.loc 2 212 0
 636 01f8 FA68     		ldr	r2, [r7, #12]
 637 01fa 9278     		ldrb	r2, [r2, #2]
 638 01fc 1100     		movs	r1, r2
 639 01fe 0122     		movs	r2, #1
 640 0200 1140     		ands	r1, r2
 213:Generated_Source\PSoC6\pdl\drivers\peripheral\profile/cy_profile.c ****             _VAL2FLD(PROFILE_CNT_STRUCT_CTL_REF_CLK_SEL,  retVal->ctlRegVals.refClkSel)   |
 641              		.loc 2 213 0
 642 0202 FA68     		ldr	r2, [r7, #12]
 643 0204 D278     		ldrb	r2, [r2, #3]
 644 0206 1201     		lsls	r2, r2, #4
 645 0208 7020     		movs	r0, #112
 646 020a 0240     		ands	r2, r0
 212:Generated_Source\PSoC6\pdl\drivers\peripheral\profile/cy_profile.c ****             _VAL2FLD(PROFILE_CNT_STRUCT_CTL_CNT_DURATION, retVal->ctlRegVals.cntDuration) |
 647              		.loc 2 212 0
 648 020c 1143     		orrs	r1, r2
 214:Generated_Source\PSoC6\pdl\drivers\peripheral\profile/cy_profile.c ****             _VAL2FLD(PROFILE_CNT_STRUCT_CTL_MON_SEL,      retVal->ctlRegVals.monSel);
 649              		.loc 2 214 0
 650 020e FA68     		ldr	r2, [r7, #12]
 651 0210 1279     		ldrb	r2, [r2, #4]
 652 0212 1004     		lsls	r0, r2, #16
 653 0214 FE22     		movs	r2, #254
 654 0216 D203     		lsls	r2, r2, #15
 655 0218 0240     		ands	r2, r0
 213:Generated_Source\PSoC6\pdl\drivers\peripheral\profile/cy_profile.c ****             _VAL2FLD(PROFILE_CNT_STRUCT_CTL_REF_CLK_SEL,  retVal->ctlRegVals.refClkSel)   |
 656              		.loc 2 213 0
ARM GAS  C:\Users\JC\AppData\Local\Temp\ccZlMrPB.s 			page 25


 657 021a 0A43     		orrs	r2, r1
 211:Generated_Source\PSoC6\pdl\drivers\peripheral\profile/cy_profile.c ****             _VAL2FLD(PROFILE_CNT_STRUCT_CTL_CNT_DURATION, retVal->ctlRegVals.cntDuration) |
 658              		.loc 2 211 0
 659 021c 1A60     		str	r2, [r3]
 660              	.L32:
 215:Generated_Source\PSoC6\pdl\drivers\peripheral\profile/cy_profile.c **** 
 216:Generated_Source\PSoC6\pdl\drivers\peripheral\profile/cy_profile.c ****     }
 217:Generated_Source\PSoC6\pdl\drivers\peripheral\profile/cy_profile.c ****     return (retVal);
 661              		.loc 2 217 0
 662 021e FB68     		ldr	r3, [r7, #12]
 218:Generated_Source\PSoC6\pdl\drivers\peripheral\profile/cy_profile.c **** }
 663              		.loc 2 218 0
 664 0220 1800     		movs	r0, r3
 665 0222 BD46     		mov	sp, r7
 666 0224 05B0     		add	sp, sp, #20
 667              		@ sp needed
 668 0226 90BD     		pop	{r4, r7, pc}
 669              	.L35:
 670              		.align	2
 671              	.L34:
 672 0228 00000000 		.word	cy_device
 673 022c 00000000 		.word	.LC5
 674 0230 00000000 		.word	cy_ep_ctrs
 675 0234 00082D40 		.word	1076692992
 676              		.cfi_endproc
 677              	.LFE54:
 678              		.size	Cy_Profile_ConfigureCounter, .-Cy_Profile_ConfigureCounter
 679              		.section	.text.Cy_Profile_FreeCounter,"ax",%progbits
 680              		.align	2
 681              		.global	Cy_Profile_FreeCounter
 682              		.code	16
 683              		.thumb_func
 684              		.type	Cy_Profile_FreeCounter, %function
 685              	Cy_Profile_FreeCounter:
 686              	.LFB55:
 219:Generated_Source\PSoC6\pdl\drivers\peripheral\profile/cy_profile.c **** 
 220:Generated_Source\PSoC6\pdl\drivers\peripheral\profile/cy_profile.c **** 
 221:Generated_Source\PSoC6\pdl\drivers\peripheral\profile/cy_profile.c **** /*******************************************************************************
 222:Generated_Source\PSoC6\pdl\drivers\peripheral\profile/cy_profile.c **** * Function Name: Cy_Profile_FreeCounter
 223:Generated_Source\PSoC6\pdl\drivers\peripheral\profile/cy_profile.c **** ****************************************************************************//**
 224:Generated_Source\PSoC6\pdl\drivers\peripheral\profile/cy_profile.c **** *
 225:Generated_Source\PSoC6\pdl\drivers\peripheral\profile/cy_profile.c **** * Frees up a counter from a previously-assigned monitor source.
 226:Generated_Source\PSoC6\pdl\drivers\peripheral\profile/cy_profile.c **** *
 227:Generated_Source\PSoC6\pdl\drivers\peripheral\profile/cy_profile.c **** * \ref Cy_Profile_ConfigureCounter() must have been called for this counter
 228:Generated_Source\PSoC6\pdl\drivers\peripheral\profile/cy_profile.c **** * before calling this function.
 229:Generated_Source\PSoC6\pdl\drivers\peripheral\profile/cy_profile.c **** *
 230:Generated_Source\PSoC6\pdl\drivers\peripheral\profile/cy_profile.c **** * \param ctrAddr The handle to the assigned counter (returned by calling
 231:Generated_Source\PSoC6\pdl\drivers\peripheral\profile/cy_profile.c **** * \ref Cy_Profile_ConfigureCounter()).
 232:Generated_Source\PSoC6\pdl\drivers\peripheral\profile/cy_profile.c **** * 
 233:Generated_Source\PSoC6\pdl\drivers\peripheral\profile/cy_profile.c **** * \return 
 234:Generated_Source\PSoC6\pdl\drivers\peripheral\profile/cy_profile.c **** * Status of the operation.
 235:Generated_Source\PSoC6\pdl\drivers\peripheral\profile/cy_profile.c **** *
 236:Generated_Source\PSoC6\pdl\drivers\peripheral\profile/cy_profile.c **** * \note The counter is not disabled by this function.
 237:Generated_Source\PSoC6\pdl\drivers\peripheral\profile/cy_profile.c **** *
 238:Generated_Source\PSoC6\pdl\drivers\peripheral\profile/cy_profile.c **** * \funcusage
 239:Generated_Source\PSoC6\pdl\drivers\peripheral\profile/cy_profile.c **** * \snippet profile/profile_v1_0_sut_01.cydsn/main_cm4.c snippet_Cy_Profile_FreeCounter
 240:Generated_Source\PSoC6\pdl\drivers\peripheral\profile/cy_profile.c **** *
ARM GAS  C:\Users\JC\AppData\Local\Temp\ccZlMrPB.s 			page 26


 241:Generated_Source\PSoC6\pdl\drivers\peripheral\profile/cy_profile.c **** *******************************************************************************/
 242:Generated_Source\PSoC6\pdl\drivers\peripheral\profile/cy_profile.c **** cy_en_profile_status_t Cy_Profile_FreeCounter(cy_stc_profile_ctr_ptr_t ctrAddr)
 243:Generated_Source\PSoC6\pdl\drivers\peripheral\profile/cy_profile.c **** {
 687              		.loc 2 243 0
 688              		.cfi_startproc
 689              		@ args = 0, pretend = 0, frame = 16
 690              		@ frame_needed = 1, uses_anonymous_args = 0
 691 0000 80B5     		push	{r7, lr}
 692              		.cfi_def_cfa_offset 8
 693              		.cfi_offset 7, -8
 694              		.cfi_offset 14, -4
 695 0002 84B0     		sub	sp, sp, #16
 696              		.cfi_def_cfa_offset 24
 697 0004 00AF     		add	r7, sp, #0
 698              		.cfi_def_cfa_register 7
 699 0006 7860     		str	r0, [r7, #4]
 244:Generated_Source\PSoC6\pdl\drivers\peripheral\profile/cy_profile.c ****    cy_en_profile_status_t retStatus = CY_PROFILE_BAD_PARAM;
 700              		.loc 2 244 0
 701 0008 094B     		ldr	r3, .L39
 702 000a FB60     		str	r3, [r7, #12]
 245:Generated_Source\PSoC6\pdl\drivers\peripheral\profile/cy_profile.c ****    
 246:Generated_Source\PSoC6\pdl\drivers\peripheral\profile/cy_profile.c ****     retStatus = Cy_Profile_IsPtrValid(ctrAddr);
 703              		.loc 2 246 0
 704 000c 7B68     		ldr	r3, [r7, #4]
 705 000e 1800     		movs	r0, r3
 706 0010 FFF7FEFF 		bl	Cy_Profile_IsPtrValid
 707 0014 0300     		movs	r3, r0
 708 0016 FB60     		str	r3, [r7, #12]
 247:Generated_Source\PSoC6\pdl\drivers\peripheral\profile/cy_profile.c ****     if (retStatus == CY_PROFILE_SUCCESS)
 709              		.loc 2 247 0
 710 0018 FB68     		ldr	r3, [r7, #12]
 711 001a 002B     		cmp	r3, #0
 712 001c 02D1     		bne	.L37
 248:Generated_Source\PSoC6\pdl\drivers\peripheral\profile/cy_profile.c ****     {
 249:Generated_Source\PSoC6\pdl\drivers\peripheral\profile/cy_profile.c ****         ctrAddr->used = 0u;
 713              		.loc 2 249 0
 714 001e 7B68     		ldr	r3, [r7, #4]
 715 0020 0022     		movs	r2, #0
 716 0022 5A70     		strb	r2, [r3, #1]
 717              	.L37:
 250:Generated_Source\PSoC6\pdl\drivers\peripheral\profile/cy_profile.c ****     }
 251:Generated_Source\PSoC6\pdl\drivers\peripheral\profile/cy_profile.c ****     return (retStatus);
 718              		.loc 2 251 0
 719 0024 FB68     		ldr	r3, [r7, #12]
 252:Generated_Source\PSoC6\pdl\drivers\peripheral\profile/cy_profile.c **** }
 720              		.loc 2 252 0
 721 0026 1800     		movs	r0, r3
 722 0028 BD46     		mov	sp, r7
 723 002a 04B0     		add	sp, sp, #16
 724              		@ sp needed
 725 002c 80BD     		pop	{r7, pc}
 726              	.L40:
 727 002e C046     		.align	2
 728              	.L39:
 729 0030 01007A00 		.word	7995393
 730              		.cfi_endproc
 731              	.LFE55:
ARM GAS  C:\Users\JC\AppData\Local\Temp\ccZlMrPB.s 			page 27


 732              		.size	Cy_Profile_FreeCounter, .-Cy_Profile_FreeCounter
 733              		.section	.text.Cy_Profile_EnableCounter,"ax",%progbits
 734              		.align	2
 735              		.global	Cy_Profile_EnableCounter
 736              		.code	16
 737              		.thumb_func
 738              		.type	Cy_Profile_EnableCounter, %function
 739              	Cy_Profile_EnableCounter:
 740              	.LFB56:
 253:Generated_Source\PSoC6\pdl\drivers\peripheral\profile/cy_profile.c **** 
 254:Generated_Source\PSoC6\pdl\drivers\peripheral\profile/cy_profile.c **** 
 255:Generated_Source\PSoC6\pdl\drivers\peripheral\profile/cy_profile.c **** /*******************************************************************************
 256:Generated_Source\PSoC6\pdl\drivers\peripheral\profile/cy_profile.c **** * Function Name: Cy_Profile_EnableCounter
 257:Generated_Source\PSoC6\pdl\drivers\peripheral\profile/cy_profile.c **** ****************************************************************************//**
 258:Generated_Source\PSoC6\pdl\drivers\peripheral\profile/cy_profile.c **** *
 259:Generated_Source\PSoC6\pdl\drivers\peripheral\profile/cy_profile.c **** * Enables an assigned counter. 
 260:Generated_Source\PSoC6\pdl\drivers\peripheral\profile/cy_profile.c **** *
 261:Generated_Source\PSoC6\pdl\drivers\peripheral\profile/cy_profile.c **** * \ref Cy_Profile_ConfigureCounter() must have been called for this counter
 262:Generated_Source\PSoC6\pdl\drivers\peripheral\profile/cy_profile.c **** * before calling this function.
 263:Generated_Source\PSoC6\pdl\drivers\peripheral\profile/cy_profile.c **** *
 264:Generated_Source\PSoC6\pdl\drivers\peripheral\profile/cy_profile.c **** * \param ctrAddr The handle to the assigned counter, (returned by calling
 265:Generated_Source\PSoC6\pdl\drivers\peripheral\profile/cy_profile.c **** * \ref Cy_Profile_ConfigureCounter()).
 266:Generated_Source\PSoC6\pdl\drivers\peripheral\profile/cy_profile.c **** * 
 267:Generated_Source\PSoC6\pdl\drivers\peripheral\profile/cy_profile.c **** * \return 
 268:Generated_Source\PSoC6\pdl\drivers\peripheral\profile/cy_profile.c **** * Status of the operation.
 269:Generated_Source\PSoC6\pdl\drivers\peripheral\profile/cy_profile.c **** *
 270:Generated_Source\PSoC6\pdl\drivers\peripheral\profile/cy_profile.c **** * \funcusage
 271:Generated_Source\PSoC6\pdl\drivers\peripheral\profile/cy_profile.c **** * \snippet profile/profile_v1_0_sut_01.cydsn/main_cm4.c snippet_Cy_Profile_EnableCounter
 272:Generated_Source\PSoC6\pdl\drivers\peripheral\profile/cy_profile.c **** *
 273:Generated_Source\PSoC6\pdl\drivers\peripheral\profile/cy_profile.c **** *******************************************************************************/
 274:Generated_Source\PSoC6\pdl\drivers\peripheral\profile/cy_profile.c **** cy_en_profile_status_t Cy_Profile_EnableCounter(cy_stc_profile_ctr_ptr_t ctrAddr)
 275:Generated_Source\PSoC6\pdl\drivers\peripheral\profile/cy_profile.c **** {
 741              		.loc 2 275 0
 742              		.cfi_startproc
 743              		@ args = 0, pretend = 0, frame = 16
 744              		@ frame_needed = 1, uses_anonymous_args = 0
 745 0000 80B5     		push	{r7, lr}
 746              		.cfi_def_cfa_offset 8
 747              		.cfi_offset 7, -8
 748              		.cfi_offset 14, -4
 749 0002 84B0     		sub	sp, sp, #16
 750              		.cfi_def_cfa_offset 24
 751 0004 00AF     		add	r7, sp, #0
 752              		.cfi_def_cfa_register 7
 753 0006 7860     		str	r0, [r7, #4]
 276:Generated_Source\PSoC6\pdl\drivers\peripheral\profile/cy_profile.c ****     cy_en_profile_status_t retStatus = Cy_Profile_IsPtrValid(ctrAddr);
 754              		.loc 2 276 0
 755 0008 7B68     		ldr	r3, [r7, #4]
 756 000a 1800     		movs	r0, r3
 757 000c FFF7FEFF 		bl	Cy_Profile_IsPtrValid
 758 0010 0300     		movs	r3, r0
 759 0012 FB60     		str	r3, [r7, #12]
 277:Generated_Source\PSoC6\pdl\drivers\peripheral\profile/cy_profile.c ****     
 278:Generated_Source\PSoC6\pdl\drivers\peripheral\profile/cy_profile.c ****     if (CY_PROFILE_SUCCESS == retStatus)
 760              		.loc 2 278 0
 761 0014 FB68     		ldr	r3, [r7, #12]
 762 0016 002B     		cmp	r3, #0
ARM GAS  C:\Users\JC\AppData\Local\Temp\ccZlMrPB.s 			page 28


 763 0018 16D1     		bne	.L42
 279:Generated_Source\PSoC6\pdl\drivers\peripheral\profile/cy_profile.c ****     {
 280:Generated_Source\PSoC6\pdl\drivers\peripheral\profile/cy_profile.c ****         /* set the ENABLED bit */
 281:Generated_Source\PSoC6\pdl\drivers\peripheral\profile/cy_profile.c ****         ctrAddr->cntAddr->CTL |= _VAL2FLD(PROFILE_CNT_STRUCT_CTL_ENABLED, 1UL);
 764              		.loc 2 281 0
 765 001a 7B68     		ldr	r3, [r7, #4]
 766 001c 9B68     		ldr	r3, [r3, #8]
 767 001e 7A68     		ldr	r2, [r7, #4]
 768 0020 9268     		ldr	r2, [r2, #8]
 769 0022 1268     		ldr	r2, [r2]
 770 0024 8021     		movs	r1, #128
 771 0026 0906     		lsls	r1, r1, #24
 772 0028 0A43     		orrs	r2, r1
 773 002a 1A60     		str	r2, [r3]
 282:Generated_Source\PSoC6\pdl\drivers\peripheral\profile/cy_profile.c ****         /* set the INTR_MASK bit for the counter being used */
 283:Generated_Source\PSoC6\pdl\drivers\peripheral\profile/cy_profile.c ****         PROFILE_INTR_MASK |= (1UL << (ctrAddr->ctrNum));
 774              		.loc 2 283 0
 775 002c 0949     		ldr	r1, .L44
 776 002e 094A     		ldr	r2, .L44
 777 0030 F923     		movs	r3, #249
 778 0032 DB00     		lsls	r3, r3, #3
 779 0034 D258     		ldr	r2, [r2, r3]
 780 0036 7B68     		ldr	r3, [r7, #4]
 781 0038 1B78     		ldrb	r3, [r3]
 782 003a 1800     		movs	r0, r3
 783 003c 0123     		movs	r3, #1
 784 003e 8340     		lsls	r3, r3, r0
 785 0040 1A43     		orrs	r2, r3
 786 0042 F923     		movs	r3, #249
 787 0044 DB00     		lsls	r3, r3, #3
 788 0046 CA50     		str	r2, [r1, r3]
 789              	.L42:
 284:Generated_Source\PSoC6\pdl\drivers\peripheral\profile/cy_profile.c ****     }
 285:Generated_Source\PSoC6\pdl\drivers\peripheral\profile/cy_profile.c ****     
 286:Generated_Source\PSoC6\pdl\drivers\peripheral\profile/cy_profile.c ****     return (retStatus);
 790              		.loc 2 286 0
 791 0048 FB68     		ldr	r3, [r7, #12]
 287:Generated_Source\PSoC6\pdl\drivers\peripheral\profile/cy_profile.c **** }
 792              		.loc 2 287 0
 793 004a 1800     		movs	r0, r3
 794 004c BD46     		mov	sp, r7
 795 004e 04B0     		add	sp, sp, #16
 796              		@ sp needed
 797 0050 80BD     		pop	{r7, pc}
 798              	.L45:
 799 0052 C046     		.align	2
 800              	.L44:
 801 0054 00002D40 		.word	1076690944
 802              		.cfi_endproc
 803              	.LFE56:
 804              		.size	Cy_Profile_EnableCounter, .-Cy_Profile_EnableCounter
 805              		.section	.text.Cy_Profile_DisableCounter,"ax",%progbits
 806              		.align	2
 807              		.global	Cy_Profile_DisableCounter
 808              		.code	16
 809              		.thumb_func
 810              		.type	Cy_Profile_DisableCounter, %function
ARM GAS  C:\Users\JC\AppData\Local\Temp\ccZlMrPB.s 			page 29


 811              	Cy_Profile_DisableCounter:
 812              	.LFB57:
 288:Generated_Source\PSoC6\pdl\drivers\peripheral\profile/cy_profile.c **** 
 289:Generated_Source\PSoC6\pdl\drivers\peripheral\profile/cy_profile.c **** 
 290:Generated_Source\PSoC6\pdl\drivers\peripheral\profile/cy_profile.c **** /*******************************************************************************
 291:Generated_Source\PSoC6\pdl\drivers\peripheral\profile/cy_profile.c **** * Function Name: Cy_Profile_DisableCounter
 292:Generated_Source\PSoC6\pdl\drivers\peripheral\profile/cy_profile.c **** ****************************************************************************//**
 293:Generated_Source\PSoC6\pdl\drivers\peripheral\profile/cy_profile.c **** *
 294:Generated_Source\PSoC6\pdl\drivers\peripheral\profile/cy_profile.c **** * Disables an assigned counter.
 295:Generated_Source\PSoC6\pdl\drivers\peripheral\profile/cy_profile.c **** *
 296:Generated_Source\PSoC6\pdl\drivers\peripheral\profile/cy_profile.c **** * \ref Cy_Profile_ConfigureCounter() must have been called for this counter
 297:Generated_Source\PSoC6\pdl\drivers\peripheral\profile/cy_profile.c **** * before calling this function.
 298:Generated_Source\PSoC6\pdl\drivers\peripheral\profile/cy_profile.c **** *
 299:Generated_Source\PSoC6\pdl\drivers\peripheral\profile/cy_profile.c **** * \param ctrAddr The handle to the assigned counter, (returned by calling
 300:Generated_Source\PSoC6\pdl\drivers\peripheral\profile/cy_profile.c **** * \ref Cy_Profile_ConfigureCounter()).
 301:Generated_Source\PSoC6\pdl\drivers\peripheral\profile/cy_profile.c **** * 
 302:Generated_Source\PSoC6\pdl\drivers\peripheral\profile/cy_profile.c **** * \return 
 303:Generated_Source\PSoC6\pdl\drivers\peripheral\profile/cy_profile.c **** * Status of the operation.
 304:Generated_Source\PSoC6\pdl\drivers\peripheral\profile/cy_profile.c **** *
 305:Generated_Source\PSoC6\pdl\drivers\peripheral\profile/cy_profile.c **** * \funcusage
 306:Generated_Source\PSoC6\pdl\drivers\peripheral\profile/cy_profile.c **** * \snippet profile/profile_v1_0_sut_01.cydsn/main_cm4.c snippet_Cy_Profile_DisableCounter
 307:Generated_Source\PSoC6\pdl\drivers\peripheral\profile/cy_profile.c **** *
 308:Generated_Source\PSoC6\pdl\drivers\peripheral\profile/cy_profile.c **** *******************************************************************************/
 309:Generated_Source\PSoC6\pdl\drivers\peripheral\profile/cy_profile.c **** cy_en_profile_status_t Cy_Profile_DisableCounter(cy_stc_profile_ctr_ptr_t ctrAddr)
 310:Generated_Source\PSoC6\pdl\drivers\peripheral\profile/cy_profile.c **** {
 813              		.loc 2 310 0
 814              		.cfi_startproc
 815              		@ args = 0, pretend = 0, frame = 16
 816              		@ frame_needed = 1, uses_anonymous_args = 0
 817 0000 80B5     		push	{r7, lr}
 818              		.cfi_def_cfa_offset 8
 819              		.cfi_offset 7, -8
 820              		.cfi_offset 14, -4
 821 0002 84B0     		sub	sp, sp, #16
 822              		.cfi_def_cfa_offset 24
 823 0004 00AF     		add	r7, sp, #0
 824              		.cfi_def_cfa_register 7
 825 0006 7860     		str	r0, [r7, #4]
 311:Generated_Source\PSoC6\pdl\drivers\peripheral\profile/cy_profile.c ****     cy_en_profile_status_t retStatus = Cy_Profile_IsPtrValid(ctrAddr);
 826              		.loc 2 311 0
 827 0008 7B68     		ldr	r3, [r7, #4]
 828 000a 1800     		movs	r0, r3
 829 000c FFF7FEFF 		bl	Cy_Profile_IsPtrValid
 830 0010 0300     		movs	r3, r0
 831 0012 FB60     		str	r3, [r7, #12]
 312:Generated_Source\PSoC6\pdl\drivers\peripheral\profile/cy_profile.c ****     
 313:Generated_Source\PSoC6\pdl\drivers\peripheral\profile/cy_profile.c ****     if (CY_PROFILE_SUCCESS == retStatus)
 832              		.loc 2 313 0
 833 0014 FB68     		ldr	r3, [r7, #12]
 834 0016 002B     		cmp	r3, #0
 835 0018 16D1     		bne	.L47
 314:Generated_Source\PSoC6\pdl\drivers\peripheral\profile/cy_profile.c ****     {
 315:Generated_Source\PSoC6\pdl\drivers\peripheral\profile/cy_profile.c ****         /* clear the ENABLED bit */
 316:Generated_Source\PSoC6\pdl\drivers\peripheral\profile/cy_profile.c ****         ctrAddr->cntAddr->CTL &= ~(_VAL2FLD(PROFILE_CNT_STRUCT_CTL_ENABLED, 1UL));
 836              		.loc 2 316 0
 837 001a 7B68     		ldr	r3, [r7, #4]
 838 001c 9B68     		ldr	r3, [r3, #8]
ARM GAS  C:\Users\JC\AppData\Local\Temp\ccZlMrPB.s 			page 30


 839 001e 7A68     		ldr	r2, [r7, #4]
 840 0020 9268     		ldr	r2, [r2, #8]
 841 0022 1268     		ldr	r2, [r2]
 842 0024 5200     		lsls	r2, r2, #1
 843 0026 5208     		lsrs	r2, r2, #1
 844 0028 1A60     		str	r2, [r3]
 317:Generated_Source\PSoC6\pdl\drivers\peripheral\profile/cy_profile.c ****         /* clear the INTR_MASK bit for the counter being used */
 318:Generated_Source\PSoC6\pdl\drivers\peripheral\profile/cy_profile.c ****         PROFILE_INTR_MASK &= ~(1UL << (ctrAddr->ctrNum));
 845              		.loc 2 318 0
 846 002a 0A49     		ldr	r1, .L49
 847 002c 094A     		ldr	r2, .L49
 848 002e F923     		movs	r3, #249
 849 0030 DB00     		lsls	r3, r3, #3
 850 0032 D358     		ldr	r3, [r2, r3]
 851 0034 7A68     		ldr	r2, [r7, #4]
 852 0036 1278     		ldrb	r2, [r2]
 853 0038 1000     		movs	r0, r2
 854 003a 0122     		movs	r2, #1
 855 003c 8240     		lsls	r2, r2, r0
 856 003e D243     		mvns	r2, r2
 857 0040 1A40     		ands	r2, r3
 858 0042 F923     		movs	r3, #249
 859 0044 DB00     		lsls	r3, r3, #3
 860 0046 CA50     		str	r2, [r1, r3]
 861              	.L47:
 319:Generated_Source\PSoC6\pdl\drivers\peripheral\profile/cy_profile.c ****     }
 320:Generated_Source\PSoC6\pdl\drivers\peripheral\profile/cy_profile.c ****     
 321:Generated_Source\PSoC6\pdl\drivers\peripheral\profile/cy_profile.c ****     return (retStatus);
 862              		.loc 2 321 0
 863 0048 FB68     		ldr	r3, [r7, #12]
 322:Generated_Source\PSoC6\pdl\drivers\peripheral\profile/cy_profile.c **** }
 864              		.loc 2 322 0
 865 004a 1800     		movs	r0, r3
 866 004c BD46     		mov	sp, r7
 867 004e 04B0     		add	sp, sp, #16
 868              		@ sp needed
 869 0050 80BD     		pop	{r7, pc}
 870              	.L50:
 871 0052 C046     		.align	2
 872              	.L49:
 873 0054 00002D40 		.word	1076690944
 874              		.cfi_endproc
 875              	.LFE57:
 876              		.size	Cy_Profile_DisableCounter, .-Cy_Profile_DisableCounter
 877              		.section	.text.Cy_Profile_GetRawCount,"ax",%progbits
 878              		.align	2
 879              		.global	Cy_Profile_GetRawCount
 880              		.code	16
 881              		.thumb_func
 882              		.type	Cy_Profile_GetRawCount, %function
 883              	Cy_Profile_GetRawCount:
 884              	.LFB58:
 323:Generated_Source\PSoC6\pdl\drivers\peripheral\profile/cy_profile.c **** 
 324:Generated_Source\PSoC6\pdl\drivers\peripheral\profile/cy_profile.c **** 
 325:Generated_Source\PSoC6\pdl\drivers\peripheral\profile/cy_profile.c **** /* ========================================================================== */
 326:Generated_Source\PSoC6\pdl\drivers\peripheral\profile/cy_profile.c **** /* ==================    CALCULATION FUNCTIONS SECTION    =================== */
 327:Generated_Source\PSoC6\pdl\drivers\peripheral\profile/cy_profile.c **** /* ========================================================================== */
ARM GAS  C:\Users\JC\AppData\Local\Temp\ccZlMrPB.s 			page 31


 328:Generated_Source\PSoC6\pdl\drivers\peripheral\profile/cy_profile.c **** /*******************************************************************************
 329:Generated_Source\PSoC6\pdl\drivers\peripheral\profile/cy_profile.c **** * Function Name: Cy_Profile_GetRawCount
 330:Generated_Source\PSoC6\pdl\drivers\peripheral\profile/cy_profile.c **** ****************************************************************************//**
 331:Generated_Source\PSoC6\pdl\drivers\peripheral\profile/cy_profile.c **** *
 332:Generated_Source\PSoC6\pdl\drivers\peripheral\profile/cy_profile.c **** * Reports the raw count value for a specified counter.
 333:Generated_Source\PSoC6\pdl\drivers\peripheral\profile/cy_profile.c **** *
 334:Generated_Source\PSoC6\pdl\drivers\peripheral\profile/cy_profile.c **** * \param ctrAddr The handle to the assigned counter, (returned by calling
 335:Generated_Source\PSoC6\pdl\drivers\peripheral\profile/cy_profile.c **** * \ref Cy_Profile_ConfigureCounter()).
 336:Generated_Source\PSoC6\pdl\drivers\peripheral\profile/cy_profile.c **** *
 337:Generated_Source\PSoC6\pdl\drivers\peripheral\profile/cy_profile.c **** * \param result Output parameter used to write in the result.
 338:Generated_Source\PSoC6\pdl\drivers\peripheral\profile/cy_profile.c **** * 
 339:Generated_Source\PSoC6\pdl\drivers\peripheral\profile/cy_profile.c **** * \return 
 340:Generated_Source\PSoC6\pdl\drivers\peripheral\profile/cy_profile.c **** * Status of the operation.
 341:Generated_Source\PSoC6\pdl\drivers\peripheral\profile/cy_profile.c **** *
 342:Generated_Source\PSoC6\pdl\drivers\peripheral\profile/cy_profile.c **** * \funcusage
 343:Generated_Source\PSoC6\pdl\drivers\peripheral\profile/cy_profile.c **** * \snippet profile/profile_v1_0_sut_01.cydsn/main_cm4.c snippet_Cy_Profile_GetRawCount
 344:Generated_Source\PSoC6\pdl\drivers\peripheral\profile/cy_profile.c **** *
 345:Generated_Source\PSoC6\pdl\drivers\peripheral\profile/cy_profile.c **** *******************************************************************************/
 346:Generated_Source\PSoC6\pdl\drivers\peripheral\profile/cy_profile.c **** cy_en_profile_status_t Cy_Profile_GetRawCount(cy_stc_profile_ctr_ptr_t ctrAddr, uint64_t *result)
 347:Generated_Source\PSoC6\pdl\drivers\peripheral\profile/cy_profile.c **** {
 885              		.loc 2 347 0
 886              		.cfi_startproc
 887              		@ args = 0, pretend = 0, frame = 40
 888              		@ frame_needed = 1, uses_anonymous_args = 0
 889 0000 B0B5     		push	{r4, r5, r7, lr}
 890              		.cfi_def_cfa_offset 16
 891              		.cfi_offset 4, -16
 892              		.cfi_offset 5, -12
 893              		.cfi_offset 7, -8
 894              		.cfi_offset 14, -4
 895 0002 8AB0     		sub	sp, sp, #40
 896              		.cfi_def_cfa_offset 56
 897 0004 00AF     		add	r7, sp, #0
 898              		.cfi_def_cfa_register 7
 899 0006 F861     		str	r0, [r7, #28]
 900 0008 B961     		str	r1, [r7, #24]
 348:Generated_Source\PSoC6\pdl\drivers\peripheral\profile/cy_profile.c ****     cy_en_profile_status_t retStatus = Cy_Profile_IsPtrValid(ctrAddr);
 901              		.loc 2 348 0
 902 000a FB69     		ldr	r3, [r7, #28]
 903 000c 1800     		movs	r0, r3
 904 000e FFF7FEFF 		bl	Cy_Profile_IsPtrValid
 905 0012 0300     		movs	r3, r0
 906 0014 7B62     		str	r3, [r7, #36]
 349:Generated_Source\PSoC6\pdl\drivers\peripheral\profile/cy_profile.c ****     
 350:Generated_Source\PSoC6\pdl\drivers\peripheral\profile/cy_profile.c ****     if ((result != NULL) && (CY_PROFILE_SUCCESS == retStatus))
 907              		.loc 2 350 0
 908 0016 BB69     		ldr	r3, [r7, #24]
 909 0018 002B     		cmp	r3, #0
 910 001a 26D0     		beq	.L52
 911              		.loc 2 350 0 is_stmt 0 discriminator 1
 912 001c 7B6A     		ldr	r3, [r7, #36]
 913 001e 002B     		cmp	r3, #0
 914 0020 23D1     		bne	.L52
 351:Generated_Source\PSoC6\pdl\drivers\peripheral\profile/cy_profile.c ****     {
 352:Generated_Source\PSoC6\pdl\drivers\peripheral\profile/cy_profile.c ****         /* read the counter control register, and the counter current value */
 353:Generated_Source\PSoC6\pdl\drivers\peripheral\profile/cy_profile.c ****         ctrAddr->ctlReg = ctrAddr->cntAddr->CTL;
 915              		.loc 2 353 0 is_stmt 1
ARM GAS  C:\Users\JC\AppData\Local\Temp\ccZlMrPB.s 			page 32


 916 0022 FB69     		ldr	r3, [r7, #28]
 917 0024 9B68     		ldr	r3, [r3, #8]
 918 0026 1A68     		ldr	r2, [r3]
 919 0028 FB69     		ldr	r3, [r7, #28]
 920 002a DA60     		str	r2, [r3, #12]
 354:Generated_Source\PSoC6\pdl\drivers\peripheral\profile/cy_profile.c ****         ctrAddr->cntReg = ctrAddr->cntAddr->CNT;
 921              		.loc 2 354 0
 922 002c FB69     		ldr	r3, [r7, #28]
 923 002e 9B68     		ldr	r3, [r3, #8]
 924 0030 9A68     		ldr	r2, [r3, #8]
 925 0032 FB69     		ldr	r3, [r7, #28]
 926 0034 1A61     		str	r2, [r3, #16]
 355:Generated_Source\PSoC6\pdl\drivers\peripheral\profile/cy_profile.c **** 
 356:Generated_Source\PSoC6\pdl\drivers\peripheral\profile/cy_profile.c ****         /* report the count with overflow */
 357:Generated_Source\PSoC6\pdl\drivers\peripheral\profile/cy_profile.c ****         *result = ((uint64_t)(ctrAddr->overflow) << 32) | (uint64_t)(ctrAddr->cntReg);
 927              		.loc 2 357 0
 928 0036 FB69     		ldr	r3, [r7, #28]
 929 0038 5B69     		ldr	r3, [r3, #20]
 930 003a 3B61     		str	r3, [r7, #16]
 931 003c 0023     		movs	r3, #0
 932 003e 7B61     		str	r3, [r7, #20]
 933 0040 3B69     		ldr	r3, [r7, #16]
 934 0042 1D00     		lsls	r5, r3, #0
 935 0044 0023     		movs	r3, #0
 936 0046 1C00     		movs	r4, r3
 937 0048 FB69     		ldr	r3, [r7, #28]
 938 004a 1B69     		ldr	r3, [r3, #16]
 939 004c BB60     		str	r3, [r7, #8]
 940 004e 0023     		movs	r3, #0
 941 0050 FB60     		str	r3, [r7, #12]
 942 0052 BA68     		ldr	r2, [r7, #8]
 943 0054 FB68     		ldr	r3, [r7, #12]
 944 0056 1100     		movs	r1, r2
 945 0058 2143     		orrs	r1, r4
 946 005a 3960     		str	r1, [r7]
 947 005c 2B43     		orrs	r3, r5
 948 005e 7B60     		str	r3, [r7, #4]
 949 0060 BB69     		ldr	r3, [r7, #24]
 950 0062 3968     		ldr	r1, [r7]
 951 0064 7A68     		ldr	r2, [r7, #4]
 952 0066 1960     		str	r1, [r3]
 953 0068 5A60     		str	r2, [r3, #4]
 954              	.L52:
 358:Generated_Source\PSoC6\pdl\drivers\peripheral\profile/cy_profile.c ****     }
 359:Generated_Source\PSoC6\pdl\drivers\peripheral\profile/cy_profile.c ****     
 360:Generated_Source\PSoC6\pdl\drivers\peripheral\profile/cy_profile.c ****     return (retStatus);
 955              		.loc 2 360 0
 956 006a 7B6A     		ldr	r3, [r7, #36]
 361:Generated_Source\PSoC6\pdl\drivers\peripheral\profile/cy_profile.c **** }
 957              		.loc 2 361 0
 958 006c 1800     		movs	r0, r3
 959 006e BD46     		mov	sp, r7
 960 0070 0AB0     		add	sp, sp, #40
 961              		@ sp needed
 962 0072 B0BD     		pop	{r4, r5, r7, pc}
 963              		.cfi_endproc
 964              	.LFE58:
ARM GAS  C:\Users\JC\AppData\Local\Temp\ccZlMrPB.s 			page 33


 965              		.size	Cy_Profile_GetRawCount, .-Cy_Profile_GetRawCount
 966              		.global	__aeabi_lmul
 967              		.section	.text.Cy_Profile_GetWeightedCount,"ax",%progbits
 968              		.align	2
 969              		.global	Cy_Profile_GetWeightedCount
 970              		.code	16
 971              		.thumb_func
 972              		.type	Cy_Profile_GetWeightedCount, %function
 973              	Cy_Profile_GetWeightedCount:
 974              	.LFB59:
 362:Generated_Source\PSoC6\pdl\drivers\peripheral\profile/cy_profile.c **** 
 363:Generated_Source\PSoC6\pdl\drivers\peripheral\profile/cy_profile.c **** /*******************************************************************************
 364:Generated_Source\PSoC6\pdl\drivers\peripheral\profile/cy_profile.c **** * Function Name: Cy_Profile_GetWeightedCount
 365:Generated_Source\PSoC6\pdl\drivers\peripheral\profile/cy_profile.c **** ****************************************************************************//**
 366:Generated_Source\PSoC6\pdl\drivers\peripheral\profile/cy_profile.c **** *
 367:Generated_Source\PSoC6\pdl\drivers\peripheral\profile/cy_profile.c **** * Reports the count value for a specified counter, multiplied by the weight
 368:Generated_Source\PSoC6\pdl\drivers\peripheral\profile/cy_profile.c **** * factor for that counter.
 369:Generated_Source\PSoC6\pdl\drivers\peripheral\profile/cy_profile.c **** *
 370:Generated_Source\PSoC6\pdl\drivers\peripheral\profile/cy_profile.c **** * \param ctrAddr The handle to the assigned counter, (returned by calling
 371:Generated_Source\PSoC6\pdl\drivers\peripheral\profile/cy_profile.c **** * \ref Cy_Profile_ConfigureCounter()).
 372:Generated_Source\PSoC6\pdl\drivers\peripheral\profile/cy_profile.c **** *
 373:Generated_Source\PSoC6\pdl\drivers\peripheral\profile/cy_profile.c **** * \param result Output parameter used to write in the result.
 374:Generated_Source\PSoC6\pdl\drivers\peripheral\profile/cy_profile.c **** * 
 375:Generated_Source\PSoC6\pdl\drivers\peripheral\profile/cy_profile.c **** * \return 
 376:Generated_Source\PSoC6\pdl\drivers\peripheral\profile/cy_profile.c **** * Status of the operation.
 377:Generated_Source\PSoC6\pdl\drivers\peripheral\profile/cy_profile.c **** *
 378:Generated_Source\PSoC6\pdl\drivers\peripheral\profile/cy_profile.c **** * \funcusage
 379:Generated_Source\PSoC6\pdl\drivers\peripheral\profile/cy_profile.c **** * \snippet profile/profile_v1_0_sut_01.cydsn/main_cm4.c snippet_Cy_Profile_GetWeightedCount
 380:Generated_Source\PSoC6\pdl\drivers\peripheral\profile/cy_profile.c **** *
 381:Generated_Source\PSoC6\pdl\drivers\peripheral\profile/cy_profile.c **** *******************************************************************************/
 382:Generated_Source\PSoC6\pdl\drivers\peripheral\profile/cy_profile.c **** cy_en_profile_status_t Cy_Profile_GetWeightedCount(cy_stc_profile_ctr_ptr_t ctrAddr, uint64_t *resu
 383:Generated_Source\PSoC6\pdl\drivers\peripheral\profile/cy_profile.c **** {
 975              		.loc 2 383 0
 976              		.cfi_startproc
 977              		@ args = 0, pretend = 0, frame = 24
 978              		@ frame_needed = 1, uses_anonymous_args = 0
 979 0000 F0B5     		push	{r4, r5, r6, r7, lr}
 980              		.cfi_def_cfa_offset 20
 981              		.cfi_offset 4, -20
 982              		.cfi_offset 5, -16
 983              		.cfi_offset 6, -12
 984              		.cfi_offset 7, -8
 985              		.cfi_offset 14, -4
 986 0002 87B0     		sub	sp, sp, #28
 987              		.cfi_def_cfa_offset 48
 988 0004 00AF     		add	r7, sp, #0
 989              		.cfi_def_cfa_register 7
 990 0006 7860     		str	r0, [r7, #4]
 991 0008 3960     		str	r1, [r7]
 384:Generated_Source\PSoC6\pdl\drivers\peripheral\profile/cy_profile.c ****     uint64_t temp;
 385:Generated_Source\PSoC6\pdl\drivers\peripheral\profile/cy_profile.c ****     cy_en_profile_status_t retStatus = Cy_Profile_GetRawCount(ctrAddr, &temp);
 992              		.loc 2 385 0
 993 000a 0823     		movs	r3, #8
 994 000c FA18     		adds	r2, r7, r3
 995 000e 7B68     		ldr	r3, [r7, #4]
 996 0010 1100     		movs	r1, r2
 997 0012 1800     		movs	r0, r3
ARM GAS  C:\Users\JC\AppData\Local\Temp\ccZlMrPB.s 			page 34


 998 0014 FFF7FEFF 		bl	Cy_Profile_GetRawCount
 999 0018 0300     		movs	r3, r0
 1000 001a 7B61     		str	r3, [r7, #20]
 386:Generated_Source\PSoC6\pdl\drivers\peripheral\profile/cy_profile.c ****     
 387:Generated_Source\PSoC6\pdl\drivers\peripheral\profile/cy_profile.c ****     if ((result != NULL) && (CY_PROFILE_SUCCESS == retStatus))
 1001              		.loc 2 387 0
 1002 001c 3B68     		ldr	r3, [r7]
 1003 001e 002B     		cmp	r3, #0
 1004 0020 14D0     		beq	.L55
 1005              		.loc 2 387 0 is_stmt 0 discriminator 1
 1006 0022 7B69     		ldr	r3, [r7, #20]
 1007 0024 002B     		cmp	r3, #0
 1008 0026 11D1     		bne	.L55
 388:Generated_Source\PSoC6\pdl\drivers\peripheral\profile/cy_profile.c ****     {
 389:Generated_Source\PSoC6\pdl\drivers\peripheral\profile/cy_profile.c ****         /* calculate weighted count */
 390:Generated_Source\PSoC6\pdl\drivers\peripheral\profile/cy_profile.c ****         *result = temp * (uint64_t)(ctrAddr->weight);
 1009              		.loc 2 390 0 is_stmt 1
 1010 0028 7B68     		ldr	r3, [r7, #4]
 1011 002a 9B69     		ldr	r3, [r3, #24]
 1012 002c 1D00     		movs	r5, r3
 1013 002e 0023     		movs	r3, #0
 1014 0030 1E00     		movs	r6, r3
 1015 0032 BB68     		ldr	r3, [r7, #8]
 1016 0034 FC68     		ldr	r4, [r7, #12]
 1017 0036 1A00     		movs	r2, r3
 1018 0038 2300     		movs	r3, r4
 1019 003a 2800     		movs	r0, r5
 1020 003c 3100     		movs	r1, r6
 1021 003e FFF7FEFF 		bl	__aeabi_lmul
 1022 0042 0300     		movs	r3, r0
 1023 0044 0C00     		movs	r4, r1
 1024 0046 3A68     		ldr	r2, [r7]
 1025 0048 1360     		str	r3, [r2]
 1026 004a 5460     		str	r4, [r2, #4]
 1027              	.L55:
 391:Generated_Source\PSoC6\pdl\drivers\peripheral\profile/cy_profile.c ****     }
 392:Generated_Source\PSoC6\pdl\drivers\peripheral\profile/cy_profile.c ****     
 393:Generated_Source\PSoC6\pdl\drivers\peripheral\profile/cy_profile.c ****     return (retStatus);
 1028              		.loc 2 393 0
 1029 004c 7B69     		ldr	r3, [r7, #20]
 394:Generated_Source\PSoC6\pdl\drivers\peripheral\profile/cy_profile.c **** }
 1030              		.loc 2 394 0
 1031 004e 1800     		movs	r0, r3
 1032 0050 BD46     		mov	sp, r7
 1033 0052 07B0     		add	sp, sp, #28
 1034              		@ sp needed
 1035 0054 F0BD     		pop	{r4, r5, r6, r7, pc}
 1036              		.cfi_endproc
 1037              	.LFE59:
 1038              		.size	Cy_Profile_GetWeightedCount, .-Cy_Profile_GetWeightedCount
 1039 0056 C046     		.section	.text.Cy_Profile_GetSumWeightedCounts,"ax",%progbits
 1040              		.align	2
 1041              		.global	Cy_Profile_GetSumWeightedCounts
 1042              		.code	16
 1043              		.thumb_func
 1044              		.type	Cy_Profile_GetSumWeightedCounts, %function
 1045              	Cy_Profile_GetSumWeightedCounts:
ARM GAS  C:\Users\JC\AppData\Local\Temp\ccZlMrPB.s 			page 35


 1046              	.LFB60:
 395:Generated_Source\PSoC6\pdl\drivers\peripheral\profile/cy_profile.c **** 
 396:Generated_Source\PSoC6\pdl\drivers\peripheral\profile/cy_profile.c **** /*******************************************************************************
 397:Generated_Source\PSoC6\pdl\drivers\peripheral\profile/cy_profile.c **** * Function Name: Cy_Profile_GetSumWeightedCounts
 398:Generated_Source\PSoC6\pdl\drivers\peripheral\profile/cy_profile.c **** ****************************************************************************//**
 399:Generated_Source\PSoC6\pdl\drivers\peripheral\profile/cy_profile.c **** *
 400:Generated_Source\PSoC6\pdl\drivers\peripheral\profile/cy_profile.c **** * Reports the weighted sum result of the first n number of counter count values
 401:Generated_Source\PSoC6\pdl\drivers\peripheral\profile/cy_profile.c **** * starting from the specified profile counter data structure base address.
 402:Generated_Source\PSoC6\pdl\drivers\peripheral\profile/cy_profile.c **** *
 403:Generated_Source\PSoC6\pdl\drivers\peripheral\profile/cy_profile.c **** * Each count value is multiplied by its weighing factor before the summing
 404:Generated_Source\PSoC6\pdl\drivers\peripheral\profile/cy_profile.c **** * operation is performed.
 405:Generated_Source\PSoC6\pdl\drivers\peripheral\profile/cy_profile.c **** *
 406:Generated_Source\PSoC6\pdl\drivers\peripheral\profile/cy_profile.c **** * \param ptrsArray Base address of the profile counter data structure
 407:Generated_Source\PSoC6\pdl\drivers\peripheral\profile/cy_profile.c **** *
 408:Generated_Source\PSoC6\pdl\drivers\peripheral\profile/cy_profile.c **** * \param numCounters Number of measured counters in ptrsArray[]
 409:Generated_Source\PSoC6\pdl\drivers\peripheral\profile/cy_profile.c **** *
 410:Generated_Source\PSoC6\pdl\drivers\peripheral\profile/cy_profile.c **** * \return
 411:Generated_Source\PSoC6\pdl\drivers\peripheral\profile/cy_profile.c **** * The weighted sum of the specified counters
 412:Generated_Source\PSoC6\pdl\drivers\peripheral\profile/cy_profile.c **** *
 413:Generated_Source\PSoC6\pdl\drivers\peripheral\profile/cy_profile.c **** * \funcusage
 414:Generated_Source\PSoC6\pdl\drivers\peripheral\profile/cy_profile.c **** * \snippet profile/profile_v1_0_sut_01.cydsn/main_cm4.c snippet_Cy_Profile_GetSumWeightedCounts
 415:Generated_Source\PSoC6\pdl\drivers\peripheral\profile/cy_profile.c **** *
 416:Generated_Source\PSoC6\pdl\drivers\peripheral\profile/cy_profile.c **** *******************************************************************************/
 417:Generated_Source\PSoC6\pdl\drivers\peripheral\profile/cy_profile.c **** uint64_t Cy_Profile_GetSumWeightedCounts(cy_stc_profile_ctr_ptr_t ptrsArray[],
 418:Generated_Source\PSoC6\pdl\drivers\peripheral\profile/cy_profile.c ****                                     uint32_t numCounters)
 419:Generated_Source\PSoC6\pdl\drivers\peripheral\profile/cy_profile.c **** {
 1047              		.loc 2 419 0
 1048              		.cfi_startproc
 1049              		@ args = 0, pretend = 0, frame = 32
 1050              		@ frame_needed = 1, uses_anonymous_args = 0
 1051 0000 90B5     		push	{r4, r7, lr}
 1052              		.cfi_def_cfa_offset 12
 1053              		.cfi_offset 4, -12
 1054              		.cfi_offset 7, -8
 1055              		.cfi_offset 14, -4
 1056 0002 89B0     		sub	sp, sp, #36
 1057              		.cfi_def_cfa_offset 48
 1058 0004 00AF     		add	r7, sp, #0
 1059              		.cfi_def_cfa_register 7
 1060 0006 7860     		str	r0, [r7, #4]
 1061 0008 3960     		str	r1, [r7]
 420:Generated_Source\PSoC6\pdl\drivers\peripheral\profile/cy_profile.c ****     uint64_t daSum = (uint64_t)0UL;
 1062              		.loc 2 420 0
 1063 000a 0023     		movs	r3, #0
 1064 000c 0024     		movs	r4, #0
 1065 000e BB61     		str	r3, [r7, #24]
 1066 0010 FC61     		str	r4, [r7, #28]
 421:Generated_Source\PSoC6\pdl\drivers\peripheral\profile/cy_profile.c ****     
 422:Generated_Source\PSoC6\pdl\drivers\peripheral\profile/cy_profile.c ****     CY_ASSERT_L2(CY_PROFILE_IS_CNT_VALID(numCounters));
 1067              		.loc 2 422 0
 1068 0012 3B68     		ldr	r3, [r7]
 1069 0014 072B     		cmp	r3, #7
 1070 0016 06D9     		bls	.L58
 1071              		.loc 2 422 0 is_stmt 0 discriminator 1
 1072 0018 D323     		movs	r3, #211
 1073 001a 5A00     		lsls	r2, r3, #1
 1074 001c 164B     		ldr	r3, .L64
ARM GAS  C:\Users\JC\AppData\Local\Temp\ccZlMrPB.s 			page 36


 1075 001e 1100     		movs	r1, r2
 1076 0020 1800     		movs	r0, r3
 1077 0022 FFF7FEFF 		bl	Cy_SysLib_AssertFailed
 1078              	.L58:
 423:Generated_Source\PSoC6\pdl\drivers\peripheral\profile/cy_profile.c ****     
 424:Generated_Source\PSoC6\pdl\drivers\peripheral\profile/cy_profile.c ****     if(ptrsArray != NULL)
 1079              		.loc 2 424 0 is_stmt 1
 1080 0026 7B68     		ldr	r3, [r7, #4]
 1081 0028 002B     		cmp	r3, #0
 1082 002a 1ED0     		beq	.L59
 1083              	.LBB2:
 425:Generated_Source\PSoC6\pdl\drivers\peripheral\profile/cy_profile.c ****     {
 426:Generated_Source\PSoC6\pdl\drivers\peripheral\profile/cy_profile.c ****         uint64_t num;
 427:Generated_Source\PSoC6\pdl\drivers\peripheral\profile/cy_profile.c ****         uint32_t i;
 428:Generated_Source\PSoC6\pdl\drivers\peripheral\profile/cy_profile.c **** 
 429:Generated_Source\PSoC6\pdl\drivers\peripheral\profile/cy_profile.c ****         for (i = 0UL; i < numCounters; i++)
 1084              		.loc 2 429 0
 1085 002c 0023     		movs	r3, #0
 1086 002e 7B61     		str	r3, [r7, #20]
 1087 0030 17E0     		b	.L60
 1088              	.L62:
 430:Generated_Source\PSoC6\pdl\drivers\peripheral\profile/cy_profile.c ****         {
 431:Generated_Source\PSoC6\pdl\drivers\peripheral\profile/cy_profile.c ****             /* ignore error reported by Ep_GetWeightedCount() */
 432:Generated_Source\PSoC6\pdl\drivers\peripheral\profile/cy_profile.c ****             if (CY_PROFILE_SUCCESS == Cy_Profile_GetWeightedCount(ptrsArray[i], &num))
 1089              		.loc 2 432 0
 1090 0032 7B69     		ldr	r3, [r7, #20]
 1091 0034 9B00     		lsls	r3, r3, #2
 1092 0036 7A68     		ldr	r2, [r7, #4]
 1093 0038 D318     		adds	r3, r2, r3
 1094 003a 1B68     		ldr	r3, [r3]
 1095 003c 0822     		movs	r2, #8
 1096 003e BA18     		adds	r2, r7, r2
 1097 0040 1100     		movs	r1, r2
 1098 0042 1800     		movs	r0, r3
 1099 0044 FFF7FEFF 		bl	Cy_Profile_GetWeightedCount
 1100 0048 031E     		subs	r3, r0, #0
 1101 004a 07D1     		bne	.L61
 433:Generated_Source\PSoC6\pdl\drivers\peripheral\profile/cy_profile.c ****             {
 434:Generated_Source\PSoC6\pdl\drivers\peripheral\profile/cy_profile.c ****                 daSum += num;
 1102              		.loc 2 434 0
 1103 004c BB68     		ldr	r3, [r7, #8]
 1104 004e FC68     		ldr	r4, [r7, #12]
 1105 0050 B969     		ldr	r1, [r7, #24]
 1106 0052 FA69     		ldr	r2, [r7, #28]
 1107 0054 5B18     		adds	r3, r3, r1
 1108 0056 5441     		adcs	r4, r4, r2
 1109 0058 BB61     		str	r3, [r7, #24]
 1110 005a FC61     		str	r4, [r7, #28]
 1111              	.L61:
 429:Generated_Source\PSoC6\pdl\drivers\peripheral\profile/cy_profile.c ****         {
 1112              		.loc 2 429 0 discriminator 2
 1113 005c 7B69     		ldr	r3, [r7, #20]
 1114 005e 0133     		adds	r3, r3, #1
 1115 0060 7B61     		str	r3, [r7, #20]
 1116              	.L60:
 429:Generated_Source\PSoC6\pdl\drivers\peripheral\profile/cy_profile.c ****         {
 1117              		.loc 2 429 0 is_stmt 0 discriminator 1
ARM GAS  C:\Users\JC\AppData\Local\Temp\ccZlMrPB.s 			page 37


 1118 0062 7A69     		ldr	r2, [r7, #20]
 1119 0064 3B68     		ldr	r3, [r7]
 1120 0066 9A42     		cmp	r2, r3
 1121 0068 E3D3     		bcc	.L62
 1122              	.L59:
 1123              	.LBE2:
 435:Generated_Source\PSoC6\pdl\drivers\peripheral\profile/cy_profile.c ****             }
 436:Generated_Source\PSoC6\pdl\drivers\peripheral\profile/cy_profile.c ****         }
 437:Generated_Source\PSoC6\pdl\drivers\peripheral\profile/cy_profile.c ****     }
 438:Generated_Source\PSoC6\pdl\drivers\peripheral\profile/cy_profile.c ****     
 439:Generated_Source\PSoC6\pdl\drivers\peripheral\profile/cy_profile.c ****     return (daSum);
 1124              		.loc 2 439 0 is_stmt 1
 1125 006a BB69     		ldr	r3, [r7, #24]
 1126 006c FC69     		ldr	r4, [r7, #28]
 440:Generated_Source\PSoC6\pdl\drivers\peripheral\profile/cy_profile.c **** }
 1127              		.loc 2 440 0
 1128 006e 1800     		movs	r0, r3
 1129 0070 2100     		movs	r1, r4
 1130 0072 BD46     		mov	sp, r7
 1131 0074 09B0     		add	sp, sp, #36
 1132              		@ sp needed
 1133 0076 90BD     		pop	{r4, r7, pc}
 1134              	.L65:
 1135              		.align	2
 1136              	.L64:
 1137 0078 00000000 		.word	.LC5
 1138              		.cfi_endproc
 1139              	.LFE60:
 1140              		.size	Cy_Profile_GetSumWeightedCounts, .-Cy_Profile_GetSumWeightedCounts
 1141              		.text
 1142              	.Letext0:
 1143              		.file 3 "c:\\program files (x86)\\cypress\\psoc creator\\4.4\\psoc creator\\import\\gnu\\arm\\5.4.
 1144              		.file 4 "c:\\program files (x86)\\cypress\\psoc creator\\4.4\\psoc creator\\import\\gnu\\arm\\5.4.
 1145              		.file 5 "Generated_Source\\PSoC6\\pdl\\devices/psoc6/include/ip/cyip_profile.h"
 1146              		.file 6 "Generated_Source\\PSoC6\\pdl\\drivers/peripheral/device/cy_device.h"
 1147              		.file 7 "Generated_Source\\PSoC6\\pdl\\devices/psoc6/include/psoc6_01_config.h"
 1148              		.file 8 "Generated_Source\\PSoC6\\pdl\\drivers/peripheral/syslib/cy_syslib.h"