ARM GAS  C:\Users\JC\AppData\Local\Temp\ccQnhWsL.s 			page 1


   1              		.syntax unified
   2              		.cpu cortex-m0plus
   3              		.fpu softvfp
   4              		.eabi_attribute 20, 1
   5              		.eabi_attribute 21, 1
   6              		.eabi_attribute 23, 3
   7              		.eabi_attribute 24, 1
   8              		.eabi_attribute 25, 1
   9              		.eabi_attribute 26, 1
  10              		.eabi_attribute 30, 6
  11              		.eabi_attribute 34, 0
  12              		.eabi_attribute 18, 4
  13              		.thumb
  14              		.syntax unified
  15              		.file	"cy_ipc_sema.c"
  16              		.text
  17              	.Ltext0:
  18              		.cfi_sections	.debug_frame
  19              		.section	.rodata
  20              		.align	2
  21              	.LC1:
  22 0000 47656E65 		.ascii	"Generated_Source\\PSoC6\\pdl\\drivers\\peripheral\\"
  22      72617465 
  22      645F536F 
  22      75726365 
  22      5C50536F 
  23 002e 6970635C 		.ascii	"ipc\\cy_ipc_drv.h\000"
  23      63795F69 
  23      70635F64 
  23      72762E68 
  23      00
  24              		.section	.text.Cy_IPC_Drv_GetIpcBaseAddress,"ax",%progbits
  25              		.align	2
  26              		.code	16
  27              		.thumb_func
  28              		.type	Cy_IPC_Drv_GetIpcBaseAddress, %function
  29              	Cy_IPC_Drv_GetIpcBaseAddress:
  30              	.LFB45:
  31              		.file 1 "Generated_Source\\PSoC6\\pdl\\drivers\\peripheral\\ipc\\cy_ipc_drv.h"
   1:Generated_Source\PSoC6\pdl\drivers\peripheral\ipc/cy_ipc_drv.h **** /***************************************************************************//**
   2:Generated_Source\PSoC6\pdl\drivers\peripheral\ipc/cy_ipc_drv.h **** * \file cy_ipc_drv.h
   3:Generated_Source\PSoC6\pdl\drivers\peripheral\ipc/cy_ipc_drv.h **** * \version 1.30
   4:Generated_Source\PSoC6\pdl\drivers\peripheral\ipc/cy_ipc_drv.h **** *
   5:Generated_Source\PSoC6\pdl\drivers\peripheral\ipc/cy_ipc_drv.h **** * Provides an API declaration of the IPC driver.
   6:Generated_Source\PSoC6\pdl\drivers\peripheral\ipc/cy_ipc_drv.h **** *
   7:Generated_Source\PSoC6\pdl\drivers\peripheral\ipc/cy_ipc_drv.h **** ********************************************************************************
   8:Generated_Source\PSoC6\pdl\drivers\peripheral\ipc/cy_ipc_drv.h **** * \copyright
   9:Generated_Source\PSoC6\pdl\drivers\peripheral\ipc/cy_ipc_drv.h **** * Copyright 2016-2018, Cypress Semiconductor Corporation. All rights reserved.
  10:Generated_Source\PSoC6\pdl\drivers\peripheral\ipc/cy_ipc_drv.h **** * You may use this file only in accordance with the license, terms, conditions,
  11:Generated_Source\PSoC6\pdl\drivers\peripheral\ipc/cy_ipc_drv.h **** * disclaimers, and limitations in the end user license agreement accompanying
  12:Generated_Source\PSoC6\pdl\drivers\peripheral\ipc/cy_ipc_drv.h **** * the software package with which this file was provided.
  13:Generated_Source\PSoC6\pdl\drivers\peripheral\ipc/cy_ipc_drv.h **** *******************************************************************************/
  14:Generated_Source\PSoC6\pdl\drivers\peripheral\ipc/cy_ipc_drv.h **** 
  15:Generated_Source\PSoC6\pdl\drivers\peripheral\ipc/cy_ipc_drv.h **** #ifndef CY_IPC_DRV_H
  16:Generated_Source\PSoC6\pdl\drivers\peripheral\ipc/cy_ipc_drv.h **** #define CY_IPC_DRV_H
  17:Generated_Source\PSoC6\pdl\drivers\peripheral\ipc/cy_ipc_drv.h **** 
  18:Generated_Source\PSoC6\pdl\drivers\peripheral\ipc/cy_ipc_drv.h **** 
ARM GAS  C:\Users\JC\AppData\Local\Temp\ccQnhWsL.s 			page 2


  19:Generated_Source\PSoC6\pdl\drivers\peripheral\ipc/cy_ipc_drv.h **** /**
  20:Generated_Source\PSoC6\pdl\drivers\peripheral\ipc/cy_ipc_drv.h **** * \addtogroup group_ipc
  21:Generated_Source\PSoC6\pdl\drivers\peripheral\ipc/cy_ipc_drv.h **** * \{
  22:Generated_Source\PSoC6\pdl\drivers\peripheral\ipc/cy_ipc_drv.h **** * The inter-processor communication (IPC) driver provides a safe and reliable
  23:Generated_Source\PSoC6\pdl\drivers\peripheral\ipc/cy_ipc_drv.h **** * method to transfer data between CPUs. Hardware locking ensures that only one
  24:Generated_Source\PSoC6\pdl\drivers\peripheral\ipc/cy_ipc_drv.h **** * device can acquire and transfer data at a time so no data is lost or
  25:Generated_Source\PSoC6\pdl\drivers\peripheral\ipc/cy_ipc_drv.h **** * overwritten by asynchronous processes or CPUs.
  26:Generated_Source\PSoC6\pdl\drivers\peripheral\ipc/cy_ipc_drv.h **** *
  27:Generated_Source\PSoC6\pdl\drivers\peripheral\ipc/cy_ipc_drv.h **** * Include either cy_ipc_pipe.h or cy_ipc_sema.h. Alternatively include cy_pdl.h 
  28:Generated_Source\PSoC6\pdl\drivers\peripheral\ipc/cy_ipc_drv.h **** * (ModusToolbox only) to get access to all functions and declarations in the PDL.
  29:Generated_Source\PSoC6\pdl\drivers\peripheral\ipc/cy_ipc_drv.h **** *
  30:Generated_Source\PSoC6\pdl\drivers\peripheral\ipc/cy_ipc_drv.h **** * There are three parts to the API:
  31:Generated_Source\PSoC6\pdl\drivers\peripheral\ipc/cy_ipc_drv.h **** *     - Driver-level (DRV) API - used internally by Semaphore and Pipe levels
  32:Generated_Source\PSoC6\pdl\drivers\peripheral\ipc/cy_ipc_drv.h **** *     - Pipe-level (PIPE) API - establishes a communication channel between
  33:Generated_Source\PSoC6\pdl\drivers\peripheral\ipc/cy_ipc_drv.h **** *       processors
  34:Generated_Source\PSoC6\pdl\drivers\peripheral\ipc/cy_ipc_drv.h **** *     - Semaphore-level (SEMA) API - enables users to set and clear flags to
  35:Generated_Source\PSoC6\pdl\drivers\peripheral\ipc/cy_ipc_drv.h **** *       synchronize operations.
  36:Generated_Source\PSoC6\pdl\drivers\peripheral\ipc/cy_ipc_drv.h **** *
  37:Generated_Source\PSoC6\pdl\drivers\peripheral\ipc/cy_ipc_drv.h **** * Firmware does not need to use the DRV API. It can implement IPC functionality
  38:Generated_Source\PSoC6\pdl\drivers\peripheral\ipc/cy_ipc_drv.h **** * entirely with the PIPE and SEMA APIs.
  39:Generated_Source\PSoC6\pdl\drivers\peripheral\ipc/cy_ipc_drv.h **** *
  40:Generated_Source\PSoC6\pdl\drivers\peripheral\ipc/cy_ipc_drv.h **** * \section group_ipc_background Background
  41:Generated_Source\PSoC6\pdl\drivers\peripheral\ipc/cy_ipc_drv.h **** *
  42:Generated_Source\PSoC6\pdl\drivers\peripheral\ipc/cy_ipc_drv.h **** * IPC is implemented in hardware as a collection of individual communication
  43:Generated_Source\PSoC6\pdl\drivers\peripheral\ipc/cy_ipc_drv.h **** * channels, each with a set of 32-bit registers. The IPC design implements a set
  44:Generated_Source\PSoC6\pdl\drivers\peripheral\ipc/cy_ipc_drv.h **** * of interrupts that enable each processor to notify the other that data is
  45:Generated_Source\PSoC6\pdl\drivers\peripheral\ipc/cy_ipc_drv.h **** * available, or has been processed. There is also a locking mechanism that
  46:Generated_Source\PSoC6\pdl\drivers\peripheral\ipc/cy_ipc_drv.h **** * allows only one CPU to gain access at a time.
  47:Generated_Source\PSoC6\pdl\drivers\peripheral\ipc/cy_ipc_drv.h **** *
  48:Generated_Source\PSoC6\pdl\drivers\peripheral\ipc/cy_ipc_drv.h **** * The Driver-level API manages each channel's registers to implement IPC
  49:Generated_Source\PSoC6\pdl\drivers\peripheral\ipc/cy_ipc_drv.h **** * functionality. For information on the IPC registers, see the IPC chapter of
  50:Generated_Source\PSoC6\pdl\drivers\peripheral\ipc/cy_ipc_drv.h **** * the Technical Reference Manual (TRM).
  51:Generated_Source\PSoC6\pdl\drivers\peripheral\ipc/cy_ipc_drv.h **** *
  52:Generated_Source\PSoC6\pdl\drivers\peripheral\ipc/cy_ipc_drv.h **** * At the hardware level, communication is a five-step process.
  53:Generated_Source\PSoC6\pdl\drivers\peripheral\ipc/cy_ipc_drv.h **** *     -#  The sending processor acquires a channel
  54:Generated_Source\PSoC6\pdl\drivers\peripheral\ipc/cy_ipc_drv.h **** *     -#  It puts data into the channel
  55:Generated_Source\PSoC6\pdl\drivers\peripheral\ipc/cy_ipc_drv.h **** *     -#  The sender generates a notify event (interrupt)
  56:Generated_Source\PSoC6\pdl\drivers\peripheral\ipc/cy_ipc_drv.h **** *     -#  The receiving processor identifies the sender and retrieves the data
  57:Generated_Source\PSoC6\pdl\drivers\peripheral\ipc/cy_ipc_drv.h **** *     -#  The receiving processor generates a release event (interrupt)
  58:Generated_Source\PSoC6\pdl\drivers\peripheral\ipc/cy_ipc_drv.h **** *
  59:Generated_Source\PSoC6\pdl\drivers\peripheral\ipc/cy_ipc_drv.h **** * \image html ipc_driver.png
  60:Generated_Source\PSoC6\pdl\drivers\peripheral\ipc/cy_ipc_drv.h **** *
  61:Generated_Source\PSoC6\pdl\drivers\peripheral\ipc/cy_ipc_drv.h **** * These transactions are handled transparently by the DRV-level API. Use the
  62:Generated_Source\PSoC6\pdl\drivers\peripheral\ipc/cy_ipc_drv.h **** * PIPE and SEMA layers of the API to implement communication in your application.
  63:Generated_Source\PSoC6\pdl\drivers\peripheral\ipc/cy_ipc_drv.h **** * The data transferred is limited to a single 32-bit value. As implemented by
  64:Generated_Source\PSoC6\pdl\drivers\peripheral\ipc/cy_ipc_drv.h **** * the PIPE API, that value is a pointer to a data structure of arbitrary size
  65:Generated_Source\PSoC6\pdl\drivers\peripheral\ipc/cy_ipc_drv.h **** * and complexity.
  66:Generated_Source\PSoC6\pdl\drivers\peripheral\ipc/cy_ipc_drv.h **** *
  67:Generated_Source\PSoC6\pdl\drivers\peripheral\ipc/cy_ipc_drv.h **** * \section group_ipc_overview Overview
  68:Generated_Source\PSoC6\pdl\drivers\peripheral\ipc/cy_ipc_drv.h **** *
  69:Generated_Source\PSoC6\pdl\drivers\peripheral\ipc/cy_ipc_drv.h **** * The Pipe is the key element in the PDL design. A pipe is typically a
  70:Generated_Source\PSoC6\pdl\drivers\peripheral\ipc/cy_ipc_drv.h **** * full-duplex communication channel between CPU cores. A pipe allows a single
  71:Generated_Source\PSoC6\pdl\drivers\peripheral\ipc/cy_ipc_drv.h **** * conduit to transfer messages or data to and from multiple processes or CPUs.
  72:Generated_Source\PSoC6\pdl\drivers\peripheral\ipc/cy_ipc_drv.h **** *
  73:Generated_Source\PSoC6\pdl\drivers\peripheral\ipc/cy_ipc_drv.h **** * A pipe has two endpoints, one on each core. Each endpoint contains a dedicated
  74:Generated_Source\PSoC6\pdl\drivers\peripheral\ipc/cy_ipc_drv.h **** * IPC channel and an interrupt. IPC channels 0-7 and IPC interrupts 0-7 are
  75:Generated_Source\PSoC6\pdl\drivers\peripheral\ipc/cy_ipc_drv.h **** * reserved for system use.
ARM GAS  C:\Users\JC\AppData\Local\Temp\ccQnhWsL.s 			page 3


  76:Generated_Source\PSoC6\pdl\drivers\peripheral\ipc/cy_ipc_drv.h **** *
  77:Generated_Source\PSoC6\pdl\drivers\peripheral\ipc/cy_ipc_drv.h **** * The pipe also contains the number of clients it supports, and for each client
  78:Generated_Source\PSoC6\pdl\drivers\peripheral\ipc/cy_ipc_drv.h **** * a callback function. So the pipe can service a number of clients, each with a
  79:Generated_Source\PSoC6\pdl\drivers\peripheral\ipc/cy_ipc_drv.h **** * separate callback function, on either endpoint. The number of clients a pipe
  80:Generated_Source\PSoC6\pdl\drivers\peripheral\ipc/cy_ipc_drv.h **** * supports is the sum of each endpoint's clients.
  81:Generated_Source\PSoC6\pdl\drivers\peripheral\ipc/cy_ipc_drv.h **** *
  82:Generated_Source\PSoC6\pdl\drivers\peripheral\ipc/cy_ipc_drv.h **** * This design enables any number of processes on the sending core to put
  83:Generated_Source\PSoC6\pdl\drivers\peripheral\ipc/cy_ipc_drv.h **** * arbitrary data into a single pipe. The first element of that data is the
  84:Generated_Source\PSoC6\pdl\drivers\peripheral\ipc/cy_ipc_drv.h **** * client ID of the client that should handle the data.
  85:Generated_Source\PSoC6\pdl\drivers\peripheral\ipc/cy_ipc_drv.h **** *
  86:Generated_Source\PSoC6\pdl\drivers\peripheral\ipc/cy_ipc_drv.h **** * An interrupt notifies the receiving core that data is available. The receiving
  87:Generated_Source\PSoC6\pdl\drivers\peripheral\ipc/cy_ipc_drv.h **** * core parses the data to identify the client, and then dispatches the event to
  88:Generated_Source\PSoC6\pdl\drivers\peripheral\ipc/cy_ipc_drv.h **** * the appropriate client via the client callback function. An interrupt notifies
  89:Generated_Source\PSoC6\pdl\drivers\peripheral\ipc/cy_ipc_drv.h **** * the sending core that the receiver is finished. In this way a single pipe can
  90:Generated_Source\PSoC6\pdl\drivers\peripheral\ipc/cy_ipc_drv.h **** * manage arbitrary data transfers between cores with data flowing in either
  91:Generated_Source\PSoC6\pdl\drivers\peripheral\ipc/cy_ipc_drv.h **** * direction.
  92:Generated_Source\PSoC6\pdl\drivers\peripheral\ipc/cy_ipc_drv.h **** *
  93:Generated_Source\PSoC6\pdl\drivers\peripheral\ipc/cy_ipc_drv.h **** * \image html ipc_ints.png
  94:Generated_Source\PSoC6\pdl\drivers\peripheral\ipc/cy_ipc_drv.h **** *
  95:Generated_Source\PSoC6\pdl\drivers\peripheral\ipc/cy_ipc_drv.h **** * The application can use semaphores to control access to shared resources, as
  96:Generated_Source\PSoC6\pdl\drivers\peripheral\ipc/cy_ipc_drv.h **** * required by the application's logic.
  97:Generated_Source\PSoC6\pdl\drivers\peripheral\ipc/cy_ipc_drv.h **** *
  98:Generated_Source\PSoC6\pdl\drivers\peripheral\ipc/cy_ipc_drv.h **** * The PDL provides specific files that set up default IPC functionality.
  99:Generated_Source\PSoC6\pdl\drivers\peripheral\ipc/cy_ipc_drv.h **** * They are system_psoc6.h, system_psoc6_cm0plus.c and system_psoc6_cm4.c. You 
 100:Generated_Source\PSoC6\pdl\drivers\peripheral\ipc/cy_ipc_drv.h **** * can modify these files based on the requirements of your design. 
 101:Generated_Source\PSoC6\pdl\drivers\peripheral\ipc/cy_ipc_drv.h **** * If you use PSoC Creator as a development environment, it will not overwrite 
 102:Generated_Source\PSoC6\pdl\drivers\peripheral\ipc/cy_ipc_drv.h **** * your changes when you generate the application or build your code.
 103:Generated_Source\PSoC6\pdl\drivers\peripheral\ipc/cy_ipc_drv.h **** *
 104:Generated_Source\PSoC6\pdl\drivers\peripheral\ipc/cy_ipc_drv.h **** * \section group_ipc_pipe_layer PIPE layer
 105:Generated_Source\PSoC6\pdl\drivers\peripheral\ipc/cy_ipc_drv.h **** *
 106:Generated_Source\PSoC6\pdl\drivers\peripheral\ipc/cy_ipc_drv.h **** * A pipe is a communication channel between two endpoints. PSoC 6 devices support
 107:Generated_Source\PSoC6\pdl\drivers\peripheral\ipc/cy_ipc_drv.h **** * 16 IPC channels, and 16 IPC interrupts, each numbered 0-15. IPC Channels 0-7
 108:Generated_Source\PSoC6\pdl\drivers\peripheral\ipc/cy_ipc_drv.h **** * and IPC interrupts 0-7 are reserved for system use. Channels 8-15 and
 109:Generated_Source\PSoC6\pdl\drivers\peripheral\ipc/cy_ipc_drv.h **** * interrupts 8-15 are available for application use.
 110:Generated_Source\PSoC6\pdl\drivers\peripheral\ipc/cy_ipc_drv.h **** *
 111:Generated_Source\PSoC6\pdl\drivers\peripheral\ipc/cy_ipc_drv.h **** * A full duplex pipe uses two IPC channels, one per endpoint. Each endpoint
 112:Generated_Source\PSoC6\pdl\drivers\peripheral\ipc/cy_ipc_drv.h **** * specifies all the information required to process a message (either sent or
 113:Generated_Source\PSoC6\pdl\drivers\peripheral\ipc/cy_ipc_drv.h **** * received). Each endpoint is configured to use an IPC channel, and an IPC
 114:Generated_Source\PSoC6\pdl\drivers\peripheral\ipc/cy_ipc_drv.h **** * interrupt. Common practice is to use the interrupt with the same number as
 115:Generated_Source\PSoC6\pdl\drivers\peripheral\ipc/cy_ipc_drv.h **** * the IPC channel. However, IPC Interrupts are not directly associated with the
 116:Generated_Source\PSoC6\pdl\drivers\peripheral\ipc/cy_ipc_drv.h **** * IPC channels, so any channel can use any interrupt.  Any IPC channel can
 117:Generated_Source\PSoC6\pdl\drivers\peripheral\ipc/cy_ipc_drv.h **** * trigger 0, 1 or all the IPC interrupts at once, depending on the Notify or
 118:Generated_Source\PSoC6\pdl\drivers\peripheral\ipc/cy_ipc_drv.h **** * Release masks used.
 119:Generated_Source\PSoC6\pdl\drivers\peripheral\ipc/cy_ipc_drv.h **** *
 120:Generated_Source\PSoC6\pdl\drivers\peripheral\ipc/cy_ipc_drv.h **** * It is also possible to set up a one-directional pipe, using a single IPC
 121:Generated_Source\PSoC6\pdl\drivers\peripheral\ipc/cy_ipc_drv.h **** * channel. In this design one processor is always the sender, and the other is
 122:Generated_Source\PSoC6\pdl\drivers\peripheral\ipc/cy_ipc_drv.h **** * always the receiver. However, there are still two endpoints.
 123:Generated_Source\PSoC6\pdl\drivers\peripheral\ipc/cy_ipc_drv.h **** *
 124:Generated_Source\PSoC6\pdl\drivers\peripheral\ipc/cy_ipc_drv.h **** * A pipe supports an arbitrary number of clients with an array of callback
 125:Generated_Source\PSoC6\pdl\drivers\peripheral\ipc/cy_ipc_drv.h **** * functions, one per client. The client ID is the index number into the array
 126:Generated_Source\PSoC6\pdl\drivers\peripheral\ipc/cy_ipc_drv.h **** * for the client. After a pipe is configured and initialized, the application
 127:Generated_Source\PSoC6\pdl\drivers\peripheral\ipc/cy_ipc_drv.h **** * calls Cy_IPC_Pipe_RegisterCallback() once per client to register each client's
 128:Generated_Source\PSoC6\pdl\drivers\peripheral\ipc/cy_ipc_drv.h **** * callback function. Multiple clients can use the same callback function. The
 129:Generated_Source\PSoC6\pdl\drivers\peripheral\ipc/cy_ipc_drv.h **** * endpoints in a pipe share the callback array.
 130:Generated_Source\PSoC6\pdl\drivers\peripheral\ipc/cy_ipc_drv.h **** *
 131:Generated_Source\PSoC6\pdl\drivers\peripheral\ipc/cy_ipc_drv.h **** * Use Cy_IPC_Pipe_SendMessage() to send data. You specify both the "to" and
 132:Generated_Source\PSoC6\pdl\drivers\peripheral\ipc/cy_ipc_drv.h **** * "from" endpoints, and a callback function to be used when the data transfer is
ARM GAS  C:\Users\JC\AppData\Local\Temp\ccQnhWsL.s 			page 4


 133:Generated_Source\PSoC6\pdl\drivers\peripheral\ipc/cy_ipc_drv.h **** * complete. The data is a 32-bit void pointer. The data pointed to is arbitrary,
 134:Generated_Source\PSoC6\pdl\drivers\peripheral\ipc/cy_ipc_drv.h **** * and can be an array, a structure, or a location in memory. The only limitation
 135:Generated_Source\PSoC6\pdl\drivers\peripheral\ipc/cy_ipc_drv.h **** * is that the first element of the data must be a 32-bit unsigned word containing
 136:Generated_Source\PSoC6\pdl\drivers\peripheral\ipc/cy_ipc_drv.h **** * a client ID number. The ID number is the index into the callback array.
 137:Generated_Source\PSoC6\pdl\drivers\peripheral\ipc/cy_ipc_drv.h **** *
 138:Generated_Source\PSoC6\pdl\drivers\peripheral\ipc/cy_ipc_drv.h **** * When a message is sent, the receiving endpoint's interrupt handler is called.
 139:Generated_Source\PSoC6\pdl\drivers\peripheral\ipc/cy_ipc_drv.h **** * The ISR can perform any task required by the design. However, as part of its
 140:Generated_Source\PSoC6\pdl\drivers\peripheral\ipc/cy_ipc_drv.h **** * function it calls \ref Cy_IPC_Pipe_ExecCallback. This function retrieves the
 141:Generated_Source\PSoC6\pdl\drivers\peripheral\ipc/cy_ipc_drv.h **** * client ID from the data and calls the associated callback function.
 142:Generated_Source\PSoC6\pdl\drivers\peripheral\ipc/cy_ipc_drv.h **** * The user-supplied callback function handles the data in whatever way is
 143:Generated_Source\PSoC6\pdl\drivers\peripheral\ipc/cy_ipc_drv.h **** * appropriate based on the application logic.
 144:Generated_Source\PSoC6\pdl\drivers\peripheral\ipc/cy_ipc_drv.h **** *
 145:Generated_Source\PSoC6\pdl\drivers\peripheral\ipc/cy_ipc_drv.h **** * After the callback function is returned by the receiver, it invokes the release
 146:Generated_Source\PSoC6\pdl\drivers\peripheral\ipc/cy_ipc_drv.h **** * callback function defined by the sender of the message.
 147:Generated_Source\PSoC6\pdl\drivers\peripheral\ipc/cy_ipc_drv.h **** *
 148:Generated_Source\PSoC6\pdl\drivers\peripheral\ipc/cy_ipc_drv.h **** * \section group_ipc_sema_layer SEMA Layer
 149:Generated_Source\PSoC6\pdl\drivers\peripheral\ipc/cy_ipc_drv.h **** *
 150:Generated_Source\PSoC6\pdl\drivers\peripheral\ipc/cy_ipc_drv.h **** * A semaphore is a flag the application uses to control access to a shared
 151:Generated_Source\PSoC6\pdl\drivers\peripheral\ipc/cy_ipc_drv.h **** * resource. The SEMA-level API uses an IPC channel to implement
 152:Generated_Source\PSoC6\pdl\drivers\peripheral\ipc/cy_ipc_drv.h **** * semaphores. Startup code sets up a default semaphore system. The
 153:Generated_Source\PSoC6\pdl\drivers\peripheral\ipc/cy_ipc_drv.h **** * default system creates an array of 128 semaphores (four 32-bit values).
 154:Generated_Source\PSoC6\pdl\drivers\peripheral\ipc/cy_ipc_drv.h **** * Semaphores 0-15 are reserved for system use. See
 155:Generated_Source\PSoC6\pdl\drivers\peripheral\ipc/cy_ipc_drv.h **** * Configuration Considerations - SEMA.
 156:Generated_Source\PSoC6\pdl\drivers\peripheral\ipc/cy_ipc_drv.h **** *
 157:Generated_Source\PSoC6\pdl\drivers\peripheral\ipc/cy_ipc_drv.h **** * Functions are available to initialize the semaphore system, to set or
 158:Generated_Source\PSoC6\pdl\drivers\peripheral\ipc/cy_ipc_drv.h **** * clear a semaphore, or to get the semaphore's current status. Application
 159:Generated_Source\PSoC6\pdl\drivers\peripheral\ipc/cy_ipc_drv.h **** * logic uses SEMA functions to relate a particular semaphore to a particular
 160:Generated_Source\PSoC6\pdl\drivers\peripheral\ipc/cy_ipc_drv.h **** * shared resource, and set, clear, or check the flag when accessing the
 161:Generated_Source\PSoC6\pdl\drivers\peripheral\ipc/cy_ipc_drv.h **** * shared resource.
 162:Generated_Source\PSoC6\pdl\drivers\peripheral\ipc/cy_ipc_drv.h **** *
 163:Generated_Source\PSoC6\pdl\drivers\peripheral\ipc/cy_ipc_drv.h **** * \section group_ipc_configuration_cypipe Configuration Considerations - CYPIPE
 164:Generated_Source\PSoC6\pdl\drivers\peripheral\ipc/cy_ipc_drv.h **** *
 165:Generated_Source\PSoC6\pdl\drivers\peripheral\ipc/cy_ipc_drv.h **** * There are none. The startup files set up the required CYPIPE for system
 166:Generated_Source\PSoC6\pdl\drivers\peripheral\ipc/cy_ipc_drv.h **** * use. Do not modify the CYPIPE. It uses IPC channels 5 and 6 to implement full
 167:Generated_Source\PSoC6\pdl\drivers\peripheral\ipc/cy_ipc_drv.h **** * duplex communication between cores. See System Interrupt (SysInt) for background.
 168:Generated_Source\PSoC6\pdl\drivers\peripheral\ipc/cy_ipc_drv.h **** *
 169:Generated_Source\PSoC6\pdl\drivers\peripheral\ipc/cy_ipc_drv.h **** * To create your own pipe (<b>USRPIPE</b>) you should edit startup files
 170:Generated_Source\PSoC6\pdl\drivers\peripheral\ipc/cy_ipc_drv.h **** * and take 4 steps:
 171:Generated_Source\PSoC6\pdl\drivers\peripheral\ipc/cy_ipc_drv.h **** *   -# Define a pipe callbacks processing interrupt handler
 172:Generated_Source\PSoC6\pdl\drivers\peripheral\ipc/cy_ipc_drv.h **** *      (similar to <b>Cy_SysIpcPipeIsrCm0</b> or <b>Cy_SysIpcPipeIsrCm4</b>)
 173:Generated_Source\PSoC6\pdl\drivers\peripheral\ipc/cy_ipc_drv.h **** *   -# Define a callbacks array (similar to <b>systemIpcPipeSysCbArray</b>)
 174:Generated_Source\PSoC6\pdl\drivers\peripheral\ipc/cy_ipc_drv.h **** *   -# Define your pipe configuration with a cy_stc_ipc_pipe_config_t type structure
 175:Generated_Source\PSoC6\pdl\drivers\peripheral\ipc/cy_ipc_drv.h **** *      (similar to <b>systemIpcPipeConfigCm0</b> and <b>systemIpcPipeConfigCm4</b>)
 176:Generated_Source\PSoC6\pdl\drivers\peripheral\ipc/cy_ipc_drv.h **** *   -# Call Cy_IPC_Pipe_Init() from each core to initialize your pipe (similar
 177:Generated_Source\PSoC6\pdl\drivers\peripheral\ipc/cy_ipc_drv.h **** *      to call in the <b>SystemInit</b>)
 178:Generated_Source\PSoC6\pdl\drivers\peripheral\ipc/cy_ipc_drv.h **** *
 179:Generated_Source\PSoC6\pdl\drivers\peripheral\ipc/cy_ipc_drv.h **** * \section group_ipc_configuration_sema Configuration Considerations - SEMA
 180:Generated_Source\PSoC6\pdl\drivers\peripheral\ipc/cy_ipc_drv.h **** *
 181:Generated_Source\PSoC6\pdl\drivers\peripheral\ipc/cy_ipc_drv.h **** * Startup code calls Cy_IPC_Sema_Init() with default values to set up semaphore 
 182:Generated_Source\PSoC6\pdl\drivers\peripheral\ipc/cy_ipc_drv.h **** * functionality. By default the semaphore system uses IPC channel 4, and 
 183:Generated_Source\PSoC6\pdl\drivers\peripheral\ipc/cy_ipc_drv.h **** * creates 128 semaphores. Do <b>not</b> change the IPC channel. 
 184:Generated_Source\PSoC6\pdl\drivers\peripheral\ipc/cy_ipc_drv.h **** * You can change the number of semaphores.
 185:Generated_Source\PSoC6\pdl\drivers\peripheral\ipc/cy_ipc_drv.h **** *
 186:Generated_Source\PSoC6\pdl\drivers\peripheral\ipc/cy_ipc_drv.h **** * To change the number of semaphores, modify this line of code in system_psoc6.h.
 187:Generated_Source\PSoC6\pdl\drivers\peripheral\ipc/cy_ipc_drv.h **** *
 188:Generated_Source\PSoC6\pdl\drivers\peripheral\ipc/cy_ipc_drv.h **** * \code
 189:Generated_Source\PSoC6\pdl\drivers\peripheral\ipc/cy_ipc_drv.h **** * #define CY_IPC_SEMA_COUNT               (uint32_t)(128u)
ARM GAS  C:\Users\JC\AppData\Local\Temp\ccQnhWsL.s 			page 5


 190:Generated_Source\PSoC6\pdl\drivers\peripheral\ipc/cy_ipc_drv.h **** * \endcode
 191:Generated_Source\PSoC6\pdl\drivers\peripheral\ipc/cy_ipc_drv.h **** *
 192:Generated_Source\PSoC6\pdl\drivers\peripheral\ipc/cy_ipc_drv.h **** * Startup also declares array ipcSemaArray to hold the semaphore
 193:Generated_Source\PSoC6\pdl\drivers\peripheral\ipc/cy_ipc_drv.h **** * flags based on the size defined for this symbol. Use increments of 32. You
 194:Generated_Source\PSoC6\pdl\drivers\peripheral\ipc/cy_ipc_drv.h **** * must have at least 32 semaphores. Semaphores 0-15 are reserved for
 195:Generated_Source\PSoC6\pdl\drivers\peripheral\ipc/cy_ipc_drv.h **** * system use. Your application can use semaphores greater than 15.
 196:Generated_Source\PSoC6\pdl\drivers\peripheral\ipc/cy_ipc_drv.h **** *
 197:Generated_Source\PSoC6\pdl\drivers\peripheral\ipc/cy_ipc_drv.h **** * \section group_ipc_more_information More Information
 198:Generated_Source\PSoC6\pdl\drivers\peripheral\ipc/cy_ipc_drv.h **** *
 199:Generated_Source\PSoC6\pdl\drivers\peripheral\ipc/cy_ipc_drv.h **** * If the default startup file is not used, or SystemInit() is not called in your 
 200:Generated_Source\PSoC6\pdl\drivers\peripheral\ipc/cy_ipc_drv.h **** * project, call the following three functions prior to executing any flash or 
 201:Generated_Source\PSoC6\pdl\drivers\peripheral\ipc/cy_ipc_drv.h **** * EmEEPROM write or erase operation:
 202:Generated_Source\PSoC6\pdl\drivers\peripheral\ipc/cy_ipc_drv.h **** *  -# Cy_IPC_Sema_Init()
 203:Generated_Source\PSoC6\pdl\drivers\peripheral\ipc/cy_ipc_drv.h **** *  -# Cy_IPC_Pipe_Config()
 204:Generated_Source\PSoC6\pdl\drivers\peripheral\ipc/cy_ipc_drv.h **** *  -# Cy_IPC_Pipe_Init()
 205:Generated_Source\PSoC6\pdl\drivers\peripheral\ipc/cy_ipc_drv.h **** *  -# Cy_Flash_Init()
 206:Generated_Source\PSoC6\pdl\drivers\peripheral\ipc/cy_ipc_drv.h **** *
 207:Generated_Source\PSoC6\pdl\drivers\peripheral\ipc/cy_ipc_drv.h **** * See the technical reference manual(TRM) for more information on the IPC.
 208:Generated_Source\PSoC6\pdl\drivers\peripheral\ipc/cy_ipc_drv.h **** *
 209:Generated_Source\PSoC6\pdl\drivers\peripheral\ipc/cy_ipc_drv.h **** * \section group_ipc_MISRA MISRA-C Compliance
 210:Generated_Source\PSoC6\pdl\drivers\peripheral\ipc/cy_ipc_drv.h **** *
 211:Generated_Source\PSoC6\pdl\drivers\peripheral\ipc/cy_ipc_drv.h **** * <table class="doxtable">
 212:Generated_Source\PSoC6\pdl\drivers\peripheral\ipc/cy_ipc_drv.h **** *   <tr>
 213:Generated_Source\PSoC6\pdl\drivers\peripheral\ipc/cy_ipc_drv.h **** *     <th>MISRA Rule</th>
 214:Generated_Source\PSoC6\pdl\drivers\peripheral\ipc/cy_ipc_drv.h **** *     <th>Rule Class (Required/Advisory)</th>
 215:Generated_Source\PSoC6\pdl\drivers\peripheral\ipc/cy_ipc_drv.h **** *     <th>Rule Description</th>
 216:Generated_Source\PSoC6\pdl\drivers\peripheral\ipc/cy_ipc_drv.h **** *     <th style="width: 50%;">Description of Deviation(s)</th>
 217:Generated_Source\PSoC6\pdl\drivers\peripheral\ipc/cy_ipc_drv.h **** *   </tr>
 218:Generated_Source\PSoC6\pdl\drivers\peripheral\ipc/cy_ipc_drv.h **** *   <tr>
 219:Generated_Source\PSoC6\pdl\drivers\peripheral\ipc/cy_ipc_drv.h **** *     <td>10.3</td>
 220:Generated_Source\PSoC6\pdl\drivers\peripheral\ipc/cy_ipc_drv.h **** *     <td>R</td>
 221:Generated_Source\PSoC6\pdl\drivers\peripheral\ipc/cy_ipc_drv.h **** *     <td>The value of a complex expression of integer type shall be cast
 222:Generated_Source\PSoC6\pdl\drivers\peripheral\ipc/cy_ipc_drv.h **** *         only to a type of the same signedness that is no wider than the underlying
 223:Generated_Source\PSoC6\pdl\drivers\peripheral\ipc/cy_ipc_drv.h **** *         type of the expression.</td>
 224:Generated_Source\PSoC6\pdl\drivers\peripheral\ipc/cy_ipc_drv.h **** *     <td>The cast from integer to enumeration value is used to calculate
 225:Generated_Source\PSoC6\pdl\drivers\peripheral\ipc/cy_ipc_drv.h **** *         the interrupt vector source from the integer number of the IPC interrupt
 226:Generated_Source\PSoC6\pdl\drivers\peripheral\ipc/cy_ipc_drv.h **** *         structure, so there is no way to avoid this cast.</td>
 227:Generated_Source\PSoC6\pdl\drivers\peripheral\ipc/cy_ipc_drv.h **** *   </tr>
 228:Generated_Source\PSoC6\pdl\drivers\peripheral\ipc/cy_ipc_drv.h **** *   <tr>
 229:Generated_Source\PSoC6\pdl\drivers\peripheral\ipc/cy_ipc_drv.h **** *     <td>11.4</td>
 230:Generated_Source\PSoC6\pdl\drivers\peripheral\ipc/cy_ipc_drv.h **** *     <td>A</td>
 231:Generated_Source\PSoC6\pdl\drivers\peripheral\ipc/cy_ipc_drv.h **** *     <td>A cast should not be performed between a pointer to the void to a
 232:Generated_Source\PSoC6\pdl\drivers\peripheral\ipc/cy_ipc_drv.h **** *         pointer to the object type.</td>
 233:Generated_Source\PSoC6\pdl\drivers\peripheral\ipc/cy_ipc_drv.h **** *     <td>The cast from the void to pointer and vice versa is used to transmit
 234:Generated_Source\PSoC6\pdl\drivers\peripheral\ipc/cy_ipc_drv.h **** *         data via the \ref group_ipc channel by exchanging the pointer. We
 235:Generated_Source\PSoC6\pdl\drivers\peripheral\ipc/cy_ipc_drv.h **** *         exchange only one pointer, so there is no way to avoid this cast.</td>
 236:Generated_Source\PSoC6\pdl\drivers\peripheral\ipc/cy_ipc_drv.h **** *   </tr>
 237:Generated_Source\PSoC6\pdl\drivers\peripheral\ipc/cy_ipc_drv.h **** * </table>
 238:Generated_Source\PSoC6\pdl\drivers\peripheral\ipc/cy_ipc_drv.h **** *
 239:Generated_Source\PSoC6\pdl\drivers\peripheral\ipc/cy_ipc_drv.h **** * \section group_ipc_changelog Changelog
 240:Generated_Source\PSoC6\pdl\drivers\peripheral\ipc/cy_ipc_drv.h **** *
 241:Generated_Source\PSoC6\pdl\drivers\peripheral\ipc/cy_ipc_drv.h **** * <table class="doxtable">
 242:Generated_Source\PSoC6\pdl\drivers\peripheral\ipc/cy_ipc_drv.h **** *   <tr><th>Version</th><th>Changes</th><th>Reason for Change</th></tr>
 243:Generated_Source\PSoC6\pdl\drivers\peripheral\ipc/cy_ipc_drv.h **** *   <tr>
 244:Generated_Source\PSoC6\pdl\drivers\peripheral\ipc/cy_ipc_drv.h **** *     <td rowspan="3">1.30</td>
 245:Generated_Source\PSoC6\pdl\drivers\peripheral\ipc/cy_ipc_drv.h **** *     <td>Flattened the organization of the driver source code into the single source directory and
 246:Generated_Source\PSoC6\pdl\drivers\peripheral\ipc/cy_ipc_drv.h **** *     <td>Driver library directory-structure simplification.</td>
ARM GAS  C:\Users\JC\AppData\Local\Temp\ccQnhWsL.s 			page 6


 247:Generated_Source\PSoC6\pdl\drivers\peripheral\ipc/cy_ipc_drv.h **** *   </tr>
 248:Generated_Source\PSoC6\pdl\drivers\peripheral\ipc/cy_ipc_drv.h **** *   <tr>
 249:Generated_Source\PSoC6\pdl\drivers\peripheral\ipc/cy_ipc_drv.h **** *     <td>Moved the Cy_IPC_SystemSemaInit(), Cy_IPC_SystemPipeInit() functions implementation from 
 250:Generated_Source\PSoC6\pdl\drivers\peripheral\ipc/cy_ipc_drv.h **** *     <td>Changed IPC driver configuration method from compile time to run time.</td>
 251:Generated_Source\PSoC6\pdl\drivers\peripheral\ipc/cy_ipc_drv.h **** *   </tr>
 252:Generated_Source\PSoC6\pdl\drivers\peripheral\ipc/cy_ipc_drv.h **** *   <tr>
 253:Generated_Source\PSoC6\pdl\drivers\peripheral\ipc/cy_ipc_drv.h **** *     <td>Added register access layer. Use register access macros instead
 254:Generated_Source\PSoC6\pdl\drivers\peripheral\ipc/cy_ipc_drv.h **** *         of direct register access using dereferenced pointers.</td>
 255:Generated_Source\PSoC6\pdl\drivers\peripheral\ipc/cy_ipc_drv.h **** *     <td>Makes register access device-independent, so that the PDL does 
 256:Generated_Source\PSoC6\pdl\drivers\peripheral\ipc/cy_ipc_drv.h **** *         not need to be recompiled for each supported part number.</td>
 257:Generated_Source\PSoC6\pdl\drivers\peripheral\ipc/cy_ipc_drv.h **** *   </tr>
 258:Generated_Source\PSoC6\pdl\drivers\peripheral\ipc/cy_ipc_drv.h **** *   <tr>
 259:Generated_Source\PSoC6\pdl\drivers\peripheral\ipc/cy_ipc_drv.h **** *     <td>1.20</td>
 260:Generated_Source\PSoC6\pdl\drivers\peripheral\ipc/cy_ipc_drv.h **** *     <td>Added \ref Cy_IPC_Pipe_ExecuteCallback function.
 261:Generated_Source\PSoC6\pdl\drivers\peripheral\ipc/cy_ipc_drv.h **** *         Updated documentation about user pipe initialization.
 262:Generated_Source\PSoC6\pdl\drivers\peripheral\ipc/cy_ipc_drv.h **** *     </td>
 263:Generated_Source\PSoC6\pdl\drivers\peripheral\ipc/cy_ipc_drv.h **** *     <td>Interface improvement, documentation update</td>
 264:Generated_Source\PSoC6\pdl\drivers\peripheral\ipc/cy_ipc_drv.h **** *   </tr>
 265:Generated_Source\PSoC6\pdl\drivers\peripheral\ipc/cy_ipc_drv.h **** *   <tr>
 266:Generated_Source\PSoC6\pdl\drivers\peripheral\ipc/cy_ipc_drv.h **** *     <td>1.10.1</td>
 267:Generated_Source\PSoC6\pdl\drivers\peripheral\ipc/cy_ipc_drv.h **** *     <td>Updated description of the \ref Cy_IPC_Pipe_Init,
 268:Generated_Source\PSoC6\pdl\drivers\peripheral\ipc/cy_ipc_drv.h **** *         \ref Cy_IPC_Pipe_EndpointInit, \ref Cy_IPC_Sema_Set functions.
 269:Generated_Source\PSoC6\pdl\drivers\peripheral\ipc/cy_ipc_drv.h **** *         Added / updated code snippets.
 270:Generated_Source\PSoC6\pdl\drivers\peripheral\ipc/cy_ipc_drv.h **** *     </td>
 271:Generated_Source\PSoC6\pdl\drivers\peripheral\ipc/cy_ipc_drv.h **** *     <td>Documentation update and clarification</td>
 272:Generated_Source\PSoC6\pdl\drivers\peripheral\ipc/cy_ipc_drv.h **** *   </tr>
 273:Generated_Source\PSoC6\pdl\drivers\peripheral\ipc/cy_ipc_drv.h **** *   <tr>
 274:Generated_Source\PSoC6\pdl\drivers\peripheral\ipc/cy_ipc_drv.h **** *     <td>1.10</td>
 275:Generated_Source\PSoC6\pdl\drivers\peripheral\ipc/cy_ipc_drv.h **** *     <td>Added support for more IPC structures</td>
 276:Generated_Source\PSoC6\pdl\drivers\peripheral\ipc/cy_ipc_drv.h **** *     <td>New device support</td>
 277:Generated_Source\PSoC6\pdl\drivers\peripheral\ipc/cy_ipc_drv.h **** *   </tr>
 278:Generated_Source\PSoC6\pdl\drivers\peripheral\ipc/cy_ipc_drv.h **** *   <tr>
 279:Generated_Source\PSoC6\pdl\drivers\peripheral\ipc/cy_ipc_drv.h **** *     <td>1.0</td>
 280:Generated_Source\PSoC6\pdl\drivers\peripheral\ipc/cy_ipc_drv.h **** *     <td>Initial version</td>
 281:Generated_Source\PSoC6\pdl\drivers\peripheral\ipc/cy_ipc_drv.h **** *     <td></td>
 282:Generated_Source\PSoC6\pdl\drivers\peripheral\ipc/cy_ipc_drv.h **** *   </tr>
 283:Generated_Source\PSoC6\pdl\drivers\peripheral\ipc/cy_ipc_drv.h **** * </table>
 284:Generated_Source\PSoC6\pdl\drivers\peripheral\ipc/cy_ipc_drv.h **** *
 285:Generated_Source\PSoC6\pdl\drivers\peripheral\ipc/cy_ipc_drv.h **** * \defgroup group_ipc_drv IPC driver layer (IPC_DRV)
 286:Generated_Source\PSoC6\pdl\drivers\peripheral\ipc/cy_ipc_drv.h **** * \{
 287:Generated_Source\PSoC6\pdl\drivers\peripheral\ipc/cy_ipc_drv.h **** *   The functions of this layer are used in the higher IPC levels
 288:Generated_Source\PSoC6\pdl\drivers\peripheral\ipc/cy_ipc_drv.h **** *   (Semaphores and Pipes).
 289:Generated_Source\PSoC6\pdl\drivers\peripheral\ipc/cy_ipc_drv.h **** *   Users are not expected to call any of these IPC functions directly (cy_ipc_drv.h). 
 290:Generated_Source\PSoC6\pdl\drivers\peripheral\ipc/cy_ipc_drv.h **** *   Instead include either of cy_ipc_sema.h or cy_ipc_pipe.h. 
 291:Generated_Source\PSoC6\pdl\drivers\peripheral\ipc/cy_ipc_drv.h **** *   Alternatively include cy_pdl.h to get access to all functions and declarations in the PDL.
 292:Generated_Source\PSoC6\pdl\drivers\peripheral\ipc/cy_ipc_drv.h **** *
 293:Generated_Source\PSoC6\pdl\drivers\peripheral\ipc/cy_ipc_drv.h **** *   \defgroup group_ipc_macros Macros
 294:Generated_Source\PSoC6\pdl\drivers\peripheral\ipc/cy_ipc_drv.h **** *       Macro definitions are used in the driver
 295:Generated_Source\PSoC6\pdl\drivers\peripheral\ipc/cy_ipc_drv.h **** *
 296:Generated_Source\PSoC6\pdl\drivers\peripheral\ipc/cy_ipc_drv.h **** *   \defgroup group_ipc_functions Functions
 297:Generated_Source\PSoC6\pdl\drivers\peripheral\ipc/cy_ipc_drv.h **** *       Functions are used in the driver
 298:Generated_Source\PSoC6\pdl\drivers\peripheral\ipc/cy_ipc_drv.h **** *
 299:Generated_Source\PSoC6\pdl\drivers\peripheral\ipc/cy_ipc_drv.h **** *   \defgroup group_ipc_data_structures Data Structures
 300:Generated_Source\PSoC6\pdl\drivers\peripheral\ipc/cy_ipc_drv.h **** *       Data structures are used in the driver
 301:Generated_Source\PSoC6\pdl\drivers\peripheral\ipc/cy_ipc_drv.h **** *
 302:Generated_Source\PSoC6\pdl\drivers\peripheral\ipc/cy_ipc_drv.h **** *   \defgroup group_ipc_enums Enumerated Types
 303:Generated_Source\PSoC6\pdl\drivers\peripheral\ipc/cy_ipc_drv.h **** *       Enumerations are used in the driver
ARM GAS  C:\Users\JC\AppData\Local\Temp\ccQnhWsL.s 			page 7


 304:Generated_Source\PSoC6\pdl\drivers\peripheral\ipc/cy_ipc_drv.h **** * \}
 305:Generated_Source\PSoC6\pdl\drivers\peripheral\ipc/cy_ipc_drv.h **** *
 306:Generated_Source\PSoC6\pdl\drivers\peripheral\ipc/cy_ipc_drv.h **** * \defgroup group_ipc_sema IPC semaphores layer (IPC_SEMA)
 307:Generated_Source\PSoC6\pdl\drivers\peripheral\ipc/cy_ipc_drv.h **** * \defgroup group_ipc_pipe IPC pipes layer (IPC_PIPE)
 308:Generated_Source\PSoC6\pdl\drivers\peripheral\ipc/cy_ipc_drv.h **** *
 309:Generated_Source\PSoC6\pdl\drivers\peripheral\ipc/cy_ipc_drv.h **** */
 310:Generated_Source\PSoC6\pdl\drivers\peripheral\ipc/cy_ipc_drv.h **** 
 311:Generated_Source\PSoC6\pdl\drivers\peripheral\ipc/cy_ipc_drv.h **** 
 312:Generated_Source\PSoC6\pdl\drivers\peripheral\ipc/cy_ipc_drv.h **** /******************************************************************************/
 313:Generated_Source\PSoC6\pdl\drivers\peripheral\ipc/cy_ipc_drv.h **** /* Include files                                                              */
 314:Generated_Source\PSoC6\pdl\drivers\peripheral\ipc/cy_ipc_drv.h **** /******************************************************************************/
 315:Generated_Source\PSoC6\pdl\drivers\peripheral\ipc/cy_ipc_drv.h **** 
 316:Generated_Source\PSoC6\pdl\drivers\peripheral\ipc/cy_ipc_drv.h **** #include "cy_device.h"
 317:Generated_Source\PSoC6\pdl\drivers\peripheral\ipc/cy_ipc_drv.h **** #include "cy_device_headers.h"
 318:Generated_Source\PSoC6\pdl\drivers\peripheral\ipc/cy_ipc_drv.h **** #include "cy_syslib.h"
 319:Generated_Source\PSoC6\pdl\drivers\peripheral\ipc/cy_ipc_drv.h **** #include <stddef.h>
 320:Generated_Source\PSoC6\pdl\drivers\peripheral\ipc/cy_ipc_drv.h **** 
 321:Generated_Source\PSoC6\pdl\drivers\peripheral\ipc/cy_ipc_drv.h **** 
 322:Generated_Source\PSoC6\pdl\drivers\peripheral\ipc/cy_ipc_drv.h **** /**
 323:Generated_Source\PSoC6\pdl\drivers\peripheral\ipc/cy_ipc_drv.h **** * \addtogroup group_ipc_macros
 324:Generated_Source\PSoC6\pdl\drivers\peripheral\ipc/cy_ipc_drv.h **** * \{
 325:Generated_Source\PSoC6\pdl\drivers\peripheral\ipc/cy_ipc_drv.h **** */
 326:Generated_Source\PSoC6\pdl\drivers\peripheral\ipc/cy_ipc_drv.h **** 
 327:Generated_Source\PSoC6\pdl\drivers\peripheral\ipc/cy_ipc_drv.h **** /** Driver major version */
 328:Generated_Source\PSoC6\pdl\drivers\peripheral\ipc/cy_ipc_drv.h **** #define CY_IPC_DRV_VERSION_MAJOR       1
 329:Generated_Source\PSoC6\pdl\drivers\peripheral\ipc/cy_ipc_drv.h **** 
 330:Generated_Source\PSoC6\pdl\drivers\peripheral\ipc/cy_ipc_drv.h **** /** Driver minor version */
 331:Generated_Source\PSoC6\pdl\drivers\peripheral\ipc/cy_ipc_drv.h **** #define CY_IPC_DRV_VERSION_MINOR       30
 332:Generated_Source\PSoC6\pdl\drivers\peripheral\ipc/cy_ipc_drv.h **** 
 333:Generated_Source\PSoC6\pdl\drivers\peripheral\ipc/cy_ipc_drv.h **** /** Defines a value to indicate that no notification events are needed */
 334:Generated_Source\PSoC6\pdl\drivers\peripheral\ipc/cy_ipc_drv.h **** #define CY_IPC_NO_NOTIFICATION         (uint32_t)(0x00000000ul)
 335:Generated_Source\PSoC6\pdl\drivers\peripheral\ipc/cy_ipc_drv.h **** 
 336:Generated_Source\PSoC6\pdl\drivers\peripheral\ipc/cy_ipc_drv.h **** /* Error Code constants */
 337:Generated_Source\PSoC6\pdl\drivers\peripheral\ipc/cy_ipc_drv.h **** #define CY_IPC_ID CY_PDL_DRV_ID(0x22u)  /**< Software PDL driver ID for IPC */
 338:Generated_Source\PSoC6\pdl\drivers\peripheral\ipc/cy_ipc_drv.h **** 
 339:Generated_Source\PSoC6\pdl\drivers\peripheral\ipc/cy_ipc_drv.h **** /** Return prefix for IPC driver function status codes */
 340:Generated_Source\PSoC6\pdl\drivers\peripheral\ipc/cy_ipc_drv.h **** #define CY_IPC_ID_INFO    (uint32_t)( CY_IPC_ID | CY_PDL_STATUS_INFO )
 341:Generated_Source\PSoC6\pdl\drivers\peripheral\ipc/cy_ipc_drv.h **** /** Return prefix for IPC driver function warning return values */
 342:Generated_Source\PSoC6\pdl\drivers\peripheral\ipc/cy_ipc_drv.h **** #define CY_IPC_ID_WARNING (uint32_t)( CY_IPC_ID | CY_PDL_STATUS_WARNING)
 343:Generated_Source\PSoC6\pdl\drivers\peripheral\ipc/cy_ipc_drv.h **** /** Return prefix for IPC driver function error return values */
 344:Generated_Source\PSoC6\pdl\drivers\peripheral\ipc/cy_ipc_drv.h **** #define CY_IPC_ID_ERROR   (uint32_t)( CY_IPC_ID | CY_PDL_STATUS_ERROR)
 345:Generated_Source\PSoC6\pdl\drivers\peripheral\ipc/cy_ipc_drv.h **** 
 346:Generated_Source\PSoC6\pdl\drivers\peripheral\ipc/cy_ipc_drv.h **** /** Converts the IPC interrupt channel number to interrupt vector */
 347:Generated_Source\PSoC6\pdl\drivers\peripheral\ipc/cy_ipc_drv.h **** #define CY_IPC_INTR_NUM_TO_VECT(x)         ((int32_t) cy_device->cpussIpc0Irq + (x))
 348:Generated_Source\PSoC6\pdl\drivers\peripheral\ipc/cy_ipc_drv.h **** 
 349:Generated_Source\PSoC6\pdl\drivers\peripheral\ipc/cy_ipc_drv.h **** /** \} group_ipc_macros */
 350:Generated_Source\PSoC6\pdl\drivers\peripheral\ipc/cy_ipc_drv.h **** 
 351:Generated_Source\PSoC6\pdl\drivers\peripheral\ipc/cy_ipc_drv.h **** /* end of definition in device.h */
 352:Generated_Source\PSoC6\pdl\drivers\peripheral\ipc/cy_ipc_drv.h **** 
 353:Generated_Source\PSoC6\pdl\drivers\peripheral\ipc/cy_ipc_drv.h **** /** \cond INTERNAL */
 354:Generated_Source\PSoC6\pdl\drivers\peripheral\ipc/cy_ipc_drv.h **** #if (CY_CPU_CORTEX_M0P)
 355:Generated_Source\PSoC6\pdl\drivers\peripheral\ipc/cy_ipc_drv.h ****     #define CY_IPC_CHAN_SYSCALL         CY_IPC_CHAN_SYSCALL_CM0
 356:Generated_Source\PSoC6\pdl\drivers\peripheral\ipc/cy_ipc_drv.h **** #else
 357:Generated_Source\PSoC6\pdl\drivers\peripheral\ipc/cy_ipc_drv.h ****     #define CY_IPC_CHAN_SYSCALL         CY_IPC_CHAN_SYSCALL_CM4
 358:Generated_Source\PSoC6\pdl\drivers\peripheral\ipc/cy_ipc_drv.h **** #endif  /* (CY_CPU_CORTEX_M0P) */
 359:Generated_Source\PSoC6\pdl\drivers\peripheral\ipc/cy_ipc_drv.h **** /** \endcond */
 360:Generated_Source\PSoC6\pdl\drivers\peripheral\ipc/cy_ipc_drv.h **** 
ARM GAS  C:\Users\JC\AppData\Local\Temp\ccQnhWsL.s 			page 8


 361:Generated_Source\PSoC6\pdl\drivers\peripheral\ipc/cy_ipc_drv.h **** /**
 362:Generated_Source\PSoC6\pdl\drivers\peripheral\ipc/cy_ipc_drv.h **** * \addtogroup group_ipc_enums
 363:Generated_Source\PSoC6\pdl\drivers\peripheral\ipc/cy_ipc_drv.h **** * \{
 364:Generated_Source\PSoC6\pdl\drivers\peripheral\ipc/cy_ipc_drv.h **** */
 365:Generated_Source\PSoC6\pdl\drivers\peripheral\ipc/cy_ipc_drv.h **** 
 366:Generated_Source\PSoC6\pdl\drivers\peripheral\ipc/cy_ipc_drv.h **** /**
 367:Generated_Source\PSoC6\pdl\drivers\peripheral\ipc/cy_ipc_drv.h **** * This is a list of ENUMs used for function return status.
 368:Generated_Source\PSoC6\pdl\drivers\peripheral\ipc/cy_ipc_drv.h **** */
 369:Generated_Source\PSoC6\pdl\drivers\peripheral\ipc/cy_ipc_drv.h **** typedef enum
 370:Generated_Source\PSoC6\pdl\drivers\peripheral\ipc/cy_ipc_drv.h **** {
 371:Generated_Source\PSoC6\pdl\drivers\peripheral\ipc/cy_ipc_drv.h ****     /** Function was successfully executed */
 372:Generated_Source\PSoC6\pdl\drivers\peripheral\ipc/cy_ipc_drv.h ****     CY_IPC_DRV_SUCCESS      = (0x00u),
 373:Generated_Source\PSoC6\pdl\drivers\peripheral\ipc/cy_ipc_drv.h ****     /** Function was not executed due to an error.
 374:Generated_Source\PSoC6\pdl\drivers\peripheral\ipc/cy_ipc_drv.h ****         Typical conditions for the error explained
 375:Generated_Source\PSoC6\pdl\drivers\peripheral\ipc/cy_ipc_drv.h ****         in the function description */
 376:Generated_Source\PSoC6\pdl\drivers\peripheral\ipc/cy_ipc_drv.h ****     CY_IPC_DRV_ERROR        = ( CY_IPC_ID_ERROR + 1ul),
 377:Generated_Source\PSoC6\pdl\drivers\peripheral\ipc/cy_ipc_drv.h **** } cy_en_ipcdrv_status_t;
 378:Generated_Source\PSoC6\pdl\drivers\peripheral\ipc/cy_ipc_drv.h **** 
 379:Generated_Source\PSoC6\pdl\drivers\peripheral\ipc/cy_ipc_drv.h **** /** \} group_ipc_enums */
 380:Generated_Source\PSoC6\pdl\drivers\peripheral\ipc/cy_ipc_drv.h **** 
 381:Generated_Source\PSoC6\pdl\drivers\peripheral\ipc/cy_ipc_drv.h **** 
 382:Generated_Source\PSoC6\pdl\drivers\peripheral\ipc/cy_ipc_drv.h **** #ifdef __cplusplus
 383:Generated_Source\PSoC6\pdl\drivers\peripheral\ipc/cy_ipc_drv.h **** extern "C" {
 384:Generated_Source\PSoC6\pdl\drivers\peripheral\ipc/cy_ipc_drv.h **** #endif
 385:Generated_Source\PSoC6\pdl\drivers\peripheral\ipc/cy_ipc_drv.h **** 
 386:Generated_Source\PSoC6\pdl\drivers\peripheral\ipc/cy_ipc_drv.h **** /** \cond INTERNAL */
 387:Generated_Source\PSoC6\pdl\drivers\peripheral\ipc/cy_ipc_drv.h **** 
 388:Generated_Source\PSoC6\pdl\drivers\peripheral\ipc/cy_ipc_drv.h **** __STATIC_INLINE void     Cy_IPC_Drv_WriteDataValue (IPC_STRUCT_Type* base, uint32_t dataValue);
 389:Generated_Source\PSoC6\pdl\drivers\peripheral\ipc/cy_ipc_drv.h **** __STATIC_INLINE uint32_t Cy_IPC_Drv_ReadDataValue (IPC_STRUCT_Type const * base);
 390:Generated_Source\PSoC6\pdl\drivers\peripheral\ipc/cy_ipc_drv.h **** 
 391:Generated_Source\PSoC6\pdl\drivers\peripheral\ipc/cy_ipc_drv.h **** __STATIC_INLINE uint32_t Cy_IPC_Drv_ExtractAcquireMask (uint32_t intMask);
 392:Generated_Source\PSoC6\pdl\drivers\peripheral\ipc/cy_ipc_drv.h **** __STATIC_INLINE uint32_t Cy_IPC_Drv_ExtractReleaseMask (uint32_t intMask);
 393:Generated_Source\PSoC6\pdl\drivers\peripheral\ipc/cy_ipc_drv.h **** 
 394:Generated_Source\PSoC6\pdl\drivers\peripheral\ipc/cy_ipc_drv.h **** /** \endcond */
 395:Generated_Source\PSoC6\pdl\drivers\peripheral\ipc/cy_ipc_drv.h **** 
 396:Generated_Source\PSoC6\pdl\drivers\peripheral\ipc/cy_ipc_drv.h **** /**
 397:Generated_Source\PSoC6\pdl\drivers\peripheral\ipc/cy_ipc_drv.h **** * \addtogroup group_ipc_functions
 398:Generated_Source\PSoC6\pdl\drivers\peripheral\ipc/cy_ipc_drv.h **** * \{
 399:Generated_Source\PSoC6\pdl\drivers\peripheral\ipc/cy_ipc_drv.h **** */
 400:Generated_Source\PSoC6\pdl\drivers\peripheral\ipc/cy_ipc_drv.h **** 
 401:Generated_Source\PSoC6\pdl\drivers\peripheral\ipc/cy_ipc_drv.h **** __STATIC_INLINE IPC_STRUCT_Type*       Cy_IPC_Drv_GetIpcBaseAddress (uint32_t ipcIndex);
 402:Generated_Source\PSoC6\pdl\drivers\peripheral\ipc/cy_ipc_drv.h **** __STATIC_INLINE IPC_INTR_STRUCT_Type*  Cy_IPC_Drv_GetIntrBaseAddr (uint32_t ipcIntrIndex);
 403:Generated_Source\PSoC6\pdl\drivers\peripheral\ipc/cy_ipc_drv.h **** 
 404:Generated_Source\PSoC6\pdl\drivers\peripheral\ipc/cy_ipc_drv.h **** __STATIC_INLINE void     Cy_IPC_Drv_AcquireNotify (IPC_STRUCT_Type * base, uint32_t notifyEventIntr
 405:Generated_Source\PSoC6\pdl\drivers\peripheral\ipc/cy_ipc_drv.h **** __STATIC_INLINE void     Cy_IPC_Drv_ReleaseNotify (IPC_STRUCT_Type * base, uint32_t notifyEventIntr
 406:Generated_Source\PSoC6\pdl\drivers\peripheral\ipc/cy_ipc_drv.h **** 
 407:Generated_Source\PSoC6\pdl\drivers\peripheral\ipc/cy_ipc_drv.h **** __STATIC_INLINE  cy_en_ipcdrv_status_t Cy_IPC_Drv_LockAcquire (IPC_STRUCT_Type const * base);
 408:Generated_Source\PSoC6\pdl\drivers\peripheral\ipc/cy_ipc_drv.h **** cy_en_ipcdrv_status_t    Cy_IPC_Drv_LockRelease (IPC_STRUCT_Type * base, uint32_t releaseEventIntr)
 409:Generated_Source\PSoC6\pdl\drivers\peripheral\ipc/cy_ipc_drv.h **** __STATIC_INLINE bool     Cy_IPC_Drv_IsLockAcquired (IPC_STRUCT_Type const * base);
 410:Generated_Source\PSoC6\pdl\drivers\peripheral\ipc/cy_ipc_drv.h **** __STATIC_INLINE uint32_t Cy_IPC_Drv_GetLockStatus (IPC_STRUCT_Type const * base);
 411:Generated_Source\PSoC6\pdl\drivers\peripheral\ipc/cy_ipc_drv.h **** 
 412:Generated_Source\PSoC6\pdl\drivers\peripheral\ipc/cy_ipc_drv.h **** cy_en_ipcdrv_status_t    Cy_IPC_Drv_SendMsgWord (IPC_STRUCT_Type * base, uint32_t notifyEventIntr, 
 413:Generated_Source\PSoC6\pdl\drivers\peripheral\ipc/cy_ipc_drv.h **** cy_en_ipcdrv_status_t    Cy_IPC_Drv_ReadMsgWord (IPC_STRUCT_Type const * base, uint32_t * message);
 414:Generated_Source\PSoC6\pdl\drivers\peripheral\ipc/cy_ipc_drv.h **** __STATIC_INLINE cy_en_ipcdrv_status_t Cy_IPC_Drv_SendMsgPtr (IPC_STRUCT_Type* base, uint32_t notify
 415:Generated_Source\PSoC6\pdl\drivers\peripheral\ipc/cy_ipc_drv.h **** __STATIC_INLINE cy_en_ipcdrv_status_t Cy_IPC_Drv_ReadMsgPtr (IPC_STRUCT_Type const * base, void ** 
 416:Generated_Source\PSoC6\pdl\drivers\peripheral\ipc/cy_ipc_drv.h **** 
 417:Generated_Source\PSoC6\pdl\drivers\peripheral\ipc/cy_ipc_drv.h **** __STATIC_INLINE void     Cy_IPC_Drv_SetInterruptMask (IPC_INTR_STRUCT_Type * base,
ARM GAS  C:\Users\JC\AppData\Local\Temp\ccQnhWsL.s 			page 9


 418:Generated_Source\PSoC6\pdl\drivers\peripheral\ipc/cy_ipc_drv.h ****                                                       uint32_t ipcReleaseMask, uint32_t ipcAcquireM
 419:Generated_Source\PSoC6\pdl\drivers\peripheral\ipc/cy_ipc_drv.h **** __STATIC_INLINE uint32_t Cy_IPC_Drv_GetInterruptMask (IPC_INTR_STRUCT_Type const * base);
 420:Generated_Source\PSoC6\pdl\drivers\peripheral\ipc/cy_ipc_drv.h **** __STATIC_INLINE uint32_t Cy_IPC_Drv_GetInterruptStatusMasked (IPC_INTR_STRUCT_Type const * base);
 421:Generated_Source\PSoC6\pdl\drivers\peripheral\ipc/cy_ipc_drv.h **** __STATIC_INLINE uint32_t Cy_IPC_Drv_GetInterruptStatus (IPC_INTR_STRUCT_Type const * base);
 422:Generated_Source\PSoC6\pdl\drivers\peripheral\ipc/cy_ipc_drv.h **** __STATIC_INLINE void     Cy_IPC_Drv_SetInterrupt (IPC_INTR_STRUCT_Type * base,
 423:Generated_Source\PSoC6\pdl\drivers\peripheral\ipc/cy_ipc_drv.h ****                                                       uint32_t ipcReleaseMask, uint32_t ipcAcquireM
 424:Generated_Source\PSoC6\pdl\drivers\peripheral\ipc/cy_ipc_drv.h **** __STATIC_INLINE void     Cy_IPC_Drv_ClearInterrupt (IPC_INTR_STRUCT_Type * base,
 425:Generated_Source\PSoC6\pdl\drivers\peripheral\ipc/cy_ipc_drv.h ****                                                       uint32_t ipcReleaseMask, uint32_t ipcAcquireM
 426:Generated_Source\PSoC6\pdl\drivers\peripheral\ipc/cy_ipc_drv.h **** 
 427:Generated_Source\PSoC6\pdl\drivers\peripheral\ipc/cy_ipc_drv.h **** 
 428:Generated_Source\PSoC6\pdl\drivers\peripheral\ipc/cy_ipc_drv.h **** /*******************************************************************************
 429:Generated_Source\PSoC6\pdl\drivers\peripheral\ipc/cy_ipc_drv.h **** * Function Name: Cy_IPC_Drv_GetIpcBaseAddress
 430:Generated_Source\PSoC6\pdl\drivers\peripheral\ipc/cy_ipc_drv.h **** ****************************************************************************//**
 431:Generated_Source\PSoC6\pdl\drivers\peripheral\ipc/cy_ipc_drv.h **** *
 432:Generated_Source\PSoC6\pdl\drivers\peripheral\ipc/cy_ipc_drv.h **** * This function takes an IPC channel index as a parameter and returns the base
 433:Generated_Source\PSoC6\pdl\drivers\peripheral\ipc/cy_ipc_drv.h **** * address the IPC registers corresponding to the IPC channel.
 434:Generated_Source\PSoC6\pdl\drivers\peripheral\ipc/cy_ipc_drv.h **** *
 435:Generated_Source\PSoC6\pdl\drivers\peripheral\ipc/cy_ipc_drv.h **** * \note The user is responsible for ensuring that ipcIndex does not exceed the
 436:Generated_Source\PSoC6\pdl\drivers\peripheral\ipc/cy_ipc_drv.h **** * limits.
 437:Generated_Source\PSoC6\pdl\drivers\peripheral\ipc/cy_ipc_drv.h **** *
 438:Generated_Source\PSoC6\pdl\drivers\peripheral\ipc/cy_ipc_drv.h **** * \param ipcIndex
 439:Generated_Source\PSoC6\pdl\drivers\peripheral\ipc/cy_ipc_drv.h **** * Represents the number of IPC structure. This is converted to the base address of
 440:Generated_Source\PSoC6\pdl\drivers\peripheral\ipc/cy_ipc_drv.h **** * the IPC channel registers.
 441:Generated_Source\PSoC6\pdl\drivers\peripheral\ipc/cy_ipc_drv.h **** *
 442:Generated_Source\PSoC6\pdl\drivers\peripheral\ipc/cy_ipc_drv.h **** * \return
 443:Generated_Source\PSoC6\pdl\drivers\peripheral\ipc/cy_ipc_drv.h **** * Returns a pointer to the base of the IPC registers.
 444:Generated_Source\PSoC6\pdl\drivers\peripheral\ipc/cy_ipc_drv.h **** *
 445:Generated_Source\PSoC6\pdl\drivers\peripheral\ipc/cy_ipc_drv.h **** * \funcusage
 446:Generated_Source\PSoC6\pdl\drivers\peripheral\ipc/cy_ipc_drv.h **** * \snippet IPC_sut_01.cydsn/main_cm4.c snippet_Cy_IPC_Drv_SendMsgWord
 447:Generated_Source\PSoC6\pdl\drivers\peripheral\ipc/cy_ipc_drv.h **** *
 448:Generated_Source\PSoC6\pdl\drivers\peripheral\ipc/cy_ipc_drv.h **** *******************************************************************************/
 449:Generated_Source\PSoC6\pdl\drivers\peripheral\ipc/cy_ipc_drv.h **** __STATIC_INLINE IPC_STRUCT_Type* Cy_IPC_Drv_GetIpcBaseAddress (uint32_t ipcIndex)
 450:Generated_Source\PSoC6\pdl\drivers\peripheral\ipc/cy_ipc_drv.h **** {
  32              		.loc 1 450 0
  33              		.cfi_startproc
  34              		@ args = 0, pretend = 0, frame = 8
  35              		@ frame_needed = 1, uses_anonymous_args = 0
  36 0000 80B5     		push	{r7, lr}
  37              		.cfi_def_cfa_offset 8
  38              		.cfi_offset 7, -8
  39              		.cfi_offset 14, -4
  40 0002 82B0     		sub	sp, sp, #8
  41              		.cfi_def_cfa_offset 16
  42 0004 00AF     		add	r7, sp, #0
  43              		.cfi_def_cfa_register 7
  44 0006 7860     		str	r0, [r7, #4]
 451:Generated_Source\PSoC6\pdl\drivers\peripheral\ipc/cy_ipc_drv.h ****     CY_ASSERT_L1(CY_IPC_CHANNELS > ipcIndex);
  45              		.loc 1 451 0
  46 0008 0F4B     		ldr	r3, .L4
  47 000a 1B68     		ldr	r3, [r3]
  48 000c 3122     		movs	r2, #49
  49 000e 9B5C     		ldrb	r3, [r3, r2]
  50 0010 1A00     		movs	r2, r3
  51 0012 7B68     		ldr	r3, [r7, #4]
  52 0014 9A42     		cmp	r2, r3
  53 0016 07D8     		bhi	.L2
  54              		.loc 1 451 0 is_stmt 0 discriminator 1
ARM GAS  C:\Users\JC\AppData\Local\Temp\ccQnhWsL.s 			page 10


  55 0018 C423     		movs	r3, #196
  56 001a FF33     		adds	r3, r3, #255
  57 001c 1A00     		movs	r2, r3
  58 001e 0B4B     		ldr	r3, .L4+4
  59 0020 1100     		movs	r1, r2
  60 0022 1800     		movs	r0, r3
  61 0024 FFF7FEFF 		bl	Cy_SysLib_AssertFailed
  62              	.L2:
 452:Generated_Source\PSoC6\pdl\drivers\peripheral\ipc/cy_ipc_drv.h ****     return ( (IPC_STRUCT_Type*) CY_IPC_STRUCT_PTR(ipcIndex));
  63              		.loc 1 452 0 is_stmt 1
  64 0028 074B     		ldr	r3, .L4
  65 002a 1B68     		ldr	r3, [r3]
  66 002c 1A6A     		ldr	r2, [r3, #32]
  67 002e 064B     		ldr	r3, .L4
  68 0030 1B68     		ldr	r3, [r3]
  69 0032 B021     		movs	r1, #176
  70 0034 5B5A     		ldrh	r3, [r3, r1]
  71 0036 1900     		movs	r1, r3
  72 0038 7B68     		ldr	r3, [r7, #4]
  73 003a 4B43     		muls	r3, r1
  74 003c D318     		adds	r3, r2, r3
 453:Generated_Source\PSoC6\pdl\drivers\peripheral\ipc/cy_ipc_drv.h **** }
  75              		.loc 1 453 0
  76 003e 1800     		movs	r0, r3
  77 0040 BD46     		mov	sp, r7
  78 0042 02B0     		add	sp, sp, #8
  79              		@ sp needed
  80 0044 80BD     		pop	{r7, pc}
  81              	.L5:
  82 0046 C046     		.align	2
  83              	.L4:
  84 0048 00000000 		.word	cy_device
  85 004c 00000000 		.word	.LC1
  86              		.cfi_endproc
  87              	.LFE45:
  88              		.size	Cy_IPC_Drv_GetIpcBaseAddress, .-Cy_IPC_Drv_GetIpcBaseAddress
  89              		.section	.text.Cy_IPC_Drv_ReadDataValue,"ax",%progbits
  90              		.align	2
  91              		.code	16
  92              		.thumb_func
  93              		.type	Cy_IPC_Drv_ReadDataValue, %function
  94              	Cy_IPC_Drv_ReadDataValue:
  95              	.LFB56:
 454:Generated_Source\PSoC6\pdl\drivers\peripheral\ipc/cy_ipc_drv.h **** 
 455:Generated_Source\PSoC6\pdl\drivers\peripheral\ipc/cy_ipc_drv.h **** 
 456:Generated_Source\PSoC6\pdl\drivers\peripheral\ipc/cy_ipc_drv.h **** /*******************************************************************************
 457:Generated_Source\PSoC6\pdl\drivers\peripheral\ipc/cy_ipc_drv.h **** * Function Name: Cy_IPC_Drv_GetIntrBaseAddr
 458:Generated_Source\PSoC6\pdl\drivers\peripheral\ipc/cy_ipc_drv.h **** ****************************************************************************//**
 459:Generated_Source\PSoC6\pdl\drivers\peripheral\ipc/cy_ipc_drv.h **** *
 460:Generated_Source\PSoC6\pdl\drivers\peripheral\ipc/cy_ipc_drv.h **** * This function takes an IPC interrupt structure index and returns the base
 461:Generated_Source\PSoC6\pdl\drivers\peripheral\ipc/cy_ipc_drv.h **** * address of the IPC interrupt registers corresponding to the IPC Interrupt.
 462:Generated_Source\PSoC6\pdl\drivers\peripheral\ipc/cy_ipc_drv.h **** *
 463:Generated_Source\PSoC6\pdl\drivers\peripheral\ipc/cy_ipc_drv.h **** * \note The user is responsible for ensuring that ipcIntrIndex does not exceed the
 464:Generated_Source\PSoC6\pdl\drivers\peripheral\ipc/cy_ipc_drv.h **** * limits.
 465:Generated_Source\PSoC6\pdl\drivers\peripheral\ipc/cy_ipc_drv.h **** *
 466:Generated_Source\PSoC6\pdl\drivers\peripheral\ipc/cy_ipc_drv.h **** * \param ipcIntrIndex
 467:Generated_Source\PSoC6\pdl\drivers\peripheral\ipc/cy_ipc_drv.h **** * Represents the number of IPC interrupt structure. This is converted to the
ARM GAS  C:\Users\JC\AppData\Local\Temp\ccQnhWsL.s 			page 11


 468:Generated_Source\PSoC6\pdl\drivers\peripheral\ipc/cy_ipc_drv.h **** * base address of the IPC interrupt registers.
 469:Generated_Source\PSoC6\pdl\drivers\peripheral\ipc/cy_ipc_drv.h **** *
 470:Generated_Source\PSoC6\pdl\drivers\peripheral\ipc/cy_ipc_drv.h **** * \return
 471:Generated_Source\PSoC6\pdl\drivers\peripheral\ipc/cy_ipc_drv.h **** * Returns a pointer to the base of the IPC interrupt registers.
 472:Generated_Source\PSoC6\pdl\drivers\peripheral\ipc/cy_ipc_drv.h **** *
 473:Generated_Source\PSoC6\pdl\drivers\peripheral\ipc/cy_ipc_drv.h **** * \funcusage
 474:Generated_Source\PSoC6\pdl\drivers\peripheral\ipc/cy_ipc_drv.h **** * \snippet IPC_sut_01.cydsn/main_cm4.c snippet_Cy_IPC_Drv_GetInterruptStatus
 475:Generated_Source\PSoC6\pdl\drivers\peripheral\ipc/cy_ipc_drv.h **** *
 476:Generated_Source\PSoC6\pdl\drivers\peripheral\ipc/cy_ipc_drv.h **** *******************************************************************************/
 477:Generated_Source\PSoC6\pdl\drivers\peripheral\ipc/cy_ipc_drv.h **** __STATIC_INLINE IPC_INTR_STRUCT_Type* Cy_IPC_Drv_GetIntrBaseAddr (uint32_t ipcIntrIndex)
 478:Generated_Source\PSoC6\pdl\drivers\peripheral\ipc/cy_ipc_drv.h **** {
 479:Generated_Source\PSoC6\pdl\drivers\peripheral\ipc/cy_ipc_drv.h ****     CY_ASSERT_L1(CY_IPC_INTERRUPTS > ipcIntrIndex);
 480:Generated_Source\PSoC6\pdl\drivers\peripheral\ipc/cy_ipc_drv.h ****     return ( (IPC_INTR_STRUCT_Type*) &(((IPC_Type *)cy_device->ipcBase)->INTR_STRUCT[ipcIntrIndex])
 481:Generated_Source\PSoC6\pdl\drivers\peripheral\ipc/cy_ipc_drv.h **** }
 482:Generated_Source\PSoC6\pdl\drivers\peripheral\ipc/cy_ipc_drv.h **** 
 483:Generated_Source\PSoC6\pdl\drivers\peripheral\ipc/cy_ipc_drv.h **** 
 484:Generated_Source\PSoC6\pdl\drivers\peripheral\ipc/cy_ipc_drv.h **** /*******************************************************************************
 485:Generated_Source\PSoC6\pdl\drivers\peripheral\ipc/cy_ipc_drv.h **** * Function Name: Cy_IPC_Drv_SetInterruptMask
 486:Generated_Source\PSoC6\pdl\drivers\peripheral\ipc/cy_ipc_drv.h **** ****************************************************************************//**
 487:Generated_Source\PSoC6\pdl\drivers\peripheral\ipc/cy_ipc_drv.h **** *
 488:Generated_Source\PSoC6\pdl\drivers\peripheral\ipc/cy_ipc_drv.h **** * This function is used to set the interrupt mask for an IPC Interrupt.
 489:Generated_Source\PSoC6\pdl\drivers\peripheral\ipc/cy_ipc_drv.h **** * The mask sets release or acquire notification events for all IPC channels.
 490:Generated_Source\PSoC6\pdl\drivers\peripheral\ipc/cy_ipc_drv.h **** *
 491:Generated_Source\PSoC6\pdl\drivers\peripheral\ipc/cy_ipc_drv.h **** * \param base
 492:Generated_Source\PSoC6\pdl\drivers\peripheral\ipc/cy_ipc_drv.h **** * This is a handle to the IPC interrupt. This handle can be calculated from the
 493:Generated_Source\PSoC6\pdl\drivers\peripheral\ipc/cy_ipc_drv.h **** * IPC interrupt number using \ref Cy_IPC_Drv_GetIntrBaseAddr.
 494:Generated_Source\PSoC6\pdl\drivers\peripheral\ipc/cy_ipc_drv.h **** *
 495:Generated_Source\PSoC6\pdl\drivers\peripheral\ipc/cy_ipc_drv.h **** * \param ipcReleaseMask
 496:Generated_Source\PSoC6\pdl\drivers\peripheral\ipc/cy_ipc_drv.h **** * An encoded list of all IPC channels that can trigger the interrupt on a
 497:Generated_Source\PSoC6\pdl\drivers\peripheral\ipc/cy_ipc_drv.h **** * release event.
 498:Generated_Source\PSoC6\pdl\drivers\peripheral\ipc/cy_ipc_drv.h **** *
 499:Generated_Source\PSoC6\pdl\drivers\peripheral\ipc/cy_ipc_drv.h **** * \param ipcAcquireMask
 500:Generated_Source\PSoC6\pdl\drivers\peripheral\ipc/cy_ipc_drv.h **** * An encoded list of all IPC channels that can trigger the interrupt on a
 501:Generated_Source\PSoC6\pdl\drivers\peripheral\ipc/cy_ipc_drv.h **** * notify event.
 502:Generated_Source\PSoC6\pdl\drivers\peripheral\ipc/cy_ipc_drv.h **** *
 503:Generated_Source\PSoC6\pdl\drivers\peripheral\ipc/cy_ipc_drv.h **** * \funcusage
 504:Generated_Source\PSoC6\pdl\drivers\peripheral\ipc/cy_ipc_drv.h **** * \snippet IPC_sut_01.cydsn/main_cm4.c snippet_Cy_IPC_Drv_GetInterruptStatusMasked
 505:Generated_Source\PSoC6\pdl\drivers\peripheral\ipc/cy_ipc_drv.h **** *
 506:Generated_Source\PSoC6\pdl\drivers\peripheral\ipc/cy_ipc_drv.h **** *******************************************************************************/
 507:Generated_Source\PSoC6\pdl\drivers\peripheral\ipc/cy_ipc_drv.h **** __STATIC_INLINE void  Cy_IPC_Drv_SetInterruptMask (IPC_INTR_STRUCT_Type* base,
 508:Generated_Source\PSoC6\pdl\drivers\peripheral\ipc/cy_ipc_drv.h ****                                               uint32_t ipcReleaseMask, uint32_t ipcAcquireMask)
 509:Generated_Source\PSoC6\pdl\drivers\peripheral\ipc/cy_ipc_drv.h **** {
 510:Generated_Source\PSoC6\pdl\drivers\peripheral\ipc/cy_ipc_drv.h ****     CY_ASSERT_L1(0ul == (ipcAcquireMask & ~(uint32_t)(IPC_STRUCT_NOTIFY_INTR_NOTIFY_Msk)));
 511:Generated_Source\PSoC6\pdl\drivers\peripheral\ipc/cy_ipc_drv.h ****     CY_ASSERT_L1(0ul == (ipcReleaseMask & ~(uint32_t)(IPC_STRUCT_RELEASE_INTR_RELEASE_Msk)));
 512:Generated_Source\PSoC6\pdl\drivers\peripheral\ipc/cy_ipc_drv.h ****     REG_IPC_INTR_STRUCT_INTR_MASK(base) = _VAL2FLD( IPC_INTR_STRUCT_INTR_MASK_NOTIFY,  ipcAcquireMa
 513:Generated_Source\PSoC6\pdl\drivers\peripheral\ipc/cy_ipc_drv.h ****                       _VAL2FLD( IPC_INTR_STRUCT_INTR_MASK_RELEASE, ipcReleaseMask);
 514:Generated_Source\PSoC6\pdl\drivers\peripheral\ipc/cy_ipc_drv.h **** }
 515:Generated_Source\PSoC6\pdl\drivers\peripheral\ipc/cy_ipc_drv.h **** 
 516:Generated_Source\PSoC6\pdl\drivers\peripheral\ipc/cy_ipc_drv.h **** 
 517:Generated_Source\PSoC6\pdl\drivers\peripheral\ipc/cy_ipc_drv.h **** /*******************************************************************************
 518:Generated_Source\PSoC6\pdl\drivers\peripheral\ipc/cy_ipc_drv.h **** * Function Name: Cy_IPC_Drv_GetInterruptMask
 519:Generated_Source\PSoC6\pdl\drivers\peripheral\ipc/cy_ipc_drv.h **** ****************************************************************************//**
 520:Generated_Source\PSoC6\pdl\drivers\peripheral\ipc/cy_ipc_drv.h **** *
 521:Generated_Source\PSoC6\pdl\drivers\peripheral\ipc/cy_ipc_drv.h **** * This function is used to read the interrupt mask.
 522:Generated_Source\PSoC6\pdl\drivers\peripheral\ipc/cy_ipc_drv.h **** *
 523:Generated_Source\PSoC6\pdl\drivers\peripheral\ipc/cy_ipc_drv.h **** * \param base
 524:Generated_Source\PSoC6\pdl\drivers\peripheral\ipc/cy_ipc_drv.h **** * This is a handle to the IPC interrupt. This handle can be calculated from
ARM GAS  C:\Users\JC\AppData\Local\Temp\ccQnhWsL.s 			page 12


 525:Generated_Source\PSoC6\pdl\drivers\peripheral\ipc/cy_ipc_drv.h **** * the IPC interrupt number using \ref Cy_IPC_Drv_GetIntrBaseAddr.
 526:Generated_Source\PSoC6\pdl\drivers\peripheral\ipc/cy_ipc_drv.h **** *
 527:Generated_Source\PSoC6\pdl\drivers\peripheral\ipc/cy_ipc_drv.h **** * \return
 528:Generated_Source\PSoC6\pdl\drivers\peripheral\ipc/cy_ipc_drv.h **** *   The return value is encoded as follows
 529:Generated_Source\PSoC6\pdl\drivers\peripheral\ipc/cy_ipc_drv.h **** *   <table>
 530:Generated_Source\PSoC6\pdl\drivers\peripheral\ipc/cy_ipc_drv.h **** *   <tr><th>Interrupt sources   <th>Value
 531:Generated_Source\PSoC6\pdl\drivers\peripheral\ipc/cy_ipc_drv.h **** *   <tr><td>Ipc_PORTX_RELEASE   <td>Xth bit set
 532:Generated_Source\PSoC6\pdl\drivers\peripheral\ipc/cy_ipc_drv.h **** *   <tr><td>Ipc_PORTX_NOTIFY    <td>X+16th bit set
 533:Generated_Source\PSoC6\pdl\drivers\peripheral\ipc/cy_ipc_drv.h **** *   </table>
 534:Generated_Source\PSoC6\pdl\drivers\peripheral\ipc/cy_ipc_drv.h **** *
 535:Generated_Source\PSoC6\pdl\drivers\peripheral\ipc/cy_ipc_drv.h **** * \funcusage
 536:Generated_Source\PSoC6\pdl\drivers\peripheral\ipc/cy_ipc_drv.h **** * \snippet IPC_sut_01.cydsn/main_cm4.c snippet_Cy_IPC_Drv_GetInterruptStatusMasked
 537:Generated_Source\PSoC6\pdl\drivers\peripheral\ipc/cy_ipc_drv.h **** *
 538:Generated_Source\PSoC6\pdl\drivers\peripheral\ipc/cy_ipc_drv.h **** *******************************************************************************/
 539:Generated_Source\PSoC6\pdl\drivers\peripheral\ipc/cy_ipc_drv.h **** __STATIC_INLINE uint32_t Cy_IPC_Drv_GetInterruptMask(IPC_INTR_STRUCT_Type const * base)
 540:Generated_Source\PSoC6\pdl\drivers\peripheral\ipc/cy_ipc_drv.h **** {
 541:Generated_Source\PSoC6\pdl\drivers\peripheral\ipc/cy_ipc_drv.h ****     return REG_IPC_INTR_STRUCT_INTR_MASK(base);
 542:Generated_Source\PSoC6\pdl\drivers\peripheral\ipc/cy_ipc_drv.h **** }
 543:Generated_Source\PSoC6\pdl\drivers\peripheral\ipc/cy_ipc_drv.h **** 
 544:Generated_Source\PSoC6\pdl\drivers\peripheral\ipc/cy_ipc_drv.h **** 
 545:Generated_Source\PSoC6\pdl\drivers\peripheral\ipc/cy_ipc_drv.h **** /*******************************************************************************
 546:Generated_Source\PSoC6\pdl\drivers\peripheral\ipc/cy_ipc_drv.h **** * Function Name: Cy_IPC_Drv_GetInterruptStatusMasked
 547:Generated_Source\PSoC6\pdl\drivers\peripheral\ipc/cy_ipc_drv.h **** ****************************************************************************//**
 548:Generated_Source\PSoC6\pdl\drivers\peripheral\ipc/cy_ipc_drv.h **** *
 549:Generated_Source\PSoC6\pdl\drivers\peripheral\ipc/cy_ipc_drv.h **** * This function is used to read the active unmasked interrupt. This function
 550:Generated_Source\PSoC6\pdl\drivers\peripheral\ipc/cy_ipc_drv.h **** * can be used in the interrupt service routine to find which source triggered
 551:Generated_Source\PSoC6\pdl\drivers\peripheral\ipc/cy_ipc_drv.h **** * the interrupt.
 552:Generated_Source\PSoC6\pdl\drivers\peripheral\ipc/cy_ipc_drv.h **** *
 553:Generated_Source\PSoC6\pdl\drivers\peripheral\ipc/cy_ipc_drv.h **** * \param base
 554:Generated_Source\PSoC6\pdl\drivers\peripheral\ipc/cy_ipc_drv.h **** * This is a handle to the IPC interrupt. This handle can be calculated from the
 555:Generated_Source\PSoC6\pdl\drivers\peripheral\ipc/cy_ipc_drv.h **** * IPC interrupt number using \ref Cy_IPC_Drv_GetIntrBaseAddr.
 556:Generated_Source\PSoC6\pdl\drivers\peripheral\ipc/cy_ipc_drv.h **** *
 557:Generated_Source\PSoC6\pdl\drivers\peripheral\ipc/cy_ipc_drv.h **** * \return
 558:Generated_Source\PSoC6\pdl\drivers\peripheral\ipc/cy_ipc_drv.h **** *   The return value is encoded as follows
 559:Generated_Source\PSoC6\pdl\drivers\peripheral\ipc/cy_ipc_drv.h **** *   <table>
 560:Generated_Source\PSoC6\pdl\drivers\peripheral\ipc/cy_ipc_drv.h **** *   <tr><th>Interrupt sources   <th>Value
 561:Generated_Source\PSoC6\pdl\drivers\peripheral\ipc/cy_ipc_drv.h **** *   <tr><td>Ipc_PORTX_RELEASE   <td>Xth bit set
 562:Generated_Source\PSoC6\pdl\drivers\peripheral\ipc/cy_ipc_drv.h **** *   <tr><td>Ipc_PORTX_NOTIFY    <td>X+16th bit set
 563:Generated_Source\PSoC6\pdl\drivers\peripheral\ipc/cy_ipc_drv.h **** *   </table>
 564:Generated_Source\PSoC6\pdl\drivers\peripheral\ipc/cy_ipc_drv.h **** *
 565:Generated_Source\PSoC6\pdl\drivers\peripheral\ipc/cy_ipc_drv.h **** * \funcusage
 566:Generated_Source\PSoC6\pdl\drivers\peripheral\ipc/cy_ipc_drv.h **** * \snippet IPC_sut_01.cydsn/main_cm4.c snippet_Cy_IPC_Drv_GetInterruptStatusMasked
 567:Generated_Source\PSoC6\pdl\drivers\peripheral\ipc/cy_ipc_drv.h **** *
 568:Generated_Source\PSoC6\pdl\drivers\peripheral\ipc/cy_ipc_drv.h **** *******************************************************************************/
 569:Generated_Source\PSoC6\pdl\drivers\peripheral\ipc/cy_ipc_drv.h **** __STATIC_INLINE uint32_t Cy_IPC_Drv_GetInterruptStatusMasked (IPC_INTR_STRUCT_Type const * base)
 570:Generated_Source\PSoC6\pdl\drivers\peripheral\ipc/cy_ipc_drv.h **** {
 571:Generated_Source\PSoC6\pdl\drivers\peripheral\ipc/cy_ipc_drv.h ****     return REG_IPC_INTR_STRUCT_INTR_MASKED(base);
 572:Generated_Source\PSoC6\pdl\drivers\peripheral\ipc/cy_ipc_drv.h **** }
 573:Generated_Source\PSoC6\pdl\drivers\peripheral\ipc/cy_ipc_drv.h **** 
 574:Generated_Source\PSoC6\pdl\drivers\peripheral\ipc/cy_ipc_drv.h **** 
 575:Generated_Source\PSoC6\pdl\drivers\peripheral\ipc/cy_ipc_drv.h **** /*******************************************************************************
 576:Generated_Source\PSoC6\pdl\drivers\peripheral\ipc/cy_ipc_drv.h **** * Function Name: Cy_IPC_Drv_GetInterruptStatus
 577:Generated_Source\PSoC6\pdl\drivers\peripheral\ipc/cy_ipc_drv.h **** ****************************************************************************//**
 578:Generated_Source\PSoC6\pdl\drivers\peripheral\ipc/cy_ipc_drv.h **** *
 579:Generated_Source\PSoC6\pdl\drivers\peripheral\ipc/cy_ipc_drv.h **** * This function is used to read the pending interrupts. Note that this read is
 580:Generated_Source\PSoC6\pdl\drivers\peripheral\ipc/cy_ipc_drv.h **** * an unmasked read of the interrupt status. Interrupt sources read as active by
 581:Generated_Source\PSoC6\pdl\drivers\peripheral\ipc/cy_ipc_drv.h **** * this function would generate interrupts only if they were not masked.
ARM GAS  C:\Users\JC\AppData\Local\Temp\ccQnhWsL.s 			page 13


 582:Generated_Source\PSoC6\pdl\drivers\peripheral\ipc/cy_ipc_drv.h **** *
 583:Generated_Source\PSoC6\pdl\drivers\peripheral\ipc/cy_ipc_drv.h **** * \param base
 584:Generated_Source\PSoC6\pdl\drivers\peripheral\ipc/cy_ipc_drv.h **** * This is a handle to the IPC interrupt. This handle can be calculated from the
 585:Generated_Source\PSoC6\pdl\drivers\peripheral\ipc/cy_ipc_drv.h **** * IPC interrupt number using \ref Cy_IPC_Drv_GetIntrBaseAddr.
 586:Generated_Source\PSoC6\pdl\drivers\peripheral\ipc/cy_ipc_drv.h **** *
 587:Generated_Source\PSoC6\pdl\drivers\peripheral\ipc/cy_ipc_drv.h **** * \return
 588:Generated_Source\PSoC6\pdl\drivers\peripheral\ipc/cy_ipc_drv.h **** *   The return value is encoded as follows
 589:Generated_Source\PSoC6\pdl\drivers\peripheral\ipc/cy_ipc_drv.h **** *   <table>
 590:Generated_Source\PSoC6\pdl\drivers\peripheral\ipc/cy_ipc_drv.h **** *   <tr><th>Interrupt sources   <th>Value
 591:Generated_Source\PSoC6\pdl\drivers\peripheral\ipc/cy_ipc_drv.h **** *   <tr><td>Ipc_PORTX_RELEASE   <td>Xth bit set
 592:Generated_Source\PSoC6\pdl\drivers\peripheral\ipc/cy_ipc_drv.h **** *   <tr><td>Ipc_PORTX_NOTIFY    <td>X+16th bit set
 593:Generated_Source\PSoC6\pdl\drivers\peripheral\ipc/cy_ipc_drv.h **** *   </table>
 594:Generated_Source\PSoC6\pdl\drivers\peripheral\ipc/cy_ipc_drv.h **** *
 595:Generated_Source\PSoC6\pdl\drivers\peripheral\ipc/cy_ipc_drv.h **** * \funcusage
 596:Generated_Source\PSoC6\pdl\drivers\peripheral\ipc/cy_ipc_drv.h **** * \snippet IPC_sut_01.cydsn/main_cm4.c snippet_Cy_IPC_Drv_GetInterruptStatus
 597:Generated_Source\PSoC6\pdl\drivers\peripheral\ipc/cy_ipc_drv.h **** *
 598:Generated_Source\PSoC6\pdl\drivers\peripheral\ipc/cy_ipc_drv.h **** *******************************************************************************/
 599:Generated_Source\PSoC6\pdl\drivers\peripheral\ipc/cy_ipc_drv.h **** __STATIC_INLINE uint32_t Cy_IPC_Drv_GetInterruptStatus(IPC_INTR_STRUCT_Type const * base)
 600:Generated_Source\PSoC6\pdl\drivers\peripheral\ipc/cy_ipc_drv.h **** {
 601:Generated_Source\PSoC6\pdl\drivers\peripheral\ipc/cy_ipc_drv.h ****     return REG_IPC_INTR_STRUCT_INTR(base);
 602:Generated_Source\PSoC6\pdl\drivers\peripheral\ipc/cy_ipc_drv.h **** }
 603:Generated_Source\PSoC6\pdl\drivers\peripheral\ipc/cy_ipc_drv.h **** 
 604:Generated_Source\PSoC6\pdl\drivers\peripheral\ipc/cy_ipc_drv.h **** 
 605:Generated_Source\PSoC6\pdl\drivers\peripheral\ipc/cy_ipc_drv.h **** /*******************************************************************************
 606:Generated_Source\PSoC6\pdl\drivers\peripheral\ipc/cy_ipc_drv.h **** * Function Name: Cy_IPC_Drv_SetInterrupt
 607:Generated_Source\PSoC6\pdl\drivers\peripheral\ipc/cy_ipc_drv.h **** ****************************************************************************//**
 608:Generated_Source\PSoC6\pdl\drivers\peripheral\ipc/cy_ipc_drv.h **** *
 609:Generated_Source\PSoC6\pdl\drivers\peripheral\ipc/cy_ipc_drv.h **** * This function is used to set the interrupt source. This function can be used
 610:Generated_Source\PSoC6\pdl\drivers\peripheral\ipc/cy_ipc_drv.h **** * to activate interrupts through software.
 611:Generated_Source\PSoC6\pdl\drivers\peripheral\ipc/cy_ipc_drv.h **** * \note That interrupt sources set using this interrupt would generate interrupts
 612:Generated_Source\PSoC6\pdl\drivers\peripheral\ipc/cy_ipc_drv.h **** * only if they are not masked.
 613:Generated_Source\PSoC6\pdl\drivers\peripheral\ipc/cy_ipc_drv.h **** *
 614:Generated_Source\PSoC6\pdl\drivers\peripheral\ipc/cy_ipc_drv.h **** * \param base
 615:Generated_Source\PSoC6\pdl\drivers\peripheral\ipc/cy_ipc_drv.h **** * This is a handle to the IPC interrupt. This handle can be calculated from the
 616:Generated_Source\PSoC6\pdl\drivers\peripheral\ipc/cy_ipc_drv.h **** * IPC interrupt number using \ref Cy_IPC_Drv_GetIntrBaseAddr.
 617:Generated_Source\PSoC6\pdl\drivers\peripheral\ipc/cy_ipc_drv.h **** *
 618:Generated_Source\PSoC6\pdl\drivers\peripheral\ipc/cy_ipc_drv.h **** * \param ipcReleaseMask
 619:Generated_Source\PSoC6\pdl\drivers\peripheral\ipc/cy_ipc_drv.h **** * An encoded list of all IPC channels that can trigger the interrupt on a
 620:Generated_Source\PSoC6\pdl\drivers\peripheral\ipc/cy_ipc_drv.h **** * release event.
 621:Generated_Source\PSoC6\pdl\drivers\peripheral\ipc/cy_ipc_drv.h **** *
 622:Generated_Source\PSoC6\pdl\drivers\peripheral\ipc/cy_ipc_drv.h **** * \param ipcAcquireMask
 623:Generated_Source\PSoC6\pdl\drivers\peripheral\ipc/cy_ipc_drv.h **** * An encoded list of all IPC channels that can trigger the interrupt on a
 624:Generated_Source\PSoC6\pdl\drivers\peripheral\ipc/cy_ipc_drv.h **** * notify event.
 625:Generated_Source\PSoC6\pdl\drivers\peripheral\ipc/cy_ipc_drv.h **** *
 626:Generated_Source\PSoC6\pdl\drivers\peripheral\ipc/cy_ipc_drv.h **** * \funcusage
 627:Generated_Source\PSoC6\pdl\drivers\peripheral\ipc/cy_ipc_drv.h **** * \snippet IPC_sut_01.cydsn/main_cm4.c snippet_Cy_IPC_Drv_SetInterrupt
 628:Generated_Source\PSoC6\pdl\drivers\peripheral\ipc/cy_ipc_drv.h **** *
 629:Generated_Source\PSoC6\pdl\drivers\peripheral\ipc/cy_ipc_drv.h **** *******************************************************************************/
 630:Generated_Source\PSoC6\pdl\drivers\peripheral\ipc/cy_ipc_drv.h **** __STATIC_INLINE void  Cy_IPC_Drv_SetInterrupt(IPC_INTR_STRUCT_Type* base, uint32_t ipcReleaseMask, 
 631:Generated_Source\PSoC6\pdl\drivers\peripheral\ipc/cy_ipc_drv.h **** {
 632:Generated_Source\PSoC6\pdl\drivers\peripheral\ipc/cy_ipc_drv.h ****     CY_ASSERT_L1(0ul == (ipcAcquireMask  & ~(uint32_t)(IPC_STRUCT_NOTIFY_INTR_NOTIFY_Msk)));
 633:Generated_Source\PSoC6\pdl\drivers\peripheral\ipc/cy_ipc_drv.h ****     CY_ASSERT_L1(0ul == (ipcReleaseMask & ~(uint32_t)(IPC_STRUCT_RELEASE_INTR_RELEASE_Msk)));
 634:Generated_Source\PSoC6\pdl\drivers\peripheral\ipc/cy_ipc_drv.h ****     REG_IPC_INTR_STRUCT_INTR_SET(base) =  _VAL2FLD( IPC_INTR_STRUCT_INTR_NOTIFY,  ipcAcquireMask ) 
 635:Generated_Source\PSoC6\pdl\drivers\peripheral\ipc/cy_ipc_drv.h ****                       _VAL2FLD( IPC_INTR_STRUCT_INTR_RELEASE, ipcReleaseMask );
 636:Generated_Source\PSoC6\pdl\drivers\peripheral\ipc/cy_ipc_drv.h **** }
 637:Generated_Source\PSoC6\pdl\drivers\peripheral\ipc/cy_ipc_drv.h **** 
 638:Generated_Source\PSoC6\pdl\drivers\peripheral\ipc/cy_ipc_drv.h **** 
ARM GAS  C:\Users\JC\AppData\Local\Temp\ccQnhWsL.s 			page 14


 639:Generated_Source\PSoC6\pdl\drivers\peripheral\ipc/cy_ipc_drv.h **** /*******************************************************************************
 640:Generated_Source\PSoC6\pdl\drivers\peripheral\ipc/cy_ipc_drv.h **** * Function Name: Cy_IPC_Drv_ClearInterrupt
 641:Generated_Source\PSoC6\pdl\drivers\peripheral\ipc/cy_ipc_drv.h **** ****************************************************************************//**
 642:Generated_Source\PSoC6\pdl\drivers\peripheral\ipc/cy_ipc_drv.h **** *
 643:Generated_Source\PSoC6\pdl\drivers\peripheral\ipc/cy_ipc_drv.h **** * This function is used to clear the interrupt source. Use this function to clear
 644:Generated_Source\PSoC6\pdl\drivers\peripheral\ipc/cy_ipc_drv.h **** * a pending interrupt source in the interrupt status.
 645:Generated_Source\PSoC6\pdl\drivers\peripheral\ipc/cy_ipc_drv.h **** *
 646:Generated_Source\PSoC6\pdl\drivers\peripheral\ipc/cy_ipc_drv.h **** * \param base
 647:Generated_Source\PSoC6\pdl\drivers\peripheral\ipc/cy_ipc_drv.h **** * This is a handle to the IPC interrupt. This handle can be calculated from the
 648:Generated_Source\PSoC6\pdl\drivers\peripheral\ipc/cy_ipc_drv.h **** * IPC interrupt number using \ref Cy_IPC_Drv_GetIntrBaseAddr.
 649:Generated_Source\PSoC6\pdl\drivers\peripheral\ipc/cy_ipc_drv.h **** *
 650:Generated_Source\PSoC6\pdl\drivers\peripheral\ipc/cy_ipc_drv.h **** * \param ipcReleaseMask
 651:Generated_Source\PSoC6\pdl\drivers\peripheral\ipc/cy_ipc_drv.h **** * An encoded list of all IPC channels that can trigger the interrupt on a
 652:Generated_Source\PSoC6\pdl\drivers\peripheral\ipc/cy_ipc_drv.h **** * release event.
 653:Generated_Source\PSoC6\pdl\drivers\peripheral\ipc/cy_ipc_drv.h **** *
 654:Generated_Source\PSoC6\pdl\drivers\peripheral\ipc/cy_ipc_drv.h **** * \param ipcAcquireMask
 655:Generated_Source\PSoC6\pdl\drivers\peripheral\ipc/cy_ipc_drv.h **** * An encoded list of all IPC channels that can trigger the interrupt on a
 656:Generated_Source\PSoC6\pdl\drivers\peripheral\ipc/cy_ipc_drv.h **** * notify event.
 657:Generated_Source\PSoC6\pdl\drivers\peripheral\ipc/cy_ipc_drv.h **** *
 658:Generated_Source\PSoC6\pdl\drivers\peripheral\ipc/cy_ipc_drv.h **** * \funcusage
 659:Generated_Source\PSoC6\pdl\drivers\peripheral\ipc/cy_ipc_drv.h **** * \snippet IPC_sut_01.cydsn/main_cm4.c snippet_Cy_IPC_Drv_GetInterruptStatusMasked
 660:Generated_Source\PSoC6\pdl\drivers\peripheral\ipc/cy_ipc_drv.h **** *
 661:Generated_Source\PSoC6\pdl\drivers\peripheral\ipc/cy_ipc_drv.h **** *******************************************************************************/
 662:Generated_Source\PSoC6\pdl\drivers\peripheral\ipc/cy_ipc_drv.h **** __STATIC_INLINE void  Cy_IPC_Drv_ClearInterrupt(IPC_INTR_STRUCT_Type* base, uint32_t ipcReleaseMask
 663:Generated_Source\PSoC6\pdl\drivers\peripheral\ipc/cy_ipc_drv.h **** {
 664:Generated_Source\PSoC6\pdl\drivers\peripheral\ipc/cy_ipc_drv.h ****     CY_ASSERT_L1(0ul == (ipcAcquireMask  & ~(uint32_t)(IPC_STRUCT_NOTIFY_INTR_NOTIFY_Msk)));
 665:Generated_Source\PSoC6\pdl\drivers\peripheral\ipc/cy_ipc_drv.h ****     CY_ASSERT_L1(0ul == (ipcReleaseMask & ~(uint32_t)(IPC_STRUCT_RELEASE_INTR_RELEASE_Msk)));
 666:Generated_Source\PSoC6\pdl\drivers\peripheral\ipc/cy_ipc_drv.h ****     REG_IPC_INTR_STRUCT_INTR(base) =  _VAL2FLD(IPC_INTR_STRUCT_INTR_NOTIFY,  ipcAcquireMask) |
 667:Generated_Source\PSoC6\pdl\drivers\peripheral\ipc/cy_ipc_drv.h ****                   _VAL2FLD(IPC_INTR_STRUCT_INTR_RELEASE, ipcReleaseMask);
 668:Generated_Source\PSoC6\pdl\drivers\peripheral\ipc/cy_ipc_drv.h ****     (void)REG_IPC_INTR_STRUCT_INTR(base);  /* Read the register to flush the cache */
 669:Generated_Source\PSoC6\pdl\drivers\peripheral\ipc/cy_ipc_drv.h **** }
 670:Generated_Source\PSoC6\pdl\drivers\peripheral\ipc/cy_ipc_drv.h **** 
 671:Generated_Source\PSoC6\pdl\drivers\peripheral\ipc/cy_ipc_drv.h **** /** \} group_ipc_functions */
 672:Generated_Source\PSoC6\pdl\drivers\peripheral\ipc/cy_ipc_drv.h **** 
 673:Generated_Source\PSoC6\pdl\drivers\peripheral\ipc/cy_ipc_drv.h **** /** \} group_ipc */
 674:Generated_Source\PSoC6\pdl\drivers\peripheral\ipc/cy_ipc_drv.h **** 
 675:Generated_Source\PSoC6\pdl\drivers\peripheral\ipc/cy_ipc_drv.h **** 
 676:Generated_Source\PSoC6\pdl\drivers\peripheral\ipc/cy_ipc_drv.h **** /*******************************************************************************
 677:Generated_Source\PSoC6\pdl\drivers\peripheral\ipc/cy_ipc_drv.h **** * Function Name: Cy_IPC_Drv_AcquireNotify
 678:Generated_Source\PSoC6\pdl\drivers\peripheral\ipc/cy_ipc_drv.h **** ****************************************************************************//**
 679:Generated_Source\PSoC6\pdl\drivers\peripheral\ipc/cy_ipc_drv.h **** *
 680:Generated_Source\PSoC6\pdl\drivers\peripheral\ipc/cy_ipc_drv.h **** * The function generates a acquire notification event by IPC interrupt structure.
 681:Generated_Source\PSoC6\pdl\drivers\peripheral\ipc/cy_ipc_drv.h **** *
 682:Generated_Source\PSoC6\pdl\drivers\peripheral\ipc/cy_ipc_drv.h **** * \param base
 683:Generated_Source\PSoC6\pdl\drivers\peripheral\ipc/cy_ipc_drv.h **** * This parameter is a handle that represents the base address of the registers
 684:Generated_Source\PSoC6\pdl\drivers\peripheral\ipc/cy_ipc_drv.h **** * of the IPC channel.
 685:Generated_Source\PSoC6\pdl\drivers\peripheral\ipc/cy_ipc_drv.h **** * The parameter is generally returned from a call to the \ref
 686:Generated_Source\PSoC6\pdl\drivers\peripheral\ipc/cy_ipc_drv.h **** * Cy_IPC_Drv_GetIpcBaseAddress.
 687:Generated_Source\PSoC6\pdl\drivers\peripheral\ipc/cy_ipc_drv.h **** *
 688:Generated_Source\PSoC6\pdl\drivers\peripheral\ipc/cy_ipc_drv.h **** * \param notifyEventIntr
 689:Generated_Source\PSoC6\pdl\drivers\peripheral\ipc/cy_ipc_drv.h **** * Bit encoded list of IPC interrupt structures that are triggered
 690:Generated_Source\PSoC6\pdl\drivers\peripheral\ipc/cy_ipc_drv.h **** * by a notification. Bit number correspond to number of the IPC interrupt
 691:Generated_Source\PSoC6\pdl\drivers\peripheral\ipc/cy_ipc_drv.h **** * structure.
 692:Generated_Source\PSoC6\pdl\drivers\peripheral\ipc/cy_ipc_drv.h **** *
 693:Generated_Source\PSoC6\pdl\drivers\peripheral\ipc/cy_ipc_drv.h **** * \funcusage
 694:Generated_Source\PSoC6\pdl\drivers\peripheral\ipc/cy_ipc_drv.h **** * \snippet IPC_sut_01.cydsn/main_cm4.c snippet_Cy_IPC_Drv_LockAcquire
 695:Generated_Source\PSoC6\pdl\drivers\peripheral\ipc/cy_ipc_drv.h **** *
ARM GAS  C:\Users\JC\AppData\Local\Temp\ccQnhWsL.s 			page 15


 696:Generated_Source\PSoC6\pdl\drivers\peripheral\ipc/cy_ipc_drv.h **** *******************************************************************************/
 697:Generated_Source\PSoC6\pdl\drivers\peripheral\ipc/cy_ipc_drv.h **** __STATIC_INLINE void  Cy_IPC_Drv_AcquireNotify (IPC_STRUCT_Type* base, uint32_t notifyEventIntr)
 698:Generated_Source\PSoC6\pdl\drivers\peripheral\ipc/cy_ipc_drv.h **** {
 699:Generated_Source\PSoC6\pdl\drivers\peripheral\ipc/cy_ipc_drv.h ****     CY_ASSERT_L1(0ul == (notifyEventIntr  & ~(uint32_t)(IPC_STRUCT_NOTIFY_INTR_NOTIFY_Msk)));
 700:Generated_Source\PSoC6\pdl\drivers\peripheral\ipc/cy_ipc_drv.h ****     REG_IPC_STRUCT_NOTIFY(base) = _VAL2FLD(IPC_STRUCT_NOTIFY_INTR_NOTIFY, notifyEventIntr);
 701:Generated_Source\PSoC6\pdl\drivers\peripheral\ipc/cy_ipc_drv.h **** }
 702:Generated_Source\PSoC6\pdl\drivers\peripheral\ipc/cy_ipc_drv.h **** 
 703:Generated_Source\PSoC6\pdl\drivers\peripheral\ipc/cy_ipc_drv.h **** 
 704:Generated_Source\PSoC6\pdl\drivers\peripheral\ipc/cy_ipc_drv.h **** /*******************************************************************************
 705:Generated_Source\PSoC6\pdl\drivers\peripheral\ipc/cy_ipc_drv.h **** * Function Name: Cy_IPC_Drv_ReleaseNotify
 706:Generated_Source\PSoC6\pdl\drivers\peripheral\ipc/cy_ipc_drv.h **** ****************************************************************************//**
 707:Generated_Source\PSoC6\pdl\drivers\peripheral\ipc/cy_ipc_drv.h **** *
 708:Generated_Source\PSoC6\pdl\drivers\peripheral\ipc/cy_ipc_drv.h **** * The function generates a release notification event by IPC interrupt structure.
 709:Generated_Source\PSoC6\pdl\drivers\peripheral\ipc/cy_ipc_drv.h **** *
 710:Generated_Source\PSoC6\pdl\drivers\peripheral\ipc/cy_ipc_drv.h **** * \param base
 711:Generated_Source\PSoC6\pdl\drivers\peripheral\ipc/cy_ipc_drv.h **** * This parameter is a handle that represents the base address of the registers
 712:Generated_Source\PSoC6\pdl\drivers\peripheral\ipc/cy_ipc_drv.h **** * of the IPC channel.
 713:Generated_Source\PSoC6\pdl\drivers\peripheral\ipc/cy_ipc_drv.h **** * The parameter is generally returned from a call to the \ref
 714:Generated_Source\PSoC6\pdl\drivers\peripheral\ipc/cy_ipc_drv.h **** * Cy_IPC_Drv_GetIpcBaseAddress.
 715:Generated_Source\PSoC6\pdl\drivers\peripheral\ipc/cy_ipc_drv.h **** *
 716:Generated_Source\PSoC6\pdl\drivers\peripheral\ipc/cy_ipc_drv.h **** * \param notifyEventIntr
 717:Generated_Source\PSoC6\pdl\drivers\peripheral\ipc/cy_ipc_drv.h **** * Bit encoded list of IPC interrupt lines that are triggered by a notification.
 718:Generated_Source\PSoC6\pdl\drivers\peripheral\ipc/cy_ipc_drv.h **** *
 719:Generated_Source\PSoC6\pdl\drivers\peripheral\ipc/cy_ipc_drv.h **** * \funcusage
 720:Generated_Source\PSoC6\pdl\drivers\peripheral\ipc/cy_ipc_drv.h **** * \snippet IPC_sut_01.cydsn/main_cm4.c snippet_Cy_IPC_Drv_ReadMsgWord
 721:Generated_Source\PSoC6\pdl\drivers\peripheral\ipc/cy_ipc_drv.h **** *
 722:Generated_Source\PSoC6\pdl\drivers\peripheral\ipc/cy_ipc_drv.h **** *******************************************************************************/
 723:Generated_Source\PSoC6\pdl\drivers\peripheral\ipc/cy_ipc_drv.h **** __STATIC_INLINE void  Cy_IPC_Drv_ReleaseNotify (IPC_STRUCT_Type* base, uint32_t notifyEventIntr)
 724:Generated_Source\PSoC6\pdl\drivers\peripheral\ipc/cy_ipc_drv.h **** {
 725:Generated_Source\PSoC6\pdl\drivers\peripheral\ipc/cy_ipc_drv.h ****     CY_ASSERT_L1(0ul == (notifyEventIntr  & ~(uint32_t)(IPC_INTR_STRUCT_INTR_RELEASE_Msk)));
 726:Generated_Source\PSoC6\pdl\drivers\peripheral\ipc/cy_ipc_drv.h ****     REG_IPC_STRUCT_RELEASE(base) = _VAL2FLD(IPC_INTR_STRUCT_INTR_RELEASE, notifyEventIntr);
 727:Generated_Source\PSoC6\pdl\drivers\peripheral\ipc/cy_ipc_drv.h **** }
 728:Generated_Source\PSoC6\pdl\drivers\peripheral\ipc/cy_ipc_drv.h **** 
 729:Generated_Source\PSoC6\pdl\drivers\peripheral\ipc/cy_ipc_drv.h **** 
 730:Generated_Source\PSoC6\pdl\drivers\peripheral\ipc/cy_ipc_drv.h **** /*******************************************************************************
 731:Generated_Source\PSoC6\pdl\drivers\peripheral\ipc/cy_ipc_drv.h **** * Function Name: Cy_IPC_Drv_WriteDataValue
 732:Generated_Source\PSoC6\pdl\drivers\peripheral\ipc/cy_ipc_drv.h **** ****************************************************************************//**
 733:Generated_Source\PSoC6\pdl\drivers\peripheral\ipc/cy_ipc_drv.h **** *
 734:Generated_Source\PSoC6\pdl\drivers\peripheral\ipc/cy_ipc_drv.h **** * The function writes a value to the DATA register of the IPC channel.
 735:Generated_Source\PSoC6\pdl\drivers\peripheral\ipc/cy_ipc_drv.h **** *
 736:Generated_Source\PSoC6\pdl\drivers\peripheral\ipc/cy_ipc_drv.h **** * This function is internal and should not be called directly by user
 737:Generated_Source\PSoC6\pdl\drivers\peripheral\ipc/cy_ipc_drv.h **** * software.
 738:Generated_Source\PSoC6\pdl\drivers\peripheral\ipc/cy_ipc_drv.h **** *
 739:Generated_Source\PSoC6\pdl\drivers\peripheral\ipc/cy_ipc_drv.h **** * \param base
 740:Generated_Source\PSoC6\pdl\drivers\peripheral\ipc/cy_ipc_drv.h **** * This parameter is a handle that represents the base address of the registers
 741:Generated_Source\PSoC6\pdl\drivers\peripheral\ipc/cy_ipc_drv.h **** * of the IPC channel.
 742:Generated_Source\PSoC6\pdl\drivers\peripheral\ipc/cy_ipc_drv.h **** * The parameter is generally returned from a call to the \ref
 743:Generated_Source\PSoC6\pdl\drivers\peripheral\ipc/cy_ipc_drv.h **** * Cy_IPC_Drv_GetIpcBaseAddress.
 744:Generated_Source\PSoC6\pdl\drivers\peripheral\ipc/cy_ipc_drv.h **** *
 745:Generated_Source\PSoC6\pdl\drivers\peripheral\ipc/cy_ipc_drv.h **** * \param dataValue
 746:Generated_Source\PSoC6\pdl\drivers\peripheral\ipc/cy_ipc_drv.h **** * Value to be written.
 747:Generated_Source\PSoC6\pdl\drivers\peripheral\ipc/cy_ipc_drv.h **** *
 748:Generated_Source\PSoC6\pdl\drivers\peripheral\ipc/cy_ipc_drv.h **** *******************************************************************************/
 749:Generated_Source\PSoC6\pdl\drivers\peripheral\ipc/cy_ipc_drv.h **** __STATIC_INLINE void     Cy_IPC_Drv_WriteDataValue (IPC_STRUCT_Type* base, uint32_t dataValue)
 750:Generated_Source\PSoC6\pdl\drivers\peripheral\ipc/cy_ipc_drv.h **** {
 751:Generated_Source\PSoC6\pdl\drivers\peripheral\ipc/cy_ipc_drv.h ****     REG_IPC_STRUCT_DATA(base) = dataValue;
 752:Generated_Source\PSoC6\pdl\drivers\peripheral\ipc/cy_ipc_drv.h **** }
ARM GAS  C:\Users\JC\AppData\Local\Temp\ccQnhWsL.s 			page 16


 753:Generated_Source\PSoC6\pdl\drivers\peripheral\ipc/cy_ipc_drv.h **** 
 754:Generated_Source\PSoC6\pdl\drivers\peripheral\ipc/cy_ipc_drv.h **** 
 755:Generated_Source\PSoC6\pdl\drivers\peripheral\ipc/cy_ipc_drv.h **** /*******************************************************************************
 756:Generated_Source\PSoC6\pdl\drivers\peripheral\ipc/cy_ipc_drv.h **** * Function Name: Cy_IPC_Drv_ReadDataValue
 757:Generated_Source\PSoC6\pdl\drivers\peripheral\ipc/cy_ipc_drv.h **** ****************************************************************************//**
 758:Generated_Source\PSoC6\pdl\drivers\peripheral\ipc/cy_ipc_drv.h **** *
 759:Generated_Source\PSoC6\pdl\drivers\peripheral\ipc/cy_ipc_drv.h **** * The function reads a value from the DATA register of the IPC channel.
 760:Generated_Source\PSoC6\pdl\drivers\peripheral\ipc/cy_ipc_drv.h **** *
 761:Generated_Source\PSoC6\pdl\drivers\peripheral\ipc/cy_ipc_drv.h **** * This function is internal and should not be called directly by user
 762:Generated_Source\PSoC6\pdl\drivers\peripheral\ipc/cy_ipc_drv.h **** * software.
 763:Generated_Source\PSoC6\pdl\drivers\peripheral\ipc/cy_ipc_drv.h **** *
 764:Generated_Source\PSoC6\pdl\drivers\peripheral\ipc/cy_ipc_drv.h **** * \param base
 765:Generated_Source\PSoC6\pdl\drivers\peripheral\ipc/cy_ipc_drv.h **** * This parameter is a handle that represents the base address of the registers
 766:Generated_Source\PSoC6\pdl\drivers\peripheral\ipc/cy_ipc_drv.h **** * of the IPC channel.
 767:Generated_Source\PSoC6\pdl\drivers\peripheral\ipc/cy_ipc_drv.h **** * The parameter is generally returned from a call to the \ref
 768:Generated_Source\PSoC6\pdl\drivers\peripheral\ipc/cy_ipc_drv.h **** * Cy_IPC_Drv_GetIpcBaseAddress.
 769:Generated_Source\PSoC6\pdl\drivers\peripheral\ipc/cy_ipc_drv.h **** *
 770:Generated_Source\PSoC6\pdl\drivers\peripheral\ipc/cy_ipc_drv.h **** * \return
 771:Generated_Source\PSoC6\pdl\drivers\peripheral\ipc/cy_ipc_drv.h **** * Value from DATA register.
 772:Generated_Source\PSoC6\pdl\drivers\peripheral\ipc/cy_ipc_drv.h **** *
 773:Generated_Source\PSoC6\pdl\drivers\peripheral\ipc/cy_ipc_drv.h **** *******************************************************************************/
 774:Generated_Source\PSoC6\pdl\drivers\peripheral\ipc/cy_ipc_drv.h **** __STATIC_INLINE uint32_t Cy_IPC_Drv_ReadDataValue (IPC_STRUCT_Type const * base)
 775:Generated_Source\PSoC6\pdl\drivers\peripheral\ipc/cy_ipc_drv.h **** {
  96              		.loc 1 775 0
  97              		.cfi_startproc
  98              		@ args = 0, pretend = 0, frame = 8
  99              		@ frame_needed = 1, uses_anonymous_args = 0
 100 0000 80B5     		push	{r7, lr}
 101              		.cfi_def_cfa_offset 8
 102              		.cfi_offset 7, -8
 103              		.cfi_offset 14, -4
 104 0002 82B0     		sub	sp, sp, #8
 105              		.cfi_def_cfa_offset 16
 106 0004 00AF     		add	r7, sp, #0
 107              		.cfi_def_cfa_register 7
 108 0006 7860     		str	r0, [r7, #4]
 776:Generated_Source\PSoC6\pdl\drivers\peripheral\ipc/cy_ipc_drv.h ****     return REG_IPC_STRUCT_DATA(base);
 109              		.loc 1 776 0
 110 0008 7B68     		ldr	r3, [r7, #4]
 111 000a DB68     		ldr	r3, [r3, #12]
 777:Generated_Source\PSoC6\pdl\drivers\peripheral\ipc/cy_ipc_drv.h **** }
 112              		.loc 1 777 0
 113 000c 1800     		movs	r0, r3
 114 000e BD46     		mov	sp, r7
 115 0010 02B0     		add	sp, sp, #8
 116              		@ sp needed
 117 0012 80BD     		pop	{r7, pc}
 118              		.cfi_endproc
 119              	.LFE56:
 120              		.size	Cy_IPC_Drv_ReadDataValue, .-Cy_IPC_Drv_ReadDataValue
 121              		.section	.text.Cy_IPC_Drv_SendMsgPtr,"ax",%progbits
 122              		.align	2
 123              		.code	16
 124              		.thumb_func
 125              		.type	Cy_IPC_Drv_SendMsgPtr, %function
 126              	Cy_IPC_Drv_SendMsgPtr:
 127              	.LFB61:
ARM GAS  C:\Users\JC\AppData\Local\Temp\ccQnhWsL.s 			page 17


 778:Generated_Source\PSoC6\pdl\drivers\peripheral\ipc/cy_ipc_drv.h **** 
 779:Generated_Source\PSoC6\pdl\drivers\peripheral\ipc/cy_ipc_drv.h **** 
 780:Generated_Source\PSoC6\pdl\drivers\peripheral\ipc/cy_ipc_drv.h **** /*******************************************************************************
 781:Generated_Source\PSoC6\pdl\drivers\peripheral\ipc/cy_ipc_drv.h **** * Function Name: Cy_IPC_Drv_IsLockAcquired
 782:Generated_Source\PSoC6\pdl\drivers\peripheral\ipc/cy_ipc_drv.h **** ****************************************************************************//**
 783:Generated_Source\PSoC6\pdl\drivers\peripheral\ipc/cy_ipc_drv.h **** *
 784:Generated_Source\PSoC6\pdl\drivers\peripheral\ipc/cy_ipc_drv.h **** * The function is used to test the status of an IPC channel. The function
 785:Generated_Source\PSoC6\pdl\drivers\peripheral\ipc/cy_ipc_drv.h **** * tells the reader if the IPC channel was in the locked or released state.
 786:Generated_Source\PSoC6\pdl\drivers\peripheral\ipc/cy_ipc_drv.h **** *
 787:Generated_Source\PSoC6\pdl\drivers\peripheral\ipc/cy_ipc_drv.h **** * \param base
 788:Generated_Source\PSoC6\pdl\drivers\peripheral\ipc/cy_ipc_drv.h **** * This parameter is a handle that represents the base address of the registers
 789:Generated_Source\PSoC6\pdl\drivers\peripheral\ipc/cy_ipc_drv.h **** * of the IPC channel.
 790:Generated_Source\PSoC6\pdl\drivers\peripheral\ipc/cy_ipc_drv.h **** * The parameter is generally returned from a call to the \ref
 791:Generated_Source\PSoC6\pdl\drivers\peripheral\ipc/cy_ipc_drv.h **** * Cy_IPC_Drv_GetIpcBaseAddress.
 792:Generated_Source\PSoC6\pdl\drivers\peripheral\ipc/cy_ipc_drv.h **** *
 793:Generated_Source\PSoC6\pdl\drivers\peripheral\ipc/cy_ipc_drv.h **** * \return
 794:Generated_Source\PSoC6\pdl\drivers\peripheral\ipc/cy_ipc_drv.h **** *   Status for the function:
 795:Generated_Source\PSoC6\pdl\drivers\peripheral\ipc/cy_ipc_drv.h **** *   true:  The IPC channel is in the Locked state.
 796:Generated_Source\PSoC6\pdl\drivers\peripheral\ipc/cy_ipc_drv.h **** *   false: The IPC channel is in the Released state.
 797:Generated_Source\PSoC6\pdl\drivers\peripheral\ipc/cy_ipc_drv.h **** *
 798:Generated_Source\PSoC6\pdl\drivers\peripheral\ipc/cy_ipc_drv.h **** * \funcusage
 799:Generated_Source\PSoC6\pdl\drivers\peripheral\ipc/cy_ipc_drv.h **** * \snippet IPC_sut_01.cydsn/main_cm4.c snippet_Cy_IPC_Drv_LockAcquire
 800:Generated_Source\PSoC6\pdl\drivers\peripheral\ipc/cy_ipc_drv.h **** *
 801:Generated_Source\PSoC6\pdl\drivers\peripheral\ipc/cy_ipc_drv.h **** *******************************************************************************/
 802:Generated_Source\PSoC6\pdl\drivers\peripheral\ipc/cy_ipc_drv.h **** __STATIC_INLINE bool Cy_IPC_Drv_IsLockAcquired (IPC_STRUCT_Type const * base)
 803:Generated_Source\PSoC6\pdl\drivers\peripheral\ipc/cy_ipc_drv.h **** {
 804:Generated_Source\PSoC6\pdl\drivers\peripheral\ipc/cy_ipc_drv.h ****     return ( 0u != _FLD2VAL(IPC_STRUCT_ACQUIRE_SUCCESS, REG_IPC_STRUCT_LOCK_STATUS(base)) );
 805:Generated_Source\PSoC6\pdl\drivers\peripheral\ipc/cy_ipc_drv.h **** }
 806:Generated_Source\PSoC6\pdl\drivers\peripheral\ipc/cy_ipc_drv.h **** 
 807:Generated_Source\PSoC6\pdl\drivers\peripheral\ipc/cy_ipc_drv.h **** 
 808:Generated_Source\PSoC6\pdl\drivers\peripheral\ipc/cy_ipc_drv.h **** /*******************************************************************************
 809:Generated_Source\PSoC6\pdl\drivers\peripheral\ipc/cy_ipc_drv.h **** * Function Name: Cy_IPC_Drv_GetLockStatus
 810:Generated_Source\PSoC6\pdl\drivers\peripheral\ipc/cy_ipc_drv.h **** ****************************************************************************//**
 811:Generated_Source\PSoC6\pdl\drivers\peripheral\ipc/cy_ipc_drv.h **** *
 812:Generated_Source\PSoC6\pdl\drivers\peripheral\ipc/cy_ipc_drv.h **** * The function is used to get the status of an IPC channel.
 813:Generated_Source\PSoC6\pdl\drivers\peripheral\ipc/cy_ipc_drv.h **** *
 814:Generated_Source\PSoC6\pdl\drivers\peripheral\ipc/cy_ipc_drv.h **** * \param base
 815:Generated_Source\PSoC6\pdl\drivers\peripheral\ipc/cy_ipc_drv.h **** * This parameter is a handle that represents the base address of the registers
 816:Generated_Source\PSoC6\pdl\drivers\peripheral\ipc/cy_ipc_drv.h **** * of the IPC channel.
 817:Generated_Source\PSoC6\pdl\drivers\peripheral\ipc/cy_ipc_drv.h **** * The parameter is generally returned from a call to the \ref
 818:Generated_Source\PSoC6\pdl\drivers\peripheral\ipc/cy_ipc_drv.h **** * Cy_IPC_Drv_GetIpcBaseAddress.
 819:Generated_Source\PSoC6\pdl\drivers\peripheral\ipc/cy_ipc_drv.h **** *
 820:Generated_Source\PSoC6\pdl\drivers\peripheral\ipc/cy_ipc_drv.h **** * \return
 821:Generated_Source\PSoC6\pdl\drivers\peripheral\ipc/cy_ipc_drv.h **** * Value from LOCK_STATUS register.
 822:Generated_Source\PSoC6\pdl\drivers\peripheral\ipc/cy_ipc_drv.h **** *
 823:Generated_Source\PSoC6\pdl\drivers\peripheral\ipc/cy_ipc_drv.h **** * \funcusage
 824:Generated_Source\PSoC6\pdl\drivers\peripheral\ipc/cy_ipc_drv.h **** * \snippet IPC_sut_01.cydsn/main_cm4.c snippet_Cy_IPC_Drv_GetLockStatus
 825:Generated_Source\PSoC6\pdl\drivers\peripheral\ipc/cy_ipc_drv.h **** *
 826:Generated_Source\PSoC6\pdl\drivers\peripheral\ipc/cy_ipc_drv.h **** *******************************************************************************/
 827:Generated_Source\PSoC6\pdl\drivers\peripheral\ipc/cy_ipc_drv.h **** __STATIC_INLINE uint32_t Cy_IPC_Drv_GetLockStatus (IPC_STRUCT_Type const * base)
 828:Generated_Source\PSoC6\pdl\drivers\peripheral\ipc/cy_ipc_drv.h **** {
 829:Generated_Source\PSoC6\pdl\drivers\peripheral\ipc/cy_ipc_drv.h ****     return REG_IPC_STRUCT_LOCK_STATUS(base);
 830:Generated_Source\PSoC6\pdl\drivers\peripheral\ipc/cy_ipc_drv.h **** }
 831:Generated_Source\PSoC6\pdl\drivers\peripheral\ipc/cy_ipc_drv.h **** 
 832:Generated_Source\PSoC6\pdl\drivers\peripheral\ipc/cy_ipc_drv.h **** 
 833:Generated_Source\PSoC6\pdl\drivers\peripheral\ipc/cy_ipc_drv.h **** /*******************************************************************************
 834:Generated_Source\PSoC6\pdl\drivers\peripheral\ipc/cy_ipc_drv.h **** * Function Name: Cy_IPC_Drv_ExtractAcquireMask
ARM GAS  C:\Users\JC\AppData\Local\Temp\ccQnhWsL.s 			page 18


 835:Generated_Source\PSoC6\pdl\drivers\peripheral\ipc/cy_ipc_drv.h **** ****************************************************************************//**
 836:Generated_Source\PSoC6\pdl\drivers\peripheral\ipc/cy_ipc_drv.h **** *
 837:Generated_Source\PSoC6\pdl\drivers\peripheral\ipc/cy_ipc_drv.h **** * The function extracts an Acquire mask part from full interrupt mask value.
 838:Generated_Source\PSoC6\pdl\drivers\peripheral\ipc/cy_ipc_drv.h **** *
 839:Generated_Source\PSoC6\pdl\drivers\peripheral\ipc/cy_ipc_drv.h **** * This function is internal and should not be called directly by user
 840:Generated_Source\PSoC6\pdl\drivers\peripheral\ipc/cy_ipc_drv.h **** * software.
 841:Generated_Source\PSoC6\pdl\drivers\peripheral\ipc/cy_ipc_drv.h **** *
 842:Generated_Source\PSoC6\pdl\drivers\peripheral\ipc/cy_ipc_drv.h **** * \param intMask
 843:Generated_Source\PSoC6\pdl\drivers\peripheral\ipc/cy_ipc_drv.h **** * Interrupt mask value to be processed.
 844:Generated_Source\PSoC6\pdl\drivers\peripheral\ipc/cy_ipc_drv.h **** *
 845:Generated_Source\PSoC6\pdl\drivers\peripheral\ipc/cy_ipc_drv.h **** * \return
 846:Generated_Source\PSoC6\pdl\drivers\peripheral\ipc/cy_ipc_drv.h **** * Acquire mask value.
 847:Generated_Source\PSoC6\pdl\drivers\peripheral\ipc/cy_ipc_drv.h **** *
 848:Generated_Source\PSoC6\pdl\drivers\peripheral\ipc/cy_ipc_drv.h **** *******************************************************************************/
 849:Generated_Source\PSoC6\pdl\drivers\peripheral\ipc/cy_ipc_drv.h **** __STATIC_INLINE uint32_t Cy_IPC_Drv_ExtractAcquireMask (uint32_t intMask)
 850:Generated_Source\PSoC6\pdl\drivers\peripheral\ipc/cy_ipc_drv.h **** {
 851:Generated_Source\PSoC6\pdl\drivers\peripheral\ipc/cy_ipc_drv.h ****     return _FLD2VAL(IPC_INTR_STRUCT_INTR_MASK_NOTIFY, intMask);
 852:Generated_Source\PSoC6\pdl\drivers\peripheral\ipc/cy_ipc_drv.h **** }
 853:Generated_Source\PSoC6\pdl\drivers\peripheral\ipc/cy_ipc_drv.h **** 
 854:Generated_Source\PSoC6\pdl\drivers\peripheral\ipc/cy_ipc_drv.h **** 
 855:Generated_Source\PSoC6\pdl\drivers\peripheral\ipc/cy_ipc_drv.h **** /*******************************************************************************
 856:Generated_Source\PSoC6\pdl\drivers\peripheral\ipc/cy_ipc_drv.h **** * Function Name: Cy_IPC_Drv_ExtractReleaseMask
 857:Generated_Source\PSoC6\pdl\drivers\peripheral\ipc/cy_ipc_drv.h **** ****************************************************************************//**
 858:Generated_Source\PSoC6\pdl\drivers\peripheral\ipc/cy_ipc_drv.h **** *
 859:Generated_Source\PSoC6\pdl\drivers\peripheral\ipc/cy_ipc_drv.h **** * The function extracts a Release mask part from full interrupt mask value.
 860:Generated_Source\PSoC6\pdl\drivers\peripheral\ipc/cy_ipc_drv.h **** *
 861:Generated_Source\PSoC6\pdl\drivers\peripheral\ipc/cy_ipc_drv.h **** * This function is internal and should not be called directly by user
 862:Generated_Source\PSoC6\pdl\drivers\peripheral\ipc/cy_ipc_drv.h **** * software.
 863:Generated_Source\PSoC6\pdl\drivers\peripheral\ipc/cy_ipc_drv.h **** *
 864:Generated_Source\PSoC6\pdl\drivers\peripheral\ipc/cy_ipc_drv.h **** * \param intMask
 865:Generated_Source\PSoC6\pdl\drivers\peripheral\ipc/cy_ipc_drv.h **** * Interrupt mask value to be processed.
 866:Generated_Source\PSoC6\pdl\drivers\peripheral\ipc/cy_ipc_drv.h **** *
 867:Generated_Source\PSoC6\pdl\drivers\peripheral\ipc/cy_ipc_drv.h **** * \return
 868:Generated_Source\PSoC6\pdl\drivers\peripheral\ipc/cy_ipc_drv.h **** * Release mask value.
 869:Generated_Source\PSoC6\pdl\drivers\peripheral\ipc/cy_ipc_drv.h **** *
 870:Generated_Source\PSoC6\pdl\drivers\peripheral\ipc/cy_ipc_drv.h **** *******************************************************************************/
 871:Generated_Source\PSoC6\pdl\drivers\peripheral\ipc/cy_ipc_drv.h **** __STATIC_INLINE uint32_t Cy_IPC_Drv_ExtractReleaseMask (uint32_t intMask)
 872:Generated_Source\PSoC6\pdl\drivers\peripheral\ipc/cy_ipc_drv.h **** {
 873:Generated_Source\PSoC6\pdl\drivers\peripheral\ipc/cy_ipc_drv.h ****     return _FLD2VAL(IPC_INTR_STRUCT_INTR_MASK_RELEASE, intMask);
 874:Generated_Source\PSoC6\pdl\drivers\peripheral\ipc/cy_ipc_drv.h **** }
 875:Generated_Source\PSoC6\pdl\drivers\peripheral\ipc/cy_ipc_drv.h **** 
 876:Generated_Source\PSoC6\pdl\drivers\peripheral\ipc/cy_ipc_drv.h **** 
 877:Generated_Source\PSoC6\pdl\drivers\peripheral\ipc/cy_ipc_drv.h **** /*******************************************************************************
 878:Generated_Source\PSoC6\pdl\drivers\peripheral\ipc/cy_ipc_drv.h **** * Function Name: Cy_IPC_Drv_SendMsgPtr
 879:Generated_Source\PSoC6\pdl\drivers\peripheral\ipc/cy_ipc_drv.h **** ****************************************************************************//**
 880:Generated_Source\PSoC6\pdl\drivers\peripheral\ipc/cy_ipc_drv.h **** *
 881:Generated_Source\PSoC6\pdl\drivers\peripheral\ipc/cy_ipc_drv.h **** * This function is used to send a message pointer through an IPC channel.
 882:Generated_Source\PSoC6\pdl\drivers\peripheral\ipc/cy_ipc_drv.h **** * The message structure may hold a generic pointer that may contain the address
 883:Generated_Source\PSoC6\pdl\drivers\peripheral\ipc/cy_ipc_drv.h **** * of any user data type or structure. This parameter could be a pointer to a 32-bit
 884:Generated_Source\PSoC6\pdl\drivers\peripheral\ipc/cy_ipc_drv.h **** * integer, an array, or even a data structure defined in the user code. This
 885:Generated_Source\PSoC6\pdl\drivers\peripheral\ipc/cy_ipc_drv.h **** * function acts as a transfer engine for sending the pointer. Any memory
 886:Generated_Source\PSoC6\pdl\drivers\peripheral\ipc/cy_ipc_drv.h **** * management of the pointer allocation and deallocation is up to the application
 887:Generated_Source\PSoC6\pdl\drivers\peripheral\ipc/cy_ipc_drv.h **** * code.
 888:Generated_Source\PSoC6\pdl\drivers\peripheral\ipc/cy_ipc_drv.h **** * The function also has an associated notification field that will let the
 889:Generated_Source\PSoC6\pdl\drivers\peripheral\ipc/cy_ipc_drv.h **** * message notify one or multiple interrupts.
 890:Generated_Source\PSoC6\pdl\drivers\peripheral\ipc/cy_ipc_drv.h **** *
 891:Generated_Source\PSoC6\pdl\drivers\peripheral\ipc/cy_ipc_drv.h **** * \param base
ARM GAS  C:\Users\JC\AppData\Local\Temp\ccQnhWsL.s 			page 19


 892:Generated_Source\PSoC6\pdl\drivers\peripheral\ipc/cy_ipc_drv.h **** * This parameter is a handle that represents the base address of the registers
 893:Generated_Source\PSoC6\pdl\drivers\peripheral\ipc/cy_ipc_drv.h **** * of the IPC channel.
 894:Generated_Source\PSoC6\pdl\drivers\peripheral\ipc/cy_ipc_drv.h **** * The parameter is generally returned from a call to the \ref
 895:Generated_Source\PSoC6\pdl\drivers\peripheral\ipc/cy_ipc_drv.h **** * Cy_IPC_Drv_GetIpcBaseAddress.
 896:Generated_Source\PSoC6\pdl\drivers\peripheral\ipc/cy_ipc_drv.h **** *
 897:Generated_Source\PSoC6\pdl\drivers\peripheral\ipc/cy_ipc_drv.h **** * \param notifyEventIntr
 898:Generated_Source\PSoC6\pdl\drivers\peripheral\ipc/cy_ipc_drv.h **** * Bit encoded list of IPC interrupt lines that are triggered during the release
 899:Generated_Source\PSoC6\pdl\drivers\peripheral\ipc/cy_ipc_drv.h **** * action.
 900:Generated_Source\PSoC6\pdl\drivers\peripheral\ipc/cy_ipc_drv.h **** *
 901:Generated_Source\PSoC6\pdl\drivers\peripheral\ipc/cy_ipc_drv.h **** * \param msgPtr
 902:Generated_Source\PSoC6\pdl\drivers\peripheral\ipc/cy_ipc_drv.h **** * The message pointer that is being sent over the IPC channel.
 903:Generated_Source\PSoC6\pdl\drivers\peripheral\ipc/cy_ipc_drv.h **** *
 904:Generated_Source\PSoC6\pdl\drivers\peripheral\ipc/cy_ipc_drv.h **** * \return   Status of the operation:
 905:Generated_Source\PSoC6\pdl\drivers\peripheral\ipc/cy_ipc_drv.h **** *   \retval CY_IPC_DRV_SUCCESS: The send operation was successful.
 906:Generated_Source\PSoC6\pdl\drivers\peripheral\ipc/cy_ipc_drv.h **** *   \retval CY_IPC_DRV_ERROR:   The IPC channel is unavailable because
 907:Generated_Source\PSoC6\pdl\drivers\peripheral\ipc/cy_ipc_drv.h **** *                               it is already locked.
 908:Generated_Source\PSoC6\pdl\drivers\peripheral\ipc/cy_ipc_drv.h **** *
 909:Generated_Source\PSoC6\pdl\drivers\peripheral\ipc/cy_ipc_drv.h **** * \funcusage
 910:Generated_Source\PSoC6\pdl\drivers\peripheral\ipc/cy_ipc_drv.h **** * \snippet IPC_sut_01.cydsn/main_cm4.c snippet_Cy_IPC_Drv_SendMsgPtr
 911:Generated_Source\PSoC6\pdl\drivers\peripheral\ipc/cy_ipc_drv.h **** *
 912:Generated_Source\PSoC6\pdl\drivers\peripheral\ipc/cy_ipc_drv.h **** *******************************************************************************/
 913:Generated_Source\PSoC6\pdl\drivers\peripheral\ipc/cy_ipc_drv.h **** __STATIC_INLINE cy_en_ipcdrv_status_t  Cy_IPC_Drv_SendMsgPtr(IPC_STRUCT_Type* base, uint32_t notify
 914:Generated_Source\PSoC6\pdl\drivers\peripheral\ipc/cy_ipc_drv.h **** {
 128              		.loc 1 914 0
 129              		.cfi_startproc
 130              		@ args = 0, pretend = 0, frame = 16
 131              		@ frame_needed = 1, uses_anonymous_args = 0
 132 0000 80B5     		push	{r7, lr}
 133              		.cfi_def_cfa_offset 8
 134              		.cfi_offset 7, -8
 135              		.cfi_offset 14, -4
 136 0002 84B0     		sub	sp, sp, #16
 137              		.cfi_def_cfa_offset 24
 138 0004 00AF     		add	r7, sp, #0
 139              		.cfi_def_cfa_register 7
 140 0006 F860     		str	r0, [r7, #12]
 141 0008 B960     		str	r1, [r7, #8]
 142 000a 7A60     		str	r2, [r7, #4]
 915:Generated_Source\PSoC6\pdl\drivers\peripheral\ipc/cy_ipc_drv.h ****     CY_ASSERT_L1(NULL != msgPtr);
 143              		.loc 1 915 0
 144 000c 7B68     		ldr	r3, [r7, #4]
 145 000e 002B     		cmp	r3, #0
 146 0010 05D1     		bne	.L9
 147              		.loc 1 915 0 is_stmt 0 discriminator 1
 148 0012 084A     		ldr	r2, .L11
 149 0014 084B     		ldr	r3, .L11+4
 150 0016 1100     		movs	r1, r2
 151 0018 1800     		movs	r0, r3
 152 001a FFF7FEFF 		bl	Cy_SysLib_AssertFailed
 153              	.L9:
 916:Generated_Source\PSoC6\pdl\drivers\peripheral\ipc/cy_ipc_drv.h ****     return Cy_IPC_Drv_SendMsgWord(base, notifyEventIntr, (uint32_t)msgPtr);
 154              		.loc 1 916 0 is_stmt 1
 155 001e 7A68     		ldr	r2, [r7, #4]
 156 0020 B968     		ldr	r1, [r7, #8]
 157 0022 FB68     		ldr	r3, [r7, #12]
 158 0024 1800     		movs	r0, r3
 159 0026 FFF7FEFF 		bl	Cy_IPC_Drv_SendMsgWord
ARM GAS  C:\Users\JC\AppData\Local\Temp\ccQnhWsL.s 			page 20


 160 002a 0300     		movs	r3, r0
 917:Generated_Source\PSoC6\pdl\drivers\peripheral\ipc/cy_ipc_drv.h **** }
 161              		.loc 1 917 0
 162 002c 1800     		movs	r0, r3
 163 002e BD46     		mov	sp, r7
 164 0030 04B0     		add	sp, sp, #16
 165              		@ sp needed
 166 0032 80BD     		pop	{r7, pc}
 167              	.L12:
 168              		.align	2
 169              	.L11:
 170 0034 93030000 		.word	915
 171 0038 00000000 		.word	.LC1
 172              		.cfi_endproc
 173              	.LFE61:
 174              		.size	Cy_IPC_Drv_SendMsgPtr, .-Cy_IPC_Drv_SendMsgPtr
 175              		.section	.text.Cy_IPC_Drv_LockAcquire,"ax",%progbits
 176              		.align	2
 177              		.code	16
 178              		.thumb_func
 179              		.type	Cy_IPC_Drv_LockAcquire, %function
 180              	Cy_IPC_Drv_LockAcquire:
 181              	.LFB63:
 918:Generated_Source\PSoC6\pdl\drivers\peripheral\ipc/cy_ipc_drv.h **** 
 919:Generated_Source\PSoC6\pdl\drivers\peripheral\ipc/cy_ipc_drv.h **** 
 920:Generated_Source\PSoC6\pdl\drivers\peripheral\ipc/cy_ipc_drv.h **** /*******************************************************************************
 921:Generated_Source\PSoC6\pdl\drivers\peripheral\ipc/cy_ipc_drv.h **** * Function Name: Cy_IPC_Drv_ReadMsgPtr
 922:Generated_Source\PSoC6\pdl\drivers\peripheral\ipc/cy_ipc_drv.h **** ****************************************************************************//**
 923:Generated_Source\PSoC6\pdl\drivers\peripheral\ipc/cy_ipc_drv.h **** *
 924:Generated_Source\PSoC6\pdl\drivers\peripheral\ipc/cy_ipc_drv.h **** * This function is used to read a 32-bit pointer message through an IPC channel.
 925:Generated_Source\PSoC6\pdl\drivers\peripheral\ipc/cy_ipc_drv.h **** *
 926:Generated_Source\PSoC6\pdl\drivers\peripheral\ipc/cy_ipc_drv.h **** * \param base
 927:Generated_Source\PSoC6\pdl\drivers\peripheral\ipc/cy_ipc_drv.h **** * This parameter is a handle that represents the base address of the registers
 928:Generated_Source\PSoC6\pdl\drivers\peripheral\ipc/cy_ipc_drv.h **** * of the IPC channel.
 929:Generated_Source\PSoC6\pdl\drivers\peripheral\ipc/cy_ipc_drv.h **** * The parameter is generally returned from a call to the \ref
 930:Generated_Source\PSoC6\pdl\drivers\peripheral\ipc/cy_ipc_drv.h **** * Cy_IPC_Drv_GetIpcBaseAddress.
 931:Generated_Source\PSoC6\pdl\drivers\peripheral\ipc/cy_ipc_drv.h **** *
 932:Generated_Source\PSoC6\pdl\drivers\peripheral\ipc/cy_ipc_drv.h **** * \param msgPtr
 933:Generated_Source\PSoC6\pdl\drivers\peripheral\ipc/cy_ipc_drv.h **** * Pointer variable to hold the data pointer that is being read from the IPC
 934:Generated_Source\PSoC6\pdl\drivers\peripheral\ipc/cy_ipc_drv.h **** * channel.
 935:Generated_Source\PSoC6\pdl\drivers\peripheral\ipc/cy_ipc_drv.h **** *
 936:Generated_Source\PSoC6\pdl\drivers\peripheral\ipc/cy_ipc_drv.h **** *
 937:Generated_Source\PSoC6\pdl\drivers\peripheral\ipc/cy_ipc_drv.h **** * \return Status of the operation
 938:Generated_Source\PSoC6\pdl\drivers\peripheral\ipc/cy_ipc_drv.h **** *   \retval CY_IPC_DRV_SUCCESS: The function executed successfully and the IPC
 939:Generated_Source\PSoC6\pdl\drivers\peripheral\ipc/cy_ipc_drv.h **** *                       was acquired.
 940:Generated_Source\PSoC6\pdl\drivers\peripheral\ipc/cy_ipc_drv.h **** *   \retval CY_IPC_DRV_ERROR:   The function encountered an error because the IPC
 941:Generated_Source\PSoC6\pdl\drivers\peripheral\ipc/cy_ipc_drv.h **** *                       channel was already in a released state meaning the data
 942:Generated_Source\PSoC6\pdl\drivers\peripheral\ipc/cy_ipc_drv.h **** *                       in it is invalid.
 943:Generated_Source\PSoC6\pdl\drivers\peripheral\ipc/cy_ipc_drv.h **** *
 944:Generated_Source\PSoC6\pdl\drivers\peripheral\ipc/cy_ipc_drv.h **** * \funcusage
 945:Generated_Source\PSoC6\pdl\drivers\peripheral\ipc/cy_ipc_drv.h **** * \snippet IPC_sut_01.cydsn/main_cm4.c snippet_Cy_IPC_Drv_ReadMsgPtr
 946:Generated_Source\PSoC6\pdl\drivers\peripheral\ipc/cy_ipc_drv.h **** *
 947:Generated_Source\PSoC6\pdl\drivers\peripheral\ipc/cy_ipc_drv.h **** *******************************************************************************/
 948:Generated_Source\PSoC6\pdl\drivers\peripheral\ipc/cy_ipc_drv.h **** __STATIC_INLINE  cy_en_ipcdrv_status_t  Cy_IPC_Drv_ReadMsgPtr (IPC_STRUCT_Type const * base, void *
 949:Generated_Source\PSoC6\pdl\drivers\peripheral\ipc/cy_ipc_drv.h **** {
 950:Generated_Source\PSoC6\pdl\drivers\peripheral\ipc/cy_ipc_drv.h ****     CY_ASSERT_L1(NULL != msgPtr);
 951:Generated_Source\PSoC6\pdl\drivers\peripheral\ipc/cy_ipc_drv.h ****     return Cy_IPC_Drv_ReadMsgWord(base, (uint32_t *)msgPtr);
ARM GAS  C:\Users\JC\AppData\Local\Temp\ccQnhWsL.s 			page 21


 952:Generated_Source\PSoC6\pdl\drivers\peripheral\ipc/cy_ipc_drv.h **** }
 953:Generated_Source\PSoC6\pdl\drivers\peripheral\ipc/cy_ipc_drv.h **** 
 954:Generated_Source\PSoC6\pdl\drivers\peripheral\ipc/cy_ipc_drv.h **** 
 955:Generated_Source\PSoC6\pdl\drivers\peripheral\ipc/cy_ipc_drv.h **** /*******************************************************************************
 956:Generated_Source\PSoC6\pdl\drivers\peripheral\ipc/cy_ipc_drv.h **** * Function Name: Cy_IPC_Drv_LockAcquire
 957:Generated_Source\PSoC6\pdl\drivers\peripheral\ipc/cy_ipc_drv.h **** ****************************************************************************//**
 958:Generated_Source\PSoC6\pdl\drivers\peripheral\ipc/cy_ipc_drv.h **** *
 959:Generated_Source\PSoC6\pdl\drivers\peripheral\ipc/cy_ipc_drv.h **** * This function is used to acquire the IPC channel.
 960:Generated_Source\PSoC6\pdl\drivers\peripheral\ipc/cy_ipc_drv.h **** *
 961:Generated_Source\PSoC6\pdl\drivers\peripheral\ipc/cy_ipc_drv.h **** * \param base
 962:Generated_Source\PSoC6\pdl\drivers\peripheral\ipc/cy_ipc_drv.h **** * This parameter is a handle that represents the base address of the registers
 963:Generated_Source\PSoC6\pdl\drivers\peripheral\ipc/cy_ipc_drv.h **** * of the IPC channel.
 964:Generated_Source\PSoC6\pdl\drivers\peripheral\ipc/cy_ipc_drv.h **** * The parameter is generally returned from a call to the \ref
 965:Generated_Source\PSoC6\pdl\drivers\peripheral\ipc/cy_ipc_drv.h **** * Cy_IPC_Drv_GetIpcBaseAddress
 966:Generated_Source\PSoC6\pdl\drivers\peripheral\ipc/cy_ipc_drv.h **** *
 967:Generated_Source\PSoC6\pdl\drivers\peripheral\ipc/cy_ipc_drv.h **** * \return   Status of the operation
 968:Generated_Source\PSoC6\pdl\drivers\peripheral\ipc/cy_ipc_drv.h **** *   \retval CY_IPC_DRV_SUCCESS: The IPC was successfully acquired
 969:Generated_Source\PSoC6\pdl\drivers\peripheral\ipc/cy_ipc_drv.h **** *   \retval CY_IPC_DRV_ERROR:   The IPC was not acquired because it was already acquired
 970:Generated_Source\PSoC6\pdl\drivers\peripheral\ipc/cy_ipc_drv.h **** *                       by another master
 971:Generated_Source\PSoC6\pdl\drivers\peripheral\ipc/cy_ipc_drv.h **** *
 972:Generated_Source\PSoC6\pdl\drivers\peripheral\ipc/cy_ipc_drv.h **** * \funcusage
 973:Generated_Source\PSoC6\pdl\drivers\peripheral\ipc/cy_ipc_drv.h **** * \snippet IPC_sut_01.cydsn/main_cm4.c snippet_Cy_IPC_Drv_LockAcquire
 974:Generated_Source\PSoC6\pdl\drivers\peripheral\ipc/cy_ipc_drv.h **** *
 975:Generated_Source\PSoC6\pdl\drivers\peripheral\ipc/cy_ipc_drv.h **** *******************************************************************************/
 976:Generated_Source\PSoC6\pdl\drivers\peripheral\ipc/cy_ipc_drv.h **** __STATIC_INLINE cy_en_ipcdrv_status_t Cy_IPC_Drv_LockAcquire (IPC_STRUCT_Type const * base)
 977:Generated_Source\PSoC6\pdl\drivers\peripheral\ipc/cy_ipc_drv.h **** {
 182              		.loc 1 977 0
 183              		.cfi_startproc
 184              		@ args = 0, pretend = 0, frame = 8
 185              		@ frame_needed = 1, uses_anonymous_args = 0
 186 0000 80B5     		push	{r7, lr}
 187              		.cfi_def_cfa_offset 8
 188              		.cfi_offset 7, -8
 189              		.cfi_offset 14, -4
 190 0002 82B0     		sub	sp, sp, #8
 191              		.cfi_def_cfa_offset 16
 192 0004 00AF     		add	r7, sp, #0
 193              		.cfi_def_cfa_register 7
 194 0006 7860     		str	r0, [r7, #4]
 978:Generated_Source\PSoC6\pdl\drivers\peripheral\ipc/cy_ipc_drv.h ****     return ( 0ul != _FLD2VAL(IPC_STRUCT_ACQUIRE_SUCCESS, REG_IPC_STRUCT_ACQUIRE(base))) ? CY_IPC_DR
 195              		.loc 1 978 0
 196 0008 7B68     		ldr	r3, [r7, #4]
 197 000a 1B68     		ldr	r3, [r3]
 198 000c DB0F     		lsrs	r3, r3, #31
 199 000e DB07     		lsls	r3, r3, #31
 200 0010 01D5     		bpl	.L14
 201              		.loc 1 978 0 is_stmt 0 discriminator 1
 202 0012 0023     		movs	r3, #0
 203 0014 00E0     		b	.L16
 204              	.L14:
 205              		.loc 1 978 0 discriminator 2
 206 0016 024B     		ldr	r3, .L17
 207              	.L16:
 979:Generated_Source\PSoC6\pdl\drivers\peripheral\ipc/cy_ipc_drv.h **** }
 208              		.loc 1 979 0 is_stmt 1 discriminator 5
 209 0018 1800     		movs	r0, r3
 210 001a BD46     		mov	sp, r7
ARM GAS  C:\Users\JC\AppData\Local\Temp\ccQnhWsL.s 			page 22


 211 001c 02B0     		add	sp, sp, #8
 212              		@ sp needed
 213 001e 80BD     		pop	{r7, pc}
 214              	.L18:
 215              		.align	2
 216              	.L17:
 217 0020 01008A00 		.word	9043969
 218              		.cfi_endproc
 219              	.LFE63:
 220              		.size	Cy_IPC_Drv_LockAcquire, .-Cy_IPC_Drv_LockAcquire
 221              		.bss
 222              		.align	2
 223              	cy_semaIpcStruct:
 224 0000 00000000 		.space	4
 225              		.section	.text.Cy_IPC_Sema_Init,"ax",%progbits
 226              		.align	2
 227              		.global	Cy_IPC_Sema_Init
 228              		.code	16
 229              		.thumb_func
 230              		.type	Cy_IPC_Sema_Init, %function
 231              	Cy_IPC_Sema_Init:
 232              	.LFB64:
 233              		.file 2 "Generated_Source\\PSoC6\\pdl\\drivers\\peripheral\\ipc\\cy_ipc_sema.c"
   1:Generated_Source\PSoC6\pdl\drivers\peripheral\ipc/cy_ipc_sema.c **** /***************************************************************************//**
   2:Generated_Source\PSoC6\pdl\drivers\peripheral\ipc/cy_ipc_sema.c **** * \file cy_ipc_sema.c
   3:Generated_Source\PSoC6\pdl\drivers\peripheral\ipc/cy_ipc_sema.c **** * \version 1.30
   4:Generated_Source\PSoC6\pdl\drivers\peripheral\ipc/cy_ipc_sema.c **** *
   5:Generated_Source\PSoC6\pdl\drivers\peripheral\ipc/cy_ipc_sema.c **** *  Description:
   6:Generated_Source\PSoC6\pdl\drivers\peripheral\ipc/cy_ipc_sema.c **** *   IPC Semaphore Driver - This source file contains the source code for the
   7:Generated_Source\PSoC6\pdl\drivers\peripheral\ipc/cy_ipc_sema.c **** *   semaphore level APIs for the IPC interface.
   8:Generated_Source\PSoC6\pdl\drivers\peripheral\ipc/cy_ipc_sema.c **** *
   9:Generated_Source\PSoC6\pdl\drivers\peripheral\ipc/cy_ipc_sema.c **** ********************************************************************************
  10:Generated_Source\PSoC6\pdl\drivers\peripheral\ipc/cy_ipc_sema.c **** * Copyright 2016-2018, Cypress Semiconductor Corporation.  All rights reserved.
  11:Generated_Source\PSoC6\pdl\drivers\peripheral\ipc/cy_ipc_sema.c **** * You may use this file only in accordance with the license, terms, conditions,
  12:Generated_Source\PSoC6\pdl\drivers\peripheral\ipc/cy_ipc_sema.c **** * disclaimers, and limitations in the end user license agreement accompanying
  13:Generated_Source\PSoC6\pdl\drivers\peripheral\ipc/cy_ipc_sema.c **** * the software package with which this file was provided.
  14:Generated_Source\PSoC6\pdl\drivers\peripheral\ipc/cy_ipc_sema.c **** *******************************************************************************/
  15:Generated_Source\PSoC6\pdl\drivers\peripheral\ipc/cy_ipc_sema.c **** 
  16:Generated_Source\PSoC6\pdl\drivers\peripheral\ipc/cy_ipc_sema.c **** #include "cy_ipc_drv.h"
  17:Generated_Source\PSoC6\pdl\drivers\peripheral\ipc/cy_ipc_sema.c **** #include "cy_ipc_sema.h"
  18:Generated_Source\PSoC6\pdl\drivers\peripheral\ipc/cy_ipc_sema.c **** #include "cy_syslib.h"
  19:Generated_Source\PSoC6\pdl\drivers\peripheral\ipc/cy_ipc_sema.c **** #include <string.h> /* The memset() definition */
  20:Generated_Source\PSoC6\pdl\drivers\peripheral\ipc/cy_ipc_sema.c **** 
  21:Generated_Source\PSoC6\pdl\drivers\peripheral\ipc/cy_ipc_sema.c **** /* Defines a mask to Check if semaphore count is a multiple of 32 */
  22:Generated_Source\PSoC6\pdl\drivers\peripheral\ipc/cy_ipc_sema.c **** #define CY_IPC_SEMA_PER_WORD_MASK    (CY_IPC_SEMA_PER_WORD - 1ul)
  23:Generated_Source\PSoC6\pdl\drivers\peripheral\ipc/cy_ipc_sema.c **** 
  24:Generated_Source\PSoC6\pdl\drivers\peripheral\ipc/cy_ipc_sema.c **** /* Pointer to IPC structure used for semaphores */
  25:Generated_Source\PSoC6\pdl\drivers\peripheral\ipc/cy_ipc_sema.c **** static IPC_STRUCT_Type* cy_semaIpcStruct;
  26:Generated_Source\PSoC6\pdl\drivers\peripheral\ipc/cy_ipc_sema.c **** 
  27:Generated_Source\PSoC6\pdl\drivers\peripheral\ipc/cy_ipc_sema.c **** 
  28:Generated_Source\PSoC6\pdl\drivers\peripheral\ipc/cy_ipc_sema.c **** /*******************************************************************************
  29:Generated_Source\PSoC6\pdl\drivers\peripheral\ipc/cy_ipc_sema.c **** * Function Name: Cy_IPC_Sema_Init
  30:Generated_Source\PSoC6\pdl\drivers\peripheral\ipc/cy_ipc_sema.c **** ****************************************************************************//**
  31:Generated_Source\PSoC6\pdl\drivers\peripheral\ipc/cy_ipc_sema.c **** *
  32:Generated_Source\PSoC6\pdl\drivers\peripheral\ipc/cy_ipc_sema.c **** * This function initializes the semaphores subsystem. The user must create an
  33:Generated_Source\PSoC6\pdl\drivers\peripheral\ipc/cy_ipc_sema.c **** * array of unsigned 32-bit words to hold the semaphore bits. The number
  34:Generated_Source\PSoC6\pdl\drivers\peripheral\ipc/cy_ipc_sema.c **** * of semaphores will be the size of the array * 32. The total semaphores count
ARM GAS  C:\Users\JC\AppData\Local\Temp\ccQnhWsL.s 			page 23


  35:Generated_Source\PSoC6\pdl\drivers\peripheral\ipc/cy_ipc_sema.c **** * will always be a multiple of 32.
  36:Generated_Source\PSoC6\pdl\drivers\peripheral\ipc/cy_ipc_sema.c **** *
  37:Generated_Source\PSoC6\pdl\drivers\peripheral\ipc/cy_ipc_sema.c **** * \note In a multi-CPU system this init function should be called with all
  38:Generated_Source\PSoC6\pdl\drivers\peripheral\ipc/cy_ipc_sema.c **** * initialized parameters on one CPU only to provide a pointer to SRAM that can
  39:Generated_Source\PSoC6\pdl\drivers\peripheral\ipc/cy_ipc_sema.c **** * be shared between all the CPUs in the system that will use semaphores.
  40:Generated_Source\PSoC6\pdl\drivers\peripheral\ipc/cy_ipc_sema.c **** * On other CPUs user must specify the IPC semaphores channel and pass 0 / NULL
  41:Generated_Source\PSoC6\pdl\drivers\peripheral\ipc/cy_ipc_sema.c **** * to count and memPtr parameters correspondingly.
  42:Generated_Source\PSoC6\pdl\drivers\peripheral\ipc/cy_ipc_sema.c **** *
  43:Generated_Source\PSoC6\pdl\drivers\peripheral\ipc/cy_ipc_sema.c **** * \param ipcChannel
  44:Generated_Source\PSoC6\pdl\drivers\peripheral\ipc/cy_ipc_sema.c **** * The IPC channel number used for semaphores
  45:Generated_Source\PSoC6\pdl\drivers\peripheral\ipc/cy_ipc_sema.c **** *
  46:Generated_Source\PSoC6\pdl\drivers\peripheral\ipc/cy_ipc_sema.c **** * \param count
  47:Generated_Source\PSoC6\pdl\drivers\peripheral\ipc/cy_ipc_sema.c **** *  The maximum number of semaphores to be supported (multiple of 32).
  48:Generated_Source\PSoC6\pdl\drivers\peripheral\ipc/cy_ipc_sema.c **** *
  49:Generated_Source\PSoC6\pdl\drivers\peripheral\ipc/cy_ipc_sema.c **** * \param memPtr
  50:Generated_Source\PSoC6\pdl\drivers\peripheral\ipc/cy_ipc_sema.c **** *  This points to the array of (count/32) words that contain the semaphore data.
  51:Generated_Source\PSoC6\pdl\drivers\peripheral\ipc/cy_ipc_sema.c **** *
  52:Generated_Source\PSoC6\pdl\drivers\peripheral\ipc/cy_ipc_sema.c **** * \return Status of the operation
  53:Generated_Source\PSoC6\pdl\drivers\peripheral\ipc/cy_ipc_sema.c **** *    \retval CY_IPC_SEMA_SUCCESS: Successfully initialized
  54:Generated_Source\PSoC6\pdl\drivers\peripheral\ipc/cy_ipc_sema.c **** *    \retval CY_IPC_SEMA_BAD_PARAM:     Memory pointer is NULL and count is not zero,
  55:Generated_Source\PSoC6\pdl\drivers\peripheral\ipc/cy_ipc_sema.c **** *                             or count not multiple of 32
  56:Generated_Source\PSoC6\pdl\drivers\peripheral\ipc/cy_ipc_sema.c **** *    \retval CY_IPC_SEMA_ERROR_LOCKED:  Could not acquire semaphores IPC channel
  57:Generated_Source\PSoC6\pdl\drivers\peripheral\ipc/cy_ipc_sema.c **** *
  58:Generated_Source\PSoC6\pdl\drivers\peripheral\ipc/cy_ipc_sema.c **** * \funcusage
  59:Generated_Source\PSoC6\pdl\drivers\peripheral\ipc/cy_ipc_sema.c **** * \snippet IPC_sut_01.cydsn/main_cm4.c snippet_Cy_IPC_Sema_Init
  60:Generated_Source\PSoC6\pdl\drivers\peripheral\ipc/cy_ipc_sema.c **** *
  61:Generated_Source\PSoC6\pdl\drivers\peripheral\ipc/cy_ipc_sema.c **** *******************************************************************************/
  62:Generated_Source\PSoC6\pdl\drivers\peripheral\ipc/cy_ipc_sema.c **** cy_en_ipcsema_status_t Cy_IPC_Sema_Init(uint32_t ipcChannel,
  63:Generated_Source\PSoC6\pdl\drivers\peripheral\ipc/cy_ipc_sema.c ****                                         uint32_t count, uint32_t memPtr[])
  64:Generated_Source\PSoC6\pdl\drivers\peripheral\ipc/cy_ipc_sema.c **** {
 234              		.loc 2 64 0
 235              		.cfi_startproc
 236              		@ args = 0, pretend = 0, frame = 24
 237              		@ frame_needed = 1, uses_anonymous_args = 0
 238 0000 80B5     		push	{r7, lr}
 239              		.cfi_def_cfa_offset 8
 240              		.cfi_offset 7, -8
 241              		.cfi_offset 14, -4
 242 0002 86B0     		sub	sp, sp, #24
 243              		.cfi_def_cfa_offset 32
 244 0004 00AF     		add	r7, sp, #0
 245              		.cfi_def_cfa_register 7
 246 0006 F860     		str	r0, [r7, #12]
 247 0008 B960     		str	r1, [r7, #8]
 248 000a 7A60     		str	r2, [r7, #4]
  65:Generated_Source\PSoC6\pdl\drivers\peripheral\ipc/cy_ipc_sema.c ****     /* Structure containing semaphores control data */
  66:Generated_Source\PSoC6\pdl\drivers\peripheral\ipc/cy_ipc_sema.c ****     static cy_stc_ipc_sema_t       cy_semaData;
  67:Generated_Source\PSoC6\pdl\drivers\peripheral\ipc/cy_ipc_sema.c **** 
  68:Generated_Source\PSoC6\pdl\drivers\peripheral\ipc/cy_ipc_sema.c ****     cy_en_ipcsema_status_t retStatus = CY_IPC_SEMA_BAD_PARAM;
 249              		.loc 2 68 0
 250 000c 164B     		ldr	r3, .L24
 251 000e 7B61     		str	r3, [r7, #20]
  69:Generated_Source\PSoC6\pdl\drivers\peripheral\ipc/cy_ipc_sema.c **** 
  70:Generated_Source\PSoC6\pdl\drivers\peripheral\ipc/cy_ipc_sema.c ****     if( (NULL == memPtr) && (0u == count))
 252              		.loc 2 70 0
 253 0010 7B68     		ldr	r3, [r7, #4]
 254 0012 002B     		cmp	r3, #0
ARM GAS  C:\Users\JC\AppData\Local\Temp\ccQnhWsL.s 			page 24


 255 0014 0CD1     		bne	.L20
 256              		.loc 2 70 0 is_stmt 0 discriminator 1
 257 0016 BB68     		ldr	r3, [r7, #8]
 258 0018 002B     		cmp	r3, #0
 259 001a 09D1     		bne	.L20
  71:Generated_Source\PSoC6\pdl\drivers\peripheral\ipc/cy_ipc_sema.c ****     {
  72:Generated_Source\PSoC6\pdl\drivers\peripheral\ipc/cy_ipc_sema.c ****         cy_semaIpcStruct = Cy_IPC_Drv_GetIpcBaseAddress(ipcChannel);
 260              		.loc 2 72 0 is_stmt 1
 261 001c FB68     		ldr	r3, [r7, #12]
 262 001e 1800     		movs	r0, r3
 263 0020 FFF7FEFF 		bl	Cy_IPC_Drv_GetIpcBaseAddress
 264 0024 0200     		movs	r2, r0
 265 0026 114B     		ldr	r3, .L24+4
 266 0028 1A60     		str	r2, [r3]
  73:Generated_Source\PSoC6\pdl\drivers\peripheral\ipc/cy_ipc_sema.c **** 
  74:Generated_Source\PSoC6\pdl\drivers\peripheral\ipc/cy_ipc_sema.c ****         retStatus = CY_IPC_SEMA_SUCCESS;
 267              		.loc 2 74 0
 268 002a 0023     		movs	r3, #0
 269 002c 7B61     		str	r3, [r7, #20]
 270 002e 16E0     		b	.L21
 271              	.L20:
  75:Generated_Source\PSoC6\pdl\drivers\peripheral\ipc/cy_ipc_sema.c ****     }
  76:Generated_Source\PSoC6\pdl\drivers\peripheral\ipc/cy_ipc_sema.c **** 
  77:Generated_Source\PSoC6\pdl\drivers\peripheral\ipc/cy_ipc_sema.c ****     /* Check for non Null pointers and count value */
  78:Generated_Source\PSoC6\pdl\drivers\peripheral\ipc/cy_ipc_sema.c ****     else if ((NULL != memPtr) && (0u != count))
 272              		.loc 2 78 0
 273 0030 7B68     		ldr	r3, [r7, #4]
 274 0032 002B     		cmp	r3, #0
 275 0034 11D0     		beq	.L22
 276              		.loc 2 78 0 is_stmt 0 discriminator 1
 277 0036 BB68     		ldr	r3, [r7, #8]
 278 0038 002B     		cmp	r3, #0
 279 003a 0ED0     		beq	.L22
  79:Generated_Source\PSoC6\pdl\drivers\peripheral\ipc/cy_ipc_sema.c ****     {
  80:Generated_Source\PSoC6\pdl\drivers\peripheral\ipc/cy_ipc_sema.c ****         cy_semaData.maxSema  = count;
 280              		.loc 2 80 0 is_stmt 1
 281 003c 0C4B     		ldr	r3, .L24+8
 282 003e BA68     		ldr	r2, [r7, #8]
 283 0040 1A60     		str	r2, [r3]
  81:Generated_Source\PSoC6\pdl\drivers\peripheral\ipc/cy_ipc_sema.c ****         cy_semaData.arrayPtr = memPtr;
 284              		.loc 2 81 0
 285 0042 0B4B     		ldr	r3, .L24+8
 286 0044 7A68     		ldr	r2, [r7, #4]
 287 0046 5A60     		str	r2, [r3, #4]
  82:Generated_Source\PSoC6\pdl\drivers\peripheral\ipc/cy_ipc_sema.c **** 
  83:Generated_Source\PSoC6\pdl\drivers\peripheral\ipc/cy_ipc_sema.c ****         retStatus = Cy_IPC_Sema_InitExt(ipcChannel, &cy_semaData);
 288              		.loc 2 83 0
 289 0048 094A     		ldr	r2, .L24+8
 290 004a FB68     		ldr	r3, [r7, #12]
 291 004c 1100     		movs	r1, r2
 292 004e 1800     		movs	r0, r3
 293 0050 FFF7FEFF 		bl	Cy_IPC_Sema_InitExt
 294 0054 0300     		movs	r3, r0
 295 0056 7B61     		str	r3, [r7, #20]
 296 0058 01E0     		b	.L21
 297              	.L22:
  84:Generated_Source\PSoC6\pdl\drivers\peripheral\ipc/cy_ipc_sema.c ****     }
ARM GAS  C:\Users\JC\AppData\Local\Temp\ccQnhWsL.s 			page 25


  85:Generated_Source\PSoC6\pdl\drivers\peripheral\ipc/cy_ipc_sema.c ****     
  86:Generated_Source\PSoC6\pdl\drivers\peripheral\ipc/cy_ipc_sema.c ****     else
  87:Generated_Source\PSoC6\pdl\drivers\peripheral\ipc/cy_ipc_sema.c ****     {
  88:Generated_Source\PSoC6\pdl\drivers\peripheral\ipc/cy_ipc_sema.c ****         retStatus = CY_IPC_SEMA_BAD_PARAM;
 298              		.loc 2 88 0
 299 005a 034B     		ldr	r3, .L24
 300 005c 7B61     		str	r3, [r7, #20]
 301              	.L21:
  89:Generated_Source\PSoC6\pdl\drivers\peripheral\ipc/cy_ipc_sema.c ****     }
  90:Generated_Source\PSoC6\pdl\drivers\peripheral\ipc/cy_ipc_sema.c **** 
  91:Generated_Source\PSoC6\pdl\drivers\peripheral\ipc/cy_ipc_sema.c ****     return(retStatus);
 302              		.loc 2 91 0
 303 005e 7B69     		ldr	r3, [r7, #20]
  92:Generated_Source\PSoC6\pdl\drivers\peripheral\ipc/cy_ipc_sema.c **** }
 304              		.loc 2 92 0
 305 0060 1800     		movs	r0, r3
 306 0062 BD46     		mov	sp, r7
 307 0064 06B0     		add	sp, sp, #24
 308              		@ sp needed
 309 0066 80BD     		pop	{r7, pc}
 310              	.L25:
 311              		.align	2
 312              	.L24:
 313 0068 03018A00 		.word	9044227
 314 006c 00000000 		.word	cy_semaIpcStruct
 315 0070 04000000 		.word	cy_semaData.10024
 316              		.cfi_endproc
 317              	.LFE64:
 318              		.size	Cy_IPC_Sema_Init, .-Cy_IPC_Sema_Init
 319              		.section	.text.Cy_IPC_Sema_InitExt,"ax",%progbits
 320              		.align	2
 321              		.global	Cy_IPC_Sema_InitExt
 322              		.code	16
 323              		.thumb_func
 324              		.type	Cy_IPC_Sema_InitExt, %function
 325              	Cy_IPC_Sema_InitExt:
 326              	.LFB65:
  93:Generated_Source\PSoC6\pdl\drivers\peripheral\ipc/cy_ipc_sema.c **** 
  94:Generated_Source\PSoC6\pdl\drivers\peripheral\ipc/cy_ipc_sema.c **** 
  95:Generated_Source\PSoC6\pdl\drivers\peripheral\ipc/cy_ipc_sema.c **** /*******************************************************************************
  96:Generated_Source\PSoC6\pdl\drivers\peripheral\ipc/cy_ipc_sema.c **** * Function Name: Cy_IPC_Sema_InitExt
  97:Generated_Source\PSoC6\pdl\drivers\peripheral\ipc/cy_ipc_sema.c **** ****************************************************************************//**
  98:Generated_Source\PSoC6\pdl\drivers\peripheral\ipc/cy_ipc_sema.c **** * This function initializes the semaphores subsystem. The user must create an
  99:Generated_Source\PSoC6\pdl\drivers\peripheral\ipc/cy_ipc_sema.c **** * array of unsigned 32-bit words to hold the semaphore bits. The number
 100:Generated_Source\PSoC6\pdl\drivers\peripheral\ipc/cy_ipc_sema.c **** * of semaphores will be the size of the array * 32. The total semaphores count
 101:Generated_Source\PSoC6\pdl\drivers\peripheral\ipc/cy_ipc_sema.c **** * will always be a multiple of 32.
 102:Generated_Source\PSoC6\pdl\drivers\peripheral\ipc/cy_ipc_sema.c **** *
 103:Generated_Source\PSoC6\pdl\drivers\peripheral\ipc/cy_ipc_sema.c **** * \note In a multi-CPU system this init function should be called with all
 104:Generated_Source\PSoC6\pdl\drivers\peripheral\ipc/cy_ipc_sema.c **** * initialized parameters on one CPU only to provide a pointer to SRAM that can
 105:Generated_Source\PSoC6\pdl\drivers\peripheral\ipc/cy_ipc_sema.c **** * be shared between all the CPUs in the system that will use semaphores.
 106:Generated_Source\PSoC6\pdl\drivers\peripheral\ipc/cy_ipc_sema.c **** * On other CPUs user must specify the IPC semaphores channel and pass 0 / NULL
 107:Generated_Source\PSoC6\pdl\drivers\peripheral\ipc/cy_ipc_sema.c **** * to count and memPtr parameters correspondingly.
 108:Generated_Source\PSoC6\pdl\drivers\peripheral\ipc/cy_ipc_sema.c **** *
 109:Generated_Source\PSoC6\pdl\drivers\peripheral\ipc/cy_ipc_sema.c **** * \param ipcChannel
 110:Generated_Source\PSoC6\pdl\drivers\peripheral\ipc/cy_ipc_sema.c **** * The IPC channel number used for semaphores
 111:Generated_Source\PSoC6\pdl\drivers\peripheral\ipc/cy_ipc_sema.c **** *
 112:Generated_Source\PSoC6\pdl\drivers\peripheral\ipc/cy_ipc_sema.c **** * \param ipcSema
ARM GAS  C:\Users\JC\AppData\Local\Temp\ccQnhWsL.s 			page 26


 113:Generated_Source\PSoC6\pdl\drivers\peripheral\ipc/cy_ipc_sema.c **** *  This is configuration structure of the IPC semaphore. 
 114:Generated_Source\PSoC6\pdl\drivers\peripheral\ipc/cy_ipc_sema.c **** *  See \ref cy_stc_ipc_sema_t.
 115:Generated_Source\PSoC6\pdl\drivers\peripheral\ipc/cy_ipc_sema.c **** *
 116:Generated_Source\PSoC6\pdl\drivers\peripheral\ipc/cy_ipc_sema.c **** * \return Status of the operation
 117:Generated_Source\PSoC6\pdl\drivers\peripheral\ipc/cy_ipc_sema.c **** *    \retval CY_IPC_SEMA_SUCCESS: Successfully initialized
 118:Generated_Source\PSoC6\pdl\drivers\peripheral\ipc/cy_ipc_sema.c **** *    \retval CY_IPC_SEMA_BAD_PARAM:     Memory pointer is NULL and count is not zero,
 119:Generated_Source\PSoC6\pdl\drivers\peripheral\ipc/cy_ipc_sema.c **** *                             or count not multiple of 32
 120:Generated_Source\PSoC6\pdl\drivers\peripheral\ipc/cy_ipc_sema.c **** *    \retval CY_IPC_SEMA_ERROR_LOCKED:  Could not acquire semaphores IPC channel
 121:Generated_Source\PSoC6\pdl\drivers\peripheral\ipc/cy_ipc_sema.c **** * 
 122:Generated_Source\PSoC6\pdl\drivers\peripheral\ipc/cy_ipc_sema.c **** *******************************************************************************/
 123:Generated_Source\PSoC6\pdl\drivers\peripheral\ipc/cy_ipc_sema.c **** cy_en_ipcsema_status_t Cy_IPC_Sema_InitExt(uint32_t ipcChannel, cy_stc_ipc_sema_t *ipcSema)
 124:Generated_Source\PSoC6\pdl\drivers\peripheral\ipc/cy_ipc_sema.c **** {
 327              		.loc 2 124 0
 328              		.cfi_startproc
 329              		@ args = 0, pretend = 0, frame = 16
 330              		@ frame_needed = 1, uses_anonymous_args = 0
 331 0000 80B5     		push	{r7, lr}
 332              		.cfi_def_cfa_offset 8
 333              		.cfi_offset 7, -8
 334              		.cfi_offset 14, -4
 335 0002 84B0     		sub	sp, sp, #16
 336              		.cfi_def_cfa_offset 24
 337 0004 00AF     		add	r7, sp, #0
 338              		.cfi_def_cfa_register 7
 339 0006 7860     		str	r0, [r7, #4]
 340 0008 3960     		str	r1, [r7]
 125:Generated_Source\PSoC6\pdl\drivers\peripheral\ipc/cy_ipc_sema.c ****     cy_en_ipcsema_status_t retStatus = CY_IPC_SEMA_BAD_PARAM;
 341              		.loc 2 125 0
 342 000a 274B     		ldr	r3, .L37
 343 000c FB60     		str	r3, [r7, #12]
 126:Generated_Source\PSoC6\pdl\drivers\peripheral\ipc/cy_ipc_sema.c **** 
 127:Generated_Source\PSoC6\pdl\drivers\peripheral\ipc/cy_ipc_sema.c ****     if (ipcChannel >= CY_IPC_CHANNELS)
 344              		.loc 2 127 0
 345 000e 274B     		ldr	r3, .L37+4
 346 0010 1B68     		ldr	r3, [r3]
 347 0012 3122     		movs	r2, #49
 348 0014 9B5C     		ldrb	r3, [r3, r2]
 349 0016 1A00     		movs	r2, r3
 350 0018 7B68     		ldr	r3, [r7, #4]
 351 001a 9A42     		cmp	r2, r3
 352 001c 02D8     		bhi	.L27
 128:Generated_Source\PSoC6\pdl\drivers\peripheral\ipc/cy_ipc_sema.c ****     {
 129:Generated_Source\PSoC6\pdl\drivers\peripheral\ipc/cy_ipc_sema.c ****         retStatus = CY_IPC_SEMA_BAD_PARAM;
 353              		.loc 2 129 0
 354 001e 224B     		ldr	r3, .L37
 355 0020 FB60     		str	r3, [r7, #12]
 356 0022 3CE0     		b	.L28
 357              	.L27:
 130:Generated_Source\PSoC6\pdl\drivers\peripheral\ipc/cy_ipc_sema.c ****     }
 131:Generated_Source\PSoC6\pdl\drivers\peripheral\ipc/cy_ipc_sema.c ****     else
 132:Generated_Source\PSoC6\pdl\drivers\peripheral\ipc/cy_ipc_sema.c ****     {
 133:Generated_Source\PSoC6\pdl\drivers\peripheral\ipc/cy_ipc_sema.c ****         if(NULL != ipcSema)
 358              		.loc 2 133 0
 359 0024 3B68     		ldr	r3, [r7]
 360 0026 002B     		cmp	r3, #0
 361 0028 37D0     		beq	.L29
 134:Generated_Source\PSoC6\pdl\drivers\peripheral\ipc/cy_ipc_sema.c ****         {
ARM GAS  C:\Users\JC\AppData\Local\Temp\ccQnhWsL.s 			page 27


 135:Generated_Source\PSoC6\pdl\drivers\peripheral\ipc/cy_ipc_sema.c ****             /* Check if semaphore count is a multiple of 32 */
 136:Generated_Source\PSoC6\pdl\drivers\peripheral\ipc/cy_ipc_sema.c ****             if( 0ul == (ipcSema->maxSema & CY_IPC_SEMA_PER_WORD_MASK))
 362              		.loc 2 136 0
 363 002a 3B68     		ldr	r3, [r7]
 364 002c 1B68     		ldr	r3, [r3]
 365 002e 1F22     		movs	r2, #31
 366 0030 1340     		ands	r3, r2
 367 0032 2FD1     		bne	.L30
 137:Generated_Source\PSoC6\pdl\drivers\peripheral\ipc/cy_ipc_sema.c ****             {
 138:Generated_Source\PSoC6\pdl\drivers\peripheral\ipc/cy_ipc_sema.c ****                 cy_semaIpcStruct = Cy_IPC_Drv_GetIpcBaseAddress(ipcChannel);
 368              		.loc 2 138 0
 369 0034 7B68     		ldr	r3, [r7, #4]
 370 0036 1800     		movs	r0, r3
 371 0038 FFF7FEFF 		bl	Cy_IPC_Drv_GetIpcBaseAddress
 372 003c 0200     		movs	r2, r0
 373 003e 1C4B     		ldr	r3, .L37+8
 374 0040 1A60     		str	r2, [r3]
 139:Generated_Source\PSoC6\pdl\drivers\peripheral\ipc/cy_ipc_sema.c **** 
 140:Generated_Source\PSoC6\pdl\drivers\peripheral\ipc/cy_ipc_sema.c ****                 /* Initialize all semaphores to released */
 141:Generated_Source\PSoC6\pdl\drivers\peripheral\ipc/cy_ipc_sema.c ****                 (void)memset(ipcSema->arrayPtr, 0, (ipcSema->maxSema /8u));
 375              		.loc 2 141 0
 376 0042 3B68     		ldr	r3, [r7]
 377 0044 5868     		ldr	r0, [r3, #4]
 378 0046 3B68     		ldr	r3, [r7]
 379 0048 1B68     		ldr	r3, [r3]
 380 004a DB08     		lsrs	r3, r3, #3
 381 004c 1A00     		movs	r2, r3
 382 004e 0021     		movs	r1, #0
 383 0050 FFF7FEFF 		bl	memset
 142:Generated_Source\PSoC6\pdl\drivers\peripheral\ipc/cy_ipc_sema.c **** 
 143:Generated_Source\PSoC6\pdl\drivers\peripheral\ipc/cy_ipc_sema.c ****                 /* Make sure semaphores start out released.  */
 144:Generated_Source\PSoC6\pdl\drivers\peripheral\ipc/cy_ipc_sema.c ****                 /* Ignore the return value since it is OK if it was already released. */
 145:Generated_Source\PSoC6\pdl\drivers\peripheral\ipc/cy_ipc_sema.c ****                 (void) Cy_IPC_Drv_LockRelease (cy_semaIpcStruct, CY_IPC_NO_NOTIFICATION);
 384              		.loc 2 145 0
 385 0054 164B     		ldr	r3, .L37+8
 386 0056 1B68     		ldr	r3, [r3]
 387 0058 0021     		movs	r1, #0
 388 005a 1800     		movs	r0, r3
 389 005c FFF7FEFF 		bl	Cy_IPC_Drv_LockRelease
 146:Generated_Source\PSoC6\pdl\drivers\peripheral\ipc/cy_ipc_sema.c **** 
 147:Generated_Source\PSoC6\pdl\drivers\peripheral\ipc/cy_ipc_sema.c ****                  /* Set the IPC Data with the pointer to the array. */
 148:Generated_Source\PSoC6\pdl\drivers\peripheral\ipc/cy_ipc_sema.c ****                 if( CY_IPC_DRV_SUCCESS == Cy_IPC_Drv_SendMsgPtr (cy_semaIpcStruct, CY_IPC_NO_NOTIFI
 390              		.loc 2 148 0
 391 0060 134B     		ldr	r3, .L37+8
 392 0062 1B68     		ldr	r3, [r3]
 393 0064 3A68     		ldr	r2, [r7]
 394 0066 0021     		movs	r1, #0
 395 0068 1800     		movs	r0, r3
 396 006a FFF7FEFF 		bl	Cy_IPC_Drv_SendMsgPtr
 397 006e 031E     		subs	r3, r0, #0
 398 0070 0DD1     		bne	.L31
 149:Generated_Source\PSoC6\pdl\drivers\peripheral\ipc/cy_ipc_sema.c ****                 {
 150:Generated_Source\PSoC6\pdl\drivers\peripheral\ipc/cy_ipc_sema.c ****                     if(CY_IPC_DRV_SUCCESS == Cy_IPC_Drv_LockRelease (cy_semaIpcStruct, CY_IPC_NO_NO
 399              		.loc 2 150 0
 400 0072 0F4B     		ldr	r3, .L37+8
 401 0074 1B68     		ldr	r3, [r3]
 402 0076 0021     		movs	r1, #0
ARM GAS  C:\Users\JC\AppData\Local\Temp\ccQnhWsL.s 			page 28


 403 0078 1800     		movs	r0, r3
 404 007a FFF7FEFF 		bl	Cy_IPC_Drv_LockRelease
 405 007e 031E     		subs	r3, r0, #0
 406 0080 02D1     		bne	.L32
 151:Generated_Source\PSoC6\pdl\drivers\peripheral\ipc/cy_ipc_sema.c ****                     {
 152:Generated_Source\PSoC6\pdl\drivers\peripheral\ipc/cy_ipc_sema.c ****                         retStatus = CY_IPC_SEMA_SUCCESS;
 407              		.loc 2 152 0
 408 0082 0023     		movs	r3, #0
 409 0084 FB60     		str	r3, [r7, #12]
 410 0086 0AE0     		b	.L28
 411              	.L32:
 153:Generated_Source\PSoC6\pdl\drivers\peripheral\ipc/cy_ipc_sema.c ****                     }
 154:Generated_Source\PSoC6\pdl\drivers\peripheral\ipc/cy_ipc_sema.c ****                     else
 155:Generated_Source\PSoC6\pdl\drivers\peripheral\ipc/cy_ipc_sema.c ****                     {
 156:Generated_Source\PSoC6\pdl\drivers\peripheral\ipc/cy_ipc_sema.c ****                         /* IPC channel not released, still semaphored */
 157:Generated_Source\PSoC6\pdl\drivers\peripheral\ipc/cy_ipc_sema.c ****                         retStatus = CY_IPC_SEMA_ERROR_LOCKED;
 412              		.loc 2 157 0
 413 0088 0A4B     		ldr	r3, .L37+12
 414 008a FB60     		str	r3, [r7, #12]
 415 008c 07E0     		b	.L28
 416              	.L31:
 158:Generated_Source\PSoC6\pdl\drivers\peripheral\ipc/cy_ipc_sema.c ****                     }
 159:Generated_Source\PSoC6\pdl\drivers\peripheral\ipc/cy_ipc_sema.c ****                 }
 160:Generated_Source\PSoC6\pdl\drivers\peripheral\ipc/cy_ipc_sema.c ****                 else
 161:Generated_Source\PSoC6\pdl\drivers\peripheral\ipc/cy_ipc_sema.c ****                 {
 162:Generated_Source\PSoC6\pdl\drivers\peripheral\ipc/cy_ipc_sema.c ****                     /* Could not acquire semaphore channel */
 163:Generated_Source\PSoC6\pdl\drivers\peripheral\ipc/cy_ipc_sema.c ****                     retStatus = CY_IPC_SEMA_ERROR_LOCKED;
 417              		.loc 2 163 0
 418 008e 094B     		ldr	r3, .L37+12
 419 0090 FB60     		str	r3, [r7, #12]
 420 0092 04E0     		b	.L28
 421              	.L30:
 164:Generated_Source\PSoC6\pdl\drivers\peripheral\ipc/cy_ipc_sema.c ****                 }
 165:Generated_Source\PSoC6\pdl\drivers\peripheral\ipc/cy_ipc_sema.c ****             }
 166:Generated_Source\PSoC6\pdl\drivers\peripheral\ipc/cy_ipc_sema.c ****             else
 167:Generated_Source\PSoC6\pdl\drivers\peripheral\ipc/cy_ipc_sema.c ****             {
 168:Generated_Source\PSoC6\pdl\drivers\peripheral\ipc/cy_ipc_sema.c ****                 retStatus = CY_IPC_SEMA_BAD_PARAM;
 422              		.loc 2 168 0
 423 0094 044B     		ldr	r3, .L37
 424 0096 FB60     		str	r3, [r7, #12]
 425 0098 01E0     		b	.L28
 426              	.L29:
 169:Generated_Source\PSoC6\pdl\drivers\peripheral\ipc/cy_ipc_sema.c ****             }
 170:Generated_Source\PSoC6\pdl\drivers\peripheral\ipc/cy_ipc_sema.c ****         }
 171:Generated_Source\PSoC6\pdl\drivers\peripheral\ipc/cy_ipc_sema.c ****         else
 172:Generated_Source\PSoC6\pdl\drivers\peripheral\ipc/cy_ipc_sema.c ****         {
 173:Generated_Source\PSoC6\pdl\drivers\peripheral\ipc/cy_ipc_sema.c ****             retStatus = CY_IPC_SEMA_BAD_PARAM;
 427              		.loc 2 173 0
 428 009a 034B     		ldr	r3, .L37
 429 009c FB60     		str	r3, [r7, #12]
 430              	.L28:
 174:Generated_Source\PSoC6\pdl\drivers\peripheral\ipc/cy_ipc_sema.c ****         }
 175:Generated_Source\PSoC6\pdl\drivers\peripheral\ipc/cy_ipc_sema.c ****     }
 176:Generated_Source\PSoC6\pdl\drivers\peripheral\ipc/cy_ipc_sema.c **** 
 177:Generated_Source\PSoC6\pdl\drivers\peripheral\ipc/cy_ipc_sema.c ****     return(retStatus);
 431              		.loc 2 177 0
 432 009e FB68     		ldr	r3, [r7, #12]
ARM GAS  C:\Users\JC\AppData\Local\Temp\ccQnhWsL.s 			page 29


 178:Generated_Source\PSoC6\pdl\drivers\peripheral\ipc/cy_ipc_sema.c **** }
 433              		.loc 2 178 0
 434 00a0 1800     		movs	r0, r3
 435 00a2 BD46     		mov	sp, r7
 436 00a4 04B0     		add	sp, sp, #16
 437              		@ sp needed
 438 00a6 80BD     		pop	{r7, pc}
 439              	.L38:
 440              		.align	2
 441              	.L37:
 442 00a8 03018A00 		.word	9044227
 443 00ac 00000000 		.word	cy_device
 444 00b0 00000000 		.word	cy_semaIpcStruct
 445 00b4 01018A00 		.word	9044225
 446              		.cfi_endproc
 447              	.LFE65:
 448              		.size	Cy_IPC_Sema_InitExt, .-Cy_IPC_Sema_InitExt
 449              		.section	.text.Cy_IPC_Sema_Set,"ax",%progbits
 450              		.align	2
 451              		.global	Cy_IPC_Sema_Set
 452              		.code	16
 453              		.thumb_func
 454              		.type	Cy_IPC_Sema_Set, %function
 455              	Cy_IPC_Sema_Set:
 456              	.LFB66:
 179:Generated_Source\PSoC6\pdl\drivers\peripheral\ipc/cy_ipc_sema.c **** 
 180:Generated_Source\PSoC6\pdl\drivers\peripheral\ipc/cy_ipc_sema.c **** 
 181:Generated_Source\PSoC6\pdl\drivers\peripheral\ipc/cy_ipc_sema.c **** /*******************************************************************************
 182:Generated_Source\PSoC6\pdl\drivers\peripheral\ipc/cy_ipc_sema.c **** * Function Name: Cy_IPC_Sema_Set
 183:Generated_Source\PSoC6\pdl\drivers\peripheral\ipc/cy_ipc_sema.c **** ****************************************************************************//**
 184:Generated_Source\PSoC6\pdl\drivers\peripheral\ipc/cy_ipc_sema.c **** *
 185:Generated_Source\PSoC6\pdl\drivers\peripheral\ipc/cy_ipc_sema.c **** * This function tries to acquire a semaphore. If the
 186:Generated_Source\PSoC6\pdl\drivers\peripheral\ipc/cy_ipc_sema.c **** * semaphore is not available, this function returns immediately with
 187:Generated_Source\PSoC6\pdl\drivers\peripheral\ipc/cy_ipc_sema.c **** * CY_IPC_SEMA_LOCKED.
 188:Generated_Source\PSoC6\pdl\drivers\peripheral\ipc/cy_ipc_sema.c **** *
 189:Generated_Source\PSoC6\pdl\drivers\peripheral\ipc/cy_ipc_sema.c **** * It first acquires the IPC channel that is used for all the semaphores, sets
 190:Generated_Source\PSoC6\pdl\drivers\peripheral\ipc/cy_ipc_sema.c **** * the semaphore if it is cleared, then releases the IPC channel used for the
 191:Generated_Source\PSoC6\pdl\drivers\peripheral\ipc/cy_ipc_sema.c **** * semaphore.
 192:Generated_Source\PSoC6\pdl\drivers\peripheral\ipc/cy_ipc_sema.c **** *
 193:Generated_Source\PSoC6\pdl\drivers\peripheral\ipc/cy_ipc_sema.c **** * \param semaNumber
 194:Generated_Source\PSoC6\pdl\drivers\peripheral\ipc/cy_ipc_sema.c **** *  The semaphore number to acquire.
 195:Generated_Source\PSoC6\pdl\drivers\peripheral\ipc/cy_ipc_sema.c **** *
 196:Generated_Source\PSoC6\pdl\drivers\peripheral\ipc/cy_ipc_sema.c **** * \param preemptable
 197:Generated_Source\PSoC6\pdl\drivers\peripheral\ipc/cy_ipc_sema.c **** *  When this parameter is enabled the function can be preempted by another
 198:Generated_Source\PSoC6\pdl\drivers\peripheral\ipc/cy_ipc_sema.c **** *  task or other forms of context switching in an RTOS environment.
 199:Generated_Source\PSoC6\pdl\drivers\peripheral\ipc/cy_ipc_sema.c **** *
 200:Generated_Source\PSoC6\pdl\drivers\peripheral\ipc/cy_ipc_sema.c **** * \note
 201:Generated_Source\PSoC6\pdl\drivers\peripheral\ipc/cy_ipc_sema.c **** *  If <b>preemptable</b> is enabled (true), the user must ensure that there are
 202:Generated_Source\PSoC6\pdl\drivers\peripheral\ipc/cy_ipc_sema.c **** *  no deadlocks in the system, which can be caused by an interrupt that occurs
 203:Generated_Source\PSoC6\pdl\drivers\peripheral\ipc/cy_ipc_sema.c **** *  after the IPC channel is locked. Unless the user is ready to handle IPC
 204:Generated_Source\PSoC6\pdl\drivers\peripheral\ipc/cy_ipc_sema.c **** *  channel locks correctly at the application level, set <b>preemptable</b> to
 205:Generated_Source\PSoC6\pdl\drivers\peripheral\ipc/cy_ipc_sema.c **** *  false.
 206:Generated_Source\PSoC6\pdl\drivers\peripheral\ipc/cy_ipc_sema.c **** *
 207:Generated_Source\PSoC6\pdl\drivers\peripheral\ipc/cy_ipc_sema.c **** * \return Status of the operation
 208:Generated_Source\PSoC6\pdl\drivers\peripheral\ipc/cy_ipc_sema.c **** *    \retval CY_IPC_SEMA_SUCCESS:      The semaphore was set successfully
 209:Generated_Source\PSoC6\pdl\drivers\peripheral\ipc/cy_ipc_sema.c **** *    \retval CY_IPC_SEMA_LOCKED:       The semaphore channel is busy or locked
 210:Generated_Source\PSoC6\pdl\drivers\peripheral\ipc/cy_ipc_sema.c **** *                              by another process
ARM GAS  C:\Users\JC\AppData\Local\Temp\ccQnhWsL.s 			page 30


 211:Generated_Source\PSoC6\pdl\drivers\peripheral\ipc/cy_ipc_sema.c **** *    \retval CY_IPC_SEMA_NOT_ACQUIRED: Semaphore was already set
 212:Generated_Source\PSoC6\pdl\drivers\peripheral\ipc/cy_ipc_sema.c **** *    \retval CY_IPC_SEMA_OUT_OF_RANGE: The semaphore number is not valid
 213:Generated_Source\PSoC6\pdl\drivers\peripheral\ipc/cy_ipc_sema.c **** *
 214:Generated_Source\PSoC6\pdl\drivers\peripheral\ipc/cy_ipc_sema.c **** * \funcusage
 215:Generated_Source\PSoC6\pdl\drivers\peripheral\ipc/cy_ipc_sema.c **** * \snippet IPC_sut_01.cydsn/main_cm4.c snippet_Cy_IPC_Sema_Set
 216:Generated_Source\PSoC6\pdl\drivers\peripheral\ipc/cy_ipc_sema.c **** *
 217:Generated_Source\PSoC6\pdl\drivers\peripheral\ipc/cy_ipc_sema.c **** *******************************************************************************/
 218:Generated_Source\PSoC6\pdl\drivers\peripheral\ipc/cy_ipc_sema.c **** cy_en_ipcsema_status_t Cy_IPC_Sema_Set(uint32_t semaNumber, bool preemptable)
 219:Generated_Source\PSoC6\pdl\drivers\peripheral\ipc/cy_ipc_sema.c **** {
 457              		.loc 2 219 0
 458              		.cfi_startproc
 459              		@ args = 0, pretend = 0, frame = 32
 460              		@ frame_needed = 1, uses_anonymous_args = 0
 461 0000 80B5     		push	{r7, lr}
 462              		.cfi_def_cfa_offset 8
 463              		.cfi_offset 7, -8
 464              		.cfi_offset 14, -4
 465 0002 88B0     		sub	sp, sp, #32
 466              		.cfi_def_cfa_offset 40
 467 0004 00AF     		add	r7, sp, #0
 468              		.cfi_def_cfa_register 7
 469 0006 7860     		str	r0, [r7, #4]
 470 0008 0A00     		movs	r2, r1
 471 000a FB1C     		adds	r3, r7, #3
 472 000c 1A70     		strb	r2, [r3]
 220:Generated_Source\PSoC6\pdl\drivers\peripheral\ipc/cy_ipc_sema.c ****     uint32_t semaIndex;
 221:Generated_Source\PSoC6\pdl\drivers\peripheral\ipc/cy_ipc_sema.c ****     uint32_t semaMask;
 222:Generated_Source\PSoC6\pdl\drivers\peripheral\ipc/cy_ipc_sema.c ****     uint32_t interruptState = 0ul;
 473              		.loc 2 222 0
 474 000e 0023     		movs	r3, #0
 475 0010 FB61     		str	r3, [r7, #28]
 223:Generated_Source\PSoC6\pdl\drivers\peripheral\ipc/cy_ipc_sema.c **** 
 224:Generated_Source\PSoC6\pdl\drivers\peripheral\ipc/cy_ipc_sema.c ****     cy_stc_ipc_sema_t      *semaStruct;
 225:Generated_Source\PSoC6\pdl\drivers\peripheral\ipc/cy_ipc_sema.c ****     cy_en_ipcsema_status_t  retStatus = CY_IPC_SEMA_LOCKED;
 476              		.loc 2 225 0
 477 0012 304B     		ldr	r3, .L48
 478 0014 BB61     		str	r3, [r7, #24]
 226:Generated_Source\PSoC6\pdl\drivers\peripheral\ipc/cy_ipc_sema.c **** 
 227:Generated_Source\PSoC6\pdl\drivers\peripheral\ipc/cy_ipc_sema.c ****     /* Get pointer to structure */
 228:Generated_Source\PSoC6\pdl\drivers\peripheral\ipc/cy_ipc_sema.c ****     semaStruct = (cy_stc_ipc_sema_t *)Cy_IPC_Drv_ReadDataValue(cy_semaIpcStruct);
 479              		.loc 2 228 0
 480 0016 304B     		ldr	r3, .L48+4
 481 0018 1B68     		ldr	r3, [r3]
 482 001a 1800     		movs	r0, r3
 483 001c FFF7FEFF 		bl	Cy_IPC_Drv_ReadDataValue
 484 0020 0300     		movs	r3, r0
 485 0022 7B61     		str	r3, [r7, #20]
 229:Generated_Source\PSoC6\pdl\drivers\peripheral\ipc/cy_ipc_sema.c **** 
 230:Generated_Source\PSoC6\pdl\drivers\peripheral\ipc/cy_ipc_sema.c ****     if (semaNumber < semaStruct->maxSema)
 486              		.loc 2 230 0
 487 0024 7B69     		ldr	r3, [r7, #20]
 488 0026 1A68     		ldr	r2, [r3]
 489 0028 7B68     		ldr	r3, [r7, #4]
 490 002a 9A42     		cmp	r2, r3
 491 002c 4AD9     		bls	.L40
 231:Generated_Source\PSoC6\pdl\drivers\peripheral\ipc/cy_ipc_sema.c ****     {
 232:Generated_Source\PSoC6\pdl\drivers\peripheral\ipc/cy_ipc_sema.c ****         semaIndex = semaNumber / CY_IPC_SEMA_PER_WORD;
ARM GAS  C:\Users\JC\AppData\Local\Temp\ccQnhWsL.s 			page 31


 492              		.loc 2 232 0
 493 002e 7B68     		ldr	r3, [r7, #4]
 494 0030 5B09     		lsrs	r3, r3, #5
 495 0032 3B61     		str	r3, [r7, #16]
 233:Generated_Source\PSoC6\pdl\drivers\peripheral\ipc/cy_ipc_sema.c ****         semaMask = (uint32_t)(1ul << (semaNumber - (semaIndex * CY_IPC_SEMA_PER_WORD) ));
 496              		.loc 2 233 0
 497 0034 3B69     		ldr	r3, [r7, #16]
 498 0036 5B01     		lsls	r3, r3, #5
 499 0038 7A68     		ldr	r2, [r7, #4]
 500 003a D31A     		subs	r3, r2, r3
 501 003c 0122     		movs	r2, #1
 502 003e 9A40     		lsls	r2, r2, r3
 503 0040 1300     		movs	r3, r2
 504 0042 FB60     		str	r3, [r7, #12]
 234:Generated_Source\PSoC6\pdl\drivers\peripheral\ipc/cy_ipc_sema.c **** 
 235:Generated_Source\PSoC6\pdl\drivers\peripheral\ipc/cy_ipc_sema.c ****         if (!preemptable)
 505              		.loc 2 235 0
 506 0044 FB1C     		adds	r3, r7, #3
 507 0046 1B78     		ldrb	r3, [r3]
 508 0048 0122     		movs	r2, #1
 509 004a 5340     		eors	r3, r2
 510 004c DBB2     		uxtb	r3, r3
 511 004e 002B     		cmp	r3, #0
 512 0050 03D0     		beq	.L41
 236:Generated_Source\PSoC6\pdl\drivers\peripheral\ipc/cy_ipc_sema.c ****         {
 237:Generated_Source\PSoC6\pdl\drivers\peripheral\ipc/cy_ipc_sema.c ****             interruptState = Cy_SysLib_EnterCriticalSection();
 513              		.loc 2 237 0
 514 0052 FFF7FEFF 		bl	Cy_SysLib_EnterCriticalSection
 515 0056 0300     		movs	r3, r0
 516 0058 FB61     		str	r3, [r7, #28]
 517              	.L41:
 238:Generated_Source\PSoC6\pdl\drivers\peripheral\ipc/cy_ipc_sema.c ****         }
 239:Generated_Source\PSoC6\pdl\drivers\peripheral\ipc/cy_ipc_sema.c **** 
 240:Generated_Source\PSoC6\pdl\drivers\peripheral\ipc/cy_ipc_sema.c ****         /* Check to make sure the IPC channel is released
 241:Generated_Source\PSoC6\pdl\drivers\peripheral\ipc/cy_ipc_sema.c ****            If so, check if specific channel can be locked. */
 242:Generated_Source\PSoC6\pdl\drivers\peripheral\ipc/cy_ipc_sema.c ****         if(CY_IPC_DRV_SUCCESS == Cy_IPC_Drv_LockAcquire (cy_semaIpcStruct))
 518              		.loc 2 242 0
 519 005a 1F4B     		ldr	r3, .L48+4
 520 005c 1B68     		ldr	r3, [r3]
 521 005e 1800     		movs	r0, r3
 522 0060 FFF7FEFF 		bl	Cy_IPC_Drv_LockAcquire
 523 0064 031E     		subs	r3, r0, #0
 524 0066 21D1     		bne	.L42
 243:Generated_Source\PSoC6\pdl\drivers\peripheral\ipc/cy_ipc_sema.c ****         {
 244:Generated_Source\PSoC6\pdl\drivers\peripheral\ipc/cy_ipc_sema.c ****             if((semaStruct->arrayPtr[semaIndex] & semaMask) == 0ul)
 525              		.loc 2 244 0
 526 0068 7B69     		ldr	r3, [r7, #20]
 527 006a 5A68     		ldr	r2, [r3, #4]
 528 006c 3B69     		ldr	r3, [r7, #16]
 529 006e 9B00     		lsls	r3, r3, #2
 530 0070 D318     		adds	r3, r2, r3
 531 0072 1B68     		ldr	r3, [r3]
 532 0074 FA68     		ldr	r2, [r7, #12]
 533 0076 1340     		ands	r3, r2
 534 0078 10D1     		bne	.L43
 245:Generated_Source\PSoC6\pdl\drivers\peripheral\ipc/cy_ipc_sema.c ****             {
 246:Generated_Source\PSoC6\pdl\drivers\peripheral\ipc/cy_ipc_sema.c ****                 semaStruct->arrayPtr[semaIndex] |= semaMask;
ARM GAS  C:\Users\JC\AppData\Local\Temp\ccQnhWsL.s 			page 32


 535              		.loc 2 246 0
 536 007a 7B69     		ldr	r3, [r7, #20]
 537 007c 5A68     		ldr	r2, [r3, #4]
 538 007e 3B69     		ldr	r3, [r7, #16]
 539 0080 9B00     		lsls	r3, r3, #2
 540 0082 D318     		adds	r3, r2, r3
 541 0084 7A69     		ldr	r2, [r7, #20]
 542 0086 5168     		ldr	r1, [r2, #4]
 543 0088 3A69     		ldr	r2, [r7, #16]
 544 008a 9200     		lsls	r2, r2, #2
 545 008c 8A18     		adds	r2, r1, r2
 546 008e 1168     		ldr	r1, [r2]
 547 0090 FA68     		ldr	r2, [r7, #12]
 548 0092 0A43     		orrs	r2, r1
 549 0094 1A60     		str	r2, [r3]
 247:Generated_Source\PSoC6\pdl\drivers\peripheral\ipc/cy_ipc_sema.c ****                 retStatus = CY_IPC_SEMA_SUCCESS;
 550              		.loc 2 247 0
 551 0096 0023     		movs	r3, #0
 552 0098 BB61     		str	r3, [r7, #24]
 553 009a 01E0     		b	.L44
 554              	.L43:
 248:Generated_Source\PSoC6\pdl\drivers\peripheral\ipc/cy_ipc_sema.c ****             }
 249:Generated_Source\PSoC6\pdl\drivers\peripheral\ipc/cy_ipc_sema.c ****             else
 250:Generated_Source\PSoC6\pdl\drivers\peripheral\ipc/cy_ipc_sema.c ****             {
 251:Generated_Source\PSoC6\pdl\drivers\peripheral\ipc/cy_ipc_sema.c ****                 retStatus = CY_IPC_SEMA_NOT_ACQUIRED;
 555              		.loc 2 251 0
 556 009c 0F4B     		ldr	r3, .L48+8
 557 009e BB61     		str	r3, [r7, #24]
 558              	.L44:
 252:Generated_Source\PSoC6\pdl\drivers\peripheral\ipc/cy_ipc_sema.c ****             }
 253:Generated_Source\PSoC6\pdl\drivers\peripheral\ipc/cy_ipc_sema.c **** 
 254:Generated_Source\PSoC6\pdl\drivers\peripheral\ipc/cy_ipc_sema.c ****             /* Release, but do not trigger a release event */
 255:Generated_Source\PSoC6\pdl\drivers\peripheral\ipc/cy_ipc_sema.c ****             (void) Cy_IPC_Drv_LockRelease (cy_semaIpcStruct, CY_IPC_NO_NOTIFICATION);
 559              		.loc 2 255 0
 560 00a0 0D4B     		ldr	r3, .L48+4
 561 00a2 1B68     		ldr	r3, [r3]
 562 00a4 0021     		movs	r1, #0
 563 00a6 1800     		movs	r0, r3
 564 00a8 FFF7FEFF 		bl	Cy_IPC_Drv_LockRelease
 565              	.L42:
 256:Generated_Source\PSoC6\pdl\drivers\peripheral\ipc/cy_ipc_sema.c ****         }
 257:Generated_Source\PSoC6\pdl\drivers\peripheral\ipc/cy_ipc_sema.c **** 
 258:Generated_Source\PSoC6\pdl\drivers\peripheral\ipc/cy_ipc_sema.c ****         if (!preemptable)
 566              		.loc 2 258 0
 567 00ac FB1C     		adds	r3, r7, #3
 568 00ae 1B78     		ldrb	r3, [r3]
 569 00b0 0122     		movs	r2, #1
 570 00b2 5340     		eors	r3, r2
 571 00b4 DBB2     		uxtb	r3, r3
 572 00b6 002B     		cmp	r3, #0
 573 00b8 06D0     		beq	.L46
 259:Generated_Source\PSoC6\pdl\drivers\peripheral\ipc/cy_ipc_sema.c ****         {
 260:Generated_Source\PSoC6\pdl\drivers\peripheral\ipc/cy_ipc_sema.c ****             Cy_SysLib_ExitCriticalSection(interruptState);
 574              		.loc 2 260 0
 575 00ba FB69     		ldr	r3, [r7, #28]
 576 00bc 1800     		movs	r0, r3
 577 00be FFF7FEFF 		bl	Cy_SysLib_ExitCriticalSection
ARM GAS  C:\Users\JC\AppData\Local\Temp\ccQnhWsL.s 			page 33


 578 00c2 01E0     		b	.L46
 579              	.L40:
 261:Generated_Source\PSoC6\pdl\drivers\peripheral\ipc/cy_ipc_sema.c ****         }
 262:Generated_Source\PSoC6\pdl\drivers\peripheral\ipc/cy_ipc_sema.c ****     }
 263:Generated_Source\PSoC6\pdl\drivers\peripheral\ipc/cy_ipc_sema.c ****     else
 264:Generated_Source\PSoC6\pdl\drivers\peripheral\ipc/cy_ipc_sema.c ****     {
 265:Generated_Source\PSoC6\pdl\drivers\peripheral\ipc/cy_ipc_sema.c ****         retStatus = CY_IPC_SEMA_OUT_OF_RANGE;
 580              		.loc 2 265 0
 581 00c4 064B     		ldr	r3, .L48+12
 582 00c6 BB61     		str	r3, [r7, #24]
 583              	.L46:
 266:Generated_Source\PSoC6\pdl\drivers\peripheral\ipc/cy_ipc_sema.c ****     }
 267:Generated_Source\PSoC6\pdl\drivers\peripheral\ipc/cy_ipc_sema.c **** 
 268:Generated_Source\PSoC6\pdl\drivers\peripheral\ipc/cy_ipc_sema.c ****     return(retStatus);
 584              		.loc 2 268 0
 585 00c8 BB69     		ldr	r3, [r7, #24]
 269:Generated_Source\PSoC6\pdl\drivers\peripheral\ipc/cy_ipc_sema.c **** }
 586              		.loc 2 269 0
 587 00ca 1800     		movs	r0, r3
 588 00cc BD46     		mov	sp, r7
 589 00ce 08B0     		add	sp, sp, #32
 590              		@ sp needed
 591 00d0 80BD     		pop	{r7, pc}
 592              	.L49:
 593 00d2 C046     		.align	2
 594              	.L48:
 595 00d4 03018800 		.word	8913155
 596 00d8 00000000 		.word	cy_semaIpcStruct
 597 00dc 02018800 		.word	8913154
 598 00e0 04018A00 		.word	9044228
 599              		.cfi_endproc
 600              	.LFE66:
 601              		.size	Cy_IPC_Sema_Set, .-Cy_IPC_Sema_Set
 602              		.section	.text.Cy_IPC_Sema_Clear,"ax",%progbits
 603              		.align	2
 604              		.global	Cy_IPC_Sema_Clear
 605              		.code	16
 606              		.thumb_func
 607              		.type	Cy_IPC_Sema_Clear, %function
 608              	Cy_IPC_Sema_Clear:
 609              	.LFB67:
 270:Generated_Source\PSoC6\pdl\drivers\peripheral\ipc/cy_ipc_sema.c **** 
 271:Generated_Source\PSoC6\pdl\drivers\peripheral\ipc/cy_ipc_sema.c **** 
 272:Generated_Source\PSoC6\pdl\drivers\peripheral\ipc/cy_ipc_sema.c **** /*******************************************************************************
 273:Generated_Source\PSoC6\pdl\drivers\peripheral\ipc/cy_ipc_sema.c **** * Function Name: Cy_IPC_Sema_Clear
 274:Generated_Source\PSoC6\pdl\drivers\peripheral\ipc/cy_ipc_sema.c **** ****************************************************************************//**
 275:Generated_Source\PSoC6\pdl\drivers\peripheral\ipc/cy_ipc_sema.c **** *
 276:Generated_Source\PSoC6\pdl\drivers\peripheral\ipc/cy_ipc_sema.c **** * This functions tries to releases a semaphore.
 277:Generated_Source\PSoC6\pdl\drivers\peripheral\ipc/cy_ipc_sema.c **** *
 278:Generated_Source\PSoC6\pdl\drivers\peripheral\ipc/cy_ipc_sema.c **** * It first acquires the IPC channel that is used for all the semaphores, clears
 279:Generated_Source\PSoC6\pdl\drivers\peripheral\ipc/cy_ipc_sema.c **** * the semaphore if it is set, then releases the IPC channel used for the
 280:Generated_Source\PSoC6\pdl\drivers\peripheral\ipc/cy_ipc_sema.c **** * semaphores.
 281:Generated_Source\PSoC6\pdl\drivers\peripheral\ipc/cy_ipc_sema.c **** *
 282:Generated_Source\PSoC6\pdl\drivers\peripheral\ipc/cy_ipc_sema.c **** * \param semaNumber
 283:Generated_Source\PSoC6\pdl\drivers\peripheral\ipc/cy_ipc_sema.c **** *  The index of the semaphore to release.
 284:Generated_Source\PSoC6\pdl\drivers\peripheral\ipc/cy_ipc_sema.c **** *
 285:Generated_Source\PSoC6\pdl\drivers\peripheral\ipc/cy_ipc_sema.c **** * \param preemptable
ARM GAS  C:\Users\JC\AppData\Local\Temp\ccQnhWsL.s 			page 34


 286:Generated_Source\PSoC6\pdl\drivers\peripheral\ipc/cy_ipc_sema.c **** *  When this parameter is enabled the function can be preempted by another
 287:Generated_Source\PSoC6\pdl\drivers\peripheral\ipc/cy_ipc_sema.c **** *  task or other forms of context switching in an RTOS environment.
 288:Generated_Source\PSoC6\pdl\drivers\peripheral\ipc/cy_ipc_sema.c **** *
 289:Generated_Source\PSoC6\pdl\drivers\peripheral\ipc/cy_ipc_sema.c **** * \note
 290:Generated_Source\PSoC6\pdl\drivers\peripheral\ipc/cy_ipc_sema.c **** *  If <b>preemptable</b> is enabled (true), the user must ensure that there are
 291:Generated_Source\PSoC6\pdl\drivers\peripheral\ipc/cy_ipc_sema.c **** *  no deadlocks in the system, which can be caused by an interrupt that occurs
 292:Generated_Source\PSoC6\pdl\drivers\peripheral\ipc/cy_ipc_sema.c **** *  after the IPC channel is locked. Unless the user is ready to handle IPC
 293:Generated_Source\PSoC6\pdl\drivers\peripheral\ipc/cy_ipc_sema.c **** *  channel locks correctly at the application level, set <b>preemptable</b> to
 294:Generated_Source\PSoC6\pdl\drivers\peripheral\ipc/cy_ipc_sema.c **** *  false.
 295:Generated_Source\PSoC6\pdl\drivers\peripheral\ipc/cy_ipc_sema.c **** *
 296:Generated_Source\PSoC6\pdl\drivers\peripheral\ipc/cy_ipc_sema.c **** * \return Status of the operation
 297:Generated_Source\PSoC6\pdl\drivers\peripheral\ipc/cy_ipc_sema.c **** *    \retval CY_IPC_SEMA_SUCCESS:         The semaphore was cleared successfully
 298:Generated_Source\PSoC6\pdl\drivers\peripheral\ipc/cy_ipc_sema.c **** *    \retval CY_IPC_SEMA_NOT_ACQUIRED:    The semaphore was already cleared
 299:Generated_Source\PSoC6\pdl\drivers\peripheral\ipc/cy_ipc_sema.c **** *    \retval CY_IPC_SEMA_LOCKED:          The semaphore channel was semaphored or busy
 300:Generated_Source\PSoC6\pdl\drivers\peripheral\ipc/cy_ipc_sema.c **** *    \retval CY_IPC_SEMA_OUT_OF_RANGE:    The semaphore number is not valid
 301:Generated_Source\PSoC6\pdl\drivers\peripheral\ipc/cy_ipc_sema.c **** *
 302:Generated_Source\PSoC6\pdl\drivers\peripheral\ipc/cy_ipc_sema.c **** * \funcusage
 303:Generated_Source\PSoC6\pdl\drivers\peripheral\ipc/cy_ipc_sema.c **** * \snippet IPC_sut_01.cydsn/main_cm4.c snippet_Cy_IPC_Sema_Clear
 304:Generated_Source\PSoC6\pdl\drivers\peripheral\ipc/cy_ipc_sema.c **** *
 305:Generated_Source\PSoC6\pdl\drivers\peripheral\ipc/cy_ipc_sema.c **** *******************************************************************************/
 306:Generated_Source\PSoC6\pdl\drivers\peripheral\ipc/cy_ipc_sema.c **** cy_en_ipcsema_status_t Cy_IPC_Sema_Clear(uint32_t semaNumber, bool preemptable)
 307:Generated_Source\PSoC6\pdl\drivers\peripheral\ipc/cy_ipc_sema.c **** {
 610              		.loc 2 307 0
 611              		.cfi_startproc
 612              		@ args = 0, pretend = 0, frame = 32
 613              		@ frame_needed = 1, uses_anonymous_args = 0
 614 0000 80B5     		push	{r7, lr}
 615              		.cfi_def_cfa_offset 8
 616              		.cfi_offset 7, -8
 617              		.cfi_offset 14, -4
 618 0002 88B0     		sub	sp, sp, #32
 619              		.cfi_def_cfa_offset 40
 620 0004 00AF     		add	r7, sp, #0
 621              		.cfi_def_cfa_register 7
 622 0006 7860     		str	r0, [r7, #4]
 623 0008 0A00     		movs	r2, r1
 624 000a FB1C     		adds	r3, r7, #3
 625 000c 1A70     		strb	r2, [r3]
 308:Generated_Source\PSoC6\pdl\drivers\peripheral\ipc/cy_ipc_sema.c ****     uint32_t semaIndex;
 309:Generated_Source\PSoC6\pdl\drivers\peripheral\ipc/cy_ipc_sema.c ****     uint32_t semaMask;
 310:Generated_Source\PSoC6\pdl\drivers\peripheral\ipc/cy_ipc_sema.c ****     uint32_t interruptState = 0ul;
 626              		.loc 2 310 0
 627 000e 0023     		movs	r3, #0
 628 0010 FB61     		str	r3, [r7, #28]
 311:Generated_Source\PSoC6\pdl\drivers\peripheral\ipc/cy_ipc_sema.c **** 
 312:Generated_Source\PSoC6\pdl\drivers\peripheral\ipc/cy_ipc_sema.c ****     cy_stc_ipc_sema_t      *semaStruct;
 313:Generated_Source\PSoC6\pdl\drivers\peripheral\ipc/cy_ipc_sema.c ****     cy_en_ipcsema_status_t  retStatus = CY_IPC_SEMA_LOCKED;
 629              		.loc 2 313 0
 630 0012 304B     		ldr	r3, .L59
 631 0014 BB61     		str	r3, [r7, #24]
 314:Generated_Source\PSoC6\pdl\drivers\peripheral\ipc/cy_ipc_sema.c **** 
 315:Generated_Source\PSoC6\pdl\drivers\peripheral\ipc/cy_ipc_sema.c ****     /* Get pointer to structure */
 316:Generated_Source\PSoC6\pdl\drivers\peripheral\ipc/cy_ipc_sema.c ****     semaStruct = (cy_stc_ipc_sema_t *)Cy_IPC_Drv_ReadDataValue(cy_semaIpcStruct);
 632              		.loc 2 316 0
 633 0016 304B     		ldr	r3, .L59+4
 634 0018 1B68     		ldr	r3, [r3]
 635 001a 1800     		movs	r0, r3
ARM GAS  C:\Users\JC\AppData\Local\Temp\ccQnhWsL.s 			page 35


 636 001c FFF7FEFF 		bl	Cy_IPC_Drv_ReadDataValue
 637 0020 0300     		movs	r3, r0
 638 0022 7B61     		str	r3, [r7, #20]
 317:Generated_Source\PSoC6\pdl\drivers\peripheral\ipc/cy_ipc_sema.c **** 
 318:Generated_Source\PSoC6\pdl\drivers\peripheral\ipc/cy_ipc_sema.c ****     if (semaNumber < semaStruct->maxSema)
 639              		.loc 2 318 0
 640 0024 7B69     		ldr	r3, [r7, #20]
 641 0026 1A68     		ldr	r2, [r3]
 642 0028 7B68     		ldr	r3, [r7, #4]
 643 002a 9A42     		cmp	r2, r3
 644 002c 4BD9     		bls	.L51
 319:Generated_Source\PSoC6\pdl\drivers\peripheral\ipc/cy_ipc_sema.c ****     {
 320:Generated_Source\PSoC6\pdl\drivers\peripheral\ipc/cy_ipc_sema.c ****         semaIndex = semaNumber / CY_IPC_SEMA_PER_WORD;
 645              		.loc 2 320 0
 646 002e 7B68     		ldr	r3, [r7, #4]
 647 0030 5B09     		lsrs	r3, r3, #5
 648 0032 3B61     		str	r3, [r7, #16]
 321:Generated_Source\PSoC6\pdl\drivers\peripheral\ipc/cy_ipc_sema.c ****         semaMask = (uint32_t)(1ul << (semaNumber - (semaIndex * CY_IPC_SEMA_PER_WORD) ));
 649              		.loc 2 321 0
 650 0034 3B69     		ldr	r3, [r7, #16]
 651 0036 5B01     		lsls	r3, r3, #5
 652 0038 7A68     		ldr	r2, [r7, #4]
 653 003a D31A     		subs	r3, r2, r3
 654 003c 0122     		movs	r2, #1
 655 003e 9A40     		lsls	r2, r2, r3
 656 0040 1300     		movs	r3, r2
 657 0042 FB60     		str	r3, [r7, #12]
 322:Generated_Source\PSoC6\pdl\drivers\peripheral\ipc/cy_ipc_sema.c **** 
 323:Generated_Source\PSoC6\pdl\drivers\peripheral\ipc/cy_ipc_sema.c ****         if (!preemptable)
 658              		.loc 2 323 0
 659 0044 FB1C     		adds	r3, r7, #3
 660 0046 1B78     		ldrb	r3, [r3]
 661 0048 0122     		movs	r2, #1
 662 004a 5340     		eors	r3, r2
 663 004c DBB2     		uxtb	r3, r3
 664 004e 002B     		cmp	r3, #0
 665 0050 03D0     		beq	.L52
 324:Generated_Source\PSoC6\pdl\drivers\peripheral\ipc/cy_ipc_sema.c ****         {
 325:Generated_Source\PSoC6\pdl\drivers\peripheral\ipc/cy_ipc_sema.c ****             interruptState = Cy_SysLib_EnterCriticalSection();
 666              		.loc 2 325 0
 667 0052 FFF7FEFF 		bl	Cy_SysLib_EnterCriticalSection
 668 0056 0300     		movs	r3, r0
 669 0058 FB61     		str	r3, [r7, #28]
 670              	.L52:
 326:Generated_Source\PSoC6\pdl\drivers\peripheral\ipc/cy_ipc_sema.c ****         }
 327:Generated_Source\PSoC6\pdl\drivers\peripheral\ipc/cy_ipc_sema.c **** 
 328:Generated_Source\PSoC6\pdl\drivers\peripheral\ipc/cy_ipc_sema.c ****         /* Check to make sure the IPC channel is released
 329:Generated_Source\PSoC6\pdl\drivers\peripheral\ipc/cy_ipc_sema.c ****            If so, check if specific channel can be locked. */
 330:Generated_Source\PSoC6\pdl\drivers\peripheral\ipc/cy_ipc_sema.c ****         if(CY_IPC_DRV_SUCCESS == Cy_IPC_Drv_LockAcquire (cy_semaIpcStruct))
 671              		.loc 2 330 0
 672 005a 1F4B     		ldr	r3, .L59+4
 673 005c 1B68     		ldr	r3, [r3]
 674 005e 1800     		movs	r0, r3
 675 0060 FFF7FEFF 		bl	Cy_IPC_Drv_LockAcquire
 676 0064 031E     		subs	r3, r0, #0
 677 0066 22D1     		bne	.L53
 331:Generated_Source\PSoC6\pdl\drivers\peripheral\ipc/cy_ipc_sema.c ****         {
ARM GAS  C:\Users\JC\AppData\Local\Temp\ccQnhWsL.s 			page 36


 332:Generated_Source\PSoC6\pdl\drivers\peripheral\ipc/cy_ipc_sema.c ****             if((semaStruct->arrayPtr[semaIndex] & semaMask) != 0ul)
 678              		.loc 2 332 0
 679 0068 7B69     		ldr	r3, [r7, #20]
 680 006a 5A68     		ldr	r2, [r3, #4]
 681 006c 3B69     		ldr	r3, [r7, #16]
 682 006e 9B00     		lsls	r3, r3, #2
 683 0070 D318     		adds	r3, r2, r3
 684 0072 1B68     		ldr	r3, [r3]
 685 0074 FA68     		ldr	r2, [r7, #12]
 686 0076 1340     		ands	r3, r2
 687 0078 11D0     		beq	.L54
 333:Generated_Source\PSoC6\pdl\drivers\peripheral\ipc/cy_ipc_sema.c ****             {
 334:Generated_Source\PSoC6\pdl\drivers\peripheral\ipc/cy_ipc_sema.c ****                 semaStruct->arrayPtr[semaIndex] &= ~semaMask;
 688              		.loc 2 334 0
 689 007a 7B69     		ldr	r3, [r7, #20]
 690 007c 5A68     		ldr	r2, [r3, #4]
 691 007e 3B69     		ldr	r3, [r7, #16]
 692 0080 9B00     		lsls	r3, r3, #2
 693 0082 D318     		adds	r3, r2, r3
 694 0084 7A69     		ldr	r2, [r7, #20]
 695 0086 5168     		ldr	r1, [r2, #4]
 696 0088 3A69     		ldr	r2, [r7, #16]
 697 008a 9200     		lsls	r2, r2, #2
 698 008c 8A18     		adds	r2, r1, r2
 699 008e 1268     		ldr	r2, [r2]
 700 0090 F968     		ldr	r1, [r7, #12]
 701 0092 C943     		mvns	r1, r1
 702 0094 0A40     		ands	r2, r1
 703 0096 1A60     		str	r2, [r3]
 335:Generated_Source\PSoC6\pdl\drivers\peripheral\ipc/cy_ipc_sema.c ****                 retStatus = CY_IPC_SEMA_SUCCESS;
 704              		.loc 2 335 0
 705 0098 0023     		movs	r3, #0
 706 009a BB61     		str	r3, [r7, #24]
 707 009c 01E0     		b	.L55
 708              	.L54:
 336:Generated_Source\PSoC6\pdl\drivers\peripheral\ipc/cy_ipc_sema.c ****             }
 337:Generated_Source\PSoC6\pdl\drivers\peripheral\ipc/cy_ipc_sema.c ****             else
 338:Generated_Source\PSoC6\pdl\drivers\peripheral\ipc/cy_ipc_sema.c ****             {
 339:Generated_Source\PSoC6\pdl\drivers\peripheral\ipc/cy_ipc_sema.c ****                 retStatus = CY_IPC_SEMA_NOT_ACQUIRED;
 709              		.loc 2 339 0
 710 009e 0F4B     		ldr	r3, .L59+8
 711 00a0 BB61     		str	r3, [r7, #24]
 712              	.L55:
 340:Generated_Source\PSoC6\pdl\drivers\peripheral\ipc/cy_ipc_sema.c ****             }
 341:Generated_Source\PSoC6\pdl\drivers\peripheral\ipc/cy_ipc_sema.c **** 
 342:Generated_Source\PSoC6\pdl\drivers\peripheral\ipc/cy_ipc_sema.c ****             /* Release, but do not trigger a release event */
 343:Generated_Source\PSoC6\pdl\drivers\peripheral\ipc/cy_ipc_sema.c ****             (void) Cy_IPC_Drv_LockRelease (cy_semaIpcStruct, CY_IPC_NO_NOTIFICATION);
 713              		.loc 2 343 0
 714 00a2 0D4B     		ldr	r3, .L59+4
 715 00a4 1B68     		ldr	r3, [r3]
 716 00a6 0021     		movs	r1, #0
 717 00a8 1800     		movs	r0, r3
 718 00aa FFF7FEFF 		bl	Cy_IPC_Drv_LockRelease
 719              	.L53:
 344:Generated_Source\PSoC6\pdl\drivers\peripheral\ipc/cy_ipc_sema.c ****         }
 345:Generated_Source\PSoC6\pdl\drivers\peripheral\ipc/cy_ipc_sema.c **** 
 346:Generated_Source\PSoC6\pdl\drivers\peripheral\ipc/cy_ipc_sema.c ****         if (!preemptable)
ARM GAS  C:\Users\JC\AppData\Local\Temp\ccQnhWsL.s 			page 37


 720              		.loc 2 346 0
 721 00ae FB1C     		adds	r3, r7, #3
 722 00b0 1B78     		ldrb	r3, [r3]
 723 00b2 0122     		movs	r2, #1
 724 00b4 5340     		eors	r3, r2
 725 00b6 DBB2     		uxtb	r3, r3
 726 00b8 002B     		cmp	r3, #0
 727 00ba 06D0     		beq	.L57
 347:Generated_Source\PSoC6\pdl\drivers\peripheral\ipc/cy_ipc_sema.c ****         {
 348:Generated_Source\PSoC6\pdl\drivers\peripheral\ipc/cy_ipc_sema.c ****             Cy_SysLib_ExitCriticalSection(interruptState);
 728              		.loc 2 348 0
 729 00bc FB69     		ldr	r3, [r7, #28]
 730 00be 1800     		movs	r0, r3
 731 00c0 FFF7FEFF 		bl	Cy_SysLib_ExitCriticalSection
 732 00c4 01E0     		b	.L57
 733              	.L51:
 349:Generated_Source\PSoC6\pdl\drivers\peripheral\ipc/cy_ipc_sema.c ****         }
 350:Generated_Source\PSoC6\pdl\drivers\peripheral\ipc/cy_ipc_sema.c ****     }
 351:Generated_Source\PSoC6\pdl\drivers\peripheral\ipc/cy_ipc_sema.c ****     else
 352:Generated_Source\PSoC6\pdl\drivers\peripheral\ipc/cy_ipc_sema.c ****     {
 353:Generated_Source\PSoC6\pdl\drivers\peripheral\ipc/cy_ipc_sema.c ****         retStatus = CY_IPC_SEMA_OUT_OF_RANGE;
 734              		.loc 2 353 0
 735 00c6 064B     		ldr	r3, .L59+12
 736 00c8 BB61     		str	r3, [r7, #24]
 737              	.L57:
 354:Generated_Source\PSoC6\pdl\drivers\peripheral\ipc/cy_ipc_sema.c ****     }
 355:Generated_Source\PSoC6\pdl\drivers\peripheral\ipc/cy_ipc_sema.c ****     return(retStatus);
 738              		.loc 2 355 0
 739 00ca BB69     		ldr	r3, [r7, #24]
 356:Generated_Source\PSoC6\pdl\drivers\peripheral\ipc/cy_ipc_sema.c **** }
 740              		.loc 2 356 0
 741 00cc 1800     		movs	r0, r3
 742 00ce BD46     		mov	sp, r7
 743 00d0 08B0     		add	sp, sp, #32
 744              		@ sp needed
 745 00d2 80BD     		pop	{r7, pc}
 746              	.L60:
 747              		.align	2
 748              	.L59:
 749 00d4 03018800 		.word	8913155
 750 00d8 00000000 		.word	cy_semaIpcStruct
 751 00dc 02018800 		.word	8913154
 752 00e0 04018A00 		.word	9044228
 753              		.cfi_endproc
 754              	.LFE67:
 755              		.size	Cy_IPC_Sema_Clear, .-Cy_IPC_Sema_Clear
 756              		.section	.text.Cy_IPC_Sema_Status,"ax",%progbits
 757              		.align	2
 758              		.global	Cy_IPC_Sema_Status
 759              		.code	16
 760              		.thumb_func
 761              		.type	Cy_IPC_Sema_Status, %function
 762              	Cy_IPC_Sema_Status:
 763              	.LFB68:
 357:Generated_Source\PSoC6\pdl\drivers\peripheral\ipc/cy_ipc_sema.c **** 
 358:Generated_Source\PSoC6\pdl\drivers\peripheral\ipc/cy_ipc_sema.c **** 
 359:Generated_Source\PSoC6\pdl\drivers\peripheral\ipc/cy_ipc_sema.c **** /*******************************************************************************
ARM GAS  C:\Users\JC\AppData\Local\Temp\ccQnhWsL.s 			page 38


 360:Generated_Source\PSoC6\pdl\drivers\peripheral\ipc/cy_ipc_sema.c **** * Function Name: Cy_IPC_Sema_Status
 361:Generated_Source\PSoC6\pdl\drivers\peripheral\ipc/cy_ipc_sema.c **** ****************************************************************************//**
 362:Generated_Source\PSoC6\pdl\drivers\peripheral\ipc/cy_ipc_sema.c **** *
 363:Generated_Source\PSoC6\pdl\drivers\peripheral\ipc/cy_ipc_sema.c **** * This function returns the status of the semaphore.
 364:Generated_Source\PSoC6\pdl\drivers\peripheral\ipc/cy_ipc_sema.c **** *
 365:Generated_Source\PSoC6\pdl\drivers\peripheral\ipc/cy_ipc_sema.c **** * \param semaNumber
 366:Generated_Source\PSoC6\pdl\drivers\peripheral\ipc/cy_ipc_sema.c **** *  The index of the semaphore to return status.
 367:Generated_Source\PSoC6\pdl\drivers\peripheral\ipc/cy_ipc_sema.c **** *
 368:Generated_Source\PSoC6\pdl\drivers\peripheral\ipc/cy_ipc_sema.c **** * \return Status of the operation
 369:Generated_Source\PSoC6\pdl\drivers\peripheral\ipc/cy_ipc_sema.c **** *     \retval CY_IPC_SEMA_STATUS_LOCKED:    The semaphore is in the set state.
 370:Generated_Source\PSoC6\pdl\drivers\peripheral\ipc/cy_ipc_sema.c **** *     \retval CY_IPC_SEMA_STATUS_UNLOCKED:  The semaphore is in the cleared state.
 371:Generated_Source\PSoC6\pdl\drivers\peripheral\ipc/cy_ipc_sema.c **** *     \retval CY_IPC_SEMA_OUT_OF_RANGE:     The semaphore number is not valid
 372:Generated_Source\PSoC6\pdl\drivers\peripheral\ipc/cy_ipc_sema.c **** *
 373:Generated_Source\PSoC6\pdl\drivers\peripheral\ipc/cy_ipc_sema.c **** * \funcusage
 374:Generated_Source\PSoC6\pdl\drivers\peripheral\ipc/cy_ipc_sema.c **** * \snippet IPC_sut_01.cydsn/main_cm4.c snippet_Cy_IPC_Sema_Status
 375:Generated_Source\PSoC6\pdl\drivers\peripheral\ipc/cy_ipc_sema.c **** *
 376:Generated_Source\PSoC6\pdl\drivers\peripheral\ipc/cy_ipc_sema.c **** *******************************************************************************/
 377:Generated_Source\PSoC6\pdl\drivers\peripheral\ipc/cy_ipc_sema.c **** cy_en_ipcsema_status_t Cy_IPC_Sema_Status(uint32_t semaNumber)
 378:Generated_Source\PSoC6\pdl\drivers\peripheral\ipc/cy_ipc_sema.c **** {
 764              		.loc 2 378 0
 765              		.cfi_startproc
 766              		@ args = 0, pretend = 0, frame = 24
 767              		@ frame_needed = 1, uses_anonymous_args = 0
 768 0000 80B5     		push	{r7, lr}
 769              		.cfi_def_cfa_offset 8
 770              		.cfi_offset 7, -8
 771              		.cfi_offset 14, -4
 772 0002 86B0     		sub	sp, sp, #24
 773              		.cfi_def_cfa_offset 32
 774 0004 00AF     		add	r7, sp, #0
 775              		.cfi_def_cfa_register 7
 776 0006 7860     		str	r0, [r7, #4]
 379:Generated_Source\PSoC6\pdl\drivers\peripheral\ipc/cy_ipc_sema.c ****     cy_en_ipcsema_status_t   retStatus;
 380:Generated_Source\PSoC6\pdl\drivers\peripheral\ipc/cy_ipc_sema.c ****     uint32_t semaIndex;
 381:Generated_Source\PSoC6\pdl\drivers\peripheral\ipc/cy_ipc_sema.c ****     uint32_t semaMask;
 382:Generated_Source\PSoC6\pdl\drivers\peripheral\ipc/cy_ipc_sema.c ****     cy_stc_ipc_sema_t      *semaStruct;
 383:Generated_Source\PSoC6\pdl\drivers\peripheral\ipc/cy_ipc_sema.c **** 
 384:Generated_Source\PSoC6\pdl\drivers\peripheral\ipc/cy_ipc_sema.c ****     /* Get pointer to structure */
 385:Generated_Source\PSoC6\pdl\drivers\peripheral\ipc/cy_ipc_sema.c ****     semaStruct = (cy_stc_ipc_sema_t *)Cy_IPC_Drv_ReadDataValue(cy_semaIpcStruct);
 777              		.loc 2 385 0
 778 0008 164B     		ldr	r3, .L67
 779 000a 1B68     		ldr	r3, [r3]
 780 000c 1800     		movs	r0, r3
 781 000e FFF7FEFF 		bl	Cy_IPC_Drv_ReadDataValue
 782 0012 0300     		movs	r3, r0
 783 0014 3B61     		str	r3, [r7, #16]
 386:Generated_Source\PSoC6\pdl\drivers\peripheral\ipc/cy_ipc_sema.c **** 
 387:Generated_Source\PSoC6\pdl\drivers\peripheral\ipc/cy_ipc_sema.c ****     if (semaNumber < semaStruct->maxSema)
 784              		.loc 2 387 0
 785 0016 3B69     		ldr	r3, [r7, #16]
 786 0018 1A68     		ldr	r2, [r3]
 787 001a 7B68     		ldr	r3, [r7, #4]
 788 001c 9A42     		cmp	r2, r3
 789 001e 19D9     		bls	.L62
 388:Generated_Source\PSoC6\pdl\drivers\peripheral\ipc/cy_ipc_sema.c ****     {
 389:Generated_Source\PSoC6\pdl\drivers\peripheral\ipc/cy_ipc_sema.c ****         /* Get the index into the semaphore array and calculate the mask */
 390:Generated_Source\PSoC6\pdl\drivers\peripheral\ipc/cy_ipc_sema.c ****         semaIndex = semaNumber / CY_IPC_SEMA_PER_WORD;
ARM GAS  C:\Users\JC\AppData\Local\Temp\ccQnhWsL.s 			page 39


 790              		.loc 2 390 0
 791 0020 7B68     		ldr	r3, [r7, #4]
 792 0022 5B09     		lsrs	r3, r3, #5
 793 0024 FB60     		str	r3, [r7, #12]
 391:Generated_Source\PSoC6\pdl\drivers\peripheral\ipc/cy_ipc_sema.c ****         semaMask = (uint32_t)(1ul << (semaNumber - (semaIndex * CY_IPC_SEMA_PER_WORD) ));
 794              		.loc 2 391 0
 795 0026 FB68     		ldr	r3, [r7, #12]
 796 0028 5B01     		lsls	r3, r3, #5
 797 002a 7A68     		ldr	r2, [r7, #4]
 798 002c D31A     		subs	r3, r2, r3
 799 002e 0122     		movs	r2, #1
 800 0030 9A40     		lsls	r2, r2, r3
 801 0032 1300     		movs	r3, r2
 802 0034 BB60     		str	r3, [r7, #8]
 392:Generated_Source\PSoC6\pdl\drivers\peripheral\ipc/cy_ipc_sema.c **** 
 393:Generated_Source\PSoC6\pdl\drivers\peripheral\ipc/cy_ipc_sema.c ****         if((semaStruct->arrayPtr[semaIndex] & semaMask) != 0ul)
 803              		.loc 2 393 0
 804 0036 3B69     		ldr	r3, [r7, #16]
 805 0038 5A68     		ldr	r2, [r3, #4]
 806 003a FB68     		ldr	r3, [r7, #12]
 807 003c 9B00     		lsls	r3, r3, #2
 808 003e D318     		adds	r3, r2, r3
 809 0040 1B68     		ldr	r3, [r3]
 810 0042 BA68     		ldr	r2, [r7, #8]
 811 0044 1340     		ands	r3, r2
 812 0046 02D0     		beq	.L63
 394:Generated_Source\PSoC6\pdl\drivers\peripheral\ipc/cy_ipc_sema.c ****         {
 395:Generated_Source\PSoC6\pdl\drivers\peripheral\ipc/cy_ipc_sema.c ****             retStatus =  CY_IPC_SEMA_STATUS_LOCKED;
 813              		.loc 2 395 0
 814 0048 074B     		ldr	r3, .L67+4
 815 004a 7B61     		str	r3, [r7, #20]
 816 004c 04E0     		b	.L65
 817              	.L63:
 396:Generated_Source\PSoC6\pdl\drivers\peripheral\ipc/cy_ipc_sema.c ****         }
 397:Generated_Source\PSoC6\pdl\drivers\peripheral\ipc/cy_ipc_sema.c ****         else
 398:Generated_Source\PSoC6\pdl\drivers\peripheral\ipc/cy_ipc_sema.c ****         {
 399:Generated_Source\PSoC6\pdl\drivers\peripheral\ipc/cy_ipc_sema.c ****             retStatus =  CY_IPC_SEMA_STATUS_UNLOCKED;
 818              		.loc 2 399 0
 819 004e 074B     		ldr	r3, .L67+8
 820 0050 7B61     		str	r3, [r7, #20]
 821 0052 01E0     		b	.L65
 822              	.L62:
 400:Generated_Source\PSoC6\pdl\drivers\peripheral\ipc/cy_ipc_sema.c ****         }
 401:Generated_Source\PSoC6\pdl\drivers\peripheral\ipc/cy_ipc_sema.c ****     }
 402:Generated_Source\PSoC6\pdl\drivers\peripheral\ipc/cy_ipc_sema.c ****     else
 403:Generated_Source\PSoC6\pdl\drivers\peripheral\ipc/cy_ipc_sema.c ****     {
 404:Generated_Source\PSoC6\pdl\drivers\peripheral\ipc/cy_ipc_sema.c ****         retStatus = CY_IPC_SEMA_OUT_OF_RANGE;
 823              		.loc 2 404 0
 824 0054 064B     		ldr	r3, .L67+12
 825 0056 7B61     		str	r3, [r7, #20]
 826              	.L65:
 405:Generated_Source\PSoC6\pdl\drivers\peripheral\ipc/cy_ipc_sema.c ****     }
 406:Generated_Source\PSoC6\pdl\drivers\peripheral\ipc/cy_ipc_sema.c ****     return(retStatus);
 827              		.loc 2 406 0
 828 0058 7B69     		ldr	r3, [r7, #20]
 407:Generated_Source\PSoC6\pdl\drivers\peripheral\ipc/cy_ipc_sema.c **** }
 829              		.loc 2 407 0
ARM GAS  C:\Users\JC\AppData\Local\Temp\ccQnhWsL.s 			page 40


 830 005a 1800     		movs	r0, r3
 831 005c BD46     		mov	sp, r7
 832 005e 06B0     		add	sp, sp, #24
 833              		@ sp needed
 834 0060 80BD     		pop	{r7, pc}
 835              	.L68:
 836 0062 C046     		.align	2
 837              	.L67:
 838 0064 00000000 		.word	cy_semaIpcStruct
 839 0068 01018800 		.word	8913153
 840 006c 00018800 		.word	8913152
 841 0070 04018A00 		.word	9044228
 842              		.cfi_endproc
 843              	.LFE68:
 844              		.size	Cy_IPC_Sema_Status, .-Cy_IPC_Sema_Status
 845              		.section	.text.Cy_IPC_Sema_GetMaxSems,"ax",%progbits
 846              		.align	2
 847              		.global	Cy_IPC_Sema_GetMaxSems
 848              		.code	16
 849              		.thumb_func
 850              		.type	Cy_IPC_Sema_GetMaxSems, %function
 851              	Cy_IPC_Sema_GetMaxSems:
 852              	.LFB69:
 408:Generated_Source\PSoC6\pdl\drivers\peripheral\ipc/cy_ipc_sema.c **** 
 409:Generated_Source\PSoC6\pdl\drivers\peripheral\ipc/cy_ipc_sema.c **** 
 410:Generated_Source\PSoC6\pdl\drivers\peripheral\ipc/cy_ipc_sema.c **** /*******************************************************************************
 411:Generated_Source\PSoC6\pdl\drivers\peripheral\ipc/cy_ipc_sema.c **** * Function Name: Cy_IPC_Sema_GetMaxSems
 412:Generated_Source\PSoC6\pdl\drivers\peripheral\ipc/cy_ipc_sema.c **** ****************************************************************************//**
 413:Generated_Source\PSoC6\pdl\drivers\peripheral\ipc/cy_ipc_sema.c **** *
 414:Generated_Source\PSoC6\pdl\drivers\peripheral\ipc/cy_ipc_sema.c **** * This function returns the number of semaphores in the semaphores subsystem.
 415:Generated_Source\PSoC6\pdl\drivers\peripheral\ipc/cy_ipc_sema.c **** *
 416:Generated_Source\PSoC6\pdl\drivers\peripheral\ipc/cy_ipc_sema.c **** * \return
 417:Generated_Source\PSoC6\pdl\drivers\peripheral\ipc/cy_ipc_sema.c **** *     Returns the semaphores quantity.
 418:Generated_Source\PSoC6\pdl\drivers\peripheral\ipc/cy_ipc_sema.c **** *
 419:Generated_Source\PSoC6\pdl\drivers\peripheral\ipc/cy_ipc_sema.c **** * \funcusage
 420:Generated_Source\PSoC6\pdl\drivers\peripheral\ipc/cy_ipc_sema.c **** * \snippet IPC_sut_01.cydsn/main_cm4.c snippet_Cy_IPC_Sema_GetMaxSems
 421:Generated_Source\PSoC6\pdl\drivers\peripheral\ipc/cy_ipc_sema.c **** *
 422:Generated_Source\PSoC6\pdl\drivers\peripheral\ipc/cy_ipc_sema.c **** *******************************************************************************/
 423:Generated_Source\PSoC6\pdl\drivers\peripheral\ipc/cy_ipc_sema.c **** uint32_t Cy_IPC_Sema_GetMaxSems(void)
 424:Generated_Source\PSoC6\pdl\drivers\peripheral\ipc/cy_ipc_sema.c **** {
 853              		.loc 2 424 0
 854              		.cfi_startproc
 855              		@ args = 0, pretend = 0, frame = 8
 856              		@ frame_needed = 1, uses_anonymous_args = 0
 857 0000 80B5     		push	{r7, lr}
 858              		.cfi_def_cfa_offset 8
 859              		.cfi_offset 7, -8
 860              		.cfi_offset 14, -4
 861 0002 82B0     		sub	sp, sp, #8
 862              		.cfi_def_cfa_offset 16
 863 0004 00AF     		add	r7, sp, #0
 864              		.cfi_def_cfa_register 7
 425:Generated_Source\PSoC6\pdl\drivers\peripheral\ipc/cy_ipc_sema.c ****     cy_stc_ipc_sema_t      *semaStruct;
 426:Generated_Source\PSoC6\pdl\drivers\peripheral\ipc/cy_ipc_sema.c **** 
 427:Generated_Source\PSoC6\pdl\drivers\peripheral\ipc/cy_ipc_sema.c ****     /* Get pointer to structure */
 428:Generated_Source\PSoC6\pdl\drivers\peripheral\ipc/cy_ipc_sema.c ****     semaStruct = (cy_stc_ipc_sema_t *)Cy_IPC_Drv_ReadDataValue(cy_semaIpcStruct);
 865              		.loc 2 428 0
ARM GAS  C:\Users\JC\AppData\Local\Temp\ccQnhWsL.s 			page 41


 866 0006 064B     		ldr	r3, .L71
 867 0008 1B68     		ldr	r3, [r3]
 868 000a 1800     		movs	r0, r3
 869 000c FFF7FEFF 		bl	Cy_IPC_Drv_ReadDataValue
 870 0010 0300     		movs	r3, r0
 871 0012 7B60     		str	r3, [r7, #4]
 429:Generated_Source\PSoC6\pdl\drivers\peripheral\ipc/cy_ipc_sema.c **** 
 430:Generated_Source\PSoC6\pdl\drivers\peripheral\ipc/cy_ipc_sema.c ****     return (semaStruct->maxSema);
 872              		.loc 2 430 0
 873 0014 7B68     		ldr	r3, [r7, #4]
 874 0016 1B68     		ldr	r3, [r3]
 431:Generated_Source\PSoC6\pdl\drivers\peripheral\ipc/cy_ipc_sema.c **** }
 875              		.loc 2 431 0
 876 0018 1800     		movs	r0, r3
 877 001a BD46     		mov	sp, r7
 878 001c 02B0     		add	sp, sp, #8
 879              		@ sp needed
 880 001e 80BD     		pop	{r7, pc}
 881              	.L72:
 882              		.align	2
 883              	.L71:
 884 0020 00000000 		.word	cy_semaIpcStruct
 885              		.cfi_endproc
 886              	.LFE69:
 887              		.size	Cy_IPC_Sema_GetMaxSems, .-Cy_IPC_Sema_GetMaxSems
 888              		.bss
 889              		.align	2
 890              	cy_semaData.10024:
 891 0004 00000000 		.space	8
 891      00000000 
 892              		.text
 893              	.Letext0:
 894              		.file 3 "c:\\program files (x86)\\cypress\\psoc creator\\4.4\\psoc creator\\import\\gnu\\arm\\5.4.
 895              		.file 4 "c:\\program files (x86)\\cypress\\psoc creator\\4.4\\psoc creator\\import\\gnu\\arm\\5.4.
 896              		.file 5 "Generated_Source\\PSoC6\\pdl\\devices/psoc6/include/ip/cyip_ipc.h"
 897              		.file 6 "Generated_Source\\PSoC6\\pdl\\drivers/peripheral/device/cy_device.h"
 898              		.file 7 "Generated_Source\\PSoC6\\pdl\\devices/psoc6/include/psoc6_01_config.h"
 899              		.file 8 "Generated_Source\\PSoC6\\pdl\\drivers/peripheral/syslib/cy_syslib.h"
 900              		.file 9 "Generated_Source\\PSoC6\\pdl\\drivers\\peripheral\\ipc\\cy_ipc_sema.h"
 901              		.section	.debug_info,"",%progbits
 902              	.Ldebug_info0:
 903 0000 A1090000 		.4byte	0x9a1
 904 0004 0400     		.2byte	0x4
 905 0006 00000000 		.4byte	.Ldebug_abbrev0
 906 000a 04       		.byte	0x4
 907 000b 01       		.uleb128 0x1
 908 000c 04050000 		.4byte	.LASF162
 909 0010 0C       		.byte	0xc
 910 0011 5A000000 		.4byte	.LASF163
 911 0015 40040000 		.4byte	.LASF164
 912 0019 00000000 		.4byte	.Ldebug_ranges0+0
 913 001d 00000000 		.4byte	0
 914 0021 00000000 		.4byte	.Ldebug_line0
 915 0025 02       		.uleb128 0x2
 916 0026 01       		.byte	0x1
 917 0027 06       		.byte	0x6
 918 0028 E0010000 		.4byte	.LASF0
ARM GAS  C:\Users\JC\AppData\Local\Temp\ccQnhWsL.s 			page 42


 919 002c 03       		.uleb128 0x3
 920 002d DD000000 		.4byte	.LASF2
 921 0031 03       		.byte	0x3
 922 0032 1D       		.byte	0x1d
 923 0033 37000000 		.4byte	0x37
 924 0037 02       		.uleb128 0x2
 925 0038 01       		.byte	0x1
 926 0039 08       		.byte	0x8
 927 003a DC070000 		.4byte	.LASF1
 928 003e 03       		.uleb128 0x3
 929 003f 77030000 		.4byte	.LASF3
 930 0043 03       		.byte	0x3
 931 0044 29       		.byte	0x29
 932 0045 49000000 		.4byte	0x49
 933 0049 02       		.uleb128 0x2
 934 004a 02       		.byte	0x2
 935 004b 05       		.byte	0x5
 936 004c 13080000 		.4byte	.LASF4
 937 0050 03       		.uleb128 0x3
 938 0051 BC080000 		.4byte	.LASF5
 939 0055 03       		.byte	0x3
 940 0056 2B       		.byte	0x2b
 941 0057 5B000000 		.4byte	0x5b
 942 005b 02       		.uleb128 0x2
 943 005c 02       		.byte	0x2
 944 005d 07       		.byte	0x7
 945 005e FC020000 		.4byte	.LASF6
 946 0062 02       		.uleb128 0x2
 947 0063 04       		.byte	0x4
 948 0064 05       		.byte	0x5
 949 0065 69020000 		.4byte	.LASF7
 950 0069 03       		.uleb128 0x3
 951 006a 37030000 		.4byte	.LASF8
 952 006e 03       		.byte	0x3
 953 006f 41       		.byte	0x41
 954 0070 74000000 		.4byte	0x74
 955 0074 02       		.uleb128 0x2
 956 0075 04       		.byte	0x4
 957 0076 07       		.byte	0x7
 958 0077 1F040000 		.4byte	.LASF9
 959 007b 02       		.uleb128 0x2
 960 007c 08       		.byte	0x8
 961 007d 05       		.byte	0x5
 962 007e D2010000 		.4byte	.LASF10
 963 0082 02       		.uleb128 0x2
 964 0083 08       		.byte	0x8
 965 0084 07       		.byte	0x7
 966 0085 4B010000 		.4byte	.LASF11
 967 0089 04       		.uleb128 0x4
 968 008a 04       		.byte	0x4
 969 008b 05       		.byte	0x5
 970 008c 696E7400 		.ascii	"int\000"
 971 0090 02       		.uleb128 0x2
 972 0091 04       		.byte	0x4
 973 0092 07       		.byte	0x7
 974 0093 91020000 		.4byte	.LASF12
 975 0097 03       		.uleb128 0x3
ARM GAS  C:\Users\JC\AppData\Local\Temp\ccQnhWsL.s 			page 43


 976 0098 9A090000 		.4byte	.LASF13
 977 009c 04       		.byte	0x4
 978 009d 18       		.byte	0x18
 979 009e 2C000000 		.4byte	0x2c
 980 00a2 03       		.uleb128 0x3
 981 00a3 CA010000 		.4byte	.LASF14
 982 00a7 04       		.byte	0x4
 983 00a8 20       		.byte	0x20
 984 00a9 3E000000 		.4byte	0x3e
 985 00ad 03       		.uleb128 0x3
 986 00ae E9030000 		.4byte	.LASF15
 987 00b2 04       		.byte	0x4
 988 00b3 24       		.byte	0x24
 989 00b4 50000000 		.4byte	0x50
 990 00b8 03       		.uleb128 0x3
 991 00b9 6B080000 		.4byte	.LASF16
 992 00bd 04       		.byte	0x4
 993 00be 30       		.byte	0x30
 994 00bf 69000000 		.4byte	0x69
 995 00c3 02       		.uleb128 0x2
 996 00c4 08       		.byte	0x8
 997 00c5 04       		.byte	0x4
 998 00c6 87080000 		.4byte	.LASF17
 999 00ca 05       		.uleb128 0x5
 1000 00cb B8000000 		.4byte	0xb8
 1001 00cf 06       		.uleb128 0x6
 1002 00d0 CA000000 		.4byte	0xca
 1003 00d4 07       		.uleb128 0x7
 1004 00d5 CF000000 		.4byte	0xcf
 1005 00d9 E4000000 		.4byte	0xe4
 1006 00dd 08       		.uleb128 0x8
 1007 00de E4000000 		.4byte	0xe4
 1008 00e2 02       		.byte	0x2
 1009 00e3 00       		.byte	0
 1010 00e4 02       		.uleb128 0x2
 1011 00e5 04       		.byte	0x4
 1012 00e6 07       		.byte	0x7
 1013 00e7 99060000 		.4byte	.LASF18
 1014 00eb 09       		.uleb128 0x9
 1015 00ec 20       		.byte	0x20
 1016 00ed 05       		.byte	0x5
 1017 00ee 23       		.byte	0x23
 1018 00ef 3C010000 		.4byte	0x13c
 1019 00f3 0A       		.uleb128 0xa
 1020 00f4 01020000 		.4byte	.LASF19
 1021 00f8 05       		.byte	0x5
 1022 00f9 24       		.byte	0x24
 1023 00fa CF000000 		.4byte	0xcf
 1024 00fe 00       		.byte	0
 1025 00ff 0A       		.uleb128 0xa
 1026 0100 13010000 		.4byte	.LASF20
 1027 0104 05       		.byte	0x5
 1028 0105 25       		.byte	0x25
 1029 0106 CA000000 		.4byte	0xca
 1030 010a 04       		.byte	0x4
 1031 010b 0A       		.uleb128 0xa
 1032 010c E3050000 		.4byte	.LASF21
ARM GAS  C:\Users\JC\AppData\Local\Temp\ccQnhWsL.s 			page 44


 1033 0110 05       		.byte	0x5
 1034 0111 26       		.byte	0x26
 1035 0112 CA000000 		.4byte	0xca
 1036 0116 08       		.byte	0x8
 1037 0117 0A       		.uleb128 0xa
 1038 0118 E9040000 		.4byte	.LASF22
 1039 011c 05       		.byte	0x5
 1040 011d 27       		.byte	0x27
 1041 011e CA000000 		.4byte	0xca
 1042 0122 0C       		.byte	0xc
 1043 0123 0A       		.uleb128 0xa
 1044 0124 52030000 		.4byte	.LASF23
 1045 0128 05       		.byte	0x5
 1046 0129 28       		.byte	0x28
 1047 012a CF000000 		.4byte	0xcf
 1048 012e 10       		.byte	0x10
 1049 012f 0A       		.uleb128 0xa
 1050 0130 30080000 		.4byte	.LASF24
 1051 0134 05       		.byte	0x5
 1052 0135 29       		.byte	0x29
 1053 0136 41010000 		.4byte	0x141
 1054 013a 14       		.byte	0x14
 1055 013b 00       		.byte	0
 1056 013c 05       		.uleb128 0x5
 1057 013d D4000000 		.4byte	0xd4
 1058 0141 06       		.uleb128 0x6
 1059 0142 3C010000 		.4byte	0x13c
 1060 0146 03       		.uleb128 0x3
 1061 0147 1D080000 		.4byte	.LASF25
 1062 014b 05       		.byte	0x5
 1063 014c 2A       		.byte	0x2a
 1064 014d EB000000 		.4byte	0xeb
 1065 0151 09       		.uleb128 0x9
 1066 0152 B8       		.byte	0xb8
 1067 0153 06       		.byte	0x6
 1068 0154 34       		.byte	0x34
 1069 0155 62050000 		.4byte	0x562
 1070 0159 0A       		.uleb128 0xa
 1071 015a 1B010000 		.4byte	.LASF26
 1072 015e 06       		.byte	0x6
 1073 015f 37       		.byte	0x37
 1074 0160 B8000000 		.4byte	0xb8
 1075 0164 00       		.byte	0
 1076 0165 0A       		.uleb128 0xa
 1077 0166 2C030000 		.4byte	.LASF27
 1078 016a 06       		.byte	0x6
 1079 016b 38       		.byte	0x38
 1080 016c B8000000 		.4byte	0xb8
 1081 0170 04       		.byte	0x4
 1082 0171 0A       		.uleb128 0xa
 1083 0172 9E020000 		.4byte	.LASF28
 1084 0176 06       		.byte	0x6
 1085 0177 39       		.byte	0x39
 1086 0178 B8000000 		.4byte	0xb8
 1087 017c 08       		.byte	0x8
 1088 017d 0A       		.uleb128 0xa
 1089 017e CE070000 		.4byte	.LASF29
ARM GAS  C:\Users\JC\AppData\Local\Temp\ccQnhWsL.s 			page 45


 1090 0182 06       		.byte	0x6
 1091 0183 3A       		.byte	0x3a
 1092 0184 B8000000 		.4byte	0xb8
 1093 0188 0C       		.byte	0xc
 1094 0189 0A       		.uleb128 0xa
 1095 018a 6C090000 		.4byte	.LASF30
 1096 018e 06       		.byte	0x6
 1097 018f 3B       		.byte	0x3b
 1098 0190 B8000000 		.4byte	0xb8
 1099 0194 10       		.byte	0x10
 1100 0195 0A       		.uleb128 0xa
 1101 0196 5F020000 		.4byte	.LASF31
 1102 019a 06       		.byte	0x6
 1103 019b 3C       		.byte	0x3c
 1104 019c B8000000 		.4byte	0xb8
 1105 01a0 14       		.byte	0x14
 1106 01a1 0A       		.uleb128 0xa
 1107 01a2 98040000 		.4byte	.LASF32
 1108 01a6 06       		.byte	0x6
 1109 01a7 3D       		.byte	0x3d
 1110 01a8 B8000000 		.4byte	0xb8
 1111 01ac 18       		.byte	0x18
 1112 01ad 0A       		.uleb128 0xa
 1113 01ae B9000000 		.4byte	.LASF33
 1114 01b2 06       		.byte	0x6
 1115 01b3 3E       		.byte	0x3e
 1116 01b4 B8000000 		.4byte	0xb8
 1117 01b8 1C       		.byte	0x1c
 1118 01b9 0A       		.uleb128 0xa
 1119 01ba 4B0A0000 		.4byte	.LASF34
 1120 01be 06       		.byte	0x6
 1121 01bf 3F       		.byte	0x3f
 1122 01c0 B8000000 		.4byte	0xb8
 1123 01c4 20       		.byte	0x20
 1124 01c5 0A       		.uleb128 0xa
 1125 01c6 75060000 		.4byte	.LASF35
 1126 01ca 06       		.byte	0x6
 1127 01cb 40       		.byte	0x40
 1128 01cc B8000000 		.4byte	0xb8
 1129 01d0 24       		.byte	0x24
 1130 01d1 0A       		.uleb128 0xa
 1131 01d2 0B060000 		.4byte	.LASF36
 1132 01d6 06       		.byte	0x6
 1133 01d7 43       		.byte	0x43
 1134 01d8 97000000 		.4byte	0x97
 1135 01dc 28       		.byte	0x28
 1136 01dd 0A       		.uleb128 0xa
 1137 01de 9A000000 		.4byte	.LASF37
 1138 01e2 06       		.byte	0x6
 1139 01e3 44       		.byte	0x44
 1140 01e4 97000000 		.4byte	0x97
 1141 01e8 29       		.byte	0x29
 1142 01e9 0A       		.uleb128 0xa
 1143 01ea 410A0000 		.4byte	.LASF38
 1144 01ee 06       		.byte	0x6
 1145 01ef 45       		.byte	0x45
 1146 01f0 97000000 		.4byte	0x97
ARM GAS  C:\Users\JC\AppData\Local\Temp\ccQnhWsL.s 			page 46


 1147 01f4 2A       		.byte	0x2a
 1148 01f5 0A       		.uleb128 0xa
 1149 01f6 94070000 		.4byte	.LASF39
 1150 01fa 06       		.byte	0x6
 1151 01fb 46       		.byte	0x46
 1152 01fc 97000000 		.4byte	0x97
 1153 0200 2B       		.byte	0x2b
 1154 0201 0A       		.uleb128 0xa
 1155 0202 96050000 		.4byte	.LASF40
 1156 0206 06       		.byte	0x6
 1157 0207 47       		.byte	0x47
 1158 0208 97000000 		.4byte	0x97
 1159 020c 2C       		.byte	0x2c
 1160 020d 0A       		.uleb128 0xa
 1161 020e DA080000 		.4byte	.LASF41
 1162 0212 06       		.byte	0x6
 1163 0213 48       		.byte	0x48
 1164 0214 97000000 		.4byte	0x97
 1165 0218 2D       		.byte	0x2d
 1166 0219 0A       		.uleb128 0xa
 1167 021a 1F020000 		.4byte	.LASF42
 1168 021e 06       		.byte	0x6
 1169 021f 49       		.byte	0x49
 1170 0220 97000000 		.4byte	0x97
 1171 0224 2E       		.byte	0x2e
 1172 0225 0A       		.uleb128 0xa
 1173 0226 85060000 		.4byte	.LASF43
 1174 022a 06       		.byte	0x6
 1175 022b 4A       		.byte	0x4a
 1176 022c 97000000 		.4byte	0x97
 1177 0230 2F       		.byte	0x2f
 1178 0231 0A       		.uleb128 0xa
 1179 0232 98080000 		.4byte	.LASF44
 1180 0236 06       		.byte	0x6
 1181 0237 4B       		.byte	0x4b
 1182 0238 97000000 		.4byte	0x97
 1183 023c 30       		.byte	0x30
 1184 023d 0A       		.uleb128 0xa
 1185 023e 7A040000 		.4byte	.LASF45
 1186 0242 06       		.byte	0x6
 1187 0243 4E       		.byte	0x4e
 1188 0244 97000000 		.4byte	0x97
 1189 0248 31       		.byte	0x31
 1190 0249 0A       		.uleb128 0xa
 1191 024a CF000000 		.4byte	.LASF46
 1192 024e 06       		.byte	0x6
 1193 024f 4F       		.byte	0x4f
 1194 0250 97000000 		.4byte	0x97
 1195 0254 32       		.byte	0x32
 1196 0255 0A       		.uleb128 0xa
 1197 0256 C6030000 		.4byte	.LASF47
 1198 025a 06       		.byte	0x6
 1199 025b 50       		.byte	0x50
 1200 025c 97000000 		.4byte	0x97
 1201 0260 33       		.byte	0x33
 1202 0261 0A       		.uleb128 0xa
 1203 0262 AD060000 		.4byte	.LASF48
ARM GAS  C:\Users\JC\AppData\Local\Temp\ccQnhWsL.s 			page 47


 1204 0266 06       		.byte	0x6
 1205 0267 51       		.byte	0x51
 1206 0268 97000000 		.4byte	0x97
 1207 026c 34       		.byte	0x34
 1208 026d 0A       		.uleb128 0xa
 1209 026e 4E090000 		.4byte	.LASF49
 1210 0272 06       		.byte	0x6
 1211 0273 52       		.byte	0x52
 1212 0274 A2000000 		.4byte	0xa2
 1213 0278 36       		.byte	0x36
 1214 0279 0A       		.uleb128 0xa
 1215 027a B8020000 		.4byte	.LASF50
 1216 027e 06       		.byte	0x6
 1217 027f 53       		.byte	0x53
 1218 0280 A2000000 		.4byte	0xa2
 1219 0284 38       		.byte	0x38
 1220 0285 0A       		.uleb128 0xa
 1221 0286 75090000 		.4byte	.LASF51
 1222 028a 06       		.byte	0x6
 1223 028b 54       		.byte	0x54
 1224 028c A2000000 		.4byte	0xa2
 1225 0290 3A       		.byte	0x3a
 1226 0291 0A       		.uleb128 0xa
 1227 0292 320A0000 		.4byte	.LASF52
 1228 0296 06       		.byte	0x6
 1229 0297 55       		.byte	0x55
 1230 0298 97000000 		.4byte	0x97
 1231 029c 3C       		.byte	0x3c
 1232 029d 0A       		.uleb128 0xa
 1233 029e DF020000 		.4byte	.LASF53
 1234 02a2 06       		.byte	0x6
 1235 02a3 56       		.byte	0x56
 1236 02a4 97000000 		.4byte	0x97
 1237 02a8 3D       		.byte	0x3d
 1238 02a9 0A       		.uleb128 0xa
 1239 02aa 4D080000 		.4byte	.LASF54
 1240 02ae 06       		.byte	0x6
 1241 02af 57       		.byte	0x57
 1242 02b0 97000000 		.4byte	0x97
 1243 02b4 3E       		.byte	0x3e
 1244 02b5 0A       		.uleb128 0xa
 1245 02b6 34010000 		.4byte	.LASF55
 1246 02ba 06       		.byte	0x6
 1247 02bb 58       		.byte	0x58
 1248 02bc 97000000 		.4byte	0x97
 1249 02c0 3F       		.byte	0x3f
 1250 02c1 0A       		.uleb128 0xa
 1251 02c2 35070000 		.4byte	.LASF56
 1252 02c6 06       		.byte	0x6
 1253 02c7 59       		.byte	0x59
 1254 02c8 97000000 		.4byte	0x97
 1255 02cc 40       		.byte	0x40
 1256 02cd 0A       		.uleb128 0xa
 1257 02ce 42030000 		.4byte	.LASF57
 1258 02d2 06       		.byte	0x6
 1259 02d3 5A       		.byte	0x5a
 1260 02d4 97000000 		.4byte	0x97
ARM GAS  C:\Users\JC\AppData\Local\Temp\ccQnhWsL.s 			page 48


 1261 02d8 41       		.byte	0x41
 1262 02d9 0A       		.uleb128 0xa
 1263 02da EA050000 		.4byte	.LASF58
 1264 02de 06       		.byte	0x6
 1265 02df 5B       		.byte	0x5b
 1266 02e0 97000000 		.4byte	0x97
 1267 02e4 42       		.byte	0x42
 1268 02e5 0A       		.uleb128 0xa
 1269 02e6 10070000 		.4byte	.LASF59
 1270 02ea 06       		.byte	0x6
 1271 02eb 5C       		.byte	0x5c
 1272 02ec 97000000 		.4byte	0x97
 1273 02f0 43       		.byte	0x43
 1274 02f1 0A       		.uleb128 0xa
 1275 02f2 A7020000 		.4byte	.LASF60
 1276 02f6 06       		.byte	0x6
 1277 02f7 5D       		.byte	0x5d
 1278 02f8 97000000 		.4byte	0x97
 1279 02fc 44       		.byte	0x44
 1280 02fd 0A       		.uleb128 0xa
 1281 02fe 63060000 		.4byte	.LASF61
 1282 0302 06       		.byte	0x6
 1283 0303 5E       		.byte	0x5e
 1284 0304 B8000000 		.4byte	0xb8
 1285 0308 48       		.byte	0x48
 1286 0309 0A       		.uleb128 0xa
 1287 030a 83020000 		.4byte	.LASF62
 1288 030e 06       		.byte	0x6
 1289 030f 5F       		.byte	0x5f
 1290 0310 B8000000 		.4byte	0xb8
 1291 0314 4C       		.byte	0x4c
 1292 0315 0A       		.uleb128 0xa
 1293 0316 62010000 		.4byte	.LASF63
 1294 031a 06       		.byte	0x6
 1295 031b 60       		.byte	0x60
 1296 031c 97000000 		.4byte	0x97
 1297 0320 50       		.byte	0x50
 1298 0321 0A       		.uleb128 0xa
 1299 0322 A4010000 		.4byte	.LASF64
 1300 0326 06       		.byte	0x6
 1301 0327 61       		.byte	0x61
 1302 0328 97000000 		.4byte	0x97
 1303 032c 51       		.byte	0x51
 1304 032d 0A       		.uleb128 0xa
 1305 032e 8A090000 		.4byte	.LASF65
 1306 0332 06       		.byte	0x6
 1307 0333 62       		.byte	0x62
 1308 0334 97000000 		.4byte	0x97
 1309 0338 52       		.byte	0x52
 1310 0339 0A       		.uleb128 0xa
 1311 033a 690A0000 		.4byte	.LASF66
 1312 033e 06       		.byte	0x6
 1313 033f 63       		.byte	0x63
 1314 0340 97000000 		.4byte	0x97
 1315 0344 53       		.byte	0x53
 1316 0345 0A       		.uleb128 0xa
 1317 0346 5B080000 		.4byte	.LASF67
ARM GAS  C:\Users\JC\AppData\Local\Temp\ccQnhWsL.s 			page 49


 1318 034a 06       		.byte	0x6
 1319 034b 64       		.byte	0x64
 1320 034c 97000000 		.4byte	0x97
 1321 0350 54       		.byte	0x54
 1322 0351 0A       		.uleb128 0xa
 1323 0352 B6010000 		.4byte	.LASF68
 1324 0356 06       		.byte	0x6
 1325 0357 65       		.byte	0x65
 1326 0358 97000000 		.4byte	0x97
 1327 035c 55       		.byte	0x55
 1328 035d 0A       		.uleb128 0xa
 1329 035e 00090000 		.4byte	.LASF69
 1330 0362 06       		.byte	0x6
 1331 0363 66       		.byte	0x66
 1332 0364 97000000 		.4byte	0x97
 1333 0368 56       		.byte	0x56
 1334 0369 0A       		.uleb128 0xa
 1335 036a A1040000 		.4byte	.LASF70
 1336 036e 06       		.byte	0x6
 1337 036f 67       		.byte	0x67
 1338 0370 97000000 		.4byte	0x97
 1339 0374 57       		.byte	0x57
 1340 0375 0A       		.uleb128 0xa
 1341 0376 1F000000 		.4byte	.LASF71
 1342 037a 06       		.byte	0x6
 1343 037b 68       		.byte	0x68
 1344 037c 97000000 		.4byte	0x97
 1345 0380 58       		.byte	0x58
 1346 0381 0A       		.uleb128 0xa
 1347 0382 EA070000 		.4byte	.LASF72
 1348 0386 06       		.byte	0x6
 1349 0387 69       		.byte	0x69
 1350 0388 97000000 		.4byte	0x97
 1351 038c 59       		.byte	0x59
 1352 038d 0A       		.uleb128 0xa
 1353 038e A2060000 		.4byte	.LASF73
 1354 0392 06       		.byte	0x6
 1355 0393 6E       		.byte	0x6e
 1356 0394 AD000000 		.4byte	0xad
 1357 0398 5A       		.byte	0x5a
 1358 0399 0A       		.uleb128 0xa
 1359 039a 2B090000 		.4byte	.LASF74
 1360 039e 06       		.byte	0x6
 1361 039f 6F       		.byte	0x6f
 1362 03a0 AD000000 		.4byte	0xad
 1363 03a4 5C       		.byte	0x5c
 1364 03a5 0A       		.uleb128 0xa
 1365 03a6 25010000 		.4byte	.LASF75
 1366 03aa 06       		.byte	0x6
 1367 03ab 70       		.byte	0x70
 1368 03ac 97000000 		.4byte	0x97
 1369 03b0 5E       		.byte	0x5e
 1370 03b1 0A       		.uleb128 0xa
 1371 03b2 7E070000 		.4byte	.LASF76
 1372 03b6 06       		.byte	0x6
 1373 03b7 71       		.byte	0x71
 1374 03b8 97000000 		.4byte	0x97
ARM GAS  C:\Users\JC\AppData\Local\Temp\ccQnhWsL.s 			page 50


 1375 03bc 5F       		.byte	0x5f
 1376 03bd 0A       		.uleb128 0xa
 1377 03be E3060000 		.4byte	.LASF77
 1378 03c2 06       		.byte	0x6
 1379 03c3 72       		.byte	0x72
 1380 03c4 97000000 		.4byte	0x97
 1381 03c8 60       		.byte	0x60
 1382 03c9 0A       		.uleb128 0xa
 1383 03ca 48070000 		.4byte	.LASF78
 1384 03ce 06       		.byte	0x6
 1385 03cf 73       		.byte	0x73
 1386 03d0 B8000000 		.4byte	0xb8
 1387 03d4 64       		.byte	0x64
 1388 03d5 0A       		.uleb128 0xa
 1389 03d6 73010000 		.4byte	.LASF79
 1390 03da 06       		.byte	0x6
 1391 03db 76       		.byte	0x76
 1392 03dc AD000000 		.4byte	0xad
 1393 03e0 68       		.byte	0x68
 1394 03e1 0A       		.uleb128 0xa
 1395 03e2 F9030000 		.4byte	.LASF80
 1396 03e6 06       		.byte	0x6
 1397 03e7 77       		.byte	0x77
 1398 03e8 AD000000 		.4byte	0xad
 1399 03ec 6A       		.byte	0x6a
 1400 03ed 0A       		.uleb128 0xa
 1401 03ee 59070000 		.4byte	.LASF81
 1402 03f2 06       		.byte	0x6
 1403 03f3 78       		.byte	0x78
 1404 03f4 AD000000 		.4byte	0xad
 1405 03f8 6C       		.byte	0x6c
 1406 03f9 0A       		.uleb128 0xa
 1407 03fa C2000000 		.4byte	.LASF82
 1408 03fe 06       		.byte	0x6
 1409 03ff 79       		.byte	0x79
 1410 0400 AD000000 		.4byte	0xad
 1411 0404 6E       		.byte	0x6e
 1412 0405 0A       		.uleb128 0xa
 1413 0406 39080000 		.4byte	.LASF83
 1414 040a 06       		.byte	0x6
 1415 040b 7B       		.byte	0x7b
 1416 040c 97000000 		.4byte	0x97
 1417 0410 70       		.byte	0x70
 1418 0411 0A       		.uleb128 0xa
 1419 0412 EC010000 		.4byte	.LASF84
 1420 0416 06       		.byte	0x6
 1421 0417 7C       		.byte	0x7c
 1422 0418 97000000 		.4byte	0x97
 1423 041c 71       		.byte	0x71
 1424 041d 0A       		.uleb128 0xa
 1425 041e 530A0000 		.4byte	.LASF85
 1426 0422 06       		.byte	0x6
 1427 0423 7D       		.byte	0x7d
 1428 0424 97000000 		.4byte	0x97
 1429 0428 72       		.byte	0x72
 1430 0429 0A       		.uleb128 0xa
 1431 042a BE060000 		.4byte	.LASF86
ARM GAS  C:\Users\JC\AppData\Local\Temp\ccQnhWsL.s 			page 51


 1432 042e 06       		.byte	0x6
 1433 042f 7E       		.byte	0x7e
 1434 0430 97000000 		.4byte	0x97
 1435 0434 73       		.byte	0x73
 1436 0435 0A       		.uleb128 0xa
 1437 0436 EA020000 		.4byte	.LASF87
 1438 043a 06       		.byte	0x6
 1439 043b 80       		.byte	0x80
 1440 043c AD000000 		.4byte	0xad
 1441 0440 74       		.byte	0x74
 1442 0441 0A       		.uleb128 0xa
 1443 0442 C7080000 		.4byte	.LASF88
 1444 0446 06       		.byte	0x6
 1445 0447 81       		.byte	0x81
 1446 0448 AD000000 		.4byte	0xad
 1447 044c 76       		.byte	0x76
 1448 044d 0A       		.uleb128 0xa
 1449 044e CA020000 		.4byte	.LASF89
 1450 0452 06       		.byte	0x6
 1451 0453 82       		.byte	0x82
 1452 0454 AD000000 		.4byte	0xad
 1453 0458 78       		.byte	0x78
 1454 0459 0A       		.uleb128 0xa
 1455 045a E7000000 		.4byte	.LASF90
 1456 045e 06       		.byte	0x6
 1457 045f 83       		.byte	0x83
 1458 0460 AD000000 		.4byte	0xad
 1459 0464 7A       		.byte	0x7a
 1460 0465 0A       		.uleb128 0xa
 1461 0466 B7090000 		.4byte	.LASF91
 1462 046a 06       		.byte	0x6
 1463 046b 86       		.byte	0x86
 1464 046c 97000000 		.4byte	0x97
 1465 0470 7C       		.byte	0x7c
 1466 0471 0A       		.uleb128 0xa
 1467 0472 5B090000 		.4byte	.LASF92
 1468 0476 06       		.byte	0x6
 1469 0477 87       		.byte	0x87
 1470 0478 97000000 		.4byte	0x97
 1471 047c 7D       		.byte	0x7d
 1472 047d 0A       		.uleb128 0xa
 1473 047e 33000000 		.4byte	.LASF93
 1474 0482 06       		.byte	0x6
 1475 0483 88       		.byte	0x88
 1476 0484 97000000 		.4byte	0x97
 1477 0488 7E       		.byte	0x7e
 1478 0489 0A       		.uleb128 0xa
 1479 048a 0F030000 		.4byte	.LASF94
 1480 048e 06       		.byte	0x6
 1481 048f 89       		.byte	0x89
 1482 0490 97000000 		.4byte	0x97
 1483 0494 7F       		.byte	0x7f
 1484 0495 0A       		.uleb128 0xa
 1485 0496 B2030000 		.4byte	.LASF95
 1486 049a 06       		.byte	0x6
 1487 049b 8A       		.byte	0x8a
 1488 049c 97000000 		.4byte	0x97
ARM GAS  C:\Users\JC\AppData\Local\Temp\ccQnhWsL.s 			page 52


 1489 04a0 80       		.byte	0x80
 1490 04a1 0A       		.uleb128 0xa
 1491 04a2 18060000 		.4byte	.LASF96
 1492 04a6 06       		.byte	0x6
 1493 04a7 8D       		.byte	0x8d
 1494 04a8 B8000000 		.4byte	0xb8
 1495 04ac 84       		.byte	0x84
 1496 04ad 0A       		.uleb128 0xa
 1497 04ae FC000000 		.4byte	.LASF97
 1498 04b2 06       		.byte	0x6
 1499 04b3 8E       		.byte	0x8e
 1500 04b4 B8000000 		.4byte	0xb8
 1501 04b8 88       		.byte	0x88
 1502 04b9 0A       		.uleb128 0xa
 1503 04ba A2090000 		.4byte	.LASF98
 1504 04be 06       		.byte	0x6
 1505 04bf 8F       		.byte	0x8f
 1506 04c0 B8000000 		.4byte	0xb8
 1507 04c4 8C       		.byte	0x8c
 1508 04c5 0A       		.uleb128 0xa
 1509 04c6 FE070000 		.4byte	.LASF99
 1510 04ca 06       		.byte	0x6
 1511 04cb 90       		.byte	0x90
 1512 04cc B8000000 		.4byte	0xb8
 1513 04d0 90       		.byte	0x90
 1514 04d1 0A       		.uleb128 0xa
 1515 04d2 9D030000 		.4byte	.LASF100
 1516 04d6 06       		.byte	0x6
 1517 04d7 91       		.byte	0x91
 1518 04d8 B8000000 		.4byte	0xb8
 1519 04dc 94       		.byte	0x94
 1520 04dd 0A       		.uleb128 0xa
 1521 04de 09020000 		.4byte	.LASF101
 1522 04e2 06       		.byte	0x6
 1523 04e3 92       		.byte	0x92
 1524 04e4 B8000000 		.4byte	0xb8
 1525 04e8 98       		.byte	0x98
 1526 04e9 0A       		.uleb128 0xa
 1527 04ea FB090000 		.4byte	.LASF102
 1528 04ee 06       		.byte	0x6
 1529 04ef 93       		.byte	0x93
 1530 04f0 B8000000 		.4byte	0xb8
 1531 04f4 9C       		.byte	0x9c
 1532 04f5 0A       		.uleb128 0xa
 1533 04f6 83010000 		.4byte	.LASF103
 1534 04fa 06       		.byte	0x6
 1535 04fb 94       		.byte	0x94
 1536 04fc B8000000 		.4byte	0xb8
 1537 0500 A0       		.byte	0xa0
 1538 0501 0A       		.uleb128 0xa
 1539 0502 31020000 		.4byte	.LASF104
 1540 0506 06       		.byte	0x6
 1541 0507 95       		.byte	0x95
 1542 0508 AD000000 		.4byte	0xad
 1543 050c A4       		.byte	0xa4
 1544 050d 0A       		.uleb128 0xa
 1545 050e F6050000 		.4byte	.LASF105
ARM GAS  C:\Users\JC\AppData\Local\Temp\ccQnhWsL.s 			page 53


 1546 0512 06       		.byte	0x6
 1547 0513 96       		.byte	0x96
 1548 0514 AD000000 		.4byte	0xad
 1549 0518 A6       		.byte	0xa6
 1550 0519 0A       		.uleb128 0xa
 1551 051a 72070000 		.4byte	.LASF106
 1552 051e 06       		.byte	0x6
 1553 051f 97       		.byte	0x97
 1554 0520 AD000000 		.4byte	0xad
 1555 0524 A8       		.byte	0xa8
 1556 0525 0A       		.uleb128 0xa
 1557 0526 A4080000 		.4byte	.LASF107
 1558 052a 06       		.byte	0x6
 1559 052b 98       		.byte	0x98
 1560 052c AD000000 		.4byte	0xad
 1561 0530 AA       		.byte	0xaa
 1562 0531 0A       		.uleb128 0xa
 1563 0532 D4040000 		.4byte	.LASF108
 1564 0536 06       		.byte	0x6
 1565 0537 99       		.byte	0x99
 1566 0538 AD000000 		.4byte	0xad
 1567 053c AC       		.byte	0xac
 1568 053d 0A       		.uleb128 0xa
 1569 053e D5060000 		.4byte	.LASF109
 1570 0542 06       		.byte	0x6
 1571 0543 9A       		.byte	0x9a
 1572 0544 AD000000 		.4byte	0xad
 1573 0548 AE       		.byte	0xae
 1574 0549 0A       		.uleb128 0xa
 1575 054a 40090000 		.4byte	.LASF110
 1576 054e 06       		.byte	0x6
 1577 054f 9D       		.byte	0x9d
 1578 0550 AD000000 		.4byte	0xad
 1579 0554 B0       		.byte	0xb0
 1580 0555 0A       		.uleb128 0xa
 1581 0556 46000000 		.4byte	.LASF111
 1582 055a 06       		.byte	0x6
 1583 055b 9E       		.byte	0x9e
 1584 055c B8000000 		.4byte	0xb8
 1585 0560 B4       		.byte	0xb4
 1586 0561 00       		.byte	0
 1587 0562 03       		.uleb128 0x3
 1588 0563 D3050000 		.4byte	.LASF112
 1589 0567 06       		.byte	0x6
 1590 0568 9F       		.byte	0x9f
 1591 0569 51010000 		.4byte	0x151
 1592 056d 0B       		.uleb128 0xb
 1593 056e 220A0000 		.4byte	.LASF113
 1594 0572 07       		.byte	0x7
 1595 0573 1D06     		.2byte	0x61d
 1596 0575 46010000 		.4byte	0x146
 1597 0579 0B       		.uleb128 0xb
 1598 057a F2030000 		.4byte	.LASF114
 1599 057e 08       		.byte	0x8
 1600 057f F601     		.2byte	0x1f6
 1601 0581 85050000 		.4byte	0x585
 1602 0585 02       		.uleb128 0x2
ARM GAS  C:\Users\JC\AppData\Local\Temp\ccQnhWsL.s 			page 54


 1603 0586 01       		.byte	0x1
 1604 0587 08       		.byte	0x8
 1605 0588 93080000 		.4byte	.LASF115
 1606 058c 02       		.uleb128 0x2
 1607 058d 04       		.byte	0x4
 1608 058e 04       		.byte	0x4
 1609 058f 42070000 		.4byte	.LASF116
 1610 0593 02       		.uleb128 0x2
 1611 0594 08       		.byte	0x8
 1612 0595 04       		.byte	0x4
 1613 0596 C3020000 		.4byte	.LASF117
 1614 059a 0C       		.uleb128 0xc
 1615 059b 04       		.byte	0x4
 1616 059c 90000000 		.4byte	0x90
 1617 05a0 01       		.byte	0x1
 1618 05a1 7201     		.2byte	0x172
 1619 05a3 B7050000 		.4byte	0x5b7
 1620 05a7 0D       		.uleb128 0xd
 1621 05a8 8A030000 		.4byte	.LASF118
 1622 05ac 00       		.byte	0
 1623 05ad 0E       		.uleb128 0xe
 1624 05ae A8000000 		.4byte	.LASF119
 1625 05b2 01008A00 		.4byte	0x8a0001
 1626 05b6 00       		.byte	0
 1627 05b7 0B       		.uleb128 0xb
 1628 05b8 EE040000 		.4byte	.LASF120
 1629 05bc 01       		.byte	0x1
 1630 05bd 7901     		.2byte	0x179
 1631 05bf 9A050000 		.4byte	0x59a
 1632 05c3 0F       		.uleb128 0xf
 1633 05c4 04       		.byte	0x4
 1634 05c5 90000000 		.4byte	0x90
 1635 05c9 09       		.byte	0x9
 1636 05ca 47       		.byte	0x47
 1637 05cb 1E060000 		.4byte	0x61e
 1638 05cf 0D       		.uleb128 0xd
 1639 05d0 0B040000 		.4byte	.LASF121
 1640 05d4 00       		.byte	0
 1641 05d5 0E       		.uleb128 0xe
 1642 05d6 5E030000 		.4byte	.LASF122
 1643 05da 01018A00 		.4byte	0x8a0101
 1644 05de 0E       		.uleb128 0xe
 1645 05df 2F060000 		.4byte	.LASF123
 1646 05e3 02018A00 		.4byte	0x8a0102
 1647 05e7 0E       		.uleb128 0xe
 1648 05e8 B8070000 		.4byte	.LASF124
 1649 05ec 03018A00 		.4byte	0x8a0103
 1650 05f0 0E       		.uleb128 0xe
 1651 05f1 4A060000 		.4byte	.LASF125
 1652 05f5 04018A00 		.4byte	0x8a0104
 1653 05f9 0E       		.uleb128 0xe
 1654 05fa 00000000 		.4byte	.LASF126
 1655 05fe 02018800 		.4byte	0x880102
 1656 0602 0E       		.uleb128 0xe
 1657 0603 85040000 		.4byte	.LASF127
 1658 0607 03018800 		.4byte	0x880103
 1659 060b 0E       		.uleb128 0xe
ARM GAS  C:\Users\JC\AppData\Local\Temp\ccQnhWsL.s 			page 55


 1660 060c A2050000 		.4byte	.LASF128
 1661 0610 01018800 		.4byte	0x880101
 1662 0614 0E       		.uleb128 0xe
 1663 0615 F4060000 		.4byte	.LASF129
 1664 0619 00018800 		.4byte	0x880100
 1665 061d 00       		.byte	0
 1666 061e 03       		.uleb128 0x3
 1667 061f 14090000 		.4byte	.LASF130
 1668 0623 09       		.byte	0x9
 1669 0624 5C       		.byte	0x5c
 1670 0625 C3050000 		.4byte	0x5c3
 1671 0629 09       		.uleb128 0x9
 1672 062a 08       		.byte	0x8
 1673 062b 09       		.byte	0x9
 1674 062c 60       		.byte	0x60
 1675 062d 4A060000 		.4byte	0x64a
 1676 0631 0A       		.uleb128 0xa
 1677 0632 91060000 		.4byte	.LASF131
 1678 0636 09       		.byte	0x9
 1679 0637 63       		.byte	0x63
 1680 0638 B8000000 		.4byte	0xb8
 1681 063c 00       		.byte	0
 1682 063d 0A       		.uleb128 0xa
 1683 063e 81030000 		.4byte	.LASF132
 1684 0642 09       		.byte	0x9
 1685 0643 65       		.byte	0x65
 1686 0644 4A060000 		.4byte	0x64a
 1687 0648 04       		.byte	0x4
 1688 0649 00       		.byte	0
 1689 064a 10       		.uleb128 0x10
 1690 064b 04       		.byte	0x4
 1691 064c B8000000 		.4byte	0xb8
 1692 0650 03       		.uleb128 0x3
 1693 0651 E9090000 		.4byte	.LASF133
 1694 0655 09       		.byte	0x9
 1695 0656 66       		.byte	0x66
 1696 0657 29060000 		.4byte	0x629
 1697 065b 11       		.uleb128 0x11
 1698 065c CC090000 		.4byte	.LASF134
 1699 0660 01       		.byte	0x1
 1700 0661 C101     		.2byte	0x1c1
 1701 0663 85060000 		.4byte	0x685
 1702 0667 00000000 		.4byte	.LFB45
 1703 066b 50000000 		.4byte	.LFE45-.LFB45
 1704 066f 01       		.uleb128 0x1
 1705 0670 9C       		.byte	0x9c
 1706 0671 85060000 		.4byte	0x685
 1707 0675 12       		.uleb128 0x12
 1708 0676 23030000 		.4byte	.LASF136
 1709 067a 01       		.byte	0x1
 1710 067b C101     		.2byte	0x1c1
 1711 067d B8000000 		.4byte	0xb8
 1712 0681 02       		.uleb128 0x2
 1713 0682 91       		.byte	0x91
 1714 0683 74       		.sleb128 -12
 1715 0684 00       		.byte	0
 1716 0685 10       		.uleb128 0x10
ARM GAS  C:\Users\JC\AppData\Local\Temp\ccQnhWsL.s 			page 56


 1717 0686 04       		.byte	0x4
 1718 0687 6D050000 		.4byte	0x56d
 1719 068b 13       		.uleb128 0x13
 1720 068c E7080000 		.4byte	.LASF135
 1721 0690 01       		.byte	0x1
 1722 0691 0603     		.2byte	0x306
 1723 0693 B8000000 		.4byte	0xb8
 1724 0697 00000000 		.4byte	.LFB56
 1725 069b 14000000 		.4byte	.LFE56-.LFB56
 1726 069f 01       		.uleb128 0x1
 1727 06a0 9C       		.byte	0x9c
 1728 06a1 B5060000 		.4byte	0x6b5
 1729 06a5 12       		.uleb128 0x12
 1730 06a6 80060000 		.4byte	.LASF137
 1731 06aa 01       		.byte	0x1
 1732 06ab 0603     		.2byte	0x306
 1733 06ad B5060000 		.4byte	0x6b5
 1734 06b1 02       		.uleb128 0x2
 1735 06b2 91       		.byte	0x91
 1736 06b3 74       		.sleb128 -12
 1737 06b4 00       		.byte	0
 1738 06b5 10       		.uleb128 0x10
 1739 06b6 04       		.byte	0x4
 1740 06b7 BB060000 		.4byte	0x6bb
 1741 06bb 06       		.uleb128 0x6
 1742 06bc 6D050000 		.4byte	0x56d
 1743 06c0 11       		.uleb128 0x11
 1744 06c1 A2070000 		.4byte	.LASF138
 1745 06c5 01       		.byte	0x1
 1746 06c6 9103     		.2byte	0x391
 1747 06c8 B7050000 		.4byte	0x5b7
 1748 06cc 00000000 		.4byte	.LFB61
 1749 06d0 3C000000 		.4byte	.LFE61-.LFB61
 1750 06d4 01       		.uleb128 0x1
 1751 06d5 9C       		.byte	0x9c
 1752 06d6 08070000 		.4byte	0x708
 1753 06da 12       		.uleb128 0x12
 1754 06db 80060000 		.4byte	.LASF137
 1755 06df 01       		.byte	0x1
 1756 06e0 9103     		.2byte	0x391
 1757 06e2 85060000 		.4byte	0x685
 1758 06e6 02       		.uleb128 0x2
 1759 06e7 91       		.byte	0x91
 1760 06e8 74       		.sleb128 -12
 1761 06e9 12       		.uleb128 0x12
 1762 06ea 46020000 		.4byte	.LASF139
 1763 06ee 01       		.byte	0x1
 1764 06ef 9103     		.2byte	0x391
 1765 06f1 B8000000 		.4byte	0xb8
 1766 06f5 02       		.uleb128 0x2
 1767 06f6 91       		.byte	0x91
 1768 06f7 70       		.sleb128 -16
 1769 06f8 12       		.uleb128 0x12
 1770 06f9 E2040000 		.4byte	.LASF140
 1771 06fd 01       		.byte	0x1
 1772 06fe 9103     		.2byte	0x391
 1773 0700 08070000 		.4byte	0x708
ARM GAS  C:\Users\JC\AppData\Local\Temp\ccQnhWsL.s 			page 57


 1774 0704 02       		.uleb128 0x2
 1775 0705 91       		.byte	0x91
 1776 0706 6C       		.sleb128 -20
 1777 0707 00       		.byte	0
 1778 0708 10       		.uleb128 0x10
 1779 0709 04       		.byte	0x4
 1780 070a 0E070000 		.4byte	0x70e
 1781 070e 14       		.uleb128 0x14
 1782 070f 13       		.uleb128 0x13
 1783 0710 BC050000 		.4byte	.LASF141
 1784 0714 01       		.byte	0x1
 1785 0715 D003     		.2byte	0x3d0
 1786 0717 B7050000 		.4byte	0x5b7
 1787 071b 00000000 		.4byte	.LFB63
 1788 071f 24000000 		.4byte	.LFE63-.LFB63
 1789 0723 01       		.uleb128 0x1
 1790 0724 9C       		.byte	0x9c
 1791 0725 39070000 		.4byte	0x739
 1792 0729 12       		.uleb128 0x12
 1793 072a 80060000 		.4byte	.LASF137
 1794 072e 01       		.byte	0x1
 1795 072f D003     		.2byte	0x3d0
 1796 0731 B5060000 		.4byte	0x6b5
 1797 0735 02       		.uleb128 0x2
 1798 0736 91       		.byte	0x91
 1799 0737 74       		.sleb128 -12
 1800 0738 00       		.byte	0
 1801 0739 15       		.uleb128 0x15
 1802 073a 72020000 		.4byte	.LASF147
 1803 073e 02       		.byte	0x2
 1804 073f 3E       		.byte	0x3e
 1805 0740 1E060000 		.4byte	0x61e
 1806 0744 00000000 		.4byte	.LFB64
 1807 0748 74000000 		.4byte	.LFE64-.LFB64
 1808 074c 01       		.uleb128 0x1
 1809 074d 9C       		.byte	0x9c
 1810 074e 9C070000 		.4byte	0x79c
 1811 0752 16       		.uleb128 0x16
 1812 0753 B5040000 		.4byte	.LASF142
 1813 0757 02       		.byte	0x2
 1814 0758 3E       		.byte	0x3e
 1815 0759 B8000000 		.4byte	0xb8
 1816 075d 02       		.uleb128 0x2
 1817 075e 91       		.byte	0x91
 1818 075f 6C       		.sleb128 -20
 1819 0760 16       		.uleb128 0x16
 1820 0761 19000000 		.4byte	.LASF143
 1821 0765 02       		.byte	0x2
 1822 0766 3F       		.byte	0x3f
 1823 0767 B8000000 		.4byte	0xb8
 1824 076b 02       		.uleb128 0x2
 1825 076c 91       		.byte	0x91
 1826 076d 68       		.sleb128 -24
 1827 076e 16       		.uleb128 0x16
 1828 076f 2A020000 		.4byte	.LASF144
 1829 0773 02       		.byte	0x2
 1830 0774 3F       		.byte	0x3f
ARM GAS  C:\Users\JC\AppData\Local\Temp\ccQnhWsL.s 			page 58


 1831 0775 4A060000 		.4byte	0x64a
 1832 0779 02       		.uleb128 0x2
 1833 077a 91       		.byte	0x91
 1834 077b 64       		.sleb128 -28
 1835 077c 17       		.uleb128 0x17
 1836 077d 34090000 		.4byte	.LASF145
 1837 0781 02       		.byte	0x2
 1838 0782 42       		.byte	0x42
 1839 0783 50060000 		.4byte	0x650
 1840 0787 05       		.uleb128 0x5
 1841 0788 03       		.byte	0x3
 1842 0789 04000000 		.4byte	cy_semaData.10024
 1843 078d 17       		.uleb128 0x17
 1844 078e 7B0A0000 		.4byte	.LASF146
 1845 0792 02       		.byte	0x2
 1846 0793 44       		.byte	0x44
 1847 0794 1E060000 		.4byte	0x61e
 1848 0798 02       		.uleb128 0x2
 1849 0799 91       		.byte	0x91
 1850 079a 74       		.sleb128 -12
 1851 079b 00       		.byte	0
 1852 079c 15       		.uleb128 0x15
 1853 079d C0040000 		.4byte	.LASF148
 1854 07a1 02       		.byte	0x2
 1855 07a2 7B       		.byte	0x7b
 1856 07a3 1E060000 		.4byte	0x61e
 1857 07a7 00000000 		.4byte	.LFB65
 1858 07ab B8000000 		.4byte	.LFE65-.LFB65
 1859 07af 01       		.uleb128 0x1
 1860 07b0 9C       		.byte	0x9c
 1861 07b1 E0070000 		.4byte	0x7e0
 1862 07b5 16       		.uleb128 0x16
 1863 07b6 B5040000 		.4byte	.LASF142
 1864 07ba 02       		.byte	0x2
 1865 07bb 7B       		.byte	0x7b
 1866 07bc B8000000 		.4byte	0xb8
 1867 07c0 02       		.uleb128 0x2
 1868 07c1 91       		.byte	0x91
 1869 07c2 6C       		.sleb128 -20
 1870 07c3 16       		.uleb128 0x16
 1871 07c4 2D070000 		.4byte	.LASF149
 1872 07c8 02       		.byte	0x2
 1873 07c9 7B       		.byte	0x7b
 1874 07ca E0070000 		.4byte	0x7e0
 1875 07ce 02       		.uleb128 0x2
 1876 07cf 91       		.byte	0x91
 1877 07d0 68       		.sleb128 -24
 1878 07d1 17       		.uleb128 0x17
 1879 07d2 7B0A0000 		.4byte	.LASF146
 1880 07d6 02       		.byte	0x2
 1881 07d7 7D       		.byte	0x7d
 1882 07d8 1E060000 		.4byte	0x61e
 1883 07dc 02       		.uleb128 0x2
 1884 07dd 91       		.byte	0x91
 1885 07de 74       		.sleb128 -12
 1886 07df 00       		.byte	0
 1887 07e0 10       		.uleb128 0x10
ARM GAS  C:\Users\JC\AppData\Local\Temp\ccQnhWsL.s 			page 59


 1888 07e1 04       		.byte	0x4
 1889 07e2 50060000 		.4byte	0x650
 1890 07e6 15       		.uleb128 0x15
 1891 07e7 910A0000 		.4byte	.LASF150
 1892 07eb 02       		.byte	0x2
 1893 07ec DA       		.byte	0xda
 1894 07ed 1E060000 		.4byte	0x61e
 1895 07f1 00000000 		.4byte	.LFB66
 1896 07f5 E4000000 		.4byte	.LFE66-.LFB66
 1897 07f9 01       		.uleb128 0x1
 1898 07fa 9C       		.byte	0x9c
 1899 07fb 62080000 		.4byte	0x862
 1900 07ff 16       		.uleb128 0x16
 1901 0800 40010000 		.4byte	.LASF151
 1902 0804 02       		.byte	0x2
 1903 0805 DA       		.byte	0xda
 1904 0806 B8000000 		.4byte	0xb8
 1905 080a 02       		.uleb128 0x2
 1906 080b 91       		.byte	0x91
 1907 080c 5C       		.sleb128 -36
 1908 080d 16       		.uleb128 0x16
 1909 080e 850A0000 		.4byte	.LASF152
 1910 0812 02       		.byte	0x2
 1911 0813 DA       		.byte	0xda
 1912 0814 62080000 		.4byte	0x862
 1913 0818 02       		.uleb128 0x2
 1914 0819 91       		.byte	0x91
 1915 081a 5B       		.sleb128 -37
 1916 081b 17       		.uleb128 0x17
 1917 081c B2080000 		.4byte	.LASF153
 1918 0820 02       		.byte	0x2
 1919 0821 DC       		.byte	0xdc
 1920 0822 B8000000 		.4byte	0xb8
 1921 0826 02       		.uleb128 0x2
 1922 0827 91       		.byte	0x91
 1923 0828 68       		.sleb128 -24
 1924 0829 17       		.uleb128 0x17
 1925 082a 56020000 		.4byte	.LASF154
 1926 082e 02       		.byte	0x2
 1927 082f DD       		.byte	0xdd
 1928 0830 B8000000 		.4byte	0xb8
 1929 0834 02       		.uleb128 0x2
 1930 0835 91       		.byte	0x91
 1931 0836 64       		.sleb128 -28
 1932 0837 17       		.uleb128 0x17
 1933 0838 31040000 		.4byte	.LASF155
 1934 083c 02       		.byte	0x2
 1935 083d DE       		.byte	0xde
 1936 083e B8000000 		.4byte	0xb8
 1937 0842 02       		.uleb128 0x2
 1938 0843 91       		.byte	0x91
 1939 0844 74       		.sleb128 -12
 1940 0845 17       		.uleb128 0x17
 1941 0846 99010000 		.4byte	.LASF156
 1942 084a 02       		.byte	0x2
 1943 084b E0       		.byte	0xe0
 1944 084c E0070000 		.4byte	0x7e0
ARM GAS  C:\Users\JC\AppData\Local\Temp\ccQnhWsL.s 			page 60


 1945 0850 02       		.uleb128 0x2
 1946 0851 91       		.byte	0x91
 1947 0852 6C       		.sleb128 -20
 1948 0853 17       		.uleb128 0x17
 1949 0854 7B0A0000 		.4byte	.LASF146
 1950 0858 02       		.byte	0x2
 1951 0859 E1       		.byte	0xe1
 1952 085a 1E060000 		.4byte	0x61e
 1953 085e 02       		.uleb128 0x2
 1954 085f 91       		.byte	0x91
 1955 0860 70       		.sleb128 -16
 1956 0861 00       		.byte	0
 1957 0862 02       		.uleb128 0x2
 1958 0863 01       		.byte	0x1
 1959 0864 02       		.byte	0x2
 1960 0865 D6070000 		.4byte	.LASF157
 1961 0869 18       		.uleb128 0x18
 1962 086a 1B070000 		.4byte	.LASF158
 1963 086e 02       		.byte	0x2
 1964 086f 3201     		.2byte	0x132
 1965 0871 1E060000 		.4byte	0x61e
 1966 0875 00000000 		.4byte	.LFB67
 1967 0879 E4000000 		.4byte	.LFE67-.LFB67
 1968 087d 01       		.uleb128 0x1
 1969 087e 9C       		.byte	0x9c
 1970 087f ED080000 		.4byte	0x8ed
 1971 0883 12       		.uleb128 0x12
 1972 0884 40010000 		.4byte	.LASF151
 1973 0888 02       		.byte	0x2
 1974 0889 3201     		.2byte	0x132
 1975 088b B8000000 		.4byte	0xb8
 1976 088f 02       		.uleb128 0x2
 1977 0890 91       		.byte	0x91
 1978 0891 5C       		.sleb128 -36
 1979 0892 12       		.uleb128 0x12
 1980 0893 850A0000 		.4byte	.LASF152
 1981 0897 02       		.byte	0x2
 1982 0898 3201     		.2byte	0x132
 1983 089a 62080000 		.4byte	0x862
 1984 089e 02       		.uleb128 0x2
 1985 089f 91       		.byte	0x91
 1986 08a0 5B       		.sleb128 -37
 1987 08a1 19       		.uleb128 0x19
 1988 08a2 B2080000 		.4byte	.LASF153
 1989 08a6 02       		.byte	0x2
 1990 08a7 3401     		.2byte	0x134
 1991 08a9 B8000000 		.4byte	0xb8
 1992 08ad 02       		.uleb128 0x2
 1993 08ae 91       		.byte	0x91
 1994 08af 68       		.sleb128 -24
 1995 08b0 19       		.uleb128 0x19
 1996 08b1 56020000 		.4byte	.LASF154
 1997 08b5 02       		.byte	0x2
 1998 08b6 3501     		.2byte	0x135
 1999 08b8 B8000000 		.4byte	0xb8
 2000 08bc 02       		.uleb128 0x2
 2001 08bd 91       		.byte	0x91
ARM GAS  C:\Users\JC\AppData\Local\Temp\ccQnhWsL.s 			page 61


 2002 08be 64       		.sleb128 -28
 2003 08bf 19       		.uleb128 0x19
 2004 08c0 31040000 		.4byte	.LASF155
 2005 08c4 02       		.byte	0x2
 2006 08c5 3601     		.2byte	0x136
 2007 08c7 B8000000 		.4byte	0xb8
 2008 08cb 02       		.uleb128 0x2
 2009 08cc 91       		.byte	0x91
 2010 08cd 74       		.sleb128 -12
 2011 08ce 19       		.uleb128 0x19
 2012 08cf 99010000 		.4byte	.LASF156
 2013 08d3 02       		.byte	0x2
 2014 08d4 3801     		.2byte	0x138
 2015 08d6 E0070000 		.4byte	0x7e0
 2016 08da 02       		.uleb128 0x2
 2017 08db 91       		.byte	0x91
 2018 08dc 6C       		.sleb128 -20
 2019 08dd 19       		.uleb128 0x19
 2020 08de 7B0A0000 		.4byte	.LASF146
 2021 08e2 02       		.byte	0x2
 2022 08e3 3901     		.2byte	0x139
 2023 08e5 1E060000 		.4byte	0x61e
 2024 08e9 02       		.uleb128 0x2
 2025 08ea 91       		.byte	0x91
 2026 08eb 70       		.sleb128 -16
 2027 08ec 00       		.byte	0
 2028 08ed 18       		.uleb128 0x18
 2029 08ee 74080000 		.4byte	.LASF159
 2030 08f2 02       		.byte	0x2
 2031 08f3 7901     		.2byte	0x179
 2032 08f5 1E060000 		.4byte	0x61e
 2033 08f9 00000000 		.4byte	.LFB68
 2034 08fd 74000000 		.4byte	.LFE68-.LFB68
 2035 0901 01       		.uleb128 0x1
 2036 0902 9C       		.byte	0x9c
 2037 0903 53090000 		.4byte	0x953
 2038 0907 12       		.uleb128 0x12
 2039 0908 40010000 		.4byte	.LASF151
 2040 090c 02       		.byte	0x2
 2041 090d 7901     		.2byte	0x179
 2042 090f B8000000 		.4byte	0xb8
 2043 0913 02       		.uleb128 0x2
 2044 0914 91       		.byte	0x91
 2045 0915 64       		.sleb128 -28
 2046 0916 19       		.uleb128 0x19
 2047 0917 7B0A0000 		.4byte	.LASF146
 2048 091b 02       		.byte	0x2
 2049 091c 7B01     		.2byte	0x17b
 2050 091e 1E060000 		.4byte	0x61e
 2051 0922 02       		.uleb128 0x2
 2052 0923 91       		.byte	0x91
 2053 0924 74       		.sleb128 -12
 2054 0925 19       		.uleb128 0x19
 2055 0926 B2080000 		.4byte	.LASF153
 2056 092a 02       		.byte	0x2
 2057 092b 7C01     		.2byte	0x17c
 2058 092d B8000000 		.4byte	0xb8
ARM GAS  C:\Users\JC\AppData\Local\Temp\ccQnhWsL.s 			page 62


 2059 0931 02       		.uleb128 0x2
 2060 0932 91       		.byte	0x91
 2061 0933 6C       		.sleb128 -20
 2062 0934 19       		.uleb128 0x19
 2063 0935 56020000 		.4byte	.LASF154
 2064 0939 02       		.byte	0x2
 2065 093a 7D01     		.2byte	0x17d
 2066 093c B8000000 		.4byte	0xb8
 2067 0940 02       		.uleb128 0x2
 2068 0941 91       		.byte	0x91
 2069 0942 68       		.sleb128 -24
 2070 0943 19       		.uleb128 0x19
 2071 0944 99010000 		.4byte	.LASF156
 2072 0948 02       		.byte	0x2
 2073 0949 7E01     		.2byte	0x17e
 2074 094b E0070000 		.4byte	0x7e0
 2075 094f 02       		.uleb128 0x2
 2076 0950 91       		.byte	0x91
 2077 0951 70       		.sleb128 -16
 2078 0952 00       		.byte	0
 2079 0953 18       		.uleb128 0x18
 2080 0954 D2030000 		.4byte	.LASF160
 2081 0958 02       		.byte	0x2
 2082 0959 A701     		.2byte	0x1a7
 2083 095b B8000000 		.4byte	0xb8
 2084 095f 00000000 		.4byte	.LFB69
 2085 0963 24000000 		.4byte	.LFE69-.LFB69
 2086 0967 01       		.uleb128 0x1
 2087 0968 9C       		.byte	0x9c
 2088 0969 7D090000 		.4byte	0x97d
 2089 096d 19       		.uleb128 0x19
 2090 096e 99010000 		.4byte	.LASF156
 2091 0972 02       		.byte	0x2
 2092 0973 A901     		.2byte	0x1a9
 2093 0975 E0070000 		.4byte	0x7e0
 2094 0979 02       		.uleb128 0x2
 2095 097a 91       		.byte	0x91
 2096 097b 74       		.sleb128 -12
 2097 097c 00       		.byte	0
 2098 097d 17       		.uleb128 0x17
 2099 097e 110A0000 		.4byte	.LASF161
 2100 0982 02       		.byte	0x2
 2101 0983 19       		.byte	0x19
 2102 0984 85060000 		.4byte	0x685
 2103 0988 05       		.uleb128 0x5
 2104 0989 03       		.byte	0x3
 2105 098a 00000000 		.4byte	cy_semaIpcStruct
 2106 098e 1A       		.uleb128 0x1a
 2107 098f 68070000 		.4byte	.LASF165
 2108 0993 06       		.byte	0x6
 2109 0994 A7       		.byte	0xa7
 2110 0995 99090000 		.4byte	0x999
 2111 0999 10       		.uleb128 0x10
 2112 099a 04       		.byte	0x4
 2113 099b 9F090000 		.4byte	0x99f
 2114 099f 06       		.uleb128 0x6
 2115 09a0 62050000 		.4byte	0x562
ARM GAS  C:\Users\JC\AppData\Local\Temp\ccQnhWsL.s 			page 63


 2116 09a4 00       		.byte	0
 2117              		.section	.debug_abbrev,"",%progbits
 2118              	.Ldebug_abbrev0:
 2119 0000 01       		.uleb128 0x1
 2120 0001 11       		.uleb128 0x11
 2121 0002 01       		.byte	0x1
 2122 0003 25       		.uleb128 0x25
 2123 0004 0E       		.uleb128 0xe
 2124 0005 13       		.uleb128 0x13
 2125 0006 0B       		.uleb128 0xb
 2126 0007 03       		.uleb128 0x3
 2127 0008 0E       		.uleb128 0xe
 2128 0009 1B       		.uleb128 0x1b
 2129 000a 0E       		.uleb128 0xe
 2130 000b 55       		.uleb128 0x55
 2131 000c 17       		.uleb128 0x17
 2132 000d 11       		.uleb128 0x11
 2133 000e 01       		.uleb128 0x1
 2134 000f 10       		.uleb128 0x10
 2135 0010 17       		.uleb128 0x17
 2136 0011 00       		.byte	0
 2137 0012 00       		.byte	0
 2138 0013 02       		.uleb128 0x2
 2139 0014 24       		.uleb128 0x24
 2140 0015 00       		.byte	0
 2141 0016 0B       		.uleb128 0xb
 2142 0017 0B       		.uleb128 0xb
 2143 0018 3E       		.uleb128 0x3e
 2144 0019 0B       		.uleb128 0xb
 2145 001a 03       		.uleb128 0x3
 2146 001b 0E       		.uleb128 0xe
 2147 001c 00       		.byte	0
 2148 001d 00       		.byte	0
 2149 001e 03       		.uleb128 0x3
 2150 001f 16       		.uleb128 0x16
 2151 0020 00       		.byte	0
 2152 0021 03       		.uleb128 0x3
 2153 0022 0E       		.uleb128 0xe
 2154 0023 3A       		.uleb128 0x3a
 2155 0024 0B       		.uleb128 0xb
 2156 0025 3B       		.uleb128 0x3b
 2157 0026 0B       		.uleb128 0xb
 2158 0027 49       		.uleb128 0x49
 2159 0028 13       		.uleb128 0x13
 2160 0029 00       		.byte	0
 2161 002a 00       		.byte	0
 2162 002b 04       		.uleb128 0x4
 2163 002c 24       		.uleb128 0x24
 2164 002d 00       		.byte	0
 2165 002e 0B       		.uleb128 0xb
 2166 002f 0B       		.uleb128 0xb
 2167 0030 3E       		.uleb128 0x3e
 2168 0031 0B       		.uleb128 0xb
 2169 0032 03       		.uleb128 0x3
 2170 0033 08       		.uleb128 0x8
 2171 0034 00       		.byte	0
 2172 0035 00       		.byte	0
ARM GAS  C:\Users\JC\AppData\Local\Temp\ccQnhWsL.s 			page 64


 2173 0036 05       		.uleb128 0x5
 2174 0037 35       		.uleb128 0x35
 2175 0038 00       		.byte	0
 2176 0039 49       		.uleb128 0x49
 2177 003a 13       		.uleb128 0x13
 2178 003b 00       		.byte	0
 2179 003c 00       		.byte	0
 2180 003d 06       		.uleb128 0x6
 2181 003e 26       		.uleb128 0x26
 2182 003f 00       		.byte	0
 2183 0040 49       		.uleb128 0x49
 2184 0041 13       		.uleb128 0x13
 2185 0042 00       		.byte	0
 2186 0043 00       		.byte	0
 2187 0044 07       		.uleb128 0x7
 2188 0045 01       		.uleb128 0x1
 2189 0046 01       		.byte	0x1
 2190 0047 49       		.uleb128 0x49
 2191 0048 13       		.uleb128 0x13
 2192 0049 01       		.uleb128 0x1
 2193 004a 13       		.uleb128 0x13
 2194 004b 00       		.byte	0
 2195 004c 00       		.byte	0
 2196 004d 08       		.uleb128 0x8
 2197 004e 21       		.uleb128 0x21
 2198 004f 00       		.byte	0
 2199 0050 49       		.uleb128 0x49
 2200 0051 13       		.uleb128 0x13
 2201 0052 2F       		.uleb128 0x2f
 2202 0053 0B       		.uleb128 0xb
 2203 0054 00       		.byte	0
 2204 0055 00       		.byte	0
 2205 0056 09       		.uleb128 0x9
 2206 0057 13       		.uleb128 0x13
 2207 0058 01       		.byte	0x1
 2208 0059 0B       		.uleb128 0xb
 2209 005a 0B       		.uleb128 0xb
 2210 005b 3A       		.uleb128 0x3a
 2211 005c 0B       		.uleb128 0xb
 2212 005d 3B       		.uleb128 0x3b
 2213 005e 0B       		.uleb128 0xb
 2214 005f 01       		.uleb128 0x1
 2215 0060 13       		.uleb128 0x13
 2216 0061 00       		.byte	0
 2217 0062 00       		.byte	0
 2218 0063 0A       		.uleb128 0xa
 2219 0064 0D       		.uleb128 0xd
 2220 0065 00       		.byte	0
 2221 0066 03       		.uleb128 0x3
 2222 0067 0E       		.uleb128 0xe
 2223 0068 3A       		.uleb128 0x3a
 2224 0069 0B       		.uleb128 0xb
 2225 006a 3B       		.uleb128 0x3b
 2226 006b 0B       		.uleb128 0xb
 2227 006c 49       		.uleb128 0x49
 2228 006d 13       		.uleb128 0x13
 2229 006e 38       		.uleb128 0x38
ARM GAS  C:\Users\JC\AppData\Local\Temp\ccQnhWsL.s 			page 65


 2230 006f 0B       		.uleb128 0xb
 2231 0070 00       		.byte	0
 2232 0071 00       		.byte	0
 2233 0072 0B       		.uleb128 0xb
 2234 0073 16       		.uleb128 0x16
 2235 0074 00       		.byte	0
 2236 0075 03       		.uleb128 0x3
 2237 0076 0E       		.uleb128 0xe
 2238 0077 3A       		.uleb128 0x3a
 2239 0078 0B       		.uleb128 0xb
 2240 0079 3B       		.uleb128 0x3b
 2241 007a 05       		.uleb128 0x5
 2242 007b 49       		.uleb128 0x49
 2243 007c 13       		.uleb128 0x13
 2244 007d 00       		.byte	0
 2245 007e 00       		.byte	0
 2246 007f 0C       		.uleb128 0xc
 2247 0080 04       		.uleb128 0x4
 2248 0081 01       		.byte	0x1
 2249 0082 0B       		.uleb128 0xb
 2250 0083 0B       		.uleb128 0xb
 2251 0084 49       		.uleb128 0x49
 2252 0085 13       		.uleb128 0x13
 2253 0086 3A       		.uleb128 0x3a
 2254 0087 0B       		.uleb128 0xb
 2255 0088 3B       		.uleb128 0x3b
 2256 0089 05       		.uleb128 0x5
 2257 008a 01       		.uleb128 0x1
 2258 008b 13       		.uleb128 0x13
 2259 008c 00       		.byte	0
 2260 008d 00       		.byte	0
 2261 008e 0D       		.uleb128 0xd
 2262 008f 28       		.uleb128 0x28
 2263 0090 00       		.byte	0
 2264 0091 03       		.uleb128 0x3
 2265 0092 0E       		.uleb128 0xe
 2266 0093 1C       		.uleb128 0x1c
 2267 0094 0B       		.uleb128 0xb
 2268 0095 00       		.byte	0
 2269 0096 00       		.byte	0
 2270 0097 0E       		.uleb128 0xe
 2271 0098 28       		.uleb128 0x28
 2272 0099 00       		.byte	0
 2273 009a 03       		.uleb128 0x3
 2274 009b 0E       		.uleb128 0xe
 2275 009c 1C       		.uleb128 0x1c
 2276 009d 06       		.uleb128 0x6
 2277 009e 00       		.byte	0
 2278 009f 00       		.byte	0
 2279 00a0 0F       		.uleb128 0xf
 2280 00a1 04       		.uleb128 0x4
 2281 00a2 01       		.byte	0x1
 2282 00a3 0B       		.uleb128 0xb
 2283 00a4 0B       		.uleb128 0xb
 2284 00a5 49       		.uleb128 0x49
 2285 00a6 13       		.uleb128 0x13
 2286 00a7 3A       		.uleb128 0x3a
ARM GAS  C:\Users\JC\AppData\Local\Temp\ccQnhWsL.s 			page 66


 2287 00a8 0B       		.uleb128 0xb
 2288 00a9 3B       		.uleb128 0x3b
 2289 00aa 0B       		.uleb128 0xb
 2290 00ab 01       		.uleb128 0x1
 2291 00ac 13       		.uleb128 0x13
 2292 00ad 00       		.byte	0
 2293 00ae 00       		.byte	0
 2294 00af 10       		.uleb128 0x10
 2295 00b0 0F       		.uleb128 0xf
 2296 00b1 00       		.byte	0
 2297 00b2 0B       		.uleb128 0xb
 2298 00b3 0B       		.uleb128 0xb
 2299 00b4 49       		.uleb128 0x49
 2300 00b5 13       		.uleb128 0x13
 2301 00b6 00       		.byte	0
 2302 00b7 00       		.byte	0
 2303 00b8 11       		.uleb128 0x11
 2304 00b9 2E       		.uleb128 0x2e
 2305 00ba 01       		.byte	0x1
 2306 00bb 03       		.uleb128 0x3
 2307 00bc 0E       		.uleb128 0xe
 2308 00bd 3A       		.uleb128 0x3a
 2309 00be 0B       		.uleb128 0xb
 2310 00bf 3B       		.uleb128 0x3b
 2311 00c0 05       		.uleb128 0x5
 2312 00c1 27       		.uleb128 0x27
 2313 00c2 19       		.uleb128 0x19
 2314 00c3 49       		.uleb128 0x49
 2315 00c4 13       		.uleb128 0x13
 2316 00c5 11       		.uleb128 0x11
 2317 00c6 01       		.uleb128 0x1
 2318 00c7 12       		.uleb128 0x12
 2319 00c8 06       		.uleb128 0x6
 2320 00c9 40       		.uleb128 0x40
 2321 00ca 18       		.uleb128 0x18
 2322 00cb 9642     		.uleb128 0x2116
 2323 00cd 19       		.uleb128 0x19
 2324 00ce 01       		.uleb128 0x1
 2325 00cf 13       		.uleb128 0x13
 2326 00d0 00       		.byte	0
 2327 00d1 00       		.byte	0
 2328 00d2 12       		.uleb128 0x12
 2329 00d3 05       		.uleb128 0x5
 2330 00d4 00       		.byte	0
 2331 00d5 03       		.uleb128 0x3
 2332 00d6 0E       		.uleb128 0xe
 2333 00d7 3A       		.uleb128 0x3a
 2334 00d8 0B       		.uleb128 0xb
 2335 00d9 3B       		.uleb128 0x3b
 2336 00da 05       		.uleb128 0x5
 2337 00db 49       		.uleb128 0x49
 2338 00dc 13       		.uleb128 0x13
 2339 00dd 02       		.uleb128 0x2
 2340 00de 18       		.uleb128 0x18
 2341 00df 00       		.byte	0
 2342 00e0 00       		.byte	0
 2343 00e1 13       		.uleb128 0x13
ARM GAS  C:\Users\JC\AppData\Local\Temp\ccQnhWsL.s 			page 67


 2344 00e2 2E       		.uleb128 0x2e
 2345 00e3 01       		.byte	0x1
 2346 00e4 03       		.uleb128 0x3
 2347 00e5 0E       		.uleb128 0xe
 2348 00e6 3A       		.uleb128 0x3a
 2349 00e7 0B       		.uleb128 0xb
 2350 00e8 3B       		.uleb128 0x3b
 2351 00e9 05       		.uleb128 0x5
 2352 00ea 27       		.uleb128 0x27
 2353 00eb 19       		.uleb128 0x19
 2354 00ec 49       		.uleb128 0x49
 2355 00ed 13       		.uleb128 0x13
 2356 00ee 11       		.uleb128 0x11
 2357 00ef 01       		.uleb128 0x1
 2358 00f0 12       		.uleb128 0x12
 2359 00f1 06       		.uleb128 0x6
 2360 00f2 40       		.uleb128 0x40
 2361 00f3 18       		.uleb128 0x18
 2362 00f4 9742     		.uleb128 0x2117
 2363 00f6 19       		.uleb128 0x19
 2364 00f7 01       		.uleb128 0x1
 2365 00f8 13       		.uleb128 0x13
 2366 00f9 00       		.byte	0
 2367 00fa 00       		.byte	0
 2368 00fb 14       		.uleb128 0x14
 2369 00fc 26       		.uleb128 0x26
 2370 00fd 00       		.byte	0
 2371 00fe 00       		.byte	0
 2372 00ff 00       		.byte	0
 2373 0100 15       		.uleb128 0x15
 2374 0101 2E       		.uleb128 0x2e
 2375 0102 01       		.byte	0x1
 2376 0103 3F       		.uleb128 0x3f
 2377 0104 19       		.uleb128 0x19
 2378 0105 03       		.uleb128 0x3
 2379 0106 0E       		.uleb128 0xe
 2380 0107 3A       		.uleb128 0x3a
 2381 0108 0B       		.uleb128 0xb
 2382 0109 3B       		.uleb128 0x3b
 2383 010a 0B       		.uleb128 0xb
 2384 010b 27       		.uleb128 0x27
 2385 010c 19       		.uleb128 0x19
 2386 010d 49       		.uleb128 0x49
 2387 010e 13       		.uleb128 0x13
 2388 010f 11       		.uleb128 0x11
 2389 0110 01       		.uleb128 0x1
 2390 0111 12       		.uleb128 0x12
 2391 0112 06       		.uleb128 0x6
 2392 0113 40       		.uleb128 0x40
 2393 0114 18       		.uleb128 0x18
 2394 0115 9642     		.uleb128 0x2116
 2395 0117 19       		.uleb128 0x19
 2396 0118 01       		.uleb128 0x1
 2397 0119 13       		.uleb128 0x13
 2398 011a 00       		.byte	0
 2399 011b 00       		.byte	0
 2400 011c 16       		.uleb128 0x16
ARM GAS  C:\Users\JC\AppData\Local\Temp\ccQnhWsL.s 			page 68


 2401 011d 05       		.uleb128 0x5
 2402 011e 00       		.byte	0
 2403 011f 03       		.uleb128 0x3
 2404 0120 0E       		.uleb128 0xe
 2405 0121 3A       		.uleb128 0x3a
 2406 0122 0B       		.uleb128 0xb
 2407 0123 3B       		.uleb128 0x3b
 2408 0124 0B       		.uleb128 0xb
 2409 0125 49       		.uleb128 0x49
 2410 0126 13       		.uleb128 0x13
 2411 0127 02       		.uleb128 0x2
 2412 0128 18       		.uleb128 0x18
 2413 0129 00       		.byte	0
 2414 012a 00       		.byte	0
 2415 012b 17       		.uleb128 0x17
 2416 012c 34       		.uleb128 0x34
 2417 012d 00       		.byte	0
 2418 012e 03       		.uleb128 0x3
 2419 012f 0E       		.uleb128 0xe
 2420 0130 3A       		.uleb128 0x3a
 2421 0131 0B       		.uleb128 0xb
 2422 0132 3B       		.uleb128 0x3b
 2423 0133 0B       		.uleb128 0xb
 2424 0134 49       		.uleb128 0x49
 2425 0135 13       		.uleb128 0x13
 2426 0136 02       		.uleb128 0x2
 2427 0137 18       		.uleb128 0x18
 2428 0138 00       		.byte	0
 2429 0139 00       		.byte	0
 2430 013a 18       		.uleb128 0x18
 2431 013b 2E       		.uleb128 0x2e
 2432 013c 01       		.byte	0x1
 2433 013d 3F       		.uleb128 0x3f
 2434 013e 19       		.uleb128 0x19
 2435 013f 03       		.uleb128 0x3
 2436 0140 0E       		.uleb128 0xe
 2437 0141 3A       		.uleb128 0x3a
 2438 0142 0B       		.uleb128 0xb
 2439 0143 3B       		.uleb128 0x3b
 2440 0144 05       		.uleb128 0x5
 2441 0145 27       		.uleb128 0x27
 2442 0146 19       		.uleb128 0x19
 2443 0147 49       		.uleb128 0x49
 2444 0148 13       		.uleb128 0x13
 2445 0149 11       		.uleb128 0x11
 2446 014a 01       		.uleb128 0x1
 2447 014b 12       		.uleb128 0x12
 2448 014c 06       		.uleb128 0x6
 2449 014d 40       		.uleb128 0x40
 2450 014e 18       		.uleb128 0x18
 2451 014f 9642     		.uleb128 0x2116
 2452 0151 19       		.uleb128 0x19
 2453 0152 01       		.uleb128 0x1
 2454 0153 13       		.uleb128 0x13
 2455 0154 00       		.byte	0
 2456 0155 00       		.byte	0
 2457 0156 19       		.uleb128 0x19
ARM GAS  C:\Users\JC\AppData\Local\Temp\ccQnhWsL.s 			page 69


 2458 0157 34       		.uleb128 0x34
 2459 0158 00       		.byte	0
 2460 0159 03       		.uleb128 0x3
 2461 015a 0E       		.uleb128 0xe
 2462 015b 3A       		.uleb128 0x3a
 2463 015c 0B       		.uleb128 0xb
 2464 015d 3B       		.uleb128 0x3b
 2465 015e 05       		.uleb128 0x5
 2466 015f 49       		.uleb128 0x49
 2467 0160 13       		.uleb128 0x13
 2468 0161 02       		.uleb128 0x2
 2469 0162 18       		.uleb128 0x18
 2470 0163 00       		.byte	0
 2471 0164 00       		.byte	0
 2472 0165 1A       		.uleb128 0x1a
 2473 0166 34       		.uleb128 0x34
 2474 0167 00       		.byte	0
 2475 0168 03       		.uleb128 0x3
 2476 0169 0E       		.uleb128 0xe
 2477 016a 3A       		.uleb128 0x3a
 2478 016b 0B       		.uleb128 0xb
 2479 016c 3B       		.uleb128 0x3b
 2480 016d 0B       		.uleb128 0xb
 2481 016e 49       		.uleb128 0x49
 2482 016f 13       		.uleb128 0x13
 2483 0170 3F       		.uleb128 0x3f
 2484 0171 19       		.uleb128 0x19
 2485 0172 3C       		.uleb128 0x3c
 2486 0173 19       		.uleb128 0x19
 2487 0174 00       		.byte	0
 2488 0175 00       		.byte	0
 2489 0176 00       		.byte	0
 2490              		.section	.debug_aranges,"",%progbits
 2491 0000 64000000 		.4byte	0x64
 2492 0004 0200     		.2byte	0x2
 2493 0006 00000000 		.4byte	.Ldebug_info0
 2494 000a 04       		.byte	0x4
 2495 000b 00       		.byte	0
 2496 000c 0000     		.2byte	0
 2497 000e 0000     		.2byte	0
 2498 0010 00000000 		.4byte	.LFB45
 2499 0014 50000000 		.4byte	.LFE45-.LFB45
 2500 0018 00000000 		.4byte	.LFB56
 2501 001c 14000000 		.4byte	.LFE56-.LFB56
 2502 0020 00000000 		.4byte	.LFB61
 2503 0024 3C000000 		.4byte	.LFE61-.LFB61
 2504 0028 00000000 		.4byte	.LFB63
 2505 002c 24000000 		.4byte	.LFE63-.LFB63
 2506 0030 00000000 		.4byte	.LFB64
 2507 0034 74000000 		.4byte	.LFE64-.LFB64
 2508 0038 00000000 		.4byte	.LFB65
 2509 003c B8000000 		.4byte	.LFE65-.LFB65
 2510 0040 00000000 		.4byte	.LFB66
 2511 0044 E4000000 		.4byte	.LFE66-.LFB66
 2512 0048 00000000 		.4byte	.LFB67
 2513 004c E4000000 		.4byte	.LFE67-.LFB67
 2514 0050 00000000 		.4byte	.LFB68
ARM GAS  C:\Users\JC\AppData\Local\Temp\ccQnhWsL.s 			page 70


 2515 0054 74000000 		.4byte	.LFE68-.LFB68
 2516 0058 00000000 		.4byte	.LFB69
 2517 005c 24000000 		.4byte	.LFE69-.LFB69
 2518 0060 00000000 		.4byte	0
 2519 0064 00000000 		.4byte	0
 2520              		.section	.debug_ranges,"",%progbits
 2521              	.Ldebug_ranges0:
 2522 0000 00000000 		.4byte	.LFB45
 2523 0004 50000000 		.4byte	.LFE45
 2524 0008 00000000 		.4byte	.LFB56
 2525 000c 14000000 		.4byte	.LFE56
 2526 0010 00000000 		.4byte	.LFB61
 2527 0014 3C000000 		.4byte	.LFE61
 2528 0018 00000000 		.4byte	.LFB63
 2529 001c 24000000 		.4byte	.LFE63
 2530 0020 00000000 		.4byte	.LFB64
 2531 0024 74000000 		.4byte	.LFE64
 2532 0028 00000000 		.4byte	.LFB65
 2533 002c B8000000 		.4byte	.LFE65
 2534 0030 00000000 		.4byte	.LFB66
 2535 0034 E4000000 		.4byte	.LFE66
 2536 0038 00000000 		.4byte	.LFB67
 2537 003c E4000000 		.4byte	.LFE67
 2538 0040 00000000 		.4byte	.LFB68
 2539 0044 74000000 		.4byte	.LFE68
 2540 0048 00000000 		.4byte	.LFB69
 2541 004c 24000000 		.4byte	.LFE69
 2542 0050 00000000 		.4byte	0
 2543 0054 00000000 		.4byte	0
 2544              		.section	.debug_line,"",%progbits
 2545              	.Ldebug_line0:
 2546 0000 BA030000 		.section	.debug_str,"MS",%progbits,1
 2546      02008402 
 2546      00000201 
 2546      FB0E0D00 
 2546      01010101 
 2547              	.LASF126:
 2548 0000 43595F49 		.ascii	"CY_IPC_SEMA_NOT_ACQUIRED\000"
 2548      50435F53 
 2548      454D415F 
 2548      4E4F545F 
 2548      41435155 
 2549              	.LASF143:
 2550 0019 636F756E 		.ascii	"count\000"
 2550      7400
 2551              	.LASF71:
 2552 001f 666C6173 		.ascii	"flashCtlMainWs3Freq\000"
 2552      6843746C 
 2552      4D61696E 
 2552      57733346 
 2552      72657100 
 2553              	.LASF93:
 2554 0033 6770696F 		.ascii	"gpioPrtCfgInOffset\000"
 2554      50727443 
 2554      6667496E 
 2554      4F666673 
 2554      657400
ARM GAS  C:\Users\JC\AppData\Local\Temp\ccQnhWsL.s 			page 71


 2555              	.LASF111:
 2556 0046 6970634C 		.ascii	"ipcLockStatusOffset\000"
 2556      6F636B53 
 2556      74617475 
 2556      734F6666 
 2556      73657400 
 2557              	.LASF163:
 2558 005a 47656E65 		.ascii	"Generated_Source\\PSoC6\\pdl\\drivers\\peripheral\\"
 2558      72617465 
 2558      645F536F 
 2558      75726365 
 2558      5C50536F 
 2559 0088 6970635C 		.ascii	"ipc\\cy_ipc_sema.c\000"
 2559      63795F69 
 2559      70635F73 
 2559      656D612E 
 2559      6300
 2560              	.LASF37:
 2561 009a 63727970 		.ascii	"cryptoVersion\000"
 2561      746F5665 
 2561      7273696F 
 2561      6E00
 2562              	.LASF119:
 2563 00a8 43595F49 		.ascii	"CY_IPC_DRV_ERROR\000"
 2563      50435F44 
 2563      52565F45 
 2563      52524F52 
 2563      00
 2564              	.LASF33:
 2565 00b9 70617373 		.ascii	"passBase\000"
 2565      42617365 
 2565      00
 2566              	.LASF82:
 2567 00c2 70657269 		.ascii	"periTrGrSize\000"
 2567      54724772 
 2567      53697A65 
 2567      00
 2568              	.LASF46:
 2569 00cf 63707573 		.ascii	"cpussIpcIrqNr\000"
 2569      73497063 
 2569      4972714E 
 2569      7200
 2570              	.LASF2:
 2571 00dd 5F5F7569 		.ascii	"__uint8_t\000"
 2571      6E74385F 
 2571      7400
 2572              	.LASF90:
 2573 00e7 70657269 		.ascii	"periDiv24_5CtlOffset\000"
 2573      44697632 
 2573      345F3543 
 2573      746C4F66 
 2573      66736574 
 2574              	.LASF97:
 2575 00fc 63707573 		.ascii	"cpussCm4ClockCtlOffset\000"
 2575      73436D34 
 2575      436C6F63 
 2575      6B43746C 
ARM GAS  C:\Users\JC\AppData\Local\Temp\ccQnhWsL.s 			page 72


 2575      4F666673 
 2576              	.LASF20:
 2577 0113 52454C45 		.ascii	"RELEASE\000"
 2577      41534500 
 2578              	.LASF26:
 2579 011b 63707573 		.ascii	"cpussBase\000"
 2579      73426173 
 2579      6500
 2580              	.LASF75:
 2581 0125 64774368 		.ascii	"dwChCtlPrioPos\000"
 2581      43746C50 
 2581      72696F50 
 2581      6F7300
 2582              	.LASF55:
 2583 0134 70657269 		.ascii	"periClockNr\000"
 2583      436C6F63 
 2583      6B4E7200 
 2584              	.LASF151:
 2585 0140 73656D61 		.ascii	"semaNumber\000"
 2585      4E756D62 
 2585      657200
 2586              	.LASF11:
 2587 014b 6C6F6E67 		.ascii	"long long unsigned int\000"
 2587      206C6F6E 
 2587      6720756E 
 2587      7369676E 
 2587      65642069 
 2588              	.LASF63:
 2589 0162 666C6173 		.ascii	"flashRwwRequired\000"
 2589      68527777 
 2589      52657175 
 2589      69726564 
 2589      00
 2590              	.LASF79:
 2591 0173 70657269 		.ascii	"periTrCmdOffset\000"
 2591      5472436D 
 2591      644F6666 
 2591      73657400 
 2592              	.LASF103:
 2593 0183 63707573 		.ascii	"cpussSysTickCtlOffset\000"
 2593      73537973 
 2593      5469636B 
 2593      43746C4F 
 2593      66667365 
 2594              	.LASF156:
 2595 0199 73656D61 		.ascii	"semaStruct\000"
 2595      53747275 
 2595      637400
 2596              	.LASF64:
 2597 01a4 666C6173 		.ascii	"flashPipeRequired\000"
 2597      68506970 
 2597      65526571 
 2597      75697265 
 2597      6400
 2598              	.LASF68:
 2599 01b6 666C6173 		.ascii	"flashCtlMainWs0Freq\000"
 2599      6843746C 
ARM GAS  C:\Users\JC\AppData\Local\Temp\ccQnhWsL.s 			page 73


 2599      4D61696E 
 2599      57733046 
 2599      72657100 
 2600              	.LASF14:
 2601 01ca 696E7431 		.ascii	"int16_t\000"
 2601      365F7400 
 2602              	.LASF10:
 2603 01d2 6C6F6E67 		.ascii	"long long int\000"
 2603      206C6F6E 
 2603      6720696E 
 2603      7400
 2604              	.LASF0:
 2605 01e0 7369676E 		.ascii	"signed char\000"
 2605      65642063 
 2605      68617200 
 2606              	.LASF84:
 2607 01ec 70657269 		.ascii	"periDivCmdTypeSelPos\000"
 2607      44697643 
 2607      6D645479 
 2607      70655365 
 2607      6C506F73 
 2608              	.LASF19:
 2609 0201 41435155 		.ascii	"ACQUIRE\000"
 2609      49524500 
 2610              	.LASF101:
 2611 0209 63707573 		.ascii	"cpussTrimRamCtlOffset\000"
 2611      73547269 
 2611      6D52616D 
 2611      43746C4F 
 2611      66667365 
 2612              	.LASF42:
 2613 021f 69706356 		.ascii	"ipcVersion\000"
 2613      65727369 
 2613      6F6E00
 2614              	.LASF144:
 2615 022a 6D656D50 		.ascii	"memPtr\000"
 2615      747200
 2616              	.LASF104:
 2617 0231 63707573 		.ascii	"cpussCm0NmiCtlOffset\000"
 2617      73436D30 
 2617      4E6D6943 
 2617      746C4F66 
 2617      66736574 
 2618              	.LASF139:
 2619 0246 6E6F7469 		.ascii	"notifyEventIntr\000"
 2619      66794576 
 2619      656E7449 
 2619      6E747200 
 2620              	.LASF154:
 2621 0256 73656D61 		.ascii	"semaMask\000"
 2621      4D61736B 
 2621      00
 2622              	.LASF31:
 2623 025f 6873696F 		.ascii	"hsiomBase\000"
 2623      6D426173 
 2623      6500
 2624              	.LASF7:
ARM GAS  C:\Users\JC\AppData\Local\Temp\ccQnhWsL.s 			page 74


 2625 0269 6C6F6E67 		.ascii	"long int\000"
 2625      20696E74 
 2625      00
 2626              	.LASF147:
 2627 0272 43795F49 		.ascii	"Cy_IPC_Sema_Init\000"
 2627      50435F53 
 2627      656D615F 
 2627      496E6974 
 2627      00
 2628              	.LASF62:
 2629 0283 63727970 		.ascii	"cryptoMemSize\000"
 2629      746F4D65 
 2629      6D53697A 
 2629      6500
 2630              	.LASF12:
 2631 0291 756E7369 		.ascii	"unsigned int\000"
 2631      676E6564 
 2631      20696E74 
 2631      00
 2632              	.LASF28:
 2633 029e 70657269 		.ascii	"periBase\000"
 2633      42617365 
 2633      00
 2634              	.LASF60:
 2635 02a7 73797350 		.ascii	"sysPmSimoPresent\000"
 2635      6D53696D 
 2635      6F507265 
 2635      73656E74 
 2635      00
 2636              	.LASF50:
 2637 02b8 63707573 		.ascii	"cpussFmIrq\000"
 2637      73466D49 
 2637      727100
 2638              	.LASF117:
 2639 02c3 646F7562 		.ascii	"double\000"
 2639      6C6500
 2640              	.LASF89:
 2641 02ca 70657269 		.ascii	"periDiv16_5CtlOffset\000"
 2641      44697631 
 2641      365F3543 
 2641      746C4F66 
 2641      66736574 
 2642              	.LASF53:
 2643 02df 73727373 		.ascii	"srssNumPll\000"
 2643      4E756D50 
 2643      6C6C00
 2644              	.LASF87:
 2645 02ea 70657269 		.ascii	"periDiv8CtlOffset\000"
 2645      44697638 
 2645      43746C4F 
 2645      66667365 
 2645      7400
 2646              	.LASF6:
 2647 02fc 73686F72 		.ascii	"short unsigned int\000"
 2647      7420756E 
 2647      7369676E 
 2647      65642069 
ARM GAS  C:\Users\JC\AppData\Local\Temp\ccQnhWsL.s 			page 75


 2647      6E7400
 2648              	.LASF94:
 2649 030f 6770696F 		.ascii	"gpioPrtCfgOutOffset\000"
 2649      50727443 
 2649      66674F75 
 2649      744F6666 
 2649      73657400 
 2650              	.LASF136:
 2651 0323 69706349 		.ascii	"ipcIndex\000"
 2651      6E646578 
 2651      00
 2652              	.LASF27:
 2653 032c 666C6173 		.ascii	"flashcBase\000"
 2653      68634261 
 2653      736500
 2654              	.LASF8:
 2655 0337 5F5F7569 		.ascii	"__uint32_t\000"
 2655      6E743332 
 2655      5F7400
 2656              	.LASF57:
 2657 0342 70617373 		.ascii	"passSarChannels\000"
 2657      53617243 
 2657      68616E6E 
 2657      656C7300 
 2658              	.LASF23:
 2659 0352 4C4F434B 		.ascii	"LOCK_STATUS\000"
 2659      5F535441 
 2659      54555300 
 2660              	.LASF122:
 2661 035e 43595F49 		.ascii	"CY_IPC_SEMA_ERROR_LOCKED\000"
 2661      50435F53 
 2661      454D415F 
 2661      4552524F 
 2661      525F4C4F 
 2662              	.LASF3:
 2663 0377 5F5F696E 		.ascii	"__int16_t\000"
 2663      7431365F 
 2663      7400
 2664              	.LASF132:
 2665 0381 61727261 		.ascii	"arrayPtr\000"
 2665      79507472 
 2665      00
 2666              	.LASF118:
 2667 038a 43595F49 		.ascii	"CY_IPC_DRV_SUCCESS\000"
 2667      50435F44 
 2667      52565F53 
 2667      55434345 
 2667      535300
 2668              	.LASF100:
 2669 039d 63707573 		.ascii	"cpussCm4PwrCtlOffset\000"
 2669      73436D34 
 2669      50777243 
 2669      746C4F66 
 2669      66736574 
 2670              	.LASF95:
 2671 03b2 6770696F 		.ascii	"gpioPrtCfgSioOffset\000"
 2671      50727443 
ARM GAS  C:\Users\JC\AppData\Local\Temp\ccQnhWsL.s 			page 76


 2671      66675369 
 2671      6F4F6666 
 2671      73657400 
 2672              	.LASF47:
 2673 03c6 63707573 		.ascii	"cpussDwChNr\000"
 2673      73447743 
 2673      684E7200 
 2674              	.LASF160:
 2675 03d2 43795F49 		.ascii	"Cy_IPC_Sema_GetMaxSems\000"
 2675      50435F53 
 2675      656D615F 
 2675      4765744D 
 2675      61785365 
 2676              	.LASF15:
 2677 03e9 75696E74 		.ascii	"uint16_t\000"
 2677      31365F74 
 2677      00
 2678              	.LASF114:
 2679 03f2 63686172 		.ascii	"char_t\000"
 2679      5F7400
 2680              	.LASF80:
 2681 03f9 70657269 		.ascii	"periTrCmdGrSelMsk\000"
 2681      5472436D 
 2681      64477253 
 2681      656C4D73 
 2681      6B00
 2682              	.LASF121:
 2683 040b 43595F49 		.ascii	"CY_IPC_SEMA_SUCCESS\000"
 2683      50435F53 
 2683      454D415F 
 2683      53554343 
 2683      45535300 
 2684              	.LASF9:
 2685 041f 6C6F6E67 		.ascii	"long unsigned int\000"
 2685      20756E73 
 2685      69676E65 
 2685      6420696E 
 2685      7400
 2686              	.LASF155:
 2687 0431 696E7465 		.ascii	"interruptState\000"
 2687      72727570 
 2687      74537461 
 2687      746500
 2688              	.LASF164:
 2689 0440 443A5C4F 		.ascii	"D:\\OneDrive - UNSW\\Documents\\thesis\\VDAC_Saw_Ex"
 2689      6E654472 
 2689      69766520 
 2689      2D20554E 
 2689      53575C44 
 2690 046f 706F7274 		.ascii	"port.cydsn\000"
 2690      2E637964 
 2690      736E00
 2691              	.LASF45:
 2692 047a 63707573 		.ascii	"cpussIpcNr\000"
 2692      73497063 
 2692      4E7200
 2693              	.LASF127:
ARM GAS  C:\Users\JC\AppData\Local\Temp\ccQnhWsL.s 			page 77


 2694 0485 43595F49 		.ascii	"CY_IPC_SEMA_LOCKED\000"
 2694      50435F53 
 2694      454D415F 
 2694      4C4F434B 
 2694      454400
 2695              	.LASF32:
 2696 0498 6770696F 		.ascii	"gpioBase\000"
 2696      42617365 
 2696      00
 2697              	.LASF70:
 2698 04a1 666C6173 		.ascii	"flashCtlMainWs2Freq\000"
 2698      6843746C 
 2698      4D61696E 
 2698      57733246 
 2698      72657100 
 2699              	.LASF142:
 2700 04b5 69706343 		.ascii	"ipcChannel\000"
 2700      68616E6E 
 2700      656C00
 2701              	.LASF148:
 2702 04c0 43795F49 		.ascii	"Cy_IPC_Sema_InitExt\000"
 2702      50435F53 
 2702      656D615F 
 2702      496E6974 
 2702      45787400 
 2703              	.LASF108:
 2704 04d4 63707573 		.ascii	"cpussRam1Ctl0\000"
 2704      7352616D 
 2704      3143746C 
 2704      3000
 2705              	.LASF140:
 2706 04e2 6D736750 		.ascii	"msgPtr\000"
 2706      747200
 2707              	.LASF22:
 2708 04e9 44415441 		.ascii	"DATA\000"
 2708      00
 2709              	.LASF120:
 2710 04ee 63795F65 		.ascii	"cy_en_ipcdrv_status_t\000"
 2710      6E5F6970 
 2710      63647276 
 2710      5F737461 
 2710      7475735F 
 2711              	.LASF162:
 2712 0504 474E5520 		.ascii	"GNU C11 5.4.1 20160609 (release) [ARM/embedded-5-br"
 2712      43313120 
 2712      352E342E 
 2712      31203230 
 2712      31363036 
 2713 0537 616E6368 		.ascii	"anch revision 237715] -mcpu=cortex-m0plus -mthumb -"
 2713      20726576 
 2713      6973696F 
 2713      6E203233 
 2713      37373135 
 2714 056a 67202D4F 		.ascii	"g -O0 -ffunction-sections -ffat-lto-objects\000"
 2714      30202D66 
 2714      66756E63 
 2714      74696F6E 
ARM GAS  C:\Users\JC\AppData\Local\Temp\ccQnhWsL.s 			page 78


 2714      2D736563 
 2715              	.LASF40:
 2716 0596 6770696F 		.ascii	"gpioVersion\000"
 2716      56657273 
 2716      696F6E00 
 2717              	.LASF128:
 2718 05a2 43595F49 		.ascii	"CY_IPC_SEMA_STATUS_LOCKED\000"
 2718      50435F53 
 2718      454D415F 
 2718      53544154 
 2718      55535F4C 
 2719              	.LASF141:
 2720 05bc 43795F49 		.ascii	"Cy_IPC_Drv_LockAcquire\000"
 2720      50435F44 
 2720      72765F4C 
 2720      6F636B41 
 2720      63717569 
 2721              	.LASF112:
 2722 05d3 63795F73 		.ascii	"cy_stc_device_t\000"
 2722      74635F64 
 2722      65766963 
 2722      655F7400 
 2723              	.LASF21:
 2724 05e3 4E4F5449 		.ascii	"NOTIFY\000"
 2724      465900
 2725              	.LASF58:
 2726 05ea 65704D6F 		.ascii	"epMonitorNr\000"
 2726      6E69746F 
 2726      724E7200 
 2727              	.LASF105:
 2728 05f6 63707573 		.ascii	"cpussCm4NmiCtlOffset\000"
 2728      73436D34 
 2728      4E6D6943 
 2728      746C4F66 
 2728      66736574 
 2729              	.LASF36:
 2730 060b 63707573 		.ascii	"cpussVersion\000"
 2730      73566572 
 2730      73696F6E 
 2730      00
 2731              	.LASF96:
 2732 0618 63707573 		.ascii	"cpussCm0ClockCtlOffset\000"
 2732      73436D30 
 2732      436C6F63 
 2732      6B43746C 
 2732      4F666673 
 2733              	.LASF123:
 2734 062f 43595F49 		.ascii	"CY_IPC_SEMA_ERROR_UNLOCKED\000"
 2734      50435F53 
 2734      454D415F 
 2734      4552524F 
 2734      525F554E 
 2735              	.LASF125:
 2736 064a 43595F49 		.ascii	"CY_IPC_SEMA_OUT_OF_RANGE\000"
 2736      50435F53 
 2736      454D415F 
 2736      4F55545F 
ARM GAS  C:\Users\JC\AppData\Local\Temp\ccQnhWsL.s 			page 79


 2736      4F465F52 
 2737              	.LASF61:
 2738 0663 70726F74 		.ascii	"protBusMasterMask\000"
 2738      4275734D 
 2738      61737465 
 2738      724D6173 
 2738      6B00
 2739              	.LASF35:
 2740 0675 63727970 		.ascii	"cryptoBase\000"
 2740      746F4261 
 2740      736500
 2741              	.LASF137:
 2742 0680 62617365 		.ascii	"base\000"
 2742      00
 2743              	.LASF43:
 2744 0685 70657269 		.ascii	"periVersion\000"
 2744      56657273 
 2744      696F6E00 
 2745              	.LASF131:
 2746 0691 6D617853 		.ascii	"maxSema\000"
 2746      656D6100 
 2747              	.LASF18:
 2748 0699 73697A65 		.ascii	"sizetype\000"
 2748      74797065 
 2748      00
 2749              	.LASF73:
 2750 06a2 64774368 		.ascii	"dwChOffset\000"
 2750      4F666673 
 2750      657400
 2751              	.LASF48:
 2752 06ad 63707573 		.ascii	"cpussFlashPaSize\000"
 2752      73466C61 
 2752      73685061 
 2752      53697A65 
 2752      00
 2753              	.LASF86:
 2754 06be 70657269 		.ascii	"periDivCmdPaTypeSelPos\000"
 2754      44697643 
 2754      6D645061 
 2754      54797065 
 2754      53656C50 
 2755              	.LASF109:
 2756 06d5 63707573 		.ascii	"cpussRam2Ctl0\000"
 2756      7352616D 
 2756      3243746C 
 2756      3000
 2757              	.LASF77:
 2758 06e3 64775374 		.ascii	"dwStatusChIdxPos\000"
 2758      61747573 
 2758      43684964 
 2758      78506F73 
 2758      00
 2759              	.LASF129:
 2760 06f4 43595F49 		.ascii	"CY_IPC_SEMA_STATUS_UNLOCKED\000"
 2760      50435F53 
 2760      454D415F 
 2760      53544154 
ARM GAS  C:\Users\JC\AppData\Local\Temp\ccQnhWsL.s 			page 80


 2760      55535F55 
 2761              	.LASF59:
 2762 0710 75646250 		.ascii	"udbPresent\000"
 2762      72657365 
 2762      6E7400
 2763              	.LASF158:
 2764 071b 43795F49 		.ascii	"Cy_IPC_Sema_Clear\000"
 2764      50435F53 
 2764      656D615F 
 2764      436C6561 
 2764      7200
 2765              	.LASF149:
 2766 072d 69706353 		.ascii	"ipcSema\000"
 2766      656D6100 
 2767              	.LASF56:
 2768 0735 736D6966 		.ascii	"smifDeviceNr\000"
 2768      44657669 
 2768      63654E72 
 2768      00
 2769              	.LASF116:
 2770 0742 666C6F61 		.ascii	"float\000"
 2770      7400
 2771              	.LASF78:
 2772 0748 64775374 		.ascii	"dwStatusChIdxMsk\000"
 2772      61747573 
 2772      43684964 
 2772      784D736B 
 2772      00
 2773              	.LASF81:
 2774 0759 70657269 		.ascii	"periTrGrOffset\000"
 2774      54724772 
 2774      4F666673 
 2774      657400
 2775              	.LASF165:
 2776 0768 63795F64 		.ascii	"cy_device\000"
 2776      65766963 
 2776      6500
 2777              	.LASF106:
 2778 0772 63707573 		.ascii	"cpussRomCtl\000"
 2778      73526F6D 
 2778      43746C00 
 2779              	.LASF76:
 2780 077e 64774368 		.ascii	"dwChCtlPreemptablePos\000"
 2780      43746C50 
 2780      7265656D 
 2780      70746162 
 2780      6C65506F 
 2781              	.LASF39:
 2782 0794 666C6173 		.ascii	"flashcVersion\000"
 2782      68635665 
 2782      7273696F 
 2782      6E00
 2783              	.LASF138:
 2784 07a2 43795F49 		.ascii	"Cy_IPC_Drv_SendMsgPtr\000"
 2784      50435F44 
 2784      72765F53 
 2784      656E644D 
ARM GAS  C:\Users\JC\AppData\Local\Temp\ccQnhWsL.s 			page 81


 2784      73675074 
 2785              	.LASF124:
 2786 07b8 43595F49 		.ascii	"CY_IPC_SEMA_BAD_PARAM\000"
 2786      50435F53 
 2786      454D415F 
 2786      4241445F 
 2786      50415241 
 2787              	.LASF29:
 2788 07ce 75646242 		.ascii	"udbBase\000"
 2788      61736500 
 2789              	.LASF157:
 2790 07d6 5F426F6F 		.ascii	"_Bool\000"
 2790      6C00
 2791              	.LASF1:
 2792 07dc 756E7369 		.ascii	"unsigned char\000"
 2792      676E6564 
 2792      20636861 
 2792      7200
 2793              	.LASF72:
 2794 07ea 666C6173 		.ascii	"flashCtlMainWs4Freq\000"
 2794      6843746C 
 2794      4D61696E 
 2794      57733446 
 2794      72657100 
 2795              	.LASF99:
 2796 07fe 63707573 		.ascii	"cpussCm0StatusOffset\000"
 2796      73436D30 
 2796      53746174 
 2796      75734F66 
 2796      66736574 
 2797              	.LASF4:
 2798 0813 73686F72 		.ascii	"short int\000"
 2798      7420696E 
 2798      7400
 2799              	.LASF25:
 2800 081d 4950435F 		.ascii	"IPC_STRUCT_V1_Type\000"
 2800      53545255 
 2800      43545F56 
 2800      315F5479 
 2800      706500
 2801              	.LASF24:
 2802 0830 52455345 		.ascii	"RESERVED\000"
 2802      52564544 
 2802      00
 2803              	.LASF83:
 2804 0839 70657269 		.ascii	"periDivCmdDivSelMsk\000"
 2804      44697643 
 2804      6D644469 
 2804      7653656C 
 2804      4D736B00 
 2805              	.LASF54:
 2806 084d 73727373 		.ascii	"srssNumHfroot\000"
 2806      4E756D48 
 2806      66726F6F 
 2806      7400
 2807              	.LASF67:
 2808 085b 666C6173 		.ascii	"flashEraseDelay\000"
ARM GAS  C:\Users\JC\AppData\Local\Temp\ccQnhWsL.s 			page 82


 2808      68457261 
 2808      73654465 
 2808      6C617900 
 2809              	.LASF16:
 2810 086b 75696E74 		.ascii	"uint32_t\000"
 2810      33325F74 
 2810      00
 2811              	.LASF159:
 2812 0874 43795F49 		.ascii	"Cy_IPC_Sema_Status\000"
 2812      50435F53 
 2812      656D615F 
 2812      53746174 
 2812      757300
 2813              	.LASF17:
 2814 0887 6C6F6E67 		.ascii	"long double\000"
 2814      20646F75 
 2814      626C6500 
 2815              	.LASF115:
 2816 0893 63686172 		.ascii	"char\000"
 2816      00
 2817              	.LASF44:
 2818 0898 70726F74 		.ascii	"protVersion\000"
 2818      56657273 
 2818      696F6E00 
 2819              	.LASF107:
 2820 08a4 63707573 		.ascii	"cpussRam0Ctl0\000"
 2820      7352616D 
 2820      3043746C 
 2820      3000
 2821              	.LASF153:
 2822 08b2 73656D61 		.ascii	"semaIndex\000"
 2822      496E6465 
 2822      7800
 2823              	.LASF5:
 2824 08bc 5F5F7569 		.ascii	"__uint16_t\000"
 2824      6E743136 
 2824      5F7400
 2825              	.LASF88:
 2826 08c7 70657269 		.ascii	"periDiv16CtlOffset\000"
 2826      44697631 
 2826      3643746C 
 2826      4F666673 
 2826      657400
 2827              	.LASF41:
 2828 08da 6873696F 		.ascii	"hsiomVersion\000"
 2828      6D566572 
 2828      73696F6E 
 2828      00
 2829              	.LASF135:
 2830 08e7 43795F49 		.ascii	"Cy_IPC_Drv_ReadDataValue\000"
 2830      50435F44 
 2830      72765F52 
 2830      65616444 
 2830      61746156 
 2831              	.LASF69:
 2832 0900 666C6173 		.ascii	"flashCtlMainWs1Freq\000"
 2832      6843746C 
ARM GAS  C:\Users\JC\AppData\Local\Temp\ccQnhWsL.s 			page 83


 2832      4D61696E 
 2832      57733146 
 2832      72657100 
 2833              	.LASF130:
 2834 0914 63795F65 		.ascii	"cy_en_ipcsema_status_t\000"
 2834      6E5F6970 
 2834      6373656D 
 2834      615F7374 
 2834      61747573 
 2835              	.LASF74:
 2836 092b 64774368 		.ascii	"dwChSize\000"
 2836      53697A65 
 2836      00
 2837              	.LASF145:
 2838 0934 63795F73 		.ascii	"cy_semaData\000"
 2838      656D6144 
 2838      61746100 
 2839              	.LASF110:
 2840 0940 69706353 		.ascii	"ipcStructSize\000"
 2840      74727563 
 2840      7453697A 
 2840      6500
 2841              	.LASF49:
 2842 094e 63707573 		.ascii	"cpussIpc0Irq\000"
 2842      73497063 
 2842      30497271 
 2842      00
 2843              	.LASF92:
 2844 095b 6770696F 		.ascii	"gpioPrtCfgOffset\000"
 2844      50727443 
 2844      66674F66 
 2844      66736574 
 2844      00
 2845              	.LASF30:
 2846 096c 70726F74 		.ascii	"protBase\000"
 2846      42617365 
 2846      00
 2847              	.LASF51:
 2848 0975 63707573 		.ascii	"cpussNotConnectedIrq\000"
 2848      734E6F74 
 2848      436F6E6E 
 2848      65637465 
 2848      64497271 
 2849              	.LASF65:
 2850 098a 666C6173 		.ascii	"flashWriteDelay\000"
 2850      68577269 
 2850      74654465 
 2850      6C617900 
 2851              	.LASF13:
 2852 099a 75696E74 		.ascii	"uint8_t\000"
 2852      385F7400 
 2853              	.LASF98:
 2854 09a2 63707573 		.ascii	"cpussCm4StatusOffset\000"
 2854      73436D34 
 2854      53746174 
 2854      75734F66 
 2854      66736574 
ARM GAS  C:\Users\JC\AppData\Local\Temp\ccQnhWsL.s 			page 84


 2855              	.LASF91:
 2856 09b7 6770696F 		.ascii	"gpioPrtIntrCfgOffset\000"
 2856      50727449 
 2856      6E747243 
 2856      66674F66 
 2856      66736574 
 2857              	.LASF134:
 2858 09cc 43795F49 		.ascii	"Cy_IPC_Drv_GetIpcBaseAddress\000"
 2858      50435F44 
 2858      72765F47 
 2858      65744970 
 2858      63426173 
 2859              	.LASF133:
 2860 09e9 63795F73 		.ascii	"cy_stc_ipc_sema_t\000"
 2860      74635F69 
 2860      70635F73 
 2860      656D615F 
 2860      7400
 2861              	.LASF102:
 2862 09fb 63707573 		.ascii	"cpussTrimRomCtlOffset\000"
 2862      73547269 
 2862      6D526F6D 
 2862      43746C4F 
 2862      66667365 
 2863              	.LASF161:
 2864 0a11 63795F73 		.ascii	"cy_semaIpcStruct\000"
 2864      656D6149 
 2864      70635374 
 2864      72756374 
 2864      00
 2865              	.LASF113:
 2866 0a22 4950435F 		.ascii	"IPC_STRUCT_Type\000"
 2866      53545255 
 2866      43545F54 
 2866      79706500 
 2867              	.LASF52:
 2868 0a32 73727373 		.ascii	"srssNumClkpath\000"
 2868      4E756D43 
 2868      6C6B7061 
 2868      746800
 2869              	.LASF38:
 2870 0a41 64775665 		.ascii	"dwVersion\000"
 2870      7273696F 
 2870      6E00
 2871              	.LASF34:
 2872 0a4b 69706342 		.ascii	"ipcBase\000"
 2872      61736500 
 2873              	.LASF85:
 2874 0a53 70657269 		.ascii	"periDivCmdPaDivSelPos\000"
 2874      44697643 
 2874      6D645061 
 2874      44697653 
 2874      656C506F 
 2875              	.LASF66:
 2876 0a69 666C6173 		.ascii	"flashProgramDelay\000"
 2876      6850726F 
 2876      6772616D 
ARM GAS  C:\Users\JC\AppData\Local\Temp\ccQnhWsL.s 			page 85


 2876      44656C61 
 2876      7900
 2877              	.LASF146:
 2878 0a7b 72657453 		.ascii	"retStatus\000"
 2878      74617475 
 2878      7300
 2879              	.LASF152:
 2880 0a85 70726565 		.ascii	"preemptable\000"
 2880      6D707461 
 2880      626C6500 
 2881              	.LASF150:
 2882 0a91 43795F49 		.ascii	"Cy_IPC_Sema_Set\000"
 2882      50435F53 
 2882      656D615F 
 2882      53657400 
 2883              		.ident	"GCC: (GNU Tools for ARM Embedded Processors) 5.4.1 20160609 (release) [ARM/embedded-5-bran
