ARM GAS  C:\Users\JC\AppData\Local\Temp\ccU1E72d.s 			page 1


   1              		.syntax unified
   2              		.cpu cortex-m0plus
   3              		.fpu softvfp
   4              		.eabi_attribute 20, 1
   5              		.eabi_attribute 21, 1
   6              		.eabi_attribute 23, 3
   7              		.eabi_attribute 24, 1
   8              		.eabi_attribute 25, 1
   9              		.eabi_attribute 26, 1
  10              		.eabi_attribute 30, 6
  11              		.eabi_attribute 34, 0
  12              		.eabi_attribute 18, 4
  13              		.thumb
  14              		.syntax unified
  15              		.file	"cy_prot.c"
  16              		.text
  17              	.Ltext0:
  18              		.cfi_sections	.debug_frame
  19              		.section	.rodata
  20              		.align	2
  21              	.LC1:
  22 0000 47656E65 		.ascii	"Generated_Source\\PSoC6\\pdl\\drivers\\peripheral\\"
  22      72617465 
  22      645F536F 
  22      75726365 
  22      5C50536F 
  23 002e 70726F74 		.ascii	"prot\\cy_prot.c\000"
  23      5C63795F 
  23      70726F74 
  23      2E6300
  24              		.section	.text.Cy_Prot_ConfigBusMaster,"ax",%progbits
  25              		.align	2
  26              		.global	Cy_Prot_ConfigBusMaster
  27              		.code	16
  28              		.thumb_func
  29              		.type	Cy_Prot_ConfigBusMaster, %function
  30              	Cy_Prot_ConfigBusMaster:
  31              	.LFB47:
  32              		.file 1 "Generated_Source\\PSoC6\\pdl\\drivers\\peripheral\\prot\\cy_prot.c"
   1:Generated_Source\PSoC6\pdl\drivers\peripheral\prot/cy_prot.c **** /***************************************************************************//**
   2:Generated_Source\PSoC6\pdl\drivers\peripheral\prot/cy_prot.c **** * \file cy_prot.c
   3:Generated_Source\PSoC6\pdl\drivers\peripheral\prot/cy_prot.c **** * \version 1.20
   4:Generated_Source\PSoC6\pdl\drivers\peripheral\prot/cy_prot.c **** *
   5:Generated_Source\PSoC6\pdl\drivers\peripheral\prot/cy_prot.c **** * \brief
   6:Generated_Source\PSoC6\pdl\drivers\peripheral\prot/cy_prot.c **** * Provides an API implementation of the Protection Unit driver
   7:Generated_Source\PSoC6\pdl\drivers\peripheral\prot/cy_prot.c **** *
   8:Generated_Source\PSoC6\pdl\drivers\peripheral\prot/cy_prot.c **** ********************************************************************************
   9:Generated_Source\PSoC6\pdl\drivers\peripheral\prot/cy_prot.c **** * \copyright
  10:Generated_Source\PSoC6\pdl\drivers\peripheral\prot/cy_prot.c **** * Copyright 2016-2018, Cypress Semiconductor Corporation. All rights reserved.
  11:Generated_Source\PSoC6\pdl\drivers\peripheral\prot/cy_prot.c **** * You may use this file only in accordance with the license, terms, conditions,
  12:Generated_Source\PSoC6\pdl\drivers\peripheral\prot/cy_prot.c **** * disclaimers, and limitations in the end user license agreement accompanying
  13:Generated_Source\PSoC6\pdl\drivers\peripheral\prot/cy_prot.c **** * the software package with which this file was provided.
  14:Generated_Source\PSoC6\pdl\drivers\peripheral\prot/cy_prot.c **** *******************************************************************************/
  15:Generated_Source\PSoC6\pdl\drivers\peripheral\prot/cy_prot.c **** 
  16:Generated_Source\PSoC6\pdl\drivers\peripheral\prot/cy_prot.c **** #include "cy_prot.h"
  17:Generated_Source\PSoC6\pdl\drivers\peripheral\prot/cy_prot.c **** 
  18:Generated_Source\PSoC6\pdl\drivers\peripheral\prot/cy_prot.c **** #if defined(__cplusplus)
ARM GAS  C:\Users\JC\AppData\Local\Temp\ccU1E72d.s 			page 2


  19:Generated_Source\PSoC6\pdl\drivers\peripheral\prot/cy_prot.c **** extern "C" {
  20:Generated_Source\PSoC6\pdl\drivers\peripheral\prot/cy_prot.c **** #endif
  21:Generated_Source\PSoC6\pdl\drivers\peripheral\prot/cy_prot.c **** 
  22:Generated_Source\PSoC6\pdl\drivers\peripheral\prot/cy_prot.c **** static bool Prot_IsSmpuStructDisabled(uint32_t smpuStcIndex);
  23:Generated_Source\PSoC6\pdl\drivers\peripheral\prot/cy_prot.c **** static bool Prot_IsPpuProgStructDisabled(uint32_t ppuStcIndex);
  24:Generated_Source\PSoC6\pdl\drivers\peripheral\prot/cy_prot.c **** static cy_en_prot_status_t Prot_ConfigPpuAtt(volatile uint32_t * reg, uint16_t pcMask, 
  25:Generated_Source\PSoC6\pdl\drivers\peripheral\prot/cy_prot.c ****                                        cy_en_prot_perm_t userPermission, cy_en_prot_perm_t privPerm
  26:Generated_Source\PSoC6\pdl\drivers\peripheral\prot/cy_prot.c **** 
  27:Generated_Source\PSoC6\pdl\drivers\peripheral\prot/cy_prot.c **** /* Define to enable all attributes for SMPU slave structure */
  28:Generated_Source\PSoC6\pdl\drivers\peripheral\prot/cy_prot.c **** #define PROT_SMPU_STRUCT_ATT0_ENABLE_ALL_MASK      (PROT_SMPU_SMPU_STRUCT_ATT0_UR_Msk | \
  29:Generated_Source\PSoC6\pdl\drivers\peripheral\prot/cy_prot.c ****                                                     PROT_SMPU_SMPU_STRUCT_ATT0_UW_Msk | \
  30:Generated_Source\PSoC6\pdl\drivers\peripheral\prot/cy_prot.c ****                                                     PROT_SMPU_SMPU_STRUCT_ATT0_UX_Msk | \
  31:Generated_Source\PSoC6\pdl\drivers\peripheral\prot/cy_prot.c ****                                                     PROT_SMPU_SMPU_STRUCT_ATT0_PR_Msk | \
  32:Generated_Source\PSoC6\pdl\drivers\peripheral\prot/cy_prot.c ****                                                     PROT_SMPU_SMPU_STRUCT_ATT0_PW_Msk | \
  33:Generated_Source\PSoC6\pdl\drivers\peripheral\prot/cy_prot.c ****                                                     PROT_SMPU_SMPU_STRUCT_ATT0_PX_Msk | \
  34:Generated_Source\PSoC6\pdl\drivers\peripheral\prot/cy_prot.c ****                                                     PROT_SMPU_SMPU_STRUCT_ATT0_NS_Msk)
  35:Generated_Source\PSoC6\pdl\drivers\peripheral\prot/cy_prot.c **** 
  36:Generated_Source\PSoC6\pdl\drivers\peripheral\prot/cy_prot.c ****  /* Define to enable all attributes for programmable PPU slave structure */
  37:Generated_Source\PSoC6\pdl\drivers\peripheral\prot/cy_prot.c **** #define PROT_PERI_PPU_PR_ATT0_ENABLE_ALL_MASK      (PERI_PPU_PR_ATT0_UR_Msk | \
  38:Generated_Source\PSoC6\pdl\drivers\peripheral\prot/cy_prot.c ****                                                     PERI_PPU_PR_ATT0_UW_Msk | \
  39:Generated_Source\PSoC6\pdl\drivers\peripheral\prot/cy_prot.c ****                                                     PERI_PPU_PR_ATT0_UX_Msk | \
  40:Generated_Source\PSoC6\pdl\drivers\peripheral\prot/cy_prot.c ****                                                     PERI_PPU_PR_ATT0_PR_Msk | \
  41:Generated_Source\PSoC6\pdl\drivers\peripheral\prot/cy_prot.c ****                                                     PERI_PPU_PR_ATT0_PW_Msk | \
  42:Generated_Source\PSoC6\pdl\drivers\peripheral\prot/cy_prot.c ****                                                     PERI_PPU_PR_ATT0_PX_Msk | \
  43:Generated_Source\PSoC6\pdl\drivers\peripheral\prot/cy_prot.c ****                                                     PERI_PPU_PR_ATT0_NS_Msk)
  44:Generated_Source\PSoC6\pdl\drivers\peripheral\prot/cy_prot.c **** 
  45:Generated_Source\PSoC6\pdl\drivers\peripheral\prot/cy_prot.c **** #define PROT_PERI_PPU_PROG_PC1_PC3_MASK            (0xffffffe0UL)  /* PC1 - PC3 bits mask */
  46:Generated_Source\PSoC6\pdl\drivers\peripheral\prot/cy_prot.c **** 
  47:Generated_Source\PSoC6\pdl\drivers\peripheral\prot/cy_prot.c **** /*******************************************************************************
  48:Generated_Source\PSoC6\pdl\drivers\peripheral\prot/cy_prot.c **** * Function Name: Cy_Prot_ConfigBusMaster
  49:Generated_Source\PSoC6\pdl\drivers\peripheral\prot/cy_prot.c **** ****************************************************************************//**
  50:Generated_Source\PSoC6\pdl\drivers\peripheral\prot/cy_prot.c **** *
  51:Generated_Source\PSoC6\pdl\drivers\peripheral\prot/cy_prot.c **** * Configures the allowed protection contexts, security (secure/non-secure)
  52:Generated_Source\PSoC6\pdl\drivers\peripheral\prot/cy_prot.c **** * and privilege level of the bus transaction created by the specified master.
  53:Generated_Source\PSoC6\pdl\drivers\peripheral\prot/cy_prot.c **** *
  54:Generated_Source\PSoC6\pdl\drivers\peripheral\prot/cy_prot.c **** * \note This function is applicable for both CPUSS ver_1 and ver_2.
  55:Generated_Source\PSoC6\pdl\drivers\peripheral\prot/cy_prot.c **** *
  56:Generated_Source\PSoC6\pdl\drivers\peripheral\prot/cy_prot.c **** * \param busMaster
  57:Generated_Source\PSoC6\pdl\drivers\peripheral\prot/cy_prot.c **** * Indicates which master needs to be configured. Refer to the CPUSS_MS_ID_X
  58:Generated_Source\PSoC6\pdl\drivers\peripheral\prot/cy_prot.c **** * defines in the device config header file.
  59:Generated_Source\PSoC6\pdl\drivers\peripheral\prot/cy_prot.c **** * 
  60:Generated_Source\PSoC6\pdl\drivers\peripheral\prot/cy_prot.c **** * \param privileged
  61:Generated_Source\PSoC6\pdl\drivers\peripheral\prot/cy_prot.c **** * Boolean to define the privilege level of all subsequent bus transfers.
  62:Generated_Source\PSoC6\pdl\drivers\peripheral\prot/cy_prot.c **** * True - privileged, False - not privileged.
  63:Generated_Source\PSoC6\pdl\drivers\peripheral\prot/cy_prot.c **** * Note that this is an inherited value. If not inherited, then this bit will 
  64:Generated_Source\PSoC6\pdl\drivers\peripheral\prot/cy_prot.c **** * be used.
  65:Generated_Source\PSoC6\pdl\drivers\peripheral\prot/cy_prot.c **** *
  66:Generated_Source\PSoC6\pdl\drivers\peripheral\prot/cy_prot.c **** * \param secure
  67:Generated_Source\PSoC6\pdl\drivers\peripheral\prot/cy_prot.c **** * Security setting for the master. True - Secure, False - Not secure.
  68:Generated_Source\PSoC6\pdl\drivers\peripheral\prot/cy_prot.c **** * 
  69:Generated_Source\PSoC6\pdl\drivers\peripheral\prot/cy_prot.c **** * \param pcMask
  70:Generated_Source\PSoC6\pdl\drivers\peripheral\prot/cy_prot.c **** * This is a 16 bit value of the allowed contexts, it is an OR'ed (|) field of the
  71:Generated_Source\PSoC6\pdl\drivers\peripheral\prot/cy_prot.c **** * provided defines in cy_prot.h. For example: (CY_PROT_PCMASK1 | CY_PROT_PCMASK3 | CY_PROT_PCMASK4)
  72:Generated_Source\PSoC6\pdl\drivers\peripheral\prot/cy_prot.c **** * \note The function accepts pcMask values from CY_PROT_PCMASK1 to CY_PROT_PCMASK15. 
  73:Generated_Source\PSoC6\pdl\drivers\peripheral\prot/cy_prot.c **** * But each device has its own number of available protection contexts. 
  74:Generated_Source\PSoC6\pdl\drivers\peripheral\prot/cy_prot.c **** * That number is defined by PERI_PC_NR in the config file.
  75:Generated_Source\PSoC6\pdl\drivers\peripheral\prot/cy_prot.c **** *
ARM GAS  C:\Users\JC\AppData\Local\Temp\ccU1E72d.s 			page 3


  76:Generated_Source\PSoC6\pdl\drivers\peripheral\prot/cy_prot.c **** * \return
  77:Generated_Source\PSoC6\pdl\drivers\peripheral\prot/cy_prot.c **** * Status of the function call.
  78:Generated_Source\PSoC6\pdl\drivers\peripheral\prot/cy_prot.c **** *
  79:Generated_Source\PSoC6\pdl\drivers\peripheral\prot/cy_prot.c **** *   Status               | Description
  80:Generated_Source\PSoC6\pdl\drivers\peripheral\prot/cy_prot.c **** *   ------------         | -----------
  81:Generated_Source\PSoC6\pdl\drivers\peripheral\prot/cy_prot.c **** *   CY_PROT_SUCCESS      | The function completed successfully.
  82:Generated_Source\PSoC6\pdl\drivers\peripheral\prot/cy_prot.c **** *   CY_PROT_FAILURE      | The resource is locked.
  83:Generated_Source\PSoC6\pdl\drivers\peripheral\prot/cy_prot.c **** *
  84:Generated_Source\PSoC6\pdl\drivers\peripheral\prot/cy_prot.c **** * \funcusage
  85:Generated_Source\PSoC6\pdl\drivers\peripheral\prot/cy_prot.c **** * \snippet prot/1.20/snippet/main.c snippet_Cy_Prot_ConfigBusMaster
  86:Generated_Source\PSoC6\pdl\drivers\peripheral\prot/cy_prot.c **** *
  87:Generated_Source\PSoC6\pdl\drivers\peripheral\prot/cy_prot.c **** *******************************************************************************/
  88:Generated_Source\PSoC6\pdl\drivers\peripheral\prot/cy_prot.c **** cy_en_prot_status_t Cy_Prot_ConfigBusMaster(en_prot_master_t busMaster, bool privileged, bool secur
  89:Generated_Source\PSoC6\pdl\drivers\peripheral\prot/cy_prot.c **** {
  33              		.loc 1 89 0
  34              		.cfi_startproc
  35              		@ args = 0, pretend = 0, frame = 24
  36              		@ frame_needed = 1, uses_anonymous_args = 0
  37 0000 90B5     		push	{r4, r7, lr}
  38              		.cfi_def_cfa_offset 12
  39              		.cfi_offset 4, -12
  40              		.cfi_offset 7, -8
  41              		.cfi_offset 14, -4
  42 0002 87B0     		sub	sp, sp, #28
  43              		.cfi_def_cfa_offset 40
  44 0004 00AF     		add	r7, sp, #0
  45              		.cfi_def_cfa_register 7
  46 0006 0400     		movs	r4, r0
  47 0008 0800     		movs	r0, r1
  48 000a 1100     		movs	r1, r2
  49 000c 3B60     		str	r3, [r7]
  50 000e FB1D     		adds	r3, r7, #7
  51 0010 221C     		adds	r2, r4, #0
  52 0012 1A70     		strb	r2, [r3]
  53 0014 BB1D     		adds	r3, r7, #6
  54 0016 021C     		adds	r2, r0, #0
  55 0018 1A70     		strb	r2, [r3]
  56 001a 7B1D     		adds	r3, r7, #5
  57 001c 0A1C     		adds	r2, r1, #0
  58 001e 1A70     		strb	r2, [r3]
  90:Generated_Source\PSoC6\pdl\drivers\peripheral\prot/cy_prot.c ****     cy_en_prot_status_t status = CY_PROT_SUCCESS;
  59              		.loc 1 90 0
  60 0020 0023     		movs	r3, #0
  61 0022 7B61     		str	r3, [r7, #20]
  91:Generated_Source\PSoC6\pdl\drivers\peripheral\prot/cy_prot.c ****     uint32_t regVal;
  92:Generated_Source\PSoC6\pdl\drivers\peripheral\prot/cy_prot.c ****     volatile uint32_t *addrMsCtl; /* addrMsCtl is pointer to a register that is volatile by 
  93:Generated_Source\PSoC6\pdl\drivers\peripheral\prot/cy_prot.c ****                                    * nature as can be changed outside of firmware control. 
  94:Generated_Source\PSoC6\pdl\drivers\peripheral\prot/cy_prot.c ****                                    */
  95:Generated_Source\PSoC6\pdl\drivers\peripheral\prot/cy_prot.c **** 
  96:Generated_Source\PSoC6\pdl\drivers\peripheral\prot/cy_prot.c ****     CY_ASSERT_L1(CY_PROT_IS_BUS_MASTER_VALID(busMaster));
  62              		.loc 1 96 0
  63 0024 1F4B     		ldr	r3, .L7
  64 0026 1B68     		ldr	r3, [r3]
  65 0028 9A6C     		ldr	r2, [r3, #72]
  66 002a FB1D     		adds	r3, r7, #7
  67 002c 1B78     		ldrb	r3, [r3]
  68 002e DA40     		lsrs	r2, r2, r3
ARM GAS  C:\Users\JC\AppData\Local\Temp\ccU1E72d.s 			page 4


  69 0030 1300     		movs	r3, r2
  70 0032 0122     		movs	r2, #1
  71 0034 1340     		ands	r3, r2
  72 0036 04D1     		bne	.L2
  73              		.loc 1 96 0 is_stmt 0 discriminator 1
  74 0038 1B4B     		ldr	r3, .L7+4
  75 003a 6021     		movs	r1, #96
  76 003c 1800     		movs	r0, r3
  77 003e FFF7FEFF 		bl	Cy_SysLib_AssertFailed
  78              	.L2:
  97:Generated_Source\PSoC6\pdl\drivers\peripheral\prot/cy_prot.c ****     CY_ASSERT_L2(CY_PROT_IS_PC_MASK_VALID(pcMask));
  79              		.loc 1 97 0 is_stmt 1
  80 0042 3B68     		ldr	r3, [r7]
  81 0044 DB0B     		lsrs	r3, r3, #15
  82 0046 DB03     		lsls	r3, r3, #15
  83 0048 04D0     		beq	.L3
  84              		.loc 1 97 0 is_stmt 0 discriminator 1
  85 004a 174B     		ldr	r3, .L7+4
  86 004c 6121     		movs	r1, #97
  87 004e 1800     		movs	r0, r3
  88 0050 FFF7FEFF 		bl	Cy_SysLib_AssertFailed
  89              	.L3:
  98:Generated_Source\PSoC6\pdl\drivers\peripheral\prot/cy_prot.c ****     
  99:Generated_Source\PSoC6\pdl\drivers\peripheral\prot/cy_prot.c ****     /* Get the address of Master x protection context control register (MSx_CTL) */
 100:Generated_Source\PSoC6\pdl\drivers\peripheral\prot/cy_prot.c ****     addrMsCtl = (uint32_t *)(CY_PROT_BASE + (uint32_t)((uint32_t)busMaster << CY_PROT_MSX_CTL_SHIFT
  90              		.loc 1 100 0 is_stmt 1
  91 0054 134B     		ldr	r3, .L7
  92 0056 1B68     		ldr	r3, [r3]
  93 0058 1A69     		ldr	r2, [r3, #16]
  94 005a FB1D     		adds	r3, r7, #7
  95 005c 1B78     		ldrb	r3, [r3]
  96 005e 9B00     		lsls	r3, r3, #2
  97 0060 D318     		adds	r3, r2, r3
  98 0062 3B61     		str	r3, [r7, #16]
 101:Generated_Source\PSoC6\pdl\drivers\peripheral\prot/cy_prot.c **** 
 102:Generated_Source\PSoC6\pdl\drivers\peripheral\prot/cy_prot.c ****     /* Get bitfields for MSx_CTL */
 103:Generated_Source\PSoC6\pdl\drivers\peripheral\prot/cy_prot.c ****     regVal = _VAL2FLD(PROT_SMPU_MS0_CTL_NS, !secure)   /* Security setting */
  99              		.loc 1 103 0
 100 0064 7B1D     		adds	r3, r7, #5
 101 0066 1B78     		ldrb	r3, [r3]
 102 0068 0122     		movs	r2, #1
 103 006a 5340     		eors	r3, r2
 104 006c DBB2     		uxtb	r3, r3
 105 006e 5B00     		lsls	r3, r3, #1
 106 0070 0222     		movs	r2, #2
 107 0072 1A40     		ands	r2, r3
 104:Generated_Source\PSoC6\pdl\drivers\peripheral\prot/cy_prot.c ****             | _VAL2FLD(PROT_SMPU_MS0_CTL_P, privileged) /* Privileged setting */
 108              		.loc 1 104 0
 109 0074 BB1D     		adds	r3, r7, #6
 110 0076 1B78     		ldrb	r3, [r3]
 111 0078 1A43     		orrs	r2, r3
 105:Generated_Source\PSoC6\pdl\drivers\peripheral\prot/cy_prot.c ****             | _VAL2FLD(PROT_SMPU_MS0_CTL_PC_MASK_15_TO_1, pcMask); /* Protection context mask */
 112              		.loc 1 105 0
 113 007a 3B68     		ldr	r3, [r7]
 114 007c 5B04     		lsls	r3, r3, #17
 103:Generated_Source\PSoC6\pdl\drivers\peripheral\prot/cy_prot.c ****             | _VAL2FLD(PROT_SMPU_MS0_CTL_P, privileged) /* Privileged setting */
 115              		.loc 1 103 0
ARM GAS  C:\Users\JC\AppData\Local\Temp\ccU1E72d.s 			page 5


 116 007e 1343     		orrs	r3, r2
 117 0080 FB60     		str	r3, [r7, #12]
 106:Generated_Source\PSoC6\pdl\drivers\peripheral\prot/cy_prot.c ****             
 107:Generated_Source\PSoC6\pdl\drivers\peripheral\prot/cy_prot.c ****     /* Set the value of MSx_CTL */
 108:Generated_Source\PSoC6\pdl\drivers\peripheral\prot/cy_prot.c ****     *addrMsCtl = regVal;
 118              		.loc 1 108 0
 119 0082 3B69     		ldr	r3, [r7, #16]
 120 0084 FA68     		ldr	r2, [r7, #12]
 121 0086 1A60     		str	r2, [r3]
 109:Generated_Source\PSoC6\pdl\drivers\peripheral\prot/cy_prot.c **** 
 110:Generated_Source\PSoC6\pdl\drivers\peripheral\prot/cy_prot.c ****     /* Check if the MSx_CTL register is successfully updated with the new register value. 
 111:Generated_Source\PSoC6\pdl\drivers\peripheral\prot/cy_prot.c ****      * The register will not be updated for the invalid master-protection context. 
 112:Generated_Source\PSoC6\pdl\drivers\peripheral\prot/cy_prot.c ****      */ 
 113:Generated_Source\PSoC6\pdl\drivers\peripheral\prot/cy_prot.c ****     status = (*addrMsCtl != regVal) ? CY_PROT_FAILURE : CY_PROT_SUCCESS;
 122              		.loc 1 113 0
 123 0088 3B69     		ldr	r3, [r7, #16]
 124 008a 1A68     		ldr	r2, [r3]
 125 008c FB68     		ldr	r3, [r7, #12]
 126 008e 9A42     		cmp	r2, r3
 127 0090 01D0     		beq	.L4
 128              		.loc 1 113 0 is_stmt 0 discriminator 1
 129 0092 064B     		ldr	r3, .L7+8
 130 0094 00E0     		b	.L5
 131              	.L4:
 132              		.loc 1 113 0 discriminator 2
 133 0096 0023     		movs	r3, #0
 134              	.L5:
 135              		.loc 1 113 0 discriminator 4
 136 0098 7B61     		str	r3, [r7, #20]
 114:Generated_Source\PSoC6\pdl\drivers\peripheral\prot/cy_prot.c ****     
 115:Generated_Source\PSoC6\pdl\drivers\peripheral\prot/cy_prot.c ****     return status;
 137              		.loc 1 115 0 is_stmt 1 discriminator 4
 138 009a 7B69     		ldr	r3, [r7, #20]
 116:Generated_Source\PSoC6\pdl\drivers\peripheral\prot/cy_prot.c **** }
 139              		.loc 1 116 0 discriminator 4
 140 009c 1800     		movs	r0, r3
 141 009e BD46     		mov	sp, r7
 142 00a0 07B0     		add	sp, sp, #28
 143              		@ sp needed
 144 00a2 90BD     		pop	{r4, r7, pc}
 145              	.L8:
 146              		.align	2
 147              	.L7:
 148 00a4 00000000 		.word	cy_device
 149 00a8 00000000 		.word	.LC1
 150 00ac 0300C200 		.word	12713987
 151              		.cfi_endproc
 152              	.LFE47:
 153              		.size	Cy_Prot_ConfigBusMaster, .-Cy_Prot_ConfigBusMaster
 154              		.section	.text.Cy_Prot_SetActivePC,"ax",%progbits
 155              		.align	2
 156              		.global	Cy_Prot_SetActivePC
 157              		.code	16
 158              		.thumb_func
 159              		.type	Cy_Prot_SetActivePC, %function
 160              	Cy_Prot_SetActivePC:
 161              	.LFB48:
ARM GAS  C:\Users\JC\AppData\Local\Temp\ccU1E72d.s 			page 6


 117:Generated_Source\PSoC6\pdl\drivers\peripheral\prot/cy_prot.c **** 
 118:Generated_Source\PSoC6\pdl\drivers\peripheral\prot/cy_prot.c **** 
 119:Generated_Source\PSoC6\pdl\drivers\peripheral\prot/cy_prot.c **** /*******************************************************************************
 120:Generated_Source\PSoC6\pdl\drivers\peripheral\prot/cy_prot.c **** * Function Name: Cy_Prot_SetActivePC
 121:Generated_Source\PSoC6\pdl\drivers\peripheral\prot/cy_prot.c **** ****************************************************************************//**
 122:Generated_Source\PSoC6\pdl\drivers\peripheral\prot/cy_prot.c **** *
 123:Generated_Source\PSoC6\pdl\drivers\peripheral\prot/cy_prot.c **** * Sets the current/active protection context of the specified bus master.
 124:Generated_Source\PSoC6\pdl\drivers\peripheral\prot/cy_prot.c **** * 
 125:Generated_Source\PSoC6\pdl\drivers\peripheral\prot/cy_prot.c **** * Allowed PC values are 1-15. If this value is not inherited from another bus 
 126:Generated_Source\PSoC6\pdl\drivers\peripheral\prot/cy_prot.c **** * master, the value set through this function is used.
 127:Generated_Source\PSoC6\pdl\drivers\peripheral\prot/cy_prot.c **** *
 128:Generated_Source\PSoC6\pdl\drivers\peripheral\prot/cy_prot.c **** * \note This function is applicable for both CPUSS ver_1 and ver_2.
 129:Generated_Source\PSoC6\pdl\drivers\peripheral\prot/cy_prot.c **** *
 130:Generated_Source\PSoC6\pdl\drivers\peripheral\prot/cy_prot.c **** * \param busMaster
 131:Generated_Source\PSoC6\pdl\drivers\peripheral\prot/cy_prot.c **** * The bus master to configure. Refer to the CPUSS_MS_ID_X defines in the device
 132:Generated_Source\PSoC6\pdl\drivers\peripheral\prot/cy_prot.c **** * config header file.
 133:Generated_Source\PSoC6\pdl\drivers\peripheral\prot/cy_prot.c **** * 
 134:Generated_Source\PSoC6\pdl\drivers\peripheral\prot/cy_prot.c **** * \param pc
 135:Generated_Source\PSoC6\pdl\drivers\peripheral\prot/cy_prot.c **** * Active protection context of the specified master \ref cy_en_prot_pc_t. 
 136:Generated_Source\PSoC6\pdl\drivers\peripheral\prot/cy_prot.c **** * \note that only those protection contexts allowed by the pcMask (which was 
 137:Generated_Source\PSoC6\pdl\drivers\peripheral\prot/cy_prot.c **** * configured in \ref Cy_Prot_ConfigBusMaster) will take effect. 
 138:Generated_Source\PSoC6\pdl\drivers\peripheral\prot/cy_prot.c **** * \note The function accepts pcMask values from CY_PROT_PC1 to CY_PROT_PC15. 
 139:Generated_Source\PSoC6\pdl\drivers\peripheral\prot/cy_prot.c **** * But each device has its own number of available protection contexts. 
 140:Generated_Source\PSoC6\pdl\drivers\peripheral\prot/cy_prot.c **** * That number is defined by PERI_PC_NR in the config file.
 141:Generated_Source\PSoC6\pdl\drivers\peripheral\prot/cy_prot.c **** *
 142:Generated_Source\PSoC6\pdl\drivers\peripheral\prot/cy_prot.c **** * \return
 143:Generated_Source\PSoC6\pdl\drivers\peripheral\prot/cy_prot.c **** * Status of the function call.
 144:Generated_Source\PSoC6\pdl\drivers\peripheral\prot/cy_prot.c **** *
 145:Generated_Source\PSoC6\pdl\drivers\peripheral\prot/cy_prot.c **** *   Status               | Description
 146:Generated_Source\PSoC6\pdl\drivers\peripheral\prot/cy_prot.c **** *   ------------         | -----------
 147:Generated_Source\PSoC6\pdl\drivers\peripheral\prot/cy_prot.c **** *   CY_PROT_SUCCESS      | The function completed successfully.
 148:Generated_Source\PSoC6\pdl\drivers\peripheral\prot/cy_prot.c **** *   CY_PROT_FAILURE      | The resource is locked.
 149:Generated_Source\PSoC6\pdl\drivers\peripheral\prot/cy_prot.c **** *
 150:Generated_Source\PSoC6\pdl\drivers\peripheral\prot/cy_prot.c **** * \funcusage
 151:Generated_Source\PSoC6\pdl\drivers\peripheral\prot/cy_prot.c **** * \snippet prot/1.20/snippet/main.c snippet_Cy_Prot_SetActivePC
 152:Generated_Source\PSoC6\pdl\drivers\peripheral\prot/cy_prot.c **** *
 153:Generated_Source\PSoC6\pdl\drivers\peripheral\prot/cy_prot.c **** *******************************************************************************/
 154:Generated_Source\PSoC6\pdl\drivers\peripheral\prot/cy_prot.c **** cy_en_prot_status_t Cy_Prot_SetActivePC(en_prot_master_t busMaster, uint32_t pc)
 155:Generated_Source\PSoC6\pdl\drivers\peripheral\prot/cy_prot.c **** {
 162              		.loc 1 155 0
 163              		.cfi_startproc
 164              		@ args = 0, pretend = 0, frame = 16
 165              		@ frame_needed = 1, uses_anonymous_args = 0
 166 0000 90B5     		push	{r4, r7, lr}
 167              		.cfi_def_cfa_offset 12
 168              		.cfi_offset 4, -12
 169              		.cfi_offset 7, -8
 170              		.cfi_offset 14, -4
 171 0002 85B0     		sub	sp, sp, #20
 172              		.cfi_def_cfa_offset 32
 173 0004 00AF     		add	r7, sp, #0
 174              		.cfi_def_cfa_register 7
 175 0006 0200     		movs	r2, r0
 176 0008 3960     		str	r1, [r7]
 177 000a FB1D     		adds	r3, r7, #7
 178 000c 1A70     		strb	r2, [r3]
 156:Generated_Source\PSoC6\pdl\drivers\peripheral\prot/cy_prot.c ****     cy_en_prot_status_t status;
ARM GAS  C:\Users\JC\AppData\Local\Temp\ccU1E72d.s 			page 7


 157:Generated_Source\PSoC6\pdl\drivers\peripheral\prot/cy_prot.c ****     
 158:Generated_Source\PSoC6\pdl\drivers\peripheral\prot/cy_prot.c ****     CY_ASSERT_L1(CY_PROT_IS_BUS_MASTER_VALID(busMaster));
 179              		.loc 1 158 0
 180 000e 204B     		ldr	r3, .L15
 181 0010 1B68     		ldr	r3, [r3]
 182 0012 9A6C     		ldr	r2, [r3, #72]
 183 0014 FB1D     		adds	r3, r7, #7
 184 0016 1B78     		ldrb	r3, [r3]
 185 0018 DA40     		lsrs	r2, r2, r3
 186 001a 1300     		movs	r3, r2
 187 001c 0122     		movs	r2, #1
 188 001e 1340     		ands	r3, r2
 189 0020 04D1     		bne	.L10
 190              		.loc 1 158 0 is_stmt 0 discriminator 1
 191 0022 1C4B     		ldr	r3, .L15+4
 192 0024 9E21     		movs	r1, #158
 193 0026 1800     		movs	r0, r3
 194 0028 FFF7FEFF 		bl	Cy_SysLib_AssertFailed
 195              	.L10:
 159:Generated_Source\PSoC6\pdl\drivers\peripheral\prot/cy_prot.c ****     CY_ASSERT_L2(CY_PROT_IS_PC_VALID(pc));
 196              		.loc 1 159 0 is_stmt 1
 197 002c 3B68     		ldr	r3, [r7]
 198 002e 0F2B     		cmp	r3, #15
 199 0030 04D9     		bls	.L11
 200              		.loc 1 159 0 is_stmt 0 discriminator 1
 201 0032 184B     		ldr	r3, .L15+4
 202 0034 9F21     		movs	r1, #159
 203 0036 1800     		movs	r0, r3
 204 0038 FFF7FEFF 		bl	Cy_SysLib_AssertFailed
 205              	.L11:
 160:Generated_Source\PSoC6\pdl\drivers\peripheral\prot/cy_prot.c ****     
 161:Generated_Source\PSoC6\pdl\drivers\peripheral\prot/cy_prot.c ****     PROT_MPU_MS_CTL(busMaster) = _VAL2FLD(PROT_MPU_MS_CTL_PC, pc) | _VAL2FLD(PROT_MPU_MS_CTL_PC_SAV
 206              		.loc 1 161 0 is_stmt 1
 207 003c 144B     		ldr	r3, .L15
 208 003e 1B68     		ldr	r3, [r3]
 209 0040 1B69     		ldr	r3, [r3, #16]
 210 0042 1C00     		movs	r4, r3
 211 0044 FB1D     		adds	r3, r7, #7
 212 0046 1B78     		ldrb	r3, [r3]
 213 0048 3A68     		ldr	r2, [r7]
 214 004a 0F21     		movs	r1, #15
 215 004c 1140     		ands	r1, r2
 216 004e 3A68     		ldr	r2, [r7]
 217 0050 1004     		lsls	r0, r2, #16
 218 0052 F022     		movs	r2, #240
 219 0054 1203     		lsls	r2, r2, #12
 220 0056 0240     		ands	r2, r0
 221 0058 0A43     		orrs	r2, r1
 222 005a 1033     		adds	r3, r3, #16
 223 005c 9B02     		lsls	r3, r3, #10
 224 005e 1A51     		str	r2, [r3, r4]
 162:Generated_Source\PSoC6\pdl\drivers\peripheral\prot/cy_prot.c ****     status = (_FLD2VAL(PROT_MPU_MS_CTL_PC, PROT_MPU_MS_CTL(busMaster)) != pc) ? CY_PROT_FAILURE : C
 225              		.loc 1 162 0
 226 0060 0B4B     		ldr	r3, .L15
 227 0062 1B68     		ldr	r3, [r3]
 228 0064 1B69     		ldr	r3, [r3, #16]
 229 0066 1A00     		movs	r2, r3
ARM GAS  C:\Users\JC\AppData\Local\Temp\ccU1E72d.s 			page 8


 230 0068 FB1D     		adds	r3, r7, #7
 231 006a 1B78     		ldrb	r3, [r3]
 232 006c 1033     		adds	r3, r3, #16
 233 006e 9B02     		lsls	r3, r3, #10
 234 0070 9B58     		ldr	r3, [r3, r2]
 235 0072 0F22     		movs	r2, #15
 236 0074 1A40     		ands	r2, r3
 237 0076 3B68     		ldr	r3, [r7]
 238 0078 9A42     		cmp	r2, r3
 239 007a 01D0     		beq	.L12
 240              		.loc 1 162 0 is_stmt 0 discriminator 1
 241 007c 064B     		ldr	r3, .L15+8
 242 007e 00E0     		b	.L13
 243              	.L12:
 244              		.loc 1 162 0 discriminator 2
 245 0080 0023     		movs	r3, #0
 246              	.L13:
 247              		.loc 1 162 0 discriminator 4
 248 0082 FB60     		str	r3, [r7, #12]
 163:Generated_Source\PSoC6\pdl\drivers\peripheral\prot/cy_prot.c ****     
 164:Generated_Source\PSoC6\pdl\drivers\peripheral\prot/cy_prot.c ****     return status;
 249              		.loc 1 164 0 is_stmt 1 discriminator 4
 250 0084 FB68     		ldr	r3, [r7, #12]
 165:Generated_Source\PSoC6\pdl\drivers\peripheral\prot/cy_prot.c **** }
 251              		.loc 1 165 0 discriminator 4
 252 0086 1800     		movs	r0, r3
 253 0088 BD46     		mov	sp, r7
 254 008a 05B0     		add	sp, sp, #20
 255              		@ sp needed
 256 008c 90BD     		pop	{r4, r7, pc}
 257              	.L16:
 258 008e C046     		.align	2
 259              	.L15:
 260 0090 00000000 		.word	cy_device
 261 0094 00000000 		.word	.LC1
 262 0098 0300C200 		.word	12713987
 263              		.cfi_endproc
 264              	.LFE48:
 265              		.size	Cy_Prot_SetActivePC, .-Cy_Prot_SetActivePC
 266              		.section	.text.Cy_Prot_GetActivePC,"ax",%progbits
 267              		.align	2
 268              		.global	Cy_Prot_GetActivePC
 269              		.code	16
 270              		.thumb_func
 271              		.type	Cy_Prot_GetActivePC, %function
 272              	Cy_Prot_GetActivePC:
 273              	.LFB49:
 166:Generated_Source\PSoC6\pdl\drivers\peripheral\prot/cy_prot.c **** 
 167:Generated_Source\PSoC6\pdl\drivers\peripheral\prot/cy_prot.c **** 
 168:Generated_Source\PSoC6\pdl\drivers\peripheral\prot/cy_prot.c **** /*******************************************************************************
 169:Generated_Source\PSoC6\pdl\drivers\peripheral\prot/cy_prot.c **** * Function Name: Cy_Prot_GetActivePC
 170:Generated_Source\PSoC6\pdl\drivers\peripheral\prot/cy_prot.c **** ****************************************************************************//**
 171:Generated_Source\PSoC6\pdl\drivers\peripheral\prot/cy_prot.c **** *
 172:Generated_Source\PSoC6\pdl\drivers\peripheral\prot/cy_prot.c **** * \note This function is applicable for both CPUSS ver_1 and ver_2.
 173:Generated_Source\PSoC6\pdl\drivers\peripheral\prot/cy_prot.c **** *
 174:Generated_Source\PSoC6\pdl\drivers\peripheral\prot/cy_prot.c **** * Returns the active protection context of a master. 
 175:Generated_Source\PSoC6\pdl\drivers\peripheral\prot/cy_prot.c **** *
ARM GAS  C:\Users\JC\AppData\Local\Temp\ccU1E72d.s 			page 9


 176:Generated_Source\PSoC6\pdl\drivers\peripheral\prot/cy_prot.c **** * \param busMaster
 177:Generated_Source\PSoC6\pdl\drivers\peripheral\prot/cy_prot.c **** * The bus master, whose protection context is being read. Refer to the 
 178:Generated_Source\PSoC6\pdl\drivers\peripheral\prot/cy_prot.c **** * CPUSS_MS_ID_X defines in the device config header file.
 179:Generated_Source\PSoC6\pdl\drivers\peripheral\prot/cy_prot.c **** * 
 180:Generated_Source\PSoC6\pdl\drivers\peripheral\prot/cy_prot.c **** * \return
 181:Generated_Source\PSoC6\pdl\drivers\peripheral\prot/cy_prot.c **** * Active protection context of the master \ref cy_en_prot_pc_t.
 182:Generated_Source\PSoC6\pdl\drivers\peripheral\prot/cy_prot.c **** *
 183:Generated_Source\PSoC6\pdl\drivers\peripheral\prot/cy_prot.c **** * \funcusage
 184:Generated_Source\PSoC6\pdl\drivers\peripheral\prot/cy_prot.c **** * \snippet prot/1.20/snippet/main.c snippet_Cy_Prot_SetActivePC
 185:Generated_Source\PSoC6\pdl\drivers\peripheral\prot/cy_prot.c **** *
 186:Generated_Source\PSoC6\pdl\drivers\peripheral\prot/cy_prot.c **** *******************************************************************************/
 187:Generated_Source\PSoC6\pdl\drivers\peripheral\prot/cy_prot.c **** uint32_t Cy_Prot_GetActivePC(en_prot_master_t busMaster)
 188:Generated_Source\PSoC6\pdl\drivers\peripheral\prot/cy_prot.c **** {
 274              		.loc 1 188 0
 275              		.cfi_startproc
 276              		@ args = 0, pretend = 0, frame = 8
 277              		@ frame_needed = 1, uses_anonymous_args = 0
 278 0000 80B5     		push	{r7, lr}
 279              		.cfi_def_cfa_offset 8
 280              		.cfi_offset 7, -8
 281              		.cfi_offset 14, -4
 282 0002 82B0     		sub	sp, sp, #8
 283              		.cfi_def_cfa_offset 16
 284 0004 00AF     		add	r7, sp, #0
 285              		.cfi_def_cfa_register 7
 286 0006 0200     		movs	r2, r0
 287 0008 FB1D     		adds	r3, r7, #7
 288 000a 1A70     		strb	r2, [r3]
 189:Generated_Source\PSoC6\pdl\drivers\peripheral\prot/cy_prot.c ****     
 190:Generated_Source\PSoC6\pdl\drivers\peripheral\prot/cy_prot.c ****     CY_ASSERT_L1(CY_PROT_IS_BUS_MASTER_VALID(busMaster));
 289              		.loc 1 190 0
 290 000c 0E4B     		ldr	r3, .L20
 291 000e 1B68     		ldr	r3, [r3]
 292 0010 9A6C     		ldr	r2, [r3, #72]
 293 0012 FB1D     		adds	r3, r7, #7
 294 0014 1B78     		ldrb	r3, [r3]
 295 0016 DA40     		lsrs	r2, r2, r3
 296 0018 1300     		movs	r3, r2
 297 001a 0122     		movs	r2, #1
 298 001c 1340     		ands	r3, r2
 299 001e 04D1     		bne	.L18
 300              		.loc 1 190 0 is_stmt 0 discriminator 1
 301 0020 0A4B     		ldr	r3, .L20+4
 302 0022 BE21     		movs	r1, #190
 303 0024 1800     		movs	r0, r3
 304 0026 FFF7FEFF 		bl	Cy_SysLib_AssertFailed
 305              	.L18:
 191:Generated_Source\PSoC6\pdl\drivers\peripheral\prot/cy_prot.c ****     
 192:Generated_Source\PSoC6\pdl\drivers\peripheral\prot/cy_prot.c ****     return ((uint32_t)_FLD2VAL(PROT_MPU_MS_CTL_PC, PROT_MPU_MS_CTL(busMaster)));
 306              		.loc 1 192 0 is_stmt 1
 307 002a 074B     		ldr	r3, .L20
 308 002c 1B68     		ldr	r3, [r3]
 309 002e 1B69     		ldr	r3, [r3, #16]
 310 0030 1A00     		movs	r2, r3
 311 0032 FB1D     		adds	r3, r7, #7
 312 0034 1B78     		ldrb	r3, [r3]
 313 0036 1033     		adds	r3, r3, #16
ARM GAS  C:\Users\JC\AppData\Local\Temp\ccU1E72d.s 			page 10


 314 0038 9B02     		lsls	r3, r3, #10
 315 003a 9B58     		ldr	r3, [r3, r2]
 316 003c 0F22     		movs	r2, #15
 317 003e 1340     		ands	r3, r2
 193:Generated_Source\PSoC6\pdl\drivers\peripheral\prot/cy_prot.c **** }
 318              		.loc 1 193 0
 319 0040 1800     		movs	r0, r3
 320 0042 BD46     		mov	sp, r7
 321 0044 02B0     		add	sp, sp, #8
 322              		@ sp needed
 323 0046 80BD     		pop	{r7, pc}
 324              	.L21:
 325              		.align	2
 326              	.L20:
 327 0048 00000000 		.word	cy_device
 328 004c 00000000 		.word	.LC1
 329              		.cfi_endproc
 330              	.LFE49:
 331              		.size	Cy_Prot_GetActivePC, .-Cy_Prot_GetActivePC
 332              		.section	.text.Cy_Prot_ConfigMpuStruct,"ax",%progbits
 333              		.align	2
 334              		.global	Cy_Prot_ConfigMpuStruct
 335              		.code	16
 336              		.thumb_func
 337              		.type	Cy_Prot_ConfigMpuStruct, %function
 338              	Cy_Prot_ConfigMpuStruct:
 339              	.LFB50:
 194:Generated_Source\PSoC6\pdl\drivers\peripheral\prot/cy_prot.c **** 
 195:Generated_Source\PSoC6\pdl\drivers\peripheral\prot/cy_prot.c **** 
 196:Generated_Source\PSoC6\pdl\drivers\peripheral\prot/cy_prot.c **** /*******************************************************************************
 197:Generated_Source\PSoC6\pdl\drivers\peripheral\prot/cy_prot.c **** * Function Name: Cy_Prot_ConfigMpuStruct
 198:Generated_Source\PSoC6\pdl\drivers\peripheral\prot/cy_prot.c **** ****************************************************************************//**
 199:Generated_Source\PSoC6\pdl\drivers\peripheral\prot/cy_prot.c **** *
 200:Generated_Source\PSoC6\pdl\drivers\peripheral\prot/cy_prot.c **** * This function configures a memory protection unit (MPU) struct with its 
 201:Generated_Source\PSoC6\pdl\drivers\peripheral\prot/cy_prot.c **** * protection attributes. 
 202:Generated_Source\PSoC6\pdl\drivers\peripheral\prot/cy_prot.c **** *
 203:Generated_Source\PSoC6\pdl\drivers\peripheral\prot/cy_prot.c **** * The protection structs act like the gatekeepers for a master's accesses to
 204:Generated_Source\PSoC6\pdl\drivers\peripheral\prot/cy_prot.c **** * memory, allowing only the permitted transactions to go through.
 205:Generated_Source\PSoC6\pdl\drivers\peripheral\prot/cy_prot.c **** *
 206:Generated_Source\PSoC6\pdl\drivers\peripheral\prot/cy_prot.c **** * \note This function is applicable for both CPUSS ver_1 and ver_2.
 207:Generated_Source\PSoC6\pdl\drivers\peripheral\prot/cy_prot.c **** *
 208:Generated_Source\PSoC6\pdl\drivers\peripheral\prot/cy_prot.c **** * \param base
 209:Generated_Source\PSoC6\pdl\drivers\peripheral\prot/cy_prot.c **** * The base address for the MPU struct being configured. 
 210:Generated_Source\PSoC6\pdl\drivers\peripheral\prot/cy_prot.c **** * 
 211:Generated_Source\PSoC6\pdl\drivers\peripheral\prot/cy_prot.c **** * \param config
 212:Generated_Source\PSoC6\pdl\drivers\peripheral\prot/cy_prot.c **** * Initialization structure containing all the protection attributes.
 213:Generated_Source\PSoC6\pdl\drivers\peripheral\prot/cy_prot.c **** * 
 214:Generated_Source\PSoC6\pdl\drivers\peripheral\prot/cy_prot.c **** * \return
 215:Generated_Source\PSoC6\pdl\drivers\peripheral\prot/cy_prot.c **** * Status of the function call.
 216:Generated_Source\PSoC6\pdl\drivers\peripheral\prot/cy_prot.c **** *
 217:Generated_Source\PSoC6\pdl\drivers\peripheral\prot/cy_prot.c **** *   Status               | Description
 218:Generated_Source\PSoC6\pdl\drivers\peripheral\prot/cy_prot.c **** *   ------------         | -----------
 219:Generated_Source\PSoC6\pdl\drivers\peripheral\prot/cy_prot.c **** *   CY_PROT_SUCCESS      | The MPU struct was configured.
 220:Generated_Source\PSoC6\pdl\drivers\peripheral\prot/cy_prot.c **** *   CY_PROT_FAILURE      | Configuration failed due to a protection violation.
 221:Generated_Source\PSoC6\pdl\drivers\peripheral\prot/cy_prot.c **** *
 222:Generated_Source\PSoC6\pdl\drivers\peripheral\prot/cy_prot.c **** * \funcusage
 223:Generated_Source\PSoC6\pdl\drivers\peripheral\prot/cy_prot.c **** * \snippet prot/1.20/snippet/main.c snippet_Cy_Prot_ConfigMpuStruct
ARM GAS  C:\Users\JC\AppData\Local\Temp\ccU1E72d.s 			page 11


 224:Generated_Source\PSoC6\pdl\drivers\peripheral\prot/cy_prot.c **** *
 225:Generated_Source\PSoC6\pdl\drivers\peripheral\prot/cy_prot.c **** *******************************************************************************/
 226:Generated_Source\PSoC6\pdl\drivers\peripheral\prot/cy_prot.c **** cy_en_prot_status_t Cy_Prot_ConfigMpuStruct(PROT_MPU_MPU_STRUCT_Type* base, const cy_stc_mpu_cfg_t*
 227:Generated_Source\PSoC6\pdl\drivers\peripheral\prot/cy_prot.c **** {
 340              		.loc 1 227 0
 341              		.cfi_startproc
 342              		@ args = 0, pretend = 0, frame = 24
 343              		@ frame_needed = 1, uses_anonymous_args = 0
 344 0000 80B5     		push	{r7, lr}
 345              		.cfi_def_cfa_offset 8
 346              		.cfi_offset 7, -8
 347              		.cfi_offset 14, -4
 348 0002 86B0     		sub	sp, sp, #24
 349              		.cfi_def_cfa_offset 32
 350 0004 00AF     		add	r7, sp, #0
 351              		.cfi_def_cfa_register 7
 352 0006 7860     		str	r0, [r7, #4]
 353 0008 3960     		str	r1, [r7]
 228:Generated_Source\PSoC6\pdl\drivers\peripheral\prot/cy_prot.c ****     cy_en_prot_status_t status;
 229:Generated_Source\PSoC6\pdl\drivers\peripheral\prot/cy_prot.c ****     uint32_t addrReg;
 230:Generated_Source\PSoC6\pdl\drivers\peripheral\prot/cy_prot.c ****     uint32_t attReg;
 231:Generated_Source\PSoC6\pdl\drivers\peripheral\prot/cy_prot.c **** 
 232:Generated_Source\PSoC6\pdl\drivers\peripheral\prot/cy_prot.c ****     CY_ASSERT_L1(NULL != base);
 354              		.loc 1 232 0
 355 000a 7B68     		ldr	r3, [r7, #4]
 356 000c 002B     		cmp	r3, #0
 357 000e 04D1     		bne	.L23
 358              		.loc 1 232 0 is_stmt 0 discriminator 1
 359 0010 7D4B     		ldr	r3, .L31
 360 0012 E821     		movs	r1, #232
 361 0014 1800     		movs	r0, r3
 362 0016 FFF7FEFF 		bl	Cy_SysLib_AssertFailed
 363              	.L23:
 233:Generated_Source\PSoC6\pdl\drivers\peripheral\prot/cy_prot.c ****     CY_ASSERT_L3(CY_PROT_IS_MPU_PERM_VALID(config->userPermission));
 364              		.loc 1 233 0 is_stmt 1
 365 001a 3B68     		ldr	r3, [r7]
 366 001c 9B79     		ldrb	r3, [r3, #6]
 367 001e 002B     		cmp	r3, #0
 368 0020 20D0     		beq	.L24
 369              		.loc 1 233 0 is_stmt 0 discriminator 1
 370 0022 3B68     		ldr	r3, [r7]
 371 0024 9B79     		ldrb	r3, [r3, #6]
 372 0026 012B     		cmp	r3, #1
 373 0028 1CD0     		beq	.L24
 374              		.loc 1 233 0 discriminator 2
 375 002a 3B68     		ldr	r3, [r7]
 376 002c 9B79     		ldrb	r3, [r3, #6]
 377 002e 022B     		cmp	r3, #2
 378 0030 18D0     		beq	.L24
 379              		.loc 1 233 0 discriminator 3
 380 0032 3B68     		ldr	r3, [r7]
 381 0034 9B79     		ldrb	r3, [r3, #6]
 382 0036 032B     		cmp	r3, #3
 383 0038 14D0     		beq	.L24
 384              		.loc 1 233 0 discriminator 4
 385 003a 3B68     		ldr	r3, [r7]
 386 003c 9B79     		ldrb	r3, [r3, #6]
ARM GAS  C:\Users\JC\AppData\Local\Temp\ccU1E72d.s 			page 12


 387 003e 042B     		cmp	r3, #4
 388 0040 10D0     		beq	.L24
 389              		.loc 1 233 0 discriminator 5
 390 0042 3B68     		ldr	r3, [r7]
 391 0044 9B79     		ldrb	r3, [r3, #6]
 392 0046 052B     		cmp	r3, #5
 393 0048 0CD0     		beq	.L24
 394              		.loc 1 233 0 discriminator 6
 395 004a 3B68     		ldr	r3, [r7]
 396 004c 9B79     		ldrb	r3, [r3, #6]
 397 004e 062B     		cmp	r3, #6
 398 0050 08D0     		beq	.L24
 399              		.loc 1 233 0 discriminator 7
 400 0052 3B68     		ldr	r3, [r7]
 401 0054 9B79     		ldrb	r3, [r3, #6]
 402 0056 072B     		cmp	r3, #7
 403 0058 04D0     		beq	.L24
 404              		.loc 1 233 0 discriminator 8
 405 005a 6B4B     		ldr	r3, .L31
 406 005c E921     		movs	r1, #233
 407 005e 1800     		movs	r0, r3
 408 0060 FFF7FEFF 		bl	Cy_SysLib_AssertFailed
 409              	.L24:
 234:Generated_Source\PSoC6\pdl\drivers\peripheral\prot/cy_prot.c ****     CY_ASSERT_L3(CY_PROT_IS_MPU_PERM_VALID(config->privPermission));
 410              		.loc 1 234 0 is_stmt 1
 411 0064 3B68     		ldr	r3, [r7]
 412 0066 DB79     		ldrb	r3, [r3, #7]
 413 0068 002B     		cmp	r3, #0
 414 006a 20D0     		beq	.L25
 415              		.loc 1 234 0 is_stmt 0 discriminator 1
 416 006c 3B68     		ldr	r3, [r7]
 417 006e DB79     		ldrb	r3, [r3, #7]
 418 0070 012B     		cmp	r3, #1
 419 0072 1CD0     		beq	.L25
 420              		.loc 1 234 0 discriminator 2
 421 0074 3B68     		ldr	r3, [r7]
 422 0076 DB79     		ldrb	r3, [r3, #7]
 423 0078 022B     		cmp	r3, #2
 424 007a 18D0     		beq	.L25
 425              		.loc 1 234 0 discriminator 3
 426 007c 3B68     		ldr	r3, [r7]
 427 007e DB79     		ldrb	r3, [r3, #7]
 428 0080 032B     		cmp	r3, #3
 429 0082 14D0     		beq	.L25
 430              		.loc 1 234 0 discriminator 4
 431 0084 3B68     		ldr	r3, [r7]
 432 0086 DB79     		ldrb	r3, [r3, #7]
 433 0088 042B     		cmp	r3, #4
 434 008a 10D0     		beq	.L25
 435              		.loc 1 234 0 discriminator 5
 436 008c 3B68     		ldr	r3, [r7]
 437 008e DB79     		ldrb	r3, [r3, #7]
 438 0090 052B     		cmp	r3, #5
 439 0092 0CD0     		beq	.L25
 440              		.loc 1 234 0 discriminator 6
 441 0094 3B68     		ldr	r3, [r7]
 442 0096 DB79     		ldrb	r3, [r3, #7]
ARM GAS  C:\Users\JC\AppData\Local\Temp\ccU1E72d.s 			page 13


 443 0098 062B     		cmp	r3, #6
 444 009a 08D0     		beq	.L25
 445              		.loc 1 234 0 discriminator 7
 446 009c 3B68     		ldr	r3, [r7]
 447 009e DB79     		ldrb	r3, [r3, #7]
 448 00a0 072B     		cmp	r3, #7
 449 00a2 04D0     		beq	.L25
 450              		.loc 1 234 0 discriminator 8
 451 00a4 584B     		ldr	r3, .L31
 452 00a6 EA21     		movs	r1, #234
 453 00a8 1800     		movs	r0, r3
 454 00aa FFF7FEFF 		bl	Cy_SysLib_AssertFailed
 455              	.L25:
 235:Generated_Source\PSoC6\pdl\drivers\peripheral\prot/cy_prot.c ****     CY_ASSERT_L3(CY_PROT_IS_REGION_SIZE_VALID(config->regionSize));
 456              		.loc 1 235 0 is_stmt 1
 457 00ae 3B68     		ldr	r3, [r7]
 458 00b0 1B79     		ldrb	r3, [r3, #4]
 459 00b2 072B     		cmp	r3, #7
 460 00b4 00D1     		bne	.LCB385
 461 00b6 67E0     		b	.L26	@long jump
 462              	.LCB385:
 463              		.loc 1 235 0 is_stmt 0 discriminator 1
 464 00b8 3B68     		ldr	r3, [r7]
 465 00ba 1B79     		ldrb	r3, [r3, #4]
 466 00bc 082B     		cmp	r3, #8
 467 00be 00D1     		bne	.LCB389
 468 00c0 62E0     		b	.L26	@long jump
 469              	.LCB389:
 470              		.loc 1 235 0 discriminator 2
 471 00c2 3B68     		ldr	r3, [r7]
 472 00c4 1B79     		ldrb	r3, [r3, #4]
 473 00c6 092B     		cmp	r3, #9
 474 00c8 00D1     		bne	.LCB393
 475 00ca 5DE0     		b	.L26	@long jump
 476              	.LCB393:
 477              		.loc 1 235 0 discriminator 3
 478 00cc 3B68     		ldr	r3, [r7]
 479 00ce 1B79     		ldrb	r3, [r3, #4]
 480 00d0 0A2B     		cmp	r3, #10
 481 00d2 00D1     		bne	.LCB397
 482 00d4 58E0     		b	.L26	@long jump
 483              	.LCB397:
 484              		.loc 1 235 0 discriminator 4
 485 00d6 3B68     		ldr	r3, [r7]
 486 00d8 1B79     		ldrb	r3, [r3, #4]
 487 00da 0B2B     		cmp	r3, #11
 488 00dc 54D0     		beq	.L26
 489              		.loc 1 235 0 discriminator 5
 490 00de 3B68     		ldr	r3, [r7]
 491 00e0 1B79     		ldrb	r3, [r3, #4]
 492 00e2 0C2B     		cmp	r3, #12
 493 00e4 50D0     		beq	.L26
 494              		.loc 1 235 0 discriminator 6
 495 00e6 3B68     		ldr	r3, [r7]
 496 00e8 1B79     		ldrb	r3, [r3, #4]
 497 00ea 0D2B     		cmp	r3, #13
 498 00ec 4CD0     		beq	.L26
ARM GAS  C:\Users\JC\AppData\Local\Temp\ccU1E72d.s 			page 14


 499              		.loc 1 235 0 discriminator 7
 500 00ee 3B68     		ldr	r3, [r7]
 501 00f0 1B79     		ldrb	r3, [r3, #4]
 502 00f2 0E2B     		cmp	r3, #14
 503 00f4 48D0     		beq	.L26
 504              		.loc 1 235 0 discriminator 8
 505 00f6 3B68     		ldr	r3, [r7]
 506 00f8 1B79     		ldrb	r3, [r3, #4]
 507 00fa 0F2B     		cmp	r3, #15
 508 00fc 44D0     		beq	.L26
 509              		.loc 1 235 0 discriminator 9
 510 00fe 3B68     		ldr	r3, [r7]
 511 0100 1B79     		ldrb	r3, [r3, #4]
 512 0102 102B     		cmp	r3, #16
 513 0104 40D0     		beq	.L26
 514              		.loc 1 235 0 discriminator 10
 515 0106 3B68     		ldr	r3, [r7]
 516 0108 1B79     		ldrb	r3, [r3, #4]
 517 010a 112B     		cmp	r3, #17
 518 010c 3CD0     		beq	.L26
 519              		.loc 1 235 0 discriminator 11
 520 010e 3B68     		ldr	r3, [r7]
 521 0110 1B79     		ldrb	r3, [r3, #4]
 522 0112 122B     		cmp	r3, #18
 523 0114 38D0     		beq	.L26
 524              		.loc 1 235 0 discriminator 12
 525 0116 3B68     		ldr	r3, [r7]
 526 0118 1B79     		ldrb	r3, [r3, #4]
 527 011a 132B     		cmp	r3, #19
 528 011c 34D0     		beq	.L26
 529              		.loc 1 235 0 discriminator 13
 530 011e 3B68     		ldr	r3, [r7]
 531 0120 1B79     		ldrb	r3, [r3, #4]
 532 0122 142B     		cmp	r3, #20
 533 0124 30D0     		beq	.L26
 534              		.loc 1 235 0 discriminator 14
 535 0126 3B68     		ldr	r3, [r7]
 536 0128 1B79     		ldrb	r3, [r3, #4]
 537 012a 152B     		cmp	r3, #21
 538 012c 2CD0     		beq	.L26
 539              		.loc 1 235 0 discriminator 15
 540 012e 3B68     		ldr	r3, [r7]
 541 0130 1B79     		ldrb	r3, [r3, #4]
 542 0132 162B     		cmp	r3, #22
 543 0134 28D0     		beq	.L26
 544              		.loc 1 235 0 discriminator 16
 545 0136 3B68     		ldr	r3, [r7]
 546 0138 1B79     		ldrb	r3, [r3, #4]
 547 013a 172B     		cmp	r3, #23
 548 013c 24D0     		beq	.L26
 549              		.loc 1 235 0 discriminator 17
 550 013e 3B68     		ldr	r3, [r7]
 551 0140 1B79     		ldrb	r3, [r3, #4]
 552 0142 182B     		cmp	r3, #24
 553 0144 20D0     		beq	.L26
 554              		.loc 1 235 0 discriminator 18
 555 0146 3B68     		ldr	r3, [r7]
ARM GAS  C:\Users\JC\AppData\Local\Temp\ccU1E72d.s 			page 15


 556 0148 1B79     		ldrb	r3, [r3, #4]
 557 014a 192B     		cmp	r3, #25
 558 014c 1CD0     		beq	.L26
 559              		.loc 1 235 0 discriminator 19
 560 014e 3B68     		ldr	r3, [r7]
 561 0150 1B79     		ldrb	r3, [r3, #4]
 562 0152 1A2B     		cmp	r3, #26
 563 0154 18D0     		beq	.L26
 564              		.loc 1 235 0 discriminator 20
 565 0156 3B68     		ldr	r3, [r7]
 566 0158 1B79     		ldrb	r3, [r3, #4]
 567 015a 1B2B     		cmp	r3, #27
 568 015c 14D0     		beq	.L26
 569              		.loc 1 235 0 discriminator 21
 570 015e 3B68     		ldr	r3, [r7]
 571 0160 1B79     		ldrb	r3, [r3, #4]
 572 0162 1C2B     		cmp	r3, #28
 573 0164 10D0     		beq	.L26
 574              		.loc 1 235 0 discriminator 22
 575 0166 3B68     		ldr	r3, [r7]
 576 0168 1B79     		ldrb	r3, [r3, #4]
 577 016a 1D2B     		cmp	r3, #29
 578 016c 0CD0     		beq	.L26
 579              		.loc 1 235 0 discriminator 23
 580 016e 3B68     		ldr	r3, [r7]
 581 0170 1B79     		ldrb	r3, [r3, #4]
 582 0172 1E2B     		cmp	r3, #30
 583 0174 08D0     		beq	.L26
 584              		.loc 1 235 0 discriminator 24
 585 0176 3B68     		ldr	r3, [r7]
 586 0178 1B79     		ldrb	r3, [r3, #4]
 587 017a 1F2B     		cmp	r3, #31
 588 017c 04D0     		beq	.L26
 589              		.loc 1 235 0 discriminator 25
 590 017e 224B     		ldr	r3, .L31
 591 0180 EB21     		movs	r1, #235
 592 0182 1800     		movs	r0, r3
 593 0184 FFF7FEFF 		bl	Cy_SysLib_AssertFailed
 594              	.L26:
 236:Generated_Source\PSoC6\pdl\drivers\peripheral\prot/cy_prot.c **** 
 237:Generated_Source\PSoC6\pdl\drivers\peripheral\prot/cy_prot.c ****     addrReg = _VAL2FLD(PROT_MPU_MPU_STRUCT_ADDR_SUBREGION_DISABLE, config->subregions)
 595              		.loc 1 237 0 is_stmt 1
 596 0188 3B68     		ldr	r3, [r7]
 597 018a 5B79     		ldrb	r3, [r3, #5]
 598 018c 1A00     		movs	r2, r3
 238:Generated_Source\PSoC6\pdl\drivers\peripheral\prot/cy_prot.c ****               | _VAL2FLD(PROT_MPU_MPU_STRUCT_ADDR_ADDR24, (uint32_t)((uint32_t)config->address >> C
 599              		.loc 1 238 0
 600 018e 3B68     		ldr	r3, [r7]
 601 0190 1B68     		ldr	r3, [r3]
 602 0192 1900     		movs	r1, r3
 603 0194 FF23     		movs	r3, #255
 604 0196 9943     		bics	r1, r3
 605 0198 0B00     		movs	r3, r1
 237:Generated_Source\PSoC6\pdl\drivers\peripheral\prot/cy_prot.c ****               | _VAL2FLD(PROT_MPU_MPU_STRUCT_ADDR_ADDR24, (uint32_t)((uint32_t)config->address >> C
 606              		.loc 1 237 0
 607 019a 1343     		orrs	r3, r2
 608 019c 7B61     		str	r3, [r7, #20]
ARM GAS  C:\Users\JC\AppData\Local\Temp\ccU1E72d.s 			page 16


 239:Generated_Source\PSoC6\pdl\drivers\peripheral\prot/cy_prot.c ****     attReg  = ((uint32_t)config->userPermission & CY_PROT_ATT_PERMISSION_MASK)
 609              		.loc 1 239 0
 610 019e 3B68     		ldr	r3, [r7]
 611 01a0 9B79     		ldrb	r3, [r3, #6]
 612 01a2 1A00     		movs	r2, r3
 613 01a4 0723     		movs	r3, #7
 614 01a6 1A40     		ands	r2, r3
 240:Generated_Source\PSoC6\pdl\drivers\peripheral\prot/cy_prot.c ****               | (((uint32_t)config->privPermission & CY_PROT_ATT_PERMISSION_MASK) << CY_PROT_ATT_PR
 615              		.loc 1 240 0
 616 01a8 3B68     		ldr	r3, [r7]
 617 01aa DB79     		ldrb	r3, [r3, #7]
 618 01ac DB00     		lsls	r3, r3, #3
 619 01ae 3821     		movs	r1, #56
 620 01b0 0B40     		ands	r3, r1
 621 01b2 1A43     		orrs	r2, r3
 241:Generated_Source\PSoC6\pdl\drivers\peripheral\prot/cy_prot.c ****               | _VAL2FLD(PROT_MPU_MPU_STRUCT_ATT_NS, !(config->secure))
 622              		.loc 1 241 0
 623 01b4 3B68     		ldr	r3, [r7]
 624 01b6 1B7A     		ldrb	r3, [r3, #8]
 625 01b8 0121     		movs	r1, #1
 626 01ba 4B40     		eors	r3, r1
 627 01bc DBB2     		uxtb	r3, r3
 628 01be 9B01     		lsls	r3, r3, #6
 629 01c0 4021     		movs	r1, #64
 630 01c2 0B40     		ands	r3, r1
 631 01c4 1A43     		orrs	r2, r3
 242:Generated_Source\PSoC6\pdl\drivers\peripheral\prot/cy_prot.c ****               | _VAL2FLD(PROT_MPU_MPU_STRUCT_ATT_REGION_SIZE, config->regionSize);
 632              		.loc 1 242 0
 633 01c6 3B68     		ldr	r3, [r7]
 634 01c8 1B79     		ldrb	r3, [r3, #4]
 635 01ca 1906     		lsls	r1, r3, #24
 636 01cc F823     		movs	r3, #248
 637 01ce 5B05     		lsls	r3, r3, #21
 638 01d0 0B40     		ands	r3, r1
 239:Generated_Source\PSoC6\pdl\drivers\peripheral\prot/cy_prot.c ****               | (((uint32_t)config->privPermission & CY_PROT_ATT_PERMISSION_MASK) << CY_PROT_ATT_PR
 639              		.loc 1 239 0
 640 01d2 1343     		orrs	r3, r2
 641 01d4 3B61     		str	r3, [r7, #16]
 243:Generated_Source\PSoC6\pdl\drivers\peripheral\prot/cy_prot.c ****     PROT_MPU_MPU_STRUCT_ATT(base) = attReg;
 642              		.loc 1 243 0
 643 01d6 7B68     		ldr	r3, [r7, #4]
 644 01d8 3A69     		ldr	r2, [r7, #16]
 645 01da 5A60     		str	r2, [r3, #4]
 244:Generated_Source\PSoC6\pdl\drivers\peripheral\prot/cy_prot.c ****     PROT_MPU_MPU_STRUCT_ADDR(base) = addrReg;
 646              		.loc 1 244 0
 647 01dc 7B68     		ldr	r3, [r7, #4]
 648 01de 7A69     		ldr	r2, [r7, #20]
 649 01e0 1A60     		str	r2, [r3]
 245:Generated_Source\PSoC6\pdl\drivers\peripheral\prot/cy_prot.c ****     status = ((PROT_MPU_MPU_STRUCT_ADDR(base) != addrReg) || (PROT_MPU_MPU_STRUCT_ATT(base) != attR
 650              		.loc 1 245 0
 651 01e2 7B68     		ldr	r3, [r7, #4]
 652 01e4 1A68     		ldr	r2, [r3]
 653 01e6 7B69     		ldr	r3, [r7, #20]
 654 01e8 9A42     		cmp	r2, r3
 655 01ea 04D1     		bne	.L27
 656              		.loc 1 245 0 is_stmt 0 discriminator 2
 657 01ec 7B68     		ldr	r3, [r7, #4]
ARM GAS  C:\Users\JC\AppData\Local\Temp\ccU1E72d.s 			page 17


 658 01ee 5A68     		ldr	r2, [r3, #4]
 659 01f0 3B69     		ldr	r3, [r7, #16]
 660 01f2 9A42     		cmp	r2, r3
 661 01f4 01D0     		beq	.L28
 662              	.L27:
 663              		.loc 1 245 0 discriminator 3
 664 01f6 054B     		ldr	r3, .L31+4
 665 01f8 00E0     		b	.L29
 666              	.L28:
 667              		.loc 1 245 0 discriminator 4
 668 01fa 0023     		movs	r3, #0
 669              	.L29:
 670              		.loc 1 245 0 discriminator 6
 671 01fc FB60     		str	r3, [r7, #12]
 246:Generated_Source\PSoC6\pdl\drivers\peripheral\prot/cy_prot.c ****     
 247:Generated_Source\PSoC6\pdl\drivers\peripheral\prot/cy_prot.c ****     return status;
 672              		.loc 1 247 0 is_stmt 1 discriminator 6
 673 01fe FB68     		ldr	r3, [r7, #12]
 248:Generated_Source\PSoC6\pdl\drivers\peripheral\prot/cy_prot.c **** }
 674              		.loc 1 248 0 discriminator 6
 675 0200 1800     		movs	r0, r3
 676 0202 BD46     		mov	sp, r7
 677 0204 06B0     		add	sp, sp, #24
 678              		@ sp needed
 679 0206 80BD     		pop	{r7, pc}
 680              	.L32:
 681              		.align	2
 682              	.L31:
 683 0208 00000000 		.word	.LC1
 684 020c 0300C200 		.word	12713987
 685              		.cfi_endproc
 686              	.LFE50:
 687              		.size	Cy_Prot_ConfigMpuStruct, .-Cy_Prot_ConfigMpuStruct
 688              		.section	.text.Cy_Prot_EnableMpuStruct,"ax",%progbits
 689              		.align	2
 690              		.global	Cy_Prot_EnableMpuStruct
 691              		.code	16
 692              		.thumb_func
 693              		.type	Cy_Prot_EnableMpuStruct, %function
 694              	Cy_Prot_EnableMpuStruct:
 695              	.LFB51:
 249:Generated_Source\PSoC6\pdl\drivers\peripheral\prot/cy_prot.c **** 
 250:Generated_Source\PSoC6\pdl\drivers\peripheral\prot/cy_prot.c **** 
 251:Generated_Source\PSoC6\pdl\drivers\peripheral\prot/cy_prot.c **** /*******************************************************************************
 252:Generated_Source\PSoC6\pdl\drivers\peripheral\prot/cy_prot.c **** * Function Name: Cy_Prot_EnableMpuStruct
 253:Generated_Source\PSoC6\pdl\drivers\peripheral\prot/cy_prot.c **** ****************************************************************************//**
 254:Generated_Source\PSoC6\pdl\drivers\peripheral\prot/cy_prot.c **** *
 255:Generated_Source\PSoC6\pdl\drivers\peripheral\prot/cy_prot.c **** * Enables the MPU struct, which allows the MPU protection attributes to 
 256:Generated_Source\PSoC6\pdl\drivers\peripheral\prot/cy_prot.c **** * take effect. 
 257:Generated_Source\PSoC6\pdl\drivers\peripheral\prot/cy_prot.c **** *
 258:Generated_Source\PSoC6\pdl\drivers\peripheral\prot/cy_prot.c **** * \note This function is applicable for both CPUSS ver_1 and ver_2.
 259:Generated_Source\PSoC6\pdl\drivers\peripheral\prot/cy_prot.c **** *
 260:Generated_Source\PSoC6\pdl\drivers\peripheral\prot/cy_prot.c **** * \param base
 261:Generated_Source\PSoC6\pdl\drivers\peripheral\prot/cy_prot.c **** * The base address of the MPU struct being configured. 
 262:Generated_Source\PSoC6\pdl\drivers\peripheral\prot/cy_prot.c **** *
 263:Generated_Source\PSoC6\pdl\drivers\peripheral\prot/cy_prot.c **** * \return
 264:Generated_Source\PSoC6\pdl\drivers\peripheral\prot/cy_prot.c **** * Status of the function call.
ARM GAS  C:\Users\JC\AppData\Local\Temp\ccU1E72d.s 			page 18


 265:Generated_Source\PSoC6\pdl\drivers\peripheral\prot/cy_prot.c **** *
 266:Generated_Source\PSoC6\pdl\drivers\peripheral\prot/cy_prot.c **** *   Status               | Description
 267:Generated_Source\PSoC6\pdl\drivers\peripheral\prot/cy_prot.c **** *   ------------         | -----------
 268:Generated_Source\PSoC6\pdl\drivers\peripheral\prot/cy_prot.c **** *   CY_PROT_SUCCESS      | The MPU struct was enabled.
 269:Generated_Source\PSoC6\pdl\drivers\peripheral\prot/cy_prot.c **** *   CY_PROT_FAILURE      | The MPU struct is disabled and possibly locked.
 270:Generated_Source\PSoC6\pdl\drivers\peripheral\prot/cy_prot.c **** *
 271:Generated_Source\PSoC6\pdl\drivers\peripheral\prot/cy_prot.c **** * \funcusage
 272:Generated_Source\PSoC6\pdl\drivers\peripheral\prot/cy_prot.c **** * \snippet prot/1.20/snippet/main.c snippet_Cy_Prot_EnableMpuStruct
 273:Generated_Source\PSoC6\pdl\drivers\peripheral\prot/cy_prot.c **** *
 274:Generated_Source\PSoC6\pdl\drivers\peripheral\prot/cy_prot.c **** *******************************************************************************/
 275:Generated_Source\PSoC6\pdl\drivers\peripheral\prot/cy_prot.c **** cy_en_prot_status_t Cy_Prot_EnableMpuStruct(PROT_MPU_MPU_STRUCT_Type* base)
 276:Generated_Source\PSoC6\pdl\drivers\peripheral\prot/cy_prot.c **** {
 696              		.loc 1 276 0
 697              		.cfi_startproc
 698              		@ args = 0, pretend = 0, frame = 16
 699              		@ frame_needed = 1, uses_anonymous_args = 0
 700 0000 80B5     		push	{r7, lr}
 701              		.cfi_def_cfa_offset 8
 702              		.cfi_offset 7, -8
 703              		.cfi_offset 14, -4
 704 0002 84B0     		sub	sp, sp, #16
 705              		.cfi_def_cfa_offset 24
 706 0004 00AF     		add	r7, sp, #0
 707              		.cfi_def_cfa_register 7
 708 0006 7860     		str	r0, [r7, #4]
 277:Generated_Source\PSoC6\pdl\drivers\peripheral\prot/cy_prot.c ****     cy_en_prot_status_t status;
 278:Generated_Source\PSoC6\pdl\drivers\peripheral\prot/cy_prot.c ****     
 279:Generated_Source\PSoC6\pdl\drivers\peripheral\prot/cy_prot.c ****     CY_ASSERT_L1(NULL != base);
 709              		.loc 1 279 0
 710 0008 7B68     		ldr	r3, [r7, #4]
 711 000a 002B     		cmp	r3, #0
 712 000c 07D1     		bne	.L34
 713              		.loc 1 279 0 is_stmt 0 discriminator 1
 714 000e 1823     		movs	r3, #24
 715 0010 FF33     		adds	r3, r3, #255
 716 0012 1A00     		movs	r2, r3
 717 0014 0D4B     		ldr	r3, .L38
 718 0016 1100     		movs	r1, r2
 719 0018 1800     		movs	r0, r3
 720 001a FFF7FEFF 		bl	Cy_SysLib_AssertFailed
 721              	.L34:
 280:Generated_Source\PSoC6\pdl\drivers\peripheral\prot/cy_prot.c ****     
 281:Generated_Source\PSoC6\pdl\drivers\peripheral\prot/cy_prot.c ****     PROT_MPU_MPU_STRUCT_ATT(base) |= _VAL2FLD(PROT_MPU_MPU_STRUCT_ATT_ENABLED, CY_PROT_STRUCT_ENABL
 722              		.loc 1 281 0 is_stmt 1
 723 001e 7B68     		ldr	r3, [r7, #4]
 724 0020 5B68     		ldr	r3, [r3, #4]
 725 0022 8022     		movs	r2, #128
 726 0024 1206     		lsls	r2, r2, #24
 727 0026 1A43     		orrs	r2, r3
 728 0028 7B68     		ldr	r3, [r7, #4]
 729 002a 5A60     		str	r2, [r3, #4]
 282:Generated_Source\PSoC6\pdl\drivers\peripheral\prot/cy_prot.c ****     status = (_FLD2VAL(PROT_MPU_MPU_STRUCT_ATT_ENABLED, PROT_MPU_MPU_STRUCT_ATT(base)) != CY_PROT_S
 730              		.loc 1 282 0
 731 002c 7B68     		ldr	r3, [r7, #4]
 732 002e 5B68     		ldr	r3, [r3, #4]
 733 0030 DB0F     		lsrs	r3, r3, #31
 734 0032 DB07     		lsls	r3, r3, #31
ARM GAS  C:\Users\JC\AppData\Local\Temp\ccU1E72d.s 			page 19


 735 0034 DB0F     		lsrs	r3, r3, #31
 736 0036 012B     		cmp	r3, #1
 737 0038 01D0     		beq	.L35
 738              		.loc 1 282 0 is_stmt 0 discriminator 1
 739 003a 054B     		ldr	r3, .L38+4
 740 003c 00E0     		b	.L36
 741              	.L35:
 742              		.loc 1 282 0 discriminator 2
 743 003e 0023     		movs	r3, #0
 744              	.L36:
 745              		.loc 1 282 0 discriminator 4
 746 0040 FB60     		str	r3, [r7, #12]
 283:Generated_Source\PSoC6\pdl\drivers\peripheral\prot/cy_prot.c ****                 CY_PROT_FAILURE : CY_PROT_SUCCESS;
 284:Generated_Source\PSoC6\pdl\drivers\peripheral\prot/cy_prot.c ****     
 285:Generated_Source\PSoC6\pdl\drivers\peripheral\prot/cy_prot.c ****     return status;
 747              		.loc 1 285 0 is_stmt 1 discriminator 4
 748 0042 FB68     		ldr	r3, [r7, #12]
 286:Generated_Source\PSoC6\pdl\drivers\peripheral\prot/cy_prot.c **** }
 749              		.loc 1 286 0 discriminator 4
 750 0044 1800     		movs	r0, r3
 751 0046 BD46     		mov	sp, r7
 752 0048 04B0     		add	sp, sp, #16
 753              		@ sp needed
 754 004a 80BD     		pop	{r7, pc}
 755              	.L39:
 756              		.align	2
 757              	.L38:
 758 004c 00000000 		.word	.LC1
 759 0050 0300C200 		.word	12713987
 760              		.cfi_endproc
 761              	.LFE51:
 762              		.size	Cy_Prot_EnableMpuStruct, .-Cy_Prot_EnableMpuStruct
 763              		.section	.text.Cy_Prot_DisableMpuStruct,"ax",%progbits
 764              		.align	2
 765              		.global	Cy_Prot_DisableMpuStruct
 766              		.code	16
 767              		.thumb_func
 768              		.type	Cy_Prot_DisableMpuStruct, %function
 769              	Cy_Prot_DisableMpuStruct:
 770              	.LFB52:
 287:Generated_Source\PSoC6\pdl\drivers\peripheral\prot/cy_prot.c **** 
 288:Generated_Source\PSoC6\pdl\drivers\peripheral\prot/cy_prot.c **** 
 289:Generated_Source\PSoC6\pdl\drivers\peripheral\prot/cy_prot.c **** /*******************************************************************************
 290:Generated_Source\PSoC6\pdl\drivers\peripheral\prot/cy_prot.c **** * Function Name: Cy_Prot_DisableMpuStruct
 291:Generated_Source\PSoC6\pdl\drivers\peripheral\prot/cy_prot.c **** ****************************************************************************//**
 292:Generated_Source\PSoC6\pdl\drivers\peripheral\prot/cy_prot.c **** *
 293:Generated_Source\PSoC6\pdl\drivers\peripheral\prot/cy_prot.c **** * Disables the MPU struct, which prevents the MPU protection attributes
 294:Generated_Source\PSoC6\pdl\drivers\peripheral\prot/cy_prot.c **** * from taking effect.
 295:Generated_Source\PSoC6\pdl\drivers\peripheral\prot/cy_prot.c **** *
 296:Generated_Source\PSoC6\pdl\drivers\peripheral\prot/cy_prot.c **** * \note This function is applicable for both CPUSS ver_1 and ver_2.
 297:Generated_Source\PSoC6\pdl\drivers\peripheral\prot/cy_prot.c **** *
 298:Generated_Source\PSoC6\pdl\drivers\peripheral\prot/cy_prot.c **** * \param base
 299:Generated_Source\PSoC6\pdl\drivers\peripheral\prot/cy_prot.c **** * The base address of the MPU struct being configured. 
 300:Generated_Source\PSoC6\pdl\drivers\peripheral\prot/cy_prot.c **** *
 301:Generated_Source\PSoC6\pdl\drivers\peripheral\prot/cy_prot.c **** * \return
 302:Generated_Source\PSoC6\pdl\drivers\peripheral\prot/cy_prot.c **** * Status of the function call.
 303:Generated_Source\PSoC6\pdl\drivers\peripheral\prot/cy_prot.c **** *
ARM GAS  C:\Users\JC\AppData\Local\Temp\ccU1E72d.s 			page 20


 304:Generated_Source\PSoC6\pdl\drivers\peripheral\prot/cy_prot.c **** *   Status               | Description
 305:Generated_Source\PSoC6\pdl\drivers\peripheral\prot/cy_prot.c **** *   ------------         | -----------
 306:Generated_Source\PSoC6\pdl\drivers\peripheral\prot/cy_prot.c **** *   CY_PROT_SUCCESS      | The MPU struct was disabled.
 307:Generated_Source\PSoC6\pdl\drivers\peripheral\prot/cy_prot.c **** *   CY_PROT_FAILURE      | The MPU struct is enabled and possibly locked.
 308:Generated_Source\PSoC6\pdl\drivers\peripheral\prot/cy_prot.c **** *
 309:Generated_Source\PSoC6\pdl\drivers\peripheral\prot/cy_prot.c **** * \funcusage
 310:Generated_Source\PSoC6\pdl\drivers\peripheral\prot/cy_prot.c **** * \snippet prot/1.20/snippet/main.c snippet_Cy_Prot_DisableMpuStruct
 311:Generated_Source\PSoC6\pdl\drivers\peripheral\prot/cy_prot.c **** *
 312:Generated_Source\PSoC6\pdl\drivers\peripheral\prot/cy_prot.c **** *******************************************************************************/
 313:Generated_Source\PSoC6\pdl\drivers\peripheral\prot/cy_prot.c **** cy_en_prot_status_t Cy_Prot_DisableMpuStruct(PROT_MPU_MPU_STRUCT_Type* base)
 314:Generated_Source\PSoC6\pdl\drivers\peripheral\prot/cy_prot.c **** {
 771              		.loc 1 314 0
 772              		.cfi_startproc
 773              		@ args = 0, pretend = 0, frame = 16
 774              		@ frame_needed = 1, uses_anonymous_args = 0
 775 0000 80B5     		push	{r7, lr}
 776              		.cfi_def_cfa_offset 8
 777              		.cfi_offset 7, -8
 778              		.cfi_offset 14, -4
 779 0002 84B0     		sub	sp, sp, #16
 780              		.cfi_def_cfa_offset 24
 781 0004 00AF     		add	r7, sp, #0
 782              		.cfi_def_cfa_register 7
 783 0006 7860     		str	r0, [r7, #4]
 315:Generated_Source\PSoC6\pdl\drivers\peripheral\prot/cy_prot.c ****     cy_en_prot_status_t status;
 316:Generated_Source\PSoC6\pdl\drivers\peripheral\prot/cy_prot.c **** 
 317:Generated_Source\PSoC6\pdl\drivers\peripheral\prot/cy_prot.c ****     CY_ASSERT_L1(NULL != base);
 784              		.loc 1 317 0
 785 0008 7B68     		ldr	r3, [r7, #4]
 786 000a 002B     		cmp	r3, #0
 787 000c 07D1     		bne	.L41
 788              		.loc 1 317 0 is_stmt 0 discriminator 1
 789 000e 3E23     		movs	r3, #62
 790 0010 FF33     		adds	r3, r3, #255
 791 0012 1A00     		movs	r2, r3
 792 0014 0D4B     		ldr	r3, .L45
 793 0016 1100     		movs	r1, r2
 794 0018 1800     		movs	r0, r3
 795 001a FFF7FEFF 		bl	Cy_SysLib_AssertFailed
 796              	.L41:
 318:Generated_Source\PSoC6\pdl\drivers\peripheral\prot/cy_prot.c ****     
 319:Generated_Source\PSoC6\pdl\drivers\peripheral\prot/cy_prot.c ****     PROT_MPU_MPU_STRUCT_ATT(base) &= ~_VAL2FLD(PROT_MPU_MPU_STRUCT_ATT_ENABLED, CY_PROT_STRUCT_ENAB
 797              		.loc 1 319 0 is_stmt 1
 798 001e 7B68     		ldr	r3, [r7, #4]
 799 0020 5B68     		ldr	r3, [r3, #4]
 800 0022 5B00     		lsls	r3, r3, #1
 801 0024 5A08     		lsrs	r2, r3, #1
 802 0026 7B68     		ldr	r3, [r7, #4]
 803 0028 5A60     		str	r2, [r3, #4]
 320:Generated_Source\PSoC6\pdl\drivers\peripheral\prot/cy_prot.c ****     status = (_FLD2VAL(PROT_MPU_MPU_STRUCT_ATT_ENABLED, PROT_MPU_MPU_STRUCT_ATT(base)) == CY_PROT_S
 804              		.loc 1 320 0
 805 002a 7B68     		ldr	r3, [r7, #4]
 806 002c 5B68     		ldr	r3, [r3, #4]
 807 002e DB0F     		lsrs	r3, r3, #31
 808 0030 DB07     		lsls	r3, r3, #31
 809 0032 DB0F     		lsrs	r3, r3, #31
 810 0034 012B     		cmp	r3, #1
ARM GAS  C:\Users\JC\AppData\Local\Temp\ccU1E72d.s 			page 21


 811 0036 01D1     		bne	.L42
 812              		.loc 1 320 0 is_stmt 0 discriminator 1
 813 0038 054B     		ldr	r3, .L45+4
 814 003a 00E0     		b	.L43
 815              	.L42:
 816              		.loc 1 320 0 discriminator 2
 817 003c 0023     		movs	r3, #0
 818              	.L43:
 819              		.loc 1 320 0 discriminator 4
 820 003e FB60     		str	r3, [r7, #12]
 321:Generated_Source\PSoC6\pdl\drivers\peripheral\prot/cy_prot.c ****                CY_PROT_FAILURE : CY_PROT_SUCCESS;
 322:Generated_Source\PSoC6\pdl\drivers\peripheral\prot/cy_prot.c ****     
 323:Generated_Source\PSoC6\pdl\drivers\peripheral\prot/cy_prot.c ****     return status;
 821              		.loc 1 323 0 is_stmt 1 discriminator 4
 822 0040 FB68     		ldr	r3, [r7, #12]
 324:Generated_Source\PSoC6\pdl\drivers\peripheral\prot/cy_prot.c **** }
 823              		.loc 1 324 0 discriminator 4
 824 0042 1800     		movs	r0, r3
 825 0044 BD46     		mov	sp, r7
 826 0046 04B0     		add	sp, sp, #16
 827              		@ sp needed
 828 0048 80BD     		pop	{r7, pc}
 829              	.L46:
 830 004a C046     		.align	2
 831              	.L45:
 832 004c 00000000 		.word	.LC1
 833 0050 0300C200 		.word	12713987
 834              		.cfi_endproc
 835              	.LFE52:
 836              		.size	Cy_Prot_DisableMpuStruct, .-Cy_Prot_DisableMpuStruct
 837              		.section	.text.Cy_Prot_ConfigSmpuMasterStruct,"ax",%progbits
 838              		.align	2
 839              		.global	Cy_Prot_ConfigSmpuMasterStruct
 840              		.code	16
 841              		.thumb_func
 842              		.type	Cy_Prot_ConfigSmpuMasterStruct, %function
 843              	Cy_Prot_ConfigSmpuMasterStruct:
 844              	.LFB53:
 325:Generated_Source\PSoC6\pdl\drivers\peripheral\prot/cy_prot.c **** 
 326:Generated_Source\PSoC6\pdl\drivers\peripheral\prot/cy_prot.c **** 
 327:Generated_Source\PSoC6\pdl\drivers\peripheral\prot/cy_prot.c **** /*******************************************************************************
 328:Generated_Source\PSoC6\pdl\drivers\peripheral\prot/cy_prot.c **** * Function Name: Cy_Prot_ConfigSmpuMasterStruct
 329:Generated_Source\PSoC6\pdl\drivers\peripheral\prot/cy_prot.c **** ****************************************************************************//**
 330:Generated_Source\PSoC6\pdl\drivers\peripheral\prot/cy_prot.c **** *
 331:Generated_Source\PSoC6\pdl\drivers\peripheral\prot/cy_prot.c **** * Configures a Shared Memory Protection Unit (SMPU) master protection 
 332:Generated_Source\PSoC6\pdl\drivers\peripheral\prot/cy_prot.c **** * struct with its protection attributes. 
 333:Generated_Source\PSoC6\pdl\drivers\peripheral\prot/cy_prot.c **** *
 334:Generated_Source\PSoC6\pdl\drivers\peripheral\prot/cy_prot.c **** * This function configures the master struct governing the corresponding slave
 335:Generated_Source\PSoC6\pdl\drivers\peripheral\prot/cy_prot.c **** * struct pair. It is a mechanism to protect the slave SMPU struct. Since the
 336:Generated_Source\PSoC6\pdl\drivers\peripheral\prot/cy_prot.c **** * memory location of the slave struct is known, the address, regionSize and
 337:Generated_Source\PSoC6\pdl\drivers\peripheral\prot/cy_prot.c **** * subregions of the configuration struct are not applicable.
 338:Generated_Source\PSoC6\pdl\drivers\peripheral\prot/cy_prot.c **** *
 339:Generated_Source\PSoC6\pdl\drivers\peripheral\prot/cy_prot.c **** * Note that only the user/privileged write permissions are configurable. The 
 340:Generated_Source\PSoC6\pdl\drivers\peripheral\prot/cy_prot.c **** * read and execute permissions are read-only and cannot be configured.
 341:Generated_Source\PSoC6\pdl\drivers\peripheral\prot/cy_prot.c **** *
 342:Generated_Source\PSoC6\pdl\drivers\peripheral\prot/cy_prot.c **** * \note This function is applicable for both CPUSS ver_1 and ver_2.
 343:Generated_Source\PSoC6\pdl\drivers\peripheral\prot/cy_prot.c **** *
ARM GAS  C:\Users\JC\AppData\Local\Temp\ccU1E72d.s 			page 22


 344:Generated_Source\PSoC6\pdl\drivers\peripheral\prot/cy_prot.c **** * \param base
 345:Generated_Source\PSoC6\pdl\drivers\peripheral\prot/cy_prot.c **** * The register base address of the protection struct being configured.
 346:Generated_Source\PSoC6\pdl\drivers\peripheral\prot/cy_prot.c **** * 
 347:Generated_Source\PSoC6\pdl\drivers\peripheral\prot/cy_prot.c **** * \param config
 348:Generated_Source\PSoC6\pdl\drivers\peripheral\prot/cy_prot.c **** * Initialization structure with all the protection attributes.
 349:Generated_Source\PSoC6\pdl\drivers\peripheral\prot/cy_prot.c **** * 
 350:Generated_Source\PSoC6\pdl\drivers\peripheral\prot/cy_prot.c **** * \return
 351:Generated_Source\PSoC6\pdl\drivers\peripheral\prot/cy_prot.c **** * Status of the function call.
 352:Generated_Source\PSoC6\pdl\drivers\peripheral\prot/cy_prot.c **** *
 353:Generated_Source\PSoC6\pdl\drivers\peripheral\prot/cy_prot.c **** *   Status               | Description
 354:Generated_Source\PSoC6\pdl\drivers\peripheral\prot/cy_prot.c **** *   ------------         | -----------
 355:Generated_Source\PSoC6\pdl\drivers\peripheral\prot/cy_prot.c **** *   CY_PROT_SUCCESS      | SMPU master struct was successfully configured.
 356:Generated_Source\PSoC6\pdl\drivers\peripheral\prot/cy_prot.c **** *   CY_PROT_FAILURE      | The resource is locked.
 357:Generated_Source\PSoC6\pdl\drivers\peripheral\prot/cy_prot.c **** *   CY_PROT_BAD_PARAM    | An incorrect/invalid parameter was passed.
 358:Generated_Source\PSoC6\pdl\drivers\peripheral\prot/cy_prot.c **** *
 359:Generated_Source\PSoC6\pdl\drivers\peripheral\prot/cy_prot.c **** * \funcusage
 360:Generated_Source\PSoC6\pdl\drivers\peripheral\prot/cy_prot.c **** * \snippet prot/1.20/snippet/main.c snippet_Cy_Prot_ConfigSmpuMasterStruct
 361:Generated_Source\PSoC6\pdl\drivers\peripheral\prot/cy_prot.c **** *
 362:Generated_Source\PSoC6\pdl\drivers\peripheral\prot/cy_prot.c **** *******************************************************************************/
 363:Generated_Source\PSoC6\pdl\drivers\peripheral\prot/cy_prot.c **** cy_en_prot_status_t Cy_Prot_ConfigSmpuMasterStruct(PROT_SMPU_SMPU_STRUCT_Type* base, const cy_stc_s
 364:Generated_Source\PSoC6\pdl\drivers\peripheral\prot/cy_prot.c **** {
 845              		.loc 1 364 0
 846              		.cfi_startproc
 847              		@ args = 0, pretend = 0, frame = 16
 848              		@ frame_needed = 1, uses_anonymous_args = 0
 849 0000 80B5     		push	{r7, lr}
 850              		.cfi_def_cfa_offset 8
 851              		.cfi_offset 7, -8
 852              		.cfi_offset 14, -4
 853 0002 84B0     		sub	sp, sp, #16
 854              		.cfi_def_cfa_offset 24
 855 0004 00AF     		add	r7, sp, #0
 856              		.cfi_def_cfa_register 7
 857 0006 7860     		str	r0, [r7, #4]
 858 0008 3960     		str	r1, [r7]
 365:Generated_Source\PSoC6\pdl\drivers\peripheral\prot/cy_prot.c ****     cy_en_prot_status_t status;
 366:Generated_Source\PSoC6\pdl\drivers\peripheral\prot/cy_prot.c ****     uint32_t attReg;
 367:Generated_Source\PSoC6\pdl\drivers\peripheral\prot/cy_prot.c ****     
 368:Generated_Source\PSoC6\pdl\drivers\peripheral\prot/cy_prot.c ****     CY_ASSERT_L1(NULL != base);
 859              		.loc 1 368 0
 860 000a 7B68     		ldr	r3, [r7, #4]
 861 000c 002B     		cmp	r3, #0
 862 000e 06D1     		bne	.L48
 863              		.loc 1 368 0 is_stmt 0 discriminator 1
 864 0010 B823     		movs	r3, #184
 865 0012 5A00     		lsls	r2, r3, #1
 866 0014 3C4B     		ldr	r3, .L58
 867 0016 1100     		movs	r1, r2
 868 0018 1800     		movs	r0, r3
 869 001a FFF7FEFF 		bl	Cy_SysLib_AssertFailed
 870              	.L48:
 369:Generated_Source\PSoC6\pdl\drivers\peripheral\prot/cy_prot.c ****     CY_ASSERT_L2(CY_PROT_IS_PC_MASK_VALID(config->pcMask));
 871              		.loc 1 369 0 is_stmt 1
 872 001e 3B68     		ldr	r3, [r7]
 873 0020 5B89     		ldrh	r3, [r3, #10]
 874 0022 DB0B     		lsrs	r3, r3, #15
 875 0024 DB03     		lsls	r3, r3, #15
ARM GAS  C:\Users\JC\AppData\Local\Temp\ccU1E72d.s 			page 23


 876 0026 07D0     		beq	.L49
 877              		.loc 1 369 0 is_stmt 0 discriminator 1
 878 0028 7223     		movs	r3, #114
 879 002a FF33     		adds	r3, r3, #255
 880 002c 1A00     		movs	r2, r3
 881 002e 364B     		ldr	r3, .L58
 882 0030 1100     		movs	r1, r2
 883 0032 1800     		movs	r0, r3
 884 0034 FFF7FEFF 		bl	Cy_SysLib_AssertFailed
 885              	.L49:
 370:Generated_Source\PSoC6\pdl\drivers\peripheral\prot/cy_prot.c ****     CY_ASSERT_L3(CY_PROT_IS_SMPU_MS_PERM_VALID(config->userPermission));
 886              		.loc 1 370 0 is_stmt 1
 887 0038 3B68     		ldr	r3, [r7]
 888 003a 9B79     		ldrb	r3, [r3, #6]
 889 003c 012B     		cmp	r3, #1
 890 003e 0AD0     		beq	.L50
 891              		.loc 1 370 0 is_stmt 0 discriminator 1
 892 0040 3B68     		ldr	r3, [r7]
 893 0042 9B79     		ldrb	r3, [r3, #6]
 894 0044 032B     		cmp	r3, #3
 895 0046 06D0     		beq	.L50
 896              		.loc 1 370 0 discriminator 2
 897 0048 B923     		movs	r3, #185
 898 004a 5A00     		lsls	r2, r3, #1
 899 004c 2E4B     		ldr	r3, .L58
 900 004e 1100     		movs	r1, r2
 901 0050 1800     		movs	r0, r3
 902 0052 FFF7FEFF 		bl	Cy_SysLib_AssertFailed
 903              	.L50:
 371:Generated_Source\PSoC6\pdl\drivers\peripheral\prot/cy_prot.c ****     CY_ASSERT_L3(CY_PROT_IS_SMPU_MS_PERM_VALID(config->privPermission));
 904              		.loc 1 371 0 is_stmt 1
 905 0056 3B68     		ldr	r3, [r7]
 906 0058 DB79     		ldrb	r3, [r3, #7]
 907 005a 012B     		cmp	r3, #1
 908 005c 0BD0     		beq	.L51
 909              		.loc 1 371 0 is_stmt 0 discriminator 1
 910 005e 3B68     		ldr	r3, [r7]
 911 0060 DB79     		ldrb	r3, [r3, #7]
 912 0062 032B     		cmp	r3, #3
 913 0064 07D0     		beq	.L51
 914              		.loc 1 371 0 discriminator 2
 915 0066 7423     		movs	r3, #116
 916 0068 FF33     		adds	r3, r3, #255
 917 006a 1A00     		movs	r2, r3
 918 006c 264B     		ldr	r3, .L58
 919 006e 1100     		movs	r1, r2
 920 0070 1800     		movs	r0, r3
 921 0072 FFF7FEFF 		bl	Cy_SysLib_AssertFailed
 922              	.L51:
 372:Generated_Source\PSoC6\pdl\drivers\peripheral\prot/cy_prot.c ****     
 373:Generated_Source\PSoC6\pdl\drivers\peripheral\prot/cy_prot.c ****     if(((uint32_t)config->pcMask & CY_PROT_SMPU_PC_LIMIT_MASK) != 0UL) 
 923              		.loc 1 373 0 is_stmt 1
 924 0076 3B68     		ldr	r3, [r7]
 925 0078 5B89     		ldrh	r3, [r3, #10]
 926 007a 1A00     		movs	r2, r3
 927 007c 7F23     		movs	r3, #127
 928 007e 9A43     		bics	r2, r3
ARM GAS  C:\Users\JC\AppData\Local\Temp\ccU1E72d.s 			page 24


 929 0080 131E     		subs	r3, r2, #0
 930 0082 02D0     		beq	.L52
 374:Generated_Source\PSoC6\pdl\drivers\peripheral\prot/cy_prot.c ****     {
 375:Generated_Source\PSoC6\pdl\drivers\peripheral\prot/cy_prot.c ****         /* PC mask out of range - not supported in device */
 376:Generated_Source\PSoC6\pdl\drivers\peripheral\prot/cy_prot.c ****         status = CY_PROT_BAD_PARAM;
 931              		.loc 1 376 0
 932 0084 214B     		ldr	r3, .L58+4
 933 0086 FB60     		str	r3, [r7, #12]
 934 0088 38E0     		b	.L53
 935              	.L52:
 377:Generated_Source\PSoC6\pdl\drivers\peripheral\prot/cy_prot.c ****     }
 378:Generated_Source\PSoC6\pdl\drivers\peripheral\prot/cy_prot.c ****     else
 379:Generated_Source\PSoC6\pdl\drivers\peripheral\prot/cy_prot.c ****     {
 380:Generated_Source\PSoC6\pdl\drivers\peripheral\prot/cy_prot.c ****         /* ADDR1 is read only. Only configure ATT1 */
 381:Generated_Source\PSoC6\pdl\drivers\peripheral\prot/cy_prot.c ****         attReg = ((uint32_t)config->userPermission & CY_PROT_ATT_PERMISSION_MASK)
 936              		.loc 1 381 0
 937 008a 3B68     		ldr	r3, [r7]
 938 008c 9B79     		ldrb	r3, [r3, #6]
 939 008e 1A00     		movs	r2, r3
 940 0090 0723     		movs	r3, #7
 941 0092 1A40     		ands	r2, r3
 382:Generated_Source\PSoC6\pdl\drivers\peripheral\prot/cy_prot.c ****                     | (uint32_t)(((uint32_t)config->privPermission & CY_PROT_ATT_PERMISSION_MASK) <
 942              		.loc 1 382 0
 943 0094 3B68     		ldr	r3, [r7]
 944 0096 DB79     		ldrb	r3, [r3, #7]
 945 0098 DB00     		lsls	r3, r3, #3
 946 009a 3821     		movs	r1, #56
 947 009c 0B40     		ands	r3, r1
 948 009e 1A43     		orrs	r2, r3
 383:Generated_Source\PSoC6\pdl\drivers\peripheral\prot/cy_prot.c ****                     | _VAL2FLD(PROT_SMPU_SMPU_STRUCT_ATT1_NS, !(config->secure))
 949              		.loc 1 383 0
 950 00a0 3B68     		ldr	r3, [r7]
 951 00a2 1B7A     		ldrb	r3, [r3, #8]
 952 00a4 0121     		movs	r1, #1
 953 00a6 4B40     		eors	r3, r1
 954 00a8 DBB2     		uxtb	r3, r3
 955 00aa 9B01     		lsls	r3, r3, #6
 956 00ac 4021     		movs	r1, #64
 957 00ae 0B40     		ands	r3, r1
 958 00b0 1A43     		orrs	r2, r3
 384:Generated_Source\PSoC6\pdl\drivers\peripheral\prot/cy_prot.c ****                     | _VAL2FLD(PROT_SMPU_SMPU_STRUCT_ATT1_PC_MASK_15_TO_1, config->pcMask)
 959              		.loc 1 384 0
 960 00b2 3B68     		ldr	r3, [r7]
 961 00b4 5B89     		ldrh	r3, [r3, #10]
 962 00b6 5B02     		lsls	r3, r3, #9
 963 00b8 1549     		ldr	r1, .L58+8
 964 00ba 0B40     		ands	r3, r1
 965 00bc 1A43     		orrs	r2, r3
 385:Generated_Source\PSoC6\pdl\drivers\peripheral\prot/cy_prot.c ****                     /* No region size - read only for master structs */
 386:Generated_Source\PSoC6\pdl\drivers\peripheral\prot/cy_prot.c ****                     | _VAL2FLD(PROT_SMPU_SMPU_STRUCT_ATT1_PC_MATCH, config->pcMatch);
 966              		.loc 1 386 0
 967 00be 3B68     		ldr	r3, [r7]
 968 00c0 5B7A     		ldrb	r3, [r3, #9]
 969 00c2 9907     		lsls	r1, r3, #30
 970 00c4 8023     		movs	r3, #128
 971 00c6 DB05     		lsls	r3, r3, #23
 972 00c8 0B40     		ands	r3, r1
ARM GAS  C:\Users\JC\AppData\Local\Temp\ccU1E72d.s 			page 25


 381:Generated_Source\PSoC6\pdl\drivers\peripheral\prot/cy_prot.c ****                     | (uint32_t)(((uint32_t)config->privPermission & CY_PROT_ATT_PERMISSION_MASK) <
 973              		.loc 1 381 0
 974 00ca 1343     		orrs	r3, r2
 975 00cc BB60     		str	r3, [r7, #8]
 387:Generated_Source\PSoC6\pdl\drivers\peripheral\prot/cy_prot.c ****         if ((attReg & CY_PROT_SMPU_ATT1_MASK) != attReg)
 976              		.loc 1 387 0
 977 00ce BB68     		ldr	r3, [r7, #8]
 978 00d0 104A     		ldr	r2, .L58+12
 979 00d2 1A40     		ands	r2, r3
 980 00d4 BB68     		ldr	r3, [r7, #8]
 981 00d6 9A42     		cmp	r2, r3
 982 00d8 02D0     		beq	.L54
 388:Generated_Source\PSoC6\pdl\drivers\peripheral\prot/cy_prot.c ****         {
 389:Generated_Source\PSoC6\pdl\drivers\peripheral\prot/cy_prot.c ****             /* Invalid parameter was passed */
 390:Generated_Source\PSoC6\pdl\drivers\peripheral\prot/cy_prot.c ****             status = CY_PROT_BAD_PARAM;
 983              		.loc 1 390 0
 984 00da 0C4B     		ldr	r3, .L58+4
 985 00dc FB60     		str	r3, [r7, #12]
 986 00de 0DE0     		b	.L53
 987              	.L54:
 391:Generated_Source\PSoC6\pdl\drivers\peripheral\prot/cy_prot.c ****         }
 392:Generated_Source\PSoC6\pdl\drivers\peripheral\prot/cy_prot.c ****         else
 393:Generated_Source\PSoC6\pdl\drivers\peripheral\prot/cy_prot.c ****         {
 394:Generated_Source\PSoC6\pdl\drivers\peripheral\prot/cy_prot.c ****             PROT_SMPU_SMPU_STRUCT_ATT1(base) = attReg;
 988              		.loc 1 394 0
 989 00e0 7B68     		ldr	r3, [r7, #4]
 990 00e2 BA68     		ldr	r2, [r7, #8]
 991 00e4 5A62     		str	r2, [r3, #36]
 395:Generated_Source\PSoC6\pdl\drivers\peripheral\prot/cy_prot.c ****             status = ((PROT_SMPU_SMPU_STRUCT_ATT1(base) & CY_PROT_SMPU_ATT1_MASK) != attReg) ? CY_P
 992              		.loc 1 395 0
 993 00e6 7B68     		ldr	r3, [r7, #4]
 994 00e8 5B6A     		ldr	r3, [r3, #36]
 995 00ea 0A4A     		ldr	r2, .L58+12
 996 00ec 1A40     		ands	r2, r3
 997 00ee BB68     		ldr	r3, [r7, #8]
 998 00f0 9A42     		cmp	r2, r3
 999 00f2 01D0     		beq	.L55
 1000              		.loc 1 395 0 is_stmt 0 discriminator 1
 1001 00f4 084B     		ldr	r3, .L58+16
 1002 00f6 00E0     		b	.L56
 1003              	.L55:
 1004              		.loc 1 395 0 discriminator 2
 1005 00f8 0023     		movs	r3, #0
 1006              	.L56:
 1007              		.loc 1 395 0 discriminator 4
 1008 00fa FB60     		str	r3, [r7, #12]
 1009              	.L53:
 396:Generated_Source\PSoC6\pdl\drivers\peripheral\prot/cy_prot.c ****         }
 397:Generated_Source\PSoC6\pdl\drivers\peripheral\prot/cy_prot.c ****     }
 398:Generated_Source\PSoC6\pdl\drivers\peripheral\prot/cy_prot.c ****     
 399:Generated_Source\PSoC6\pdl\drivers\peripheral\prot/cy_prot.c ****     return status;
 1010              		.loc 1 399 0 is_stmt 1
 1011 00fc FB68     		ldr	r3, [r7, #12]
 400:Generated_Source\PSoC6\pdl\drivers\peripheral\prot/cy_prot.c **** }
 1012              		.loc 1 400 0
 1013 00fe 1800     		movs	r0, r3
 1014 0100 BD46     		mov	sp, r7
ARM GAS  C:\Users\JC\AppData\Local\Temp\ccU1E72d.s 			page 26


 1015 0102 04B0     		add	sp, sp, #16
 1016              		@ sp needed
 1017 0104 80BD     		pop	{r7, pc}
 1018              	.L59:
 1019 0106 C046     		.align	2
 1020              	.L58:
 1021 0108 00000000 		.word	.LC1
 1022 010c 0100C200 		.word	12713985
 1023 0110 00FEFF00 		.word	16776704
 1024 0114 DBFEFFE0 		.word	-520093989
 1025 0118 0300C200 		.word	12713987
 1026              		.cfi_endproc
 1027              	.LFE53:
 1028              		.size	Cy_Prot_ConfigSmpuMasterStruct, .-Cy_Prot_ConfigSmpuMasterStruct
 1029              		.section	.text.Cy_Prot_ConfigSmpuSlaveStruct,"ax",%progbits
 1030              		.align	2
 1031              		.global	Cy_Prot_ConfigSmpuSlaveStruct
 1032              		.code	16
 1033              		.thumb_func
 1034              		.type	Cy_Prot_ConfigSmpuSlaveStruct, %function
 1035              	Cy_Prot_ConfigSmpuSlaveStruct:
 1036              	.LFB54:
 401:Generated_Source\PSoC6\pdl\drivers\peripheral\prot/cy_prot.c **** 
 402:Generated_Source\PSoC6\pdl\drivers\peripheral\prot/cy_prot.c **** 
 403:Generated_Source\PSoC6\pdl\drivers\peripheral\prot/cy_prot.c **** /*******************************************************************************
 404:Generated_Source\PSoC6\pdl\drivers\peripheral\prot/cy_prot.c **** * Function Name: Cy_Prot_ConfigSmpuSlaveStruct
 405:Generated_Source\PSoC6\pdl\drivers\peripheral\prot/cy_prot.c **** ****************************************************************************//**
 406:Generated_Source\PSoC6\pdl\drivers\peripheral\prot/cy_prot.c **** *
 407:Generated_Source\PSoC6\pdl\drivers\peripheral\prot/cy_prot.c **** * Configures a Shared Memory Protection Unit (SMPU) slave protection 
 408:Generated_Source\PSoC6\pdl\drivers\peripheral\prot/cy_prot.c **** * struct with its protection attributes. 
 409:Generated_Source\PSoC6\pdl\drivers\peripheral\prot/cy_prot.c **** * 
 410:Generated_Source\PSoC6\pdl\drivers\peripheral\prot/cy_prot.c **** * This function configures the slave struct of an SMPU pair, which can protect
 411:Generated_Source\PSoC6\pdl\drivers\peripheral\prot/cy_prot.c **** * any memory region in a device from invalid bus master accesses.
 412:Generated_Source\PSoC6\pdl\drivers\peripheral\prot/cy_prot.c **** *
 413:Generated_Source\PSoC6\pdl\drivers\peripheral\prot/cy_prot.c **** * \note This function is applicable for both CPUSS ver_1 and ver_2.
 414:Generated_Source\PSoC6\pdl\drivers\peripheral\prot/cy_prot.c **** *
 415:Generated_Source\PSoC6\pdl\drivers\peripheral\prot/cy_prot.c **** * \param base
 416:Generated_Source\PSoC6\pdl\drivers\peripheral\prot/cy_prot.c **** * The register base address of the protection structure being configured.
 417:Generated_Source\PSoC6\pdl\drivers\peripheral\prot/cy_prot.c **** * 
 418:Generated_Source\PSoC6\pdl\drivers\peripheral\prot/cy_prot.c **** * \param config
 419:Generated_Source\PSoC6\pdl\drivers\peripheral\prot/cy_prot.c **** * Initialization structure with all the protection attributes.
 420:Generated_Source\PSoC6\pdl\drivers\peripheral\prot/cy_prot.c **** * 
 421:Generated_Source\PSoC6\pdl\drivers\peripheral\prot/cy_prot.c **** * \return
 422:Generated_Source\PSoC6\pdl\drivers\peripheral\prot/cy_prot.c **** * Status of the function call.
 423:Generated_Source\PSoC6\pdl\drivers\peripheral\prot/cy_prot.c **** *
 424:Generated_Source\PSoC6\pdl\drivers\peripheral\prot/cy_prot.c **** *   Status               | Description
 425:Generated_Source\PSoC6\pdl\drivers\peripheral\prot/cy_prot.c **** *   ------------         | -----------
 426:Generated_Source\PSoC6\pdl\drivers\peripheral\prot/cy_prot.c **** *   CY_PROT_SUCCESS      | SMPU slave struct was successfully configured.
 427:Generated_Source\PSoC6\pdl\drivers\peripheral\prot/cy_prot.c **** *   CY_PROT_FAILURE      | The resource is locked.
 428:Generated_Source\PSoC6\pdl\drivers\peripheral\prot/cy_prot.c **** *   CY_PROT_BAD_PARAM    | An incorrect/invalid parameter was passed.
 429:Generated_Source\PSoC6\pdl\drivers\peripheral\prot/cy_prot.c **** *
 430:Generated_Source\PSoC6\pdl\drivers\peripheral\prot/cy_prot.c **** * \funcusage
 431:Generated_Source\PSoC6\pdl\drivers\peripheral\prot/cy_prot.c **** * \snippet prot/1.20/snippet/main.c snippet_Cy_Prot_ConfigSmpuSlaveStruct
 432:Generated_Source\PSoC6\pdl\drivers\peripheral\prot/cy_prot.c **** *
 433:Generated_Source\PSoC6\pdl\drivers\peripheral\prot/cy_prot.c **** *******************************************************************************/
 434:Generated_Source\PSoC6\pdl\drivers\peripheral\prot/cy_prot.c **** cy_en_prot_status_t Cy_Prot_ConfigSmpuSlaveStruct(PROT_SMPU_SMPU_STRUCT_Type* base, const cy_stc_sm
 435:Generated_Source\PSoC6\pdl\drivers\peripheral\prot/cy_prot.c **** {
ARM GAS  C:\Users\JC\AppData\Local\Temp\ccU1E72d.s 			page 27


 1037              		.loc 1 435 0
 1038              		.cfi_startproc
 1039              		@ args = 0, pretend = 0, frame = 24
 1040              		@ frame_needed = 1, uses_anonymous_args = 0
 1041 0000 80B5     		push	{r7, lr}
 1042              		.cfi_def_cfa_offset 8
 1043              		.cfi_offset 7, -8
 1044              		.cfi_offset 14, -4
 1045 0002 86B0     		sub	sp, sp, #24
 1046              		.cfi_def_cfa_offset 32
 1047 0004 00AF     		add	r7, sp, #0
 1048              		.cfi_def_cfa_register 7
 1049 0006 7860     		str	r0, [r7, #4]
 1050 0008 3960     		str	r1, [r7]
 436:Generated_Source\PSoC6\pdl\drivers\peripheral\prot/cy_prot.c ****     cy_en_prot_status_t status = CY_PROT_SUCCESS;
 1051              		.loc 1 436 0
 1052 000a 0023     		movs	r3, #0
 1053 000c 7B61     		str	r3, [r7, #20]
 437:Generated_Source\PSoC6\pdl\drivers\peripheral\prot/cy_prot.c ****     uint32_t addrReg;
 438:Generated_Source\PSoC6\pdl\drivers\peripheral\prot/cy_prot.c ****     uint32_t attReg;
 439:Generated_Source\PSoC6\pdl\drivers\peripheral\prot/cy_prot.c ****     
 440:Generated_Source\PSoC6\pdl\drivers\peripheral\prot/cy_prot.c ****     CY_ASSERT_L1(NULL != base);
 1054              		.loc 1 440 0
 1055 000e 7B68     		ldr	r3, [r7, #4]
 1056 0010 002B     		cmp	r3, #0
 1057 0012 06D1     		bne	.L61
 1058              		.loc 1 440 0 is_stmt 0 discriminator 1
 1059 0014 DC23     		movs	r3, #220
 1060 0016 5A00     		lsls	r2, r3, #1
 1061 0018 944B     		ldr	r3, .L72
 1062 001a 1100     		movs	r1, r2
 1063 001c 1800     		movs	r0, r3
 1064 001e FFF7FEFF 		bl	Cy_SysLib_AssertFailed
 1065              	.L61:
 441:Generated_Source\PSoC6\pdl\drivers\peripheral\prot/cy_prot.c ****     CY_ASSERT_L2(CY_PROT_IS_PC_MASK_VALID(config->pcMask));
 1066              		.loc 1 441 0 is_stmt 1
 1067 0022 3B68     		ldr	r3, [r7]
 1068 0024 5B89     		ldrh	r3, [r3, #10]
 1069 0026 DB0B     		lsrs	r3, r3, #15
 1070 0028 DB03     		lsls	r3, r3, #15
 1071 002a 07D0     		beq	.L62
 1072              		.loc 1 441 0 is_stmt 0 discriminator 1
 1073 002c BA23     		movs	r3, #186
 1074 002e FF33     		adds	r3, r3, #255
 1075 0030 1A00     		movs	r2, r3
 1076 0032 8E4B     		ldr	r3, .L72
 1077 0034 1100     		movs	r1, r2
 1078 0036 1800     		movs	r0, r3
 1079 0038 FFF7FEFF 		bl	Cy_SysLib_AssertFailed
 1080              	.L62:
 442:Generated_Source\PSoC6\pdl\drivers\peripheral\prot/cy_prot.c ****     CY_ASSERT_L3(CY_PROT_IS_SMPU_SL_PERM_VALID(config->userPermission));
 1081              		.loc 1 442 0 is_stmt 1
 1082 003c 3B68     		ldr	r3, [r7]
 1083 003e 9B79     		ldrb	r3, [r3, #6]
 1084 0040 002B     		cmp	r3, #0
 1085 0042 22D0     		beq	.L63
 1086              		.loc 1 442 0 is_stmt 0 discriminator 1
ARM GAS  C:\Users\JC\AppData\Local\Temp\ccU1E72d.s 			page 28


 1087 0044 3B68     		ldr	r3, [r7]
 1088 0046 9B79     		ldrb	r3, [r3, #6]
 1089 0048 012B     		cmp	r3, #1
 1090 004a 1ED0     		beq	.L63
 1091              		.loc 1 442 0 discriminator 2
 1092 004c 3B68     		ldr	r3, [r7]
 1093 004e 9B79     		ldrb	r3, [r3, #6]
 1094 0050 022B     		cmp	r3, #2
 1095 0052 1AD0     		beq	.L63
 1096              		.loc 1 442 0 discriminator 3
 1097 0054 3B68     		ldr	r3, [r7]
 1098 0056 9B79     		ldrb	r3, [r3, #6]
 1099 0058 032B     		cmp	r3, #3
 1100 005a 16D0     		beq	.L63
 1101              		.loc 1 442 0 discriminator 4
 1102 005c 3B68     		ldr	r3, [r7]
 1103 005e 9B79     		ldrb	r3, [r3, #6]
 1104 0060 042B     		cmp	r3, #4
 1105 0062 12D0     		beq	.L63
 1106              		.loc 1 442 0 discriminator 5
 1107 0064 3B68     		ldr	r3, [r7]
 1108 0066 9B79     		ldrb	r3, [r3, #6]
 1109 0068 052B     		cmp	r3, #5
 1110 006a 0ED0     		beq	.L63
 1111              		.loc 1 442 0 discriminator 6
 1112 006c 3B68     		ldr	r3, [r7]
 1113 006e 9B79     		ldrb	r3, [r3, #6]
 1114 0070 062B     		cmp	r3, #6
 1115 0072 0AD0     		beq	.L63
 1116              		.loc 1 442 0 discriminator 7
 1117 0074 3B68     		ldr	r3, [r7]
 1118 0076 9B79     		ldrb	r3, [r3, #6]
 1119 0078 072B     		cmp	r3, #7
 1120 007a 06D0     		beq	.L63
 1121              		.loc 1 442 0 discriminator 8
 1122 007c DD23     		movs	r3, #221
 1123 007e 5A00     		lsls	r2, r3, #1
 1124 0080 7A4B     		ldr	r3, .L72
 1125 0082 1100     		movs	r1, r2
 1126 0084 1800     		movs	r0, r3
 1127 0086 FFF7FEFF 		bl	Cy_SysLib_AssertFailed
 1128              	.L63:
 443:Generated_Source\PSoC6\pdl\drivers\peripheral\prot/cy_prot.c ****     CY_ASSERT_L3(CY_PROT_IS_SMPU_SL_PERM_VALID(config->privPermission));
 1129              		.loc 1 443 0 is_stmt 1
 1130 008a 3B68     		ldr	r3, [r7]
 1131 008c DB79     		ldrb	r3, [r3, #7]
 1132 008e 002B     		cmp	r3, #0
 1133 0090 23D0     		beq	.L64
 1134              		.loc 1 443 0 is_stmt 0 discriminator 1
 1135 0092 3B68     		ldr	r3, [r7]
 1136 0094 DB79     		ldrb	r3, [r3, #7]
 1137 0096 012B     		cmp	r3, #1
 1138 0098 1FD0     		beq	.L64
 1139              		.loc 1 443 0 discriminator 2
 1140 009a 3B68     		ldr	r3, [r7]
 1141 009c DB79     		ldrb	r3, [r3, #7]
 1142 009e 022B     		cmp	r3, #2
ARM GAS  C:\Users\JC\AppData\Local\Temp\ccU1E72d.s 			page 29


 1143 00a0 1BD0     		beq	.L64
 1144              		.loc 1 443 0 discriminator 3
 1145 00a2 3B68     		ldr	r3, [r7]
 1146 00a4 DB79     		ldrb	r3, [r3, #7]
 1147 00a6 032B     		cmp	r3, #3
 1148 00a8 17D0     		beq	.L64
 1149              		.loc 1 443 0 discriminator 4
 1150 00aa 3B68     		ldr	r3, [r7]
 1151 00ac DB79     		ldrb	r3, [r3, #7]
 1152 00ae 042B     		cmp	r3, #4
 1153 00b0 13D0     		beq	.L64
 1154              		.loc 1 443 0 discriminator 5
 1155 00b2 3B68     		ldr	r3, [r7]
 1156 00b4 DB79     		ldrb	r3, [r3, #7]
 1157 00b6 052B     		cmp	r3, #5
 1158 00b8 0FD0     		beq	.L64
 1159              		.loc 1 443 0 discriminator 6
 1160 00ba 3B68     		ldr	r3, [r7]
 1161 00bc DB79     		ldrb	r3, [r3, #7]
 1162 00be 062B     		cmp	r3, #6
 1163 00c0 0BD0     		beq	.L64
 1164              		.loc 1 443 0 discriminator 7
 1165 00c2 3B68     		ldr	r3, [r7]
 1166 00c4 DB79     		ldrb	r3, [r3, #7]
 1167 00c6 072B     		cmp	r3, #7
 1168 00c8 07D0     		beq	.L64
 1169              		.loc 1 443 0 discriminator 8
 1170 00ca BC23     		movs	r3, #188
 1171 00cc FF33     		adds	r3, r3, #255
 1172 00ce 1A00     		movs	r2, r3
 1173 00d0 664B     		ldr	r3, .L72
 1174 00d2 1100     		movs	r1, r2
 1175 00d4 1800     		movs	r0, r3
 1176 00d6 FFF7FEFF 		bl	Cy_SysLib_AssertFailed
 1177              	.L64:
 444:Generated_Source\PSoC6\pdl\drivers\peripheral\prot/cy_prot.c ****     CY_ASSERT_L3(CY_PROT_IS_REGION_SIZE_VALID(config->regionSize));
 1178              		.loc 1 444 0 is_stmt 1
 1179 00da 3B68     		ldr	r3, [r7]
 1180 00dc 1B79     		ldrb	r3, [r3, #4]
 1181 00de 072B     		cmp	r3, #7
 1182 00e0 00D1     		bne	.LCB1007
 1183 00e2 69E0     		b	.L65	@long jump
 1184              	.LCB1007:
 1185              		.loc 1 444 0 is_stmt 0 discriminator 1
 1186 00e4 3B68     		ldr	r3, [r7]
 1187 00e6 1B79     		ldrb	r3, [r3, #4]
 1188 00e8 082B     		cmp	r3, #8
 1189 00ea 00D1     		bne	.LCB1011
 1190 00ec 64E0     		b	.L65	@long jump
 1191              	.LCB1011:
 1192              		.loc 1 444 0 discriminator 2
 1193 00ee 3B68     		ldr	r3, [r7]
 1194 00f0 1B79     		ldrb	r3, [r3, #4]
 1195 00f2 092B     		cmp	r3, #9
 1196 00f4 00D1     		bne	.LCB1015
 1197 00f6 5FE0     		b	.L65	@long jump
 1198              	.LCB1015:
ARM GAS  C:\Users\JC\AppData\Local\Temp\ccU1E72d.s 			page 30


 1199              		.loc 1 444 0 discriminator 3
 1200 00f8 3B68     		ldr	r3, [r7]
 1201 00fa 1B79     		ldrb	r3, [r3, #4]
 1202 00fc 0A2B     		cmp	r3, #10
 1203 00fe 00D1     		bne	.LCB1019
 1204 0100 5AE0     		b	.L65	@long jump
 1205              	.LCB1019:
 1206              		.loc 1 444 0 discriminator 4
 1207 0102 3B68     		ldr	r3, [r7]
 1208 0104 1B79     		ldrb	r3, [r3, #4]
 1209 0106 0B2B     		cmp	r3, #11
 1210 0108 56D0     		beq	.L65
 1211              		.loc 1 444 0 discriminator 5
 1212 010a 3B68     		ldr	r3, [r7]
 1213 010c 1B79     		ldrb	r3, [r3, #4]
 1214 010e 0C2B     		cmp	r3, #12
 1215 0110 52D0     		beq	.L65
 1216              		.loc 1 444 0 discriminator 6
 1217 0112 3B68     		ldr	r3, [r7]
 1218 0114 1B79     		ldrb	r3, [r3, #4]
 1219 0116 0D2B     		cmp	r3, #13
 1220 0118 4ED0     		beq	.L65
 1221              		.loc 1 444 0 discriminator 7
 1222 011a 3B68     		ldr	r3, [r7]
 1223 011c 1B79     		ldrb	r3, [r3, #4]
 1224 011e 0E2B     		cmp	r3, #14
 1225 0120 4AD0     		beq	.L65
 1226              		.loc 1 444 0 discriminator 8
 1227 0122 3B68     		ldr	r3, [r7]
 1228 0124 1B79     		ldrb	r3, [r3, #4]
 1229 0126 0F2B     		cmp	r3, #15
 1230 0128 46D0     		beq	.L65
 1231              		.loc 1 444 0 discriminator 9
 1232 012a 3B68     		ldr	r3, [r7]
 1233 012c 1B79     		ldrb	r3, [r3, #4]
 1234 012e 102B     		cmp	r3, #16
 1235 0130 42D0     		beq	.L65
 1236              		.loc 1 444 0 discriminator 10
 1237 0132 3B68     		ldr	r3, [r7]
 1238 0134 1B79     		ldrb	r3, [r3, #4]
 1239 0136 112B     		cmp	r3, #17
 1240 0138 3ED0     		beq	.L65
 1241              		.loc 1 444 0 discriminator 11
 1242 013a 3B68     		ldr	r3, [r7]
 1243 013c 1B79     		ldrb	r3, [r3, #4]
 1244 013e 122B     		cmp	r3, #18
 1245 0140 3AD0     		beq	.L65
 1246              		.loc 1 444 0 discriminator 12
 1247 0142 3B68     		ldr	r3, [r7]
 1248 0144 1B79     		ldrb	r3, [r3, #4]
 1249 0146 132B     		cmp	r3, #19
 1250 0148 36D0     		beq	.L65
 1251              		.loc 1 444 0 discriminator 13
 1252 014a 3B68     		ldr	r3, [r7]
 1253 014c 1B79     		ldrb	r3, [r3, #4]
 1254 014e 142B     		cmp	r3, #20
 1255 0150 32D0     		beq	.L65
ARM GAS  C:\Users\JC\AppData\Local\Temp\ccU1E72d.s 			page 31


 1256              		.loc 1 444 0 discriminator 14
 1257 0152 3B68     		ldr	r3, [r7]
 1258 0154 1B79     		ldrb	r3, [r3, #4]
 1259 0156 152B     		cmp	r3, #21
 1260 0158 2ED0     		beq	.L65
 1261              		.loc 1 444 0 discriminator 15
 1262 015a 3B68     		ldr	r3, [r7]
 1263 015c 1B79     		ldrb	r3, [r3, #4]
 1264 015e 162B     		cmp	r3, #22
 1265 0160 2AD0     		beq	.L65
 1266              		.loc 1 444 0 discriminator 16
 1267 0162 3B68     		ldr	r3, [r7]
 1268 0164 1B79     		ldrb	r3, [r3, #4]
 1269 0166 172B     		cmp	r3, #23
 1270 0168 26D0     		beq	.L65
 1271              		.loc 1 444 0 discriminator 17
 1272 016a 3B68     		ldr	r3, [r7]
 1273 016c 1B79     		ldrb	r3, [r3, #4]
 1274 016e 182B     		cmp	r3, #24
 1275 0170 22D0     		beq	.L65
 1276              		.loc 1 444 0 discriminator 18
 1277 0172 3B68     		ldr	r3, [r7]
 1278 0174 1B79     		ldrb	r3, [r3, #4]
 1279 0176 192B     		cmp	r3, #25
 1280 0178 1ED0     		beq	.L65
 1281              		.loc 1 444 0 discriminator 19
 1282 017a 3B68     		ldr	r3, [r7]
 1283 017c 1B79     		ldrb	r3, [r3, #4]
 1284 017e 1A2B     		cmp	r3, #26
 1285 0180 1AD0     		beq	.L65
 1286              		.loc 1 444 0 discriminator 20
 1287 0182 3B68     		ldr	r3, [r7]
 1288 0184 1B79     		ldrb	r3, [r3, #4]
 1289 0186 1B2B     		cmp	r3, #27
 1290 0188 16D0     		beq	.L65
 1291              		.loc 1 444 0 discriminator 21
 1292 018a 3B68     		ldr	r3, [r7]
 1293 018c 1B79     		ldrb	r3, [r3, #4]
 1294 018e 1C2B     		cmp	r3, #28
 1295 0190 12D0     		beq	.L65
 1296              		.loc 1 444 0 discriminator 22
 1297 0192 3B68     		ldr	r3, [r7]
 1298 0194 1B79     		ldrb	r3, [r3, #4]
 1299 0196 1D2B     		cmp	r3, #29
 1300 0198 0ED0     		beq	.L65
 1301              		.loc 1 444 0 discriminator 23
 1302 019a 3B68     		ldr	r3, [r7]
 1303 019c 1B79     		ldrb	r3, [r3, #4]
 1304 019e 1E2B     		cmp	r3, #30
 1305 01a0 0AD0     		beq	.L65
 1306              		.loc 1 444 0 discriminator 24
 1307 01a2 3B68     		ldr	r3, [r7]
 1308 01a4 1B79     		ldrb	r3, [r3, #4]
 1309 01a6 1F2B     		cmp	r3, #31
 1310 01a8 06D0     		beq	.L65
 1311              		.loc 1 444 0 discriminator 25
 1312 01aa DE23     		movs	r3, #222
ARM GAS  C:\Users\JC\AppData\Local\Temp\ccU1E72d.s 			page 32


 1313 01ac 5A00     		lsls	r2, r3, #1
 1314 01ae 2F4B     		ldr	r3, .L72
 1315 01b0 1100     		movs	r1, r2
 1316 01b2 1800     		movs	r0, r3
 1317 01b4 FFF7FEFF 		bl	Cy_SysLib_AssertFailed
 1318              	.L65:
 445:Generated_Source\PSoC6\pdl\drivers\peripheral\prot/cy_prot.c **** 
 446:Generated_Source\PSoC6\pdl\drivers\peripheral\prot/cy_prot.c ****     if(((uint32_t)config->pcMask & CY_PROT_SMPU_PC_LIMIT_MASK) != 0UL) 
 1319              		.loc 1 446 0 is_stmt 1
 1320 01b8 3B68     		ldr	r3, [r7]
 1321 01ba 5B89     		ldrh	r3, [r3, #10]
 1322 01bc 1A00     		movs	r2, r3
 1323 01be 7F23     		movs	r3, #127
 1324 01c0 9A43     		bics	r2, r3
 1325 01c2 131E     		subs	r3, r2, #0
 1326 01c4 02D0     		beq	.L66
 447:Generated_Source\PSoC6\pdl\drivers\peripheral\prot/cy_prot.c ****     {
 448:Generated_Source\PSoC6\pdl\drivers\peripheral\prot/cy_prot.c ****         /* PC mask out of range - not supported in device */
 449:Generated_Source\PSoC6\pdl\drivers\peripheral\prot/cy_prot.c ****         status = CY_PROT_BAD_PARAM;
 1327              		.loc 1 449 0
 1328 01c6 2A4B     		ldr	r3, .L72+4
 1329 01c8 7B61     		str	r3, [r7, #20]
 1330 01ca 49E0     		b	.L67
 1331              	.L66:
 450:Generated_Source\PSoC6\pdl\drivers\peripheral\prot/cy_prot.c ****     }
 451:Generated_Source\PSoC6\pdl\drivers\peripheral\prot/cy_prot.c ****     else
 452:Generated_Source\PSoC6\pdl\drivers\peripheral\prot/cy_prot.c ****     {
 453:Generated_Source\PSoC6\pdl\drivers\peripheral\prot/cy_prot.c ****         addrReg= _VAL2FLD(PROT_SMPU_SMPU_STRUCT_ADDR0_SUBREGION_DISABLE, config->subregions)
 1332              		.loc 1 453 0
 1333 01cc 3B68     		ldr	r3, [r7]
 1334 01ce 5B79     		ldrb	r3, [r3, #5]
 1335 01d0 1A00     		movs	r2, r3
 454:Generated_Source\PSoC6\pdl\drivers\peripheral\prot/cy_prot.c ****                     | _VAL2FLD(PROT_SMPU_SMPU_STRUCT_ADDR0_ADDR24, (uint32_t)((uint32_t)config->add
 1336              		.loc 1 454 0
 1337 01d2 3B68     		ldr	r3, [r7]
 1338 01d4 1B68     		ldr	r3, [r3]
 1339 01d6 1900     		movs	r1, r3
 1340 01d8 FF23     		movs	r3, #255
 1341 01da 9943     		bics	r1, r3
 1342 01dc 0B00     		movs	r3, r1
 453:Generated_Source\PSoC6\pdl\drivers\peripheral\prot/cy_prot.c ****                     | _VAL2FLD(PROT_SMPU_SMPU_STRUCT_ADDR0_ADDR24, (uint32_t)((uint32_t)config->add
 1343              		.loc 1 453 0
 1344 01de 1343     		orrs	r3, r2
 1345 01e0 3B61     		str	r3, [r7, #16]
 455:Generated_Source\PSoC6\pdl\drivers\peripheral\prot/cy_prot.c ****         attReg= ((uint32_t)config->userPermission & CY_PROT_ATT_PERMISSION_MASK)
 1346              		.loc 1 455 0
 1347 01e2 3B68     		ldr	r3, [r7]
 1348 01e4 9B79     		ldrb	r3, [r3, #6]
 1349 01e6 1A00     		movs	r2, r3
 1350 01e8 0723     		movs	r3, #7
 1351 01ea 1A40     		ands	r2, r3
 456:Generated_Source\PSoC6\pdl\drivers\peripheral\prot/cy_prot.c ****                     | (uint32_t)(((uint32_t)config->privPermission & CY_PROT_ATT_PERMISSION_MASK) <
 1352              		.loc 1 456 0
 1353 01ec 3B68     		ldr	r3, [r7]
 1354 01ee DB79     		ldrb	r3, [r3, #7]
 1355 01f0 DB00     		lsls	r3, r3, #3
 1356 01f2 3821     		movs	r1, #56
ARM GAS  C:\Users\JC\AppData\Local\Temp\ccU1E72d.s 			page 33


 1357 01f4 0B40     		ands	r3, r1
 1358 01f6 1A43     		orrs	r2, r3
 457:Generated_Source\PSoC6\pdl\drivers\peripheral\prot/cy_prot.c ****                     | _VAL2FLD(PROT_SMPU_SMPU_STRUCT_ATT0_NS, !(config->secure))
 1359              		.loc 1 457 0
 1360 01f8 3B68     		ldr	r3, [r7]
 1361 01fa 1B7A     		ldrb	r3, [r3, #8]
 1362 01fc 0121     		movs	r1, #1
 1363 01fe 4B40     		eors	r3, r1
 1364 0200 DBB2     		uxtb	r3, r3
 1365 0202 9B01     		lsls	r3, r3, #6
 1366 0204 4021     		movs	r1, #64
 1367 0206 0B40     		ands	r3, r1
 1368 0208 1A43     		orrs	r2, r3
 458:Generated_Source\PSoC6\pdl\drivers\peripheral\prot/cy_prot.c ****                     | _VAL2FLD(PROT_SMPU_SMPU_STRUCT_ATT0_PC_MASK_15_TO_1, config->pcMask)
 1369              		.loc 1 458 0
 1370 020a 3B68     		ldr	r3, [r7]
 1371 020c 5B89     		ldrh	r3, [r3, #10]
 1372 020e 5B02     		lsls	r3, r3, #9
 1373 0210 1849     		ldr	r1, .L72+8
 1374 0212 0B40     		ands	r3, r1
 1375 0214 1A43     		orrs	r2, r3
 459:Generated_Source\PSoC6\pdl\drivers\peripheral\prot/cy_prot.c ****                     | _VAL2FLD(PROT_SMPU_SMPU_STRUCT_ATT0_REGION_SIZE, config->regionSize)
 1376              		.loc 1 459 0
 1377 0216 3B68     		ldr	r3, [r7]
 1378 0218 1B79     		ldrb	r3, [r3, #4]
 1379 021a 1906     		lsls	r1, r3, #24
 1380 021c F823     		movs	r3, #248
 1381 021e 5B05     		lsls	r3, r3, #21
 1382 0220 0B40     		ands	r3, r1
 1383 0222 1A43     		orrs	r2, r3
 460:Generated_Source\PSoC6\pdl\drivers\peripheral\prot/cy_prot.c ****                     | _VAL2FLD(PROT_SMPU_SMPU_STRUCT_ATT0_PC_MATCH, config->pcMatch);
 1384              		.loc 1 460 0
 1385 0224 3B68     		ldr	r3, [r7]
 1386 0226 5B7A     		ldrb	r3, [r3, #9]
 1387 0228 9907     		lsls	r1, r3, #30
 1388 022a 8023     		movs	r3, #128
 1389 022c DB05     		lsls	r3, r3, #23
 1390 022e 0B40     		ands	r3, r1
 455:Generated_Source\PSoC6\pdl\drivers\peripheral\prot/cy_prot.c ****                     | (uint32_t)(((uint32_t)config->privPermission & CY_PROT_ATT_PERMISSION_MASK) <
 1391              		.loc 1 455 0
 1392 0230 1343     		orrs	r3, r2
 1393 0232 FB60     		str	r3, [r7, #12]
 461:Generated_Source\PSoC6\pdl\drivers\peripheral\prot/cy_prot.c ****         PROT_SMPU_SMPU_STRUCT_ATT0(base) = attReg;
 1394              		.loc 1 461 0
 1395 0234 7B68     		ldr	r3, [r7, #4]
 1396 0236 FA68     		ldr	r2, [r7, #12]
 1397 0238 5A60     		str	r2, [r3, #4]
 462:Generated_Source\PSoC6\pdl\drivers\peripheral\prot/cy_prot.c ****         PROT_SMPU_SMPU_STRUCT_ADDR0(base) = addrReg;
 1398              		.loc 1 462 0
 1399 023a 7B68     		ldr	r3, [r7, #4]
 1400 023c 3A69     		ldr	r2, [r7, #16]
 1401 023e 1A60     		str	r2, [r3]
 463:Generated_Source\PSoC6\pdl\drivers\peripheral\prot/cy_prot.c ****         status = ((PROT_SMPU_SMPU_STRUCT_ADDR0(base) != addrReg) || ((PROT_SMPU_SMPU_STRUCT_ATT0(ba
 1402              		.loc 1 463 0
 1403 0240 7B68     		ldr	r3, [r7, #4]
 1404 0242 1A68     		ldr	r2, [r3]
 1405 0244 3B69     		ldr	r3, [r7, #16]
ARM GAS  C:\Users\JC\AppData\Local\Temp\ccU1E72d.s 			page 34


 1406 0246 9A42     		cmp	r2, r3
 1407 0248 06D1     		bne	.L68
 1408              		.loc 1 463 0 is_stmt 0 discriminator 2
 1409 024a 7B68     		ldr	r3, [r7, #4]
 1410 024c 5B68     		ldr	r3, [r3, #4]
 1411 024e 0A4A     		ldr	r2, .L72+12
 1412 0250 1A40     		ands	r2, r3
 1413 0252 FB68     		ldr	r3, [r7, #12]
 1414 0254 9A42     		cmp	r2, r3
 1415 0256 01D0     		beq	.L69
 1416              	.L68:
 1417              		.loc 1 463 0 discriminator 3
 1418 0258 084B     		ldr	r3, .L72+16
 1419 025a 00E0     		b	.L70
 1420              	.L69:
 1421              		.loc 1 463 0 discriminator 4
 1422 025c 0023     		movs	r3, #0
 1423              	.L70:
 1424              		.loc 1 463 0 discriminator 6
 1425 025e 7B61     		str	r3, [r7, #20]
 1426              	.L67:
 464:Generated_Source\PSoC6\pdl\drivers\peripheral\prot/cy_prot.c ****             ? CY_PROT_FAILURE : CY_PROT_SUCCESS;
 465:Generated_Source\PSoC6\pdl\drivers\peripheral\prot/cy_prot.c ****     }
 466:Generated_Source\PSoC6\pdl\drivers\peripheral\prot/cy_prot.c ****     
 467:Generated_Source\PSoC6\pdl\drivers\peripheral\prot/cy_prot.c ****     return status;
 1427              		.loc 1 467 0 is_stmt 1
 1428 0260 7B69     		ldr	r3, [r7, #20]
 468:Generated_Source\PSoC6\pdl\drivers\peripheral\prot/cy_prot.c **** }
 1429              		.loc 1 468 0
 1430 0262 1800     		movs	r0, r3
 1431 0264 BD46     		mov	sp, r7
 1432 0266 06B0     		add	sp, sp, #24
 1433              		@ sp needed
 1434 0268 80BD     		pop	{r7, pc}
 1435              	.L73:
 1436 026a C046     		.align	2
 1437              	.L72:
 1438 026c 00000000 		.word	.LC1
 1439 0270 0100C200 		.word	12713985
 1440 0274 00FEFF00 		.word	16776704
 1441 0278 FFFEFFFF 		.word	-257
 1442 027c 0300C200 		.word	12713987
 1443              		.cfi_endproc
 1444              	.LFE54:
 1445              		.size	Cy_Prot_ConfigSmpuSlaveStruct, .-Cy_Prot_ConfigSmpuSlaveStruct
 1446              		.section	.text.Cy_Prot_EnableSmpuMasterStruct,"ax",%progbits
 1447              		.align	2
 1448              		.global	Cy_Prot_EnableSmpuMasterStruct
 1449              		.code	16
 1450              		.thumb_func
 1451              		.type	Cy_Prot_EnableSmpuMasterStruct, %function
 1452              	Cy_Prot_EnableSmpuMasterStruct:
 1453              	.LFB55:
 469:Generated_Source\PSoC6\pdl\drivers\peripheral\prot/cy_prot.c **** 
 470:Generated_Source\PSoC6\pdl\drivers\peripheral\prot/cy_prot.c **** 
 471:Generated_Source\PSoC6\pdl\drivers\peripheral\prot/cy_prot.c **** /*******************************************************************************
 472:Generated_Source\PSoC6\pdl\drivers\peripheral\prot/cy_prot.c **** * Function Name: Cy_Prot_EnableSmpuMasterStruct
ARM GAS  C:\Users\JC\AppData\Local\Temp\ccU1E72d.s 			page 35


 473:Generated_Source\PSoC6\pdl\drivers\peripheral\prot/cy_prot.c **** ****************************************************************************//**
 474:Generated_Source\PSoC6\pdl\drivers\peripheral\prot/cy_prot.c **** *
 475:Generated_Source\PSoC6\pdl\drivers\peripheral\prot/cy_prot.c **** * Enables the Master SMPU structure.
 476:Generated_Source\PSoC6\pdl\drivers\peripheral\prot/cy_prot.c **** *
 477:Generated_Source\PSoC6\pdl\drivers\peripheral\prot/cy_prot.c **** * This is an SMPU master struct enable function. The SMPU protection settings
 478:Generated_Source\PSoC6\pdl\drivers\peripheral\prot/cy_prot.c **** * will take effect after successful completion of this function call.
 479:Generated_Source\PSoC6\pdl\drivers\peripheral\prot/cy_prot.c **** *
 480:Generated_Source\PSoC6\pdl\drivers\peripheral\prot/cy_prot.c **** * \note This function is applicable for both CPUSS ver_1 and ver_2.
 481:Generated_Source\PSoC6\pdl\drivers\peripheral\prot/cy_prot.c **** *
 482:Generated_Source\PSoC6\pdl\drivers\peripheral\prot/cy_prot.c **** * \param base
 483:Generated_Source\PSoC6\pdl\drivers\peripheral\prot/cy_prot.c **** * The base address for the protection unit structure being configured. 
 484:Generated_Source\PSoC6\pdl\drivers\peripheral\prot/cy_prot.c **** *
 485:Generated_Source\PSoC6\pdl\drivers\peripheral\prot/cy_prot.c **** * \return
 486:Generated_Source\PSoC6\pdl\drivers\peripheral\prot/cy_prot.c **** * Status of the function call.
 487:Generated_Source\PSoC6\pdl\drivers\peripheral\prot/cy_prot.c **** *
 488:Generated_Source\PSoC6\pdl\drivers\peripheral\prot/cy_prot.c **** *   Status               | Description
 489:Generated_Source\PSoC6\pdl\drivers\peripheral\prot/cy_prot.c **** *   ------------         | -----------
 490:Generated_Source\PSoC6\pdl\drivers\peripheral\prot/cy_prot.c **** *   CY_PROT_SUCCESS      | The Master PU struct was enabled.
 491:Generated_Source\PSoC6\pdl\drivers\peripheral\prot/cy_prot.c **** *   CY_PROT_FAILURE      | The Master PU struct is disabled and possibly locked.
 492:Generated_Source\PSoC6\pdl\drivers\peripheral\prot/cy_prot.c **** *
 493:Generated_Source\PSoC6\pdl\drivers\peripheral\prot/cy_prot.c **** * \funcusage
 494:Generated_Source\PSoC6\pdl\drivers\peripheral\prot/cy_prot.c **** * \snippet prot/1.20/snippet/main.c snippet_Cy_Prot_EnableSmpuMasterStruct
 495:Generated_Source\PSoC6\pdl\drivers\peripheral\prot/cy_prot.c **** *
 496:Generated_Source\PSoC6\pdl\drivers\peripheral\prot/cy_prot.c **** *******************************************************************************/
 497:Generated_Source\PSoC6\pdl\drivers\peripheral\prot/cy_prot.c **** cy_en_prot_status_t Cy_Prot_EnableSmpuMasterStruct(PROT_SMPU_SMPU_STRUCT_Type* base)
 498:Generated_Source\PSoC6\pdl\drivers\peripheral\prot/cy_prot.c **** {
 1454              		.loc 1 498 0
 1455              		.cfi_startproc
 1456              		@ args = 0, pretend = 0, frame = 16
 1457              		@ frame_needed = 1, uses_anonymous_args = 0
 1458 0000 80B5     		push	{r7, lr}
 1459              		.cfi_def_cfa_offset 8
 1460              		.cfi_offset 7, -8
 1461              		.cfi_offset 14, -4
 1462 0002 84B0     		sub	sp, sp, #16
 1463              		.cfi_def_cfa_offset 24
 1464 0004 00AF     		add	r7, sp, #0
 1465              		.cfi_def_cfa_register 7
 1466 0006 7860     		str	r0, [r7, #4]
 499:Generated_Source\PSoC6\pdl\drivers\peripheral\prot/cy_prot.c ****     cy_en_prot_status_t status;
 500:Generated_Source\PSoC6\pdl\drivers\peripheral\prot/cy_prot.c ****     
 501:Generated_Source\PSoC6\pdl\drivers\peripheral\prot/cy_prot.c ****     CY_ASSERT_L1(NULL != base);
 1467              		.loc 1 501 0
 1468 0008 7B68     		ldr	r3, [r7, #4]
 1469 000a 002B     		cmp	r3, #0
 1470 000c 07D1     		bne	.L75
 1471              		.loc 1 501 0 is_stmt 0 discriminator 1
 1472 000e F623     		movs	r3, #246
 1473 0010 FF33     		adds	r3, r3, #255
 1474 0012 1A00     		movs	r2, r3
 1475 0014 0D4B     		ldr	r3, .L79
 1476 0016 1100     		movs	r1, r2
 1477 0018 1800     		movs	r0, r3
 1478 001a FFF7FEFF 		bl	Cy_SysLib_AssertFailed
 1479              	.L75:
 502:Generated_Source\PSoC6\pdl\drivers\peripheral\prot/cy_prot.c ****     
 503:Generated_Source\PSoC6\pdl\drivers\peripheral\prot/cy_prot.c ****     PROT_SMPU_SMPU_STRUCT_ATT1(base) |= _VAL2FLD(PROT_SMPU_SMPU_STRUCT_ATT1_ENABLED, CY_PROT_STRUCT
ARM GAS  C:\Users\JC\AppData\Local\Temp\ccU1E72d.s 			page 36


 1480              		.loc 1 503 0 is_stmt 1
 1481 001e 7B68     		ldr	r3, [r7, #4]
 1482 0020 5B6A     		ldr	r3, [r3, #36]
 1483 0022 8022     		movs	r2, #128
 1484 0024 1206     		lsls	r2, r2, #24
 1485 0026 1A43     		orrs	r2, r3
 1486 0028 7B68     		ldr	r3, [r7, #4]
 1487 002a 5A62     		str	r2, [r3, #36]
 504:Generated_Source\PSoC6\pdl\drivers\peripheral\prot/cy_prot.c ****     status = (_FLD2VAL(PROT_SMPU_SMPU_STRUCT_ATT1_ENABLED, PROT_SMPU_SMPU_STRUCT_ATT1(base)) != CY_
 1488              		.loc 1 504 0
 1489 002c 7B68     		ldr	r3, [r7, #4]
 1490 002e 5B6A     		ldr	r3, [r3, #36]
 1491 0030 DB0F     		lsrs	r3, r3, #31
 1492 0032 DB07     		lsls	r3, r3, #31
 1493 0034 DB0F     		lsrs	r3, r3, #31
 1494 0036 012B     		cmp	r3, #1
 1495 0038 01D0     		beq	.L76
 1496              		.loc 1 504 0 is_stmt 0 discriminator 1
 1497 003a 054B     		ldr	r3, .L79+4
 1498 003c 00E0     		b	.L77
 1499              	.L76:
 1500              		.loc 1 504 0 discriminator 2
 1501 003e 0023     		movs	r3, #0
 1502              	.L77:
 1503              		.loc 1 504 0 discriminator 4
 1504 0040 FB60     		str	r3, [r7, #12]
 505:Generated_Source\PSoC6\pdl\drivers\peripheral\prot/cy_prot.c ****                 CY_PROT_FAILURE : CY_PROT_SUCCESS;
 506:Generated_Source\PSoC6\pdl\drivers\peripheral\prot/cy_prot.c ****     
 507:Generated_Source\PSoC6\pdl\drivers\peripheral\prot/cy_prot.c ****     return status;
 1505              		.loc 1 507 0 is_stmt 1 discriminator 4
 1506 0042 FB68     		ldr	r3, [r7, #12]
 508:Generated_Source\PSoC6\pdl\drivers\peripheral\prot/cy_prot.c **** }
 1507              		.loc 1 508 0 discriminator 4
 1508 0044 1800     		movs	r0, r3
 1509 0046 BD46     		mov	sp, r7
 1510 0048 04B0     		add	sp, sp, #16
 1511              		@ sp needed
 1512 004a 80BD     		pop	{r7, pc}
 1513              	.L80:
 1514              		.align	2
 1515              	.L79:
 1516 004c 00000000 		.word	.LC1
 1517 0050 0300C200 		.word	12713987
 1518              		.cfi_endproc
 1519              	.LFE55:
 1520              		.size	Cy_Prot_EnableSmpuMasterStruct, .-Cy_Prot_EnableSmpuMasterStruct
 1521              		.section	.text.Cy_Prot_DisableSmpuMasterStruct,"ax",%progbits
 1522              		.align	2
 1523              		.global	Cy_Prot_DisableSmpuMasterStruct
 1524              		.code	16
 1525              		.thumb_func
 1526              		.type	Cy_Prot_DisableSmpuMasterStruct, %function
 1527              	Cy_Prot_DisableSmpuMasterStruct:
 1528              	.LFB56:
 509:Generated_Source\PSoC6\pdl\drivers\peripheral\prot/cy_prot.c **** 
 510:Generated_Source\PSoC6\pdl\drivers\peripheral\prot/cy_prot.c **** 
 511:Generated_Source\PSoC6\pdl\drivers\peripheral\prot/cy_prot.c **** /*******************************************************************************
ARM GAS  C:\Users\JC\AppData\Local\Temp\ccU1E72d.s 			page 37


 512:Generated_Source\PSoC6\pdl\drivers\peripheral\prot/cy_prot.c **** * Function Name: Cy_Prot_DisableSmpuMasterStruct
 513:Generated_Source\PSoC6\pdl\drivers\peripheral\prot/cy_prot.c **** ****************************************************************************//**
 514:Generated_Source\PSoC6\pdl\drivers\peripheral\prot/cy_prot.c **** *
 515:Generated_Source\PSoC6\pdl\drivers\peripheral\prot/cy_prot.c **** * Disables the Master SMPU structure.
 516:Generated_Source\PSoC6\pdl\drivers\peripheral\prot/cy_prot.c **** *
 517:Generated_Source\PSoC6\pdl\drivers\peripheral\prot/cy_prot.c **** * This is an SMPU master struct disable function. The SMPU protection settings
 518:Generated_Source\PSoC6\pdl\drivers\peripheral\prot/cy_prot.c **** * will seize to take effect after successful completion of this function call.
 519:Generated_Source\PSoC6\pdl\drivers\peripheral\prot/cy_prot.c **** *
 520:Generated_Source\PSoC6\pdl\drivers\peripheral\prot/cy_prot.c **** * \note This function is applicable for both CPUSS ver_1 and ver_2.
 521:Generated_Source\PSoC6\pdl\drivers\peripheral\prot/cy_prot.c **** *
 522:Generated_Source\PSoC6\pdl\drivers\peripheral\prot/cy_prot.c **** * \param base
 523:Generated_Source\PSoC6\pdl\drivers\peripheral\prot/cy_prot.c **** * The base address for the protection unit structure being configured. 
 524:Generated_Source\PSoC6\pdl\drivers\peripheral\prot/cy_prot.c **** *
 525:Generated_Source\PSoC6\pdl\drivers\peripheral\prot/cy_prot.c **** * \return
 526:Generated_Source\PSoC6\pdl\drivers\peripheral\prot/cy_prot.c **** * Status of the function call.
 527:Generated_Source\PSoC6\pdl\drivers\peripheral\prot/cy_prot.c **** *
 528:Generated_Source\PSoC6\pdl\drivers\peripheral\prot/cy_prot.c **** *   Status               | Description
 529:Generated_Source\PSoC6\pdl\drivers\peripheral\prot/cy_prot.c **** *   ------------         | -----------
 530:Generated_Source\PSoC6\pdl\drivers\peripheral\prot/cy_prot.c **** *   CY_PROT_SUCCESS      | The Master PU struct was disabled.
 531:Generated_Source\PSoC6\pdl\drivers\peripheral\prot/cy_prot.c **** *   CY_PROT_FAILURE      | The Master PU struct is enabled and possibly locked.
 532:Generated_Source\PSoC6\pdl\drivers\peripheral\prot/cy_prot.c **** *
 533:Generated_Source\PSoC6\pdl\drivers\peripheral\prot/cy_prot.c **** * \funcusage
 534:Generated_Source\PSoC6\pdl\drivers\peripheral\prot/cy_prot.c **** * \snippet prot/1.20/snippet/main.c snippet_Cy_Prot_DisableSmpuMasterStruct
 535:Generated_Source\PSoC6\pdl\drivers\peripheral\prot/cy_prot.c **** *
 536:Generated_Source\PSoC6\pdl\drivers\peripheral\prot/cy_prot.c **** *******************************************************************************/
 537:Generated_Source\PSoC6\pdl\drivers\peripheral\prot/cy_prot.c **** cy_en_prot_status_t Cy_Prot_DisableSmpuMasterStruct(PROT_SMPU_SMPU_STRUCT_Type* base)
 538:Generated_Source\PSoC6\pdl\drivers\peripheral\prot/cy_prot.c **** {
 1529              		.loc 1 538 0
 1530              		.cfi_startproc
 1531              		@ args = 0, pretend = 0, frame = 16
 1532              		@ frame_needed = 1, uses_anonymous_args = 0
 1533 0000 80B5     		push	{r7, lr}
 1534              		.cfi_def_cfa_offset 8
 1535              		.cfi_offset 7, -8
 1536              		.cfi_offset 14, -4
 1537 0002 84B0     		sub	sp, sp, #16
 1538              		.cfi_def_cfa_offset 24
 1539 0004 00AF     		add	r7, sp, #0
 1540              		.cfi_def_cfa_register 7
 1541 0006 7860     		str	r0, [r7, #4]
 539:Generated_Source\PSoC6\pdl\drivers\peripheral\prot/cy_prot.c ****     cy_en_prot_status_t status;
 540:Generated_Source\PSoC6\pdl\drivers\peripheral\prot/cy_prot.c ****     
 541:Generated_Source\PSoC6\pdl\drivers\peripheral\prot/cy_prot.c ****     CY_ASSERT_L1(NULL != base);
 1542              		.loc 1 541 0
 1543 0008 7B68     		ldr	r3, [r7, #4]
 1544 000a 002B     		cmp	r3, #0
 1545 000c 05D1     		bne	.L82
 1546              		.loc 1 541 0 is_stmt 0 discriminator 1
 1547 000e 0E4A     		ldr	r2, .L86
 1548 0010 0E4B     		ldr	r3, .L86+4
 1549 0012 1100     		movs	r1, r2
 1550 0014 1800     		movs	r0, r3
 1551 0016 FFF7FEFF 		bl	Cy_SysLib_AssertFailed
 1552              	.L82:
 542:Generated_Source\PSoC6\pdl\drivers\peripheral\prot/cy_prot.c ****     
 543:Generated_Source\PSoC6\pdl\drivers\peripheral\prot/cy_prot.c ****     PROT_SMPU_SMPU_STRUCT_ATT1(base) &= ~_VAL2FLD(PROT_SMPU_SMPU_STRUCT_ATT1_ENABLED, CY_PROT_STRUC
 1553              		.loc 1 543 0 is_stmt 1
ARM GAS  C:\Users\JC\AppData\Local\Temp\ccU1E72d.s 			page 38


 1554 001a 7B68     		ldr	r3, [r7, #4]
 1555 001c 5B6A     		ldr	r3, [r3, #36]
 1556 001e 5B00     		lsls	r3, r3, #1
 1557 0020 5A08     		lsrs	r2, r3, #1
 1558 0022 7B68     		ldr	r3, [r7, #4]
 1559 0024 5A62     		str	r2, [r3, #36]
 544:Generated_Source\PSoC6\pdl\drivers\peripheral\prot/cy_prot.c ****     status = (_FLD2VAL(PROT_SMPU_SMPU_STRUCT_ATT1_ENABLED, PROT_SMPU_SMPU_STRUCT_ATT1(base)) == CY_
 1560              		.loc 1 544 0
 1561 0026 7B68     		ldr	r3, [r7, #4]
 1562 0028 5B6A     		ldr	r3, [r3, #36]
 1563 002a DB0F     		lsrs	r3, r3, #31
 1564 002c DB07     		lsls	r3, r3, #31
 1565 002e DB0F     		lsrs	r3, r3, #31
 1566 0030 012B     		cmp	r3, #1
 1567 0032 01D1     		bne	.L83
 1568              		.loc 1 544 0 is_stmt 0 discriminator 1
 1569 0034 064B     		ldr	r3, .L86+8
 1570 0036 00E0     		b	.L84
 1571              	.L83:
 1572              		.loc 1 544 0 discriminator 2
 1573 0038 0023     		movs	r3, #0
 1574              	.L84:
 1575              		.loc 1 544 0 discriminator 4
 1576 003a FB60     		str	r3, [r7, #12]
 545:Generated_Source\PSoC6\pdl\drivers\peripheral\prot/cy_prot.c ****                 CY_PROT_FAILURE : CY_PROT_SUCCESS;
 546:Generated_Source\PSoC6\pdl\drivers\peripheral\prot/cy_prot.c ****     
 547:Generated_Source\PSoC6\pdl\drivers\peripheral\prot/cy_prot.c ****     return status;
 1577              		.loc 1 547 0 is_stmt 1 discriminator 4
 1578 003c FB68     		ldr	r3, [r7, #12]
 548:Generated_Source\PSoC6\pdl\drivers\peripheral\prot/cy_prot.c **** }
 1579              		.loc 1 548 0 discriminator 4
 1580 003e 1800     		movs	r0, r3
 1581 0040 BD46     		mov	sp, r7
 1582 0042 04B0     		add	sp, sp, #16
 1583              		@ sp needed
 1584 0044 80BD     		pop	{r7, pc}
 1585              	.L87:
 1586 0046 C046     		.align	2
 1587              	.L86:
 1588 0048 1D020000 		.word	541
 1589 004c 00000000 		.word	.LC1
 1590 0050 0300C200 		.word	12713987
 1591              		.cfi_endproc
 1592              	.LFE56:
 1593              		.size	Cy_Prot_DisableSmpuMasterStruct, .-Cy_Prot_DisableSmpuMasterStruct
 1594              		.section	.text.Cy_Prot_EnableSmpuSlaveStruct,"ax",%progbits
 1595              		.align	2
 1596              		.global	Cy_Prot_EnableSmpuSlaveStruct
 1597              		.code	16
 1598              		.thumb_func
 1599              		.type	Cy_Prot_EnableSmpuSlaveStruct, %function
 1600              	Cy_Prot_EnableSmpuSlaveStruct:
 1601              	.LFB57:
 549:Generated_Source\PSoC6\pdl\drivers\peripheral\prot/cy_prot.c **** 
 550:Generated_Source\PSoC6\pdl\drivers\peripheral\prot/cy_prot.c **** 
 551:Generated_Source\PSoC6\pdl\drivers\peripheral\prot/cy_prot.c **** /*******************************************************************************
 552:Generated_Source\PSoC6\pdl\drivers\peripheral\prot/cy_prot.c **** * Function Name: Cy_Prot_EnableSmpuSlaveStruct
ARM GAS  C:\Users\JC\AppData\Local\Temp\ccU1E72d.s 			page 39


 553:Generated_Source\PSoC6\pdl\drivers\peripheral\prot/cy_prot.c **** ****************************************************************************//**
 554:Generated_Source\PSoC6\pdl\drivers\peripheral\prot/cy_prot.c **** *
 555:Generated_Source\PSoC6\pdl\drivers\peripheral\prot/cy_prot.c **** * Enables the Slave SMPU structure.
 556:Generated_Source\PSoC6\pdl\drivers\peripheral\prot/cy_prot.c **** *
 557:Generated_Source\PSoC6\pdl\drivers\peripheral\prot/cy_prot.c **** * This is an SMPU slave struct enable function. The SMPU protection settings
 558:Generated_Source\PSoC6\pdl\drivers\peripheral\prot/cy_prot.c **** * will take effect after successful completion of this function call.
 559:Generated_Source\PSoC6\pdl\drivers\peripheral\prot/cy_prot.c **** *
 560:Generated_Source\PSoC6\pdl\drivers\peripheral\prot/cy_prot.c **** * \note This function is applicable for both CPUSS ver_1 and ver_2.
 561:Generated_Source\PSoC6\pdl\drivers\peripheral\prot/cy_prot.c **** *
 562:Generated_Source\PSoC6\pdl\drivers\peripheral\prot/cy_prot.c **** * \param base
 563:Generated_Source\PSoC6\pdl\drivers\peripheral\prot/cy_prot.c **** * The base address for the protection unit structure being configured. 
 564:Generated_Source\PSoC6\pdl\drivers\peripheral\prot/cy_prot.c **** *
 565:Generated_Source\PSoC6\pdl\drivers\peripheral\prot/cy_prot.c **** * \return
 566:Generated_Source\PSoC6\pdl\drivers\peripheral\prot/cy_prot.c **** * Status of the function call.
 567:Generated_Source\PSoC6\pdl\drivers\peripheral\prot/cy_prot.c **** *
 568:Generated_Source\PSoC6\pdl\drivers\peripheral\prot/cy_prot.c **** *   Status               | Description
 569:Generated_Source\PSoC6\pdl\drivers\peripheral\prot/cy_prot.c **** *   ------------         | -----------
 570:Generated_Source\PSoC6\pdl\drivers\peripheral\prot/cy_prot.c **** *   CY_PROT_SUCCESS      | The Slave PU struct was enabled.
 571:Generated_Source\PSoC6\pdl\drivers\peripheral\prot/cy_prot.c **** *   CY_PROT_FAILURE      | The Slave PU struct is disabled and possibly locked.
 572:Generated_Source\PSoC6\pdl\drivers\peripheral\prot/cy_prot.c **** *
 573:Generated_Source\PSoC6\pdl\drivers\peripheral\prot/cy_prot.c **** * \funcusage
 574:Generated_Source\PSoC6\pdl\drivers\peripheral\prot/cy_prot.c **** * \snippet prot/1.20/snippet/main.c snippet_Cy_Prot_EnableSmpuSlaveStruct
 575:Generated_Source\PSoC6\pdl\drivers\peripheral\prot/cy_prot.c **** *
 576:Generated_Source\PSoC6\pdl\drivers\peripheral\prot/cy_prot.c **** *******************************************************************************/
 577:Generated_Source\PSoC6\pdl\drivers\peripheral\prot/cy_prot.c **** cy_en_prot_status_t Cy_Prot_EnableSmpuSlaveStruct(PROT_SMPU_SMPU_STRUCT_Type* base)
 578:Generated_Source\PSoC6\pdl\drivers\peripheral\prot/cy_prot.c **** {
 1602              		.loc 1 578 0
 1603              		.cfi_startproc
 1604              		@ args = 0, pretend = 0, frame = 16
 1605              		@ frame_needed = 1, uses_anonymous_args = 0
 1606 0000 80B5     		push	{r7, lr}
 1607              		.cfi_def_cfa_offset 8
 1608              		.cfi_offset 7, -8
 1609              		.cfi_offset 14, -4
 1610 0002 84B0     		sub	sp, sp, #16
 1611              		.cfi_def_cfa_offset 24
 1612 0004 00AF     		add	r7, sp, #0
 1613              		.cfi_def_cfa_register 7
 1614 0006 7860     		str	r0, [r7, #4]
 579:Generated_Source\PSoC6\pdl\drivers\peripheral\prot/cy_prot.c ****     cy_en_prot_status_t status;
 580:Generated_Source\PSoC6\pdl\drivers\peripheral\prot/cy_prot.c ****     
 581:Generated_Source\PSoC6\pdl\drivers\peripheral\prot/cy_prot.c ****     CY_ASSERT_L1(NULL != base);
 1615              		.loc 1 581 0
 1616 0008 7B68     		ldr	r3, [r7, #4]
 1617 000a 002B     		cmp	r3, #0
 1618 000c 05D1     		bne	.L89
 1619              		.loc 1 581 0 is_stmt 0 discriminator 1
 1620 000e 0E4A     		ldr	r2, .L93
 1621 0010 0E4B     		ldr	r3, .L93+4
 1622 0012 1100     		movs	r1, r2
 1623 0014 1800     		movs	r0, r3
 1624 0016 FFF7FEFF 		bl	Cy_SysLib_AssertFailed
 1625              	.L89:
 582:Generated_Source\PSoC6\pdl\drivers\peripheral\prot/cy_prot.c ****     
 583:Generated_Source\PSoC6\pdl\drivers\peripheral\prot/cy_prot.c ****     PROT_SMPU_SMPU_STRUCT_ATT0(base) |= _VAL2FLD(PROT_SMPU_SMPU_STRUCT_ATT0_ENABLED, CY_PROT_STRUCT
 1626              		.loc 1 583 0 is_stmt 1
 1627 001a 7B68     		ldr	r3, [r7, #4]
ARM GAS  C:\Users\JC\AppData\Local\Temp\ccU1E72d.s 			page 40


 1628 001c 5B68     		ldr	r3, [r3, #4]
 1629 001e 8022     		movs	r2, #128
 1630 0020 1206     		lsls	r2, r2, #24
 1631 0022 1A43     		orrs	r2, r3
 1632 0024 7B68     		ldr	r3, [r7, #4]
 1633 0026 5A60     		str	r2, [r3, #4]
 584:Generated_Source\PSoC6\pdl\drivers\peripheral\prot/cy_prot.c ****     status = (_FLD2VAL(PROT_SMPU_SMPU_STRUCT_ATT0_ENABLED, PROT_SMPU_SMPU_STRUCT_ATT0(base)) != CY_
 1634              		.loc 1 584 0
 1635 0028 7B68     		ldr	r3, [r7, #4]
 1636 002a 5B68     		ldr	r3, [r3, #4]
 1637 002c DB0F     		lsrs	r3, r3, #31
 1638 002e DB07     		lsls	r3, r3, #31
 1639 0030 DB0F     		lsrs	r3, r3, #31
 1640 0032 012B     		cmp	r3, #1
 1641 0034 01D0     		beq	.L90
 1642              		.loc 1 584 0 is_stmt 0 discriminator 1
 1643 0036 064B     		ldr	r3, .L93+8
 1644 0038 00E0     		b	.L91
 1645              	.L90:
 1646              		.loc 1 584 0 discriminator 2
 1647 003a 0023     		movs	r3, #0
 1648              	.L91:
 1649              		.loc 1 584 0 discriminator 4
 1650 003c FB60     		str	r3, [r7, #12]
 585:Generated_Source\PSoC6\pdl\drivers\peripheral\prot/cy_prot.c ****                 CY_PROT_FAILURE : CY_PROT_SUCCESS;
 586:Generated_Source\PSoC6\pdl\drivers\peripheral\prot/cy_prot.c ****     
 587:Generated_Source\PSoC6\pdl\drivers\peripheral\prot/cy_prot.c ****     return status;
 1651              		.loc 1 587 0 is_stmt 1 discriminator 4
 1652 003e FB68     		ldr	r3, [r7, #12]
 588:Generated_Source\PSoC6\pdl\drivers\peripheral\prot/cy_prot.c **** }
 1653              		.loc 1 588 0 discriminator 4
 1654 0040 1800     		movs	r0, r3
 1655 0042 BD46     		mov	sp, r7
 1656 0044 04B0     		add	sp, sp, #16
 1657              		@ sp needed
 1658 0046 80BD     		pop	{r7, pc}
 1659              	.L94:
 1660              		.align	2
 1661              	.L93:
 1662 0048 45020000 		.word	581
 1663 004c 00000000 		.word	.LC1
 1664 0050 0300C200 		.word	12713987
 1665              		.cfi_endproc
 1666              	.LFE57:
 1667              		.size	Cy_Prot_EnableSmpuSlaveStruct, .-Cy_Prot_EnableSmpuSlaveStruct
 1668              		.section	.text.Cy_Prot_DisableSmpuSlaveStruct,"ax",%progbits
 1669              		.align	2
 1670              		.global	Cy_Prot_DisableSmpuSlaveStruct
 1671              		.code	16
 1672              		.thumb_func
 1673              		.type	Cy_Prot_DisableSmpuSlaveStruct, %function
 1674              	Cy_Prot_DisableSmpuSlaveStruct:
 1675              	.LFB58:
 589:Generated_Source\PSoC6\pdl\drivers\peripheral\prot/cy_prot.c **** 
 590:Generated_Source\PSoC6\pdl\drivers\peripheral\prot/cy_prot.c **** 
 591:Generated_Source\PSoC6\pdl\drivers\peripheral\prot/cy_prot.c **** /*******************************************************************************
 592:Generated_Source\PSoC6\pdl\drivers\peripheral\prot/cy_prot.c **** * Function Name: Cy_Prot_DisableSmpuSlaveStruct
ARM GAS  C:\Users\JC\AppData\Local\Temp\ccU1E72d.s 			page 41


 593:Generated_Source\PSoC6\pdl\drivers\peripheral\prot/cy_prot.c **** ****************************************************************************//**
 594:Generated_Source\PSoC6\pdl\drivers\peripheral\prot/cy_prot.c **** *
 595:Generated_Source\PSoC6\pdl\drivers\peripheral\prot/cy_prot.c **** * Disables the Slave SMPU structure.
 596:Generated_Source\PSoC6\pdl\drivers\peripheral\prot/cy_prot.c **** *
 597:Generated_Source\PSoC6\pdl\drivers\peripheral\prot/cy_prot.c **** * This is an SMPU slave struct disable function. The SMPU protection settings
 598:Generated_Source\PSoC6\pdl\drivers\peripheral\prot/cy_prot.c **** * will seize to take effect after successful completion of this function call.
 599:Generated_Source\PSoC6\pdl\drivers\peripheral\prot/cy_prot.c **** *
 600:Generated_Source\PSoC6\pdl\drivers\peripheral\prot/cy_prot.c **** * \note This function is applicable for both CPUSS ver_1 and ver_2.
 601:Generated_Source\PSoC6\pdl\drivers\peripheral\prot/cy_prot.c **** *
 602:Generated_Source\PSoC6\pdl\drivers\peripheral\prot/cy_prot.c **** * \param base
 603:Generated_Source\PSoC6\pdl\drivers\peripheral\prot/cy_prot.c **** * The base address for the protection unit structure being configured. 
 604:Generated_Source\PSoC6\pdl\drivers\peripheral\prot/cy_prot.c **** *
 605:Generated_Source\PSoC6\pdl\drivers\peripheral\prot/cy_prot.c **** * \return
 606:Generated_Source\PSoC6\pdl\drivers\peripheral\prot/cy_prot.c **** * Status of the function call.
 607:Generated_Source\PSoC6\pdl\drivers\peripheral\prot/cy_prot.c **** *
 608:Generated_Source\PSoC6\pdl\drivers\peripheral\prot/cy_prot.c **** *   Status               | Description
 609:Generated_Source\PSoC6\pdl\drivers\peripheral\prot/cy_prot.c **** *   ------------         | -----------
 610:Generated_Source\PSoC6\pdl\drivers\peripheral\prot/cy_prot.c **** *   CY_PROT_SUCCESS      | The Slave PU struct was disabled.
 611:Generated_Source\PSoC6\pdl\drivers\peripheral\prot/cy_prot.c **** *   CY_PROT_FAILURE      | The Slave PU struct is enabled and possibly locked.
 612:Generated_Source\PSoC6\pdl\drivers\peripheral\prot/cy_prot.c **** *
 613:Generated_Source\PSoC6\pdl\drivers\peripheral\prot/cy_prot.c **** * \funcusage
 614:Generated_Source\PSoC6\pdl\drivers\peripheral\prot/cy_prot.c **** * \snippet prot/1.20/snippet/main.c snippet_Cy_Prot_DisableSmpuSlaveStruct
 615:Generated_Source\PSoC6\pdl\drivers\peripheral\prot/cy_prot.c **** *
 616:Generated_Source\PSoC6\pdl\drivers\peripheral\prot/cy_prot.c **** *******************************************************************************/
 617:Generated_Source\PSoC6\pdl\drivers\peripheral\prot/cy_prot.c **** cy_en_prot_status_t Cy_Prot_DisableSmpuSlaveStruct(PROT_SMPU_SMPU_STRUCT_Type* base)
 618:Generated_Source\PSoC6\pdl\drivers\peripheral\prot/cy_prot.c **** {
 1676              		.loc 1 618 0
 1677              		.cfi_startproc
 1678              		@ args = 0, pretend = 0, frame = 16
 1679              		@ frame_needed = 1, uses_anonymous_args = 0
 1680 0000 80B5     		push	{r7, lr}
 1681              		.cfi_def_cfa_offset 8
 1682              		.cfi_offset 7, -8
 1683              		.cfi_offset 14, -4
 1684 0002 84B0     		sub	sp, sp, #16
 1685              		.cfi_def_cfa_offset 24
 1686 0004 00AF     		add	r7, sp, #0
 1687              		.cfi_def_cfa_register 7
 1688 0006 7860     		str	r0, [r7, #4]
 619:Generated_Source\PSoC6\pdl\drivers\peripheral\prot/cy_prot.c ****     cy_en_prot_status_t status;
 620:Generated_Source\PSoC6\pdl\drivers\peripheral\prot/cy_prot.c ****     
 621:Generated_Source\PSoC6\pdl\drivers\peripheral\prot/cy_prot.c ****     CY_ASSERT_L1(NULL != base);
 1689              		.loc 1 621 0
 1690 0008 7B68     		ldr	r3, [r7, #4]
 1691 000a 002B     		cmp	r3, #0
 1692 000c 05D1     		bne	.L96
 1693              		.loc 1 621 0 is_stmt 0 discriminator 1
 1694 000e 0E4A     		ldr	r2, .L100
 1695 0010 0E4B     		ldr	r3, .L100+4
 1696 0012 1100     		movs	r1, r2
 1697 0014 1800     		movs	r0, r3
 1698 0016 FFF7FEFF 		bl	Cy_SysLib_AssertFailed
 1699              	.L96:
 622:Generated_Source\PSoC6\pdl\drivers\peripheral\prot/cy_prot.c ****     
 623:Generated_Source\PSoC6\pdl\drivers\peripheral\prot/cy_prot.c ****     PROT_SMPU_SMPU_STRUCT_ATT0(base) &= ~_VAL2FLD(PROT_SMPU_SMPU_STRUCT_ATT0_ENABLED, CY_PROT_STRUC
 1700              		.loc 1 623 0 is_stmt 1
 1701 001a 7B68     		ldr	r3, [r7, #4]
ARM GAS  C:\Users\JC\AppData\Local\Temp\ccU1E72d.s 			page 42


 1702 001c 5B68     		ldr	r3, [r3, #4]
 1703 001e 5B00     		lsls	r3, r3, #1
 1704 0020 5A08     		lsrs	r2, r3, #1
 1705 0022 7B68     		ldr	r3, [r7, #4]
 1706 0024 5A60     		str	r2, [r3, #4]
 624:Generated_Source\PSoC6\pdl\drivers\peripheral\prot/cy_prot.c ****     status = (_FLD2VAL(PROT_SMPU_SMPU_STRUCT_ATT0_ENABLED, PROT_SMPU_SMPU_STRUCT_ATT0(base)) == CY_
 1707              		.loc 1 624 0
 1708 0026 7B68     		ldr	r3, [r7, #4]
 1709 0028 5B68     		ldr	r3, [r3, #4]
 1710 002a DB0F     		lsrs	r3, r3, #31
 1711 002c DB07     		lsls	r3, r3, #31
 1712 002e DB0F     		lsrs	r3, r3, #31
 1713 0030 012B     		cmp	r3, #1
 1714 0032 01D1     		bne	.L97
 1715              		.loc 1 624 0 is_stmt 0 discriminator 1
 1716 0034 064B     		ldr	r3, .L100+8
 1717 0036 00E0     		b	.L98
 1718              	.L97:
 1719              		.loc 1 624 0 discriminator 2
 1720 0038 0023     		movs	r3, #0
 1721              	.L98:
 1722              		.loc 1 624 0 discriminator 4
 1723 003a FB60     		str	r3, [r7, #12]
 625:Generated_Source\PSoC6\pdl\drivers\peripheral\prot/cy_prot.c ****                 CY_PROT_FAILURE : CY_PROT_SUCCESS;
 626:Generated_Source\PSoC6\pdl\drivers\peripheral\prot/cy_prot.c ****     
 627:Generated_Source\PSoC6\pdl\drivers\peripheral\prot/cy_prot.c ****     return status;
 1724              		.loc 1 627 0 is_stmt 1 discriminator 4
 1725 003c FB68     		ldr	r3, [r7, #12]
 628:Generated_Source\PSoC6\pdl\drivers\peripheral\prot/cy_prot.c **** }
 1726              		.loc 1 628 0 discriminator 4
 1727 003e 1800     		movs	r0, r3
 1728 0040 BD46     		mov	sp, r7
 1729 0042 04B0     		add	sp, sp, #16
 1730              		@ sp needed
 1731 0044 80BD     		pop	{r7, pc}
 1732              	.L101:
 1733 0046 C046     		.align	2
 1734              	.L100:
 1735 0048 6D020000 		.word	621
 1736 004c 00000000 		.word	.LC1
 1737 0050 0300C200 		.word	12713987
 1738              		.cfi_endproc
 1739              	.LFE58:
 1740              		.size	Cy_Prot_DisableSmpuSlaveStruct, .-Cy_Prot_DisableSmpuSlaveStruct
 1741              		.section	.text.Cy_Prot_GetSmpuStruct,"ax",%progbits
 1742              		.align	2
 1743              		.global	Cy_Prot_GetSmpuStruct
 1744              		.code	16
 1745              		.thumb_func
 1746              		.type	Cy_Prot_GetSmpuStruct, %function
 1747              	Cy_Prot_GetSmpuStruct:
 1748              	.LFB59:
 629:Generated_Source\PSoC6\pdl\drivers\peripheral\prot/cy_prot.c **** 
 630:Generated_Source\PSoC6\pdl\drivers\peripheral\prot/cy_prot.c **** 
 631:Generated_Source\PSoC6\pdl\drivers\peripheral\prot/cy_prot.c **** /*******************************************************************************
 632:Generated_Source\PSoC6\pdl\drivers\peripheral\prot/cy_prot.c **** * Function Name: Cy_Prot_GetSmpuStruct
 633:Generated_Source\PSoC6\pdl\drivers\peripheral\prot/cy_prot.c **** ****************************************************************************//**
ARM GAS  C:\Users\JC\AppData\Local\Temp\ccU1E72d.s 			page 43


 634:Generated_Source\PSoC6\pdl\drivers\peripheral\prot/cy_prot.c **** *
 635:Generated_Source\PSoC6\pdl\drivers\peripheral\prot/cy_prot.c **** * Functions returns a pointer of the requested unused SMPU structure. It 
 636:Generated_Source\PSoC6\pdl\drivers\peripheral\prot/cy_prot.c **** * searches the SMPU structures until it finds one that both the slave and master
 637:Generated_Source\PSoC6\pdl\drivers\peripheral\prot/cy_prot.c **** * sections are disabled. After an available structure is located, function 
 638:Generated_Source\PSoC6\pdl\drivers\peripheral\prot/cy_prot.c **** * enables the slave structure and set the ATT0[7:0] bits to 0xFF, to make sure 
 639:Generated_Source\PSoC6\pdl\drivers\peripheral\prot/cy_prot.c **** * that a subsequent call will not see this as an available (unused) SMPU. 
 640:Generated_Source\PSoC6\pdl\drivers\peripheral\prot/cy_prot.c **** *
 641:Generated_Source\PSoC6\pdl\drivers\peripheral\prot/cy_prot.c **** * It is up to the user to implement, if needed, a system in which a semaphore 
 642:Generated_Source\PSoC6\pdl\drivers\peripheral\prot/cy_prot.c **** * will lock-out all but one CPU from calling this function at once.
 643:Generated_Source\PSoC6\pdl\drivers\peripheral\prot/cy_prot.c **** *
 644:Generated_Source\PSoC6\pdl\drivers\peripheral\prot/cy_prot.c **** * \note This function is applicable for both CPUSS ver_1 and ver_2.
 645:Generated_Source\PSoC6\pdl\drivers\peripheral\prot/cy_prot.c **** *
 646:Generated_Source\PSoC6\pdl\drivers\peripheral\prot/cy_prot.c **** * \param base
 647:Generated_Source\PSoC6\pdl\drivers\peripheral\prot/cy_prot.c **** * The base address for the SMPU structure returned if an unused structure was 
 648:Generated_Source\PSoC6\pdl\drivers\peripheral\prot/cy_prot.c **** * found. If an empty structure was not found, the returned pointer is NULL.
 649:Generated_Source\PSoC6\pdl\drivers\peripheral\prot/cy_prot.c **** *
 650:Generated_Source\PSoC6\pdl\drivers\peripheral\prot/cy_prot.c **** * \param reqMode
 651:Generated_Source\PSoC6\pdl\drivers\peripheral\prot/cy_prot.c **** * This parameter (request mode) selects how the user wants to select a SMPU 
 652:Generated_Source\PSoC6\pdl\drivers\peripheral\prot/cy_prot.c **** * structure.
 653:Generated_Source\PSoC6\pdl\drivers\peripheral\prot/cy_prot.c **** *
 654:Generated_Source\PSoC6\pdl\drivers\peripheral\prot/cy_prot.c **** *   reqMode                 | Description
 655:Generated_Source\PSoC6\pdl\drivers\peripheral\prot/cy_prot.c **** * --------------------------| -----------------------------
 656:Generated_Source\PSoC6\pdl\drivers\peripheral\prot/cy_prot.c **** * CY_PROT_REQMODE_HIGHPRIOR | Return the SMPU structure with the highest priority.
 657:Generated_Source\PSoC6\pdl\drivers\peripheral\prot/cy_prot.c **** * CY_PROT_REQMODE_LOWPRIOR  | Return the SMPU structure with the lowest priority.
 658:Generated_Source\PSoC6\pdl\drivers\peripheral\prot/cy_prot.c **** * CY_PROT_REQMODE_INDEX     | Return the SMPU structure with the specific index.
 659:Generated_Source\PSoC6\pdl\drivers\peripheral\prot/cy_prot.c **** *
 660:Generated_Source\PSoC6\pdl\drivers\peripheral\prot/cy_prot.c **** * \param smpuIndex
 661:Generated_Source\PSoC6\pdl\drivers\peripheral\prot/cy_prot.c **** * This is the index of the requested SMPU structure. It is only used if the 
 662:Generated_Source\PSoC6\pdl\drivers\peripheral\prot/cy_prot.c **** * request mode is reqMode = CY_PROT_REQMODE_INDEX.
 663:Generated_Source\PSoC6\pdl\drivers\peripheral\prot/cy_prot.c **** *
 664:Generated_Source\PSoC6\pdl\drivers\peripheral\prot/cy_prot.c **** * \return
 665:Generated_Source\PSoC6\pdl\drivers\peripheral\prot/cy_prot.c **** * Status of the function call.
 666:Generated_Source\PSoC6\pdl\drivers\peripheral\prot/cy_prot.c **** *
 667:Generated_Source\PSoC6\pdl\drivers\peripheral\prot/cy_prot.c **** *   Status              | Description
 668:Generated_Source\PSoC6\pdl\drivers\peripheral\prot/cy_prot.c **** * ----------------------| ---------------------------------------
 669:Generated_Source\PSoC6\pdl\drivers\peripheral\prot/cy_prot.c **** * CY_PROT_SUCCESS       | The Slave PU struct was disabled.
 670:Generated_Source\PSoC6\pdl\drivers\peripheral\prot/cy_prot.c **** * CY_PROT_FAILURE       | The Master or Slave SMPU struct is disabled and possibly locked.
 671:Generated_Source\PSoC6\pdl\drivers\peripheral\prot/cy_prot.c **** * CY_PROT_UNAVAILABLE   | The requested structure in use or there were no unused structures.
 672:Generated_Source\PSoC6\pdl\drivers\peripheral\prot/cy_prot.c **** *
 673:Generated_Source\PSoC6\pdl\drivers\peripheral\prot/cy_prot.c **** * \funcusage
 674:Generated_Source\PSoC6\pdl\drivers\peripheral\prot/cy_prot.c **** * \snippet prot/1.20/snippet/main.c snippet_Cy_Prot_GetSmpuStruct
 675:Generated_Source\PSoC6\pdl\drivers\peripheral\prot/cy_prot.c **** *
 676:Generated_Source\PSoC6\pdl\drivers\peripheral\prot/cy_prot.c **** *******************************************************************************/
 677:Generated_Source\PSoC6\pdl\drivers\peripheral\prot/cy_prot.c **** cy_en_prot_status_t Cy_Prot_GetSmpuStruct(PROT_SMPU_SMPU_STRUCT_Type** base, 
 678:Generated_Source\PSoC6\pdl\drivers\peripheral\prot/cy_prot.c ****                                           cy_en_prot_req_mode_t reqMode, uint32_t smpuIndex)
 679:Generated_Source\PSoC6\pdl\drivers\peripheral\prot/cy_prot.c **** {
 1749              		.loc 1 679 0
 1750              		.cfi_startproc
 1751              		@ args = 0, pretend = 0, frame = 24
 1752              		@ frame_needed = 1, uses_anonymous_args = 0
 1753 0000 80B5     		push	{r7, lr}
 1754              		.cfi_def_cfa_offset 8
 1755              		.cfi_offset 7, -8
 1756              		.cfi_offset 14, -4
 1757 0002 86B0     		sub	sp, sp, #24
 1758              		.cfi_def_cfa_offset 32
 1759 0004 00AF     		add	r7, sp, #0
ARM GAS  C:\Users\JC\AppData\Local\Temp\ccU1E72d.s 			page 44


 1760              		.cfi_def_cfa_register 7
 1761 0006 F860     		str	r0, [r7, #12]
 1762 0008 7A60     		str	r2, [r7, #4]
 1763 000a 0B23     		movs	r3, #11
 1764 000c FB18     		adds	r3, r7, r3
 1765 000e 0A1C     		adds	r2, r1, #0
 1766 0010 1A70     		strb	r2, [r3]
 680:Generated_Source\PSoC6\pdl\drivers\peripheral\prot/cy_prot.c ****     CY_ASSERT_L3(CY_PROT_IS_SMPU_REQ_MODE_VALID(reqMode));
 1767              		.loc 1 680 0
 1768 0012 0B23     		movs	r3, #11
 1769 0014 FB18     		adds	r3, r7, r3
 1770 0016 1B78     		ldrb	r3, [r3]
 1771 0018 002B     		cmp	r3, #0
 1772 001a 10D0     		beq	.L103
 1773              		.loc 1 680 0 is_stmt 0 discriminator 1
 1774 001c 0B23     		movs	r3, #11
 1775 001e FB18     		adds	r3, r7, r3
 1776 0020 1B78     		ldrb	r3, [r3]
 1777 0022 012B     		cmp	r3, #1
 1778 0024 0BD0     		beq	.L103
 1779              		.loc 1 680 0 discriminator 2
 1780 0026 0B23     		movs	r3, #11
 1781 0028 FB18     		adds	r3, r7, r3
 1782 002a 1B78     		ldrb	r3, [r3]
 1783 002c 022B     		cmp	r3, #2
 1784 002e 06D0     		beq	.L103
 1785              		.loc 1 680 0 discriminator 3
 1786 0030 AA23     		movs	r3, #170
 1787 0032 9A00     		lsls	r2, r3, #2
 1788 0034 554B     		ldr	r3, .L126
 1789 0036 1100     		movs	r1, r2
 1790 0038 1800     		movs	r0, r3
 1791 003a FFF7FEFF 		bl	Cy_SysLib_AssertFailed
 1792              	.L103:
 681:Generated_Source\PSoC6\pdl\drivers\peripheral\prot/cy_prot.c ****     CY_ASSERT_L2(CY_PROT_IS_SMPU_IDX_VALID(smpuIndex));
 1793              		.loc 1 681 0 is_stmt 1
 1794 003e 7B68     		ldr	r3, [r7, #4]
 1795 0040 0F2B     		cmp	r3, #15
 1796 0042 05D9     		bls	.L104
 1797              		.loc 1 681 0 is_stmt 0 discriminator 1
 1798 0044 524A     		ldr	r2, .L126+4
 1799 0046 514B     		ldr	r3, .L126
 1800 0048 1100     		movs	r1, r2
 1801 004a 1800     		movs	r0, r3
 1802 004c FFF7FEFF 		bl	Cy_SysLib_AssertFailed
 1803              	.L104:
 682:Generated_Source\PSoC6\pdl\drivers\peripheral\prot/cy_prot.c **** 
 683:Generated_Source\PSoC6\pdl\drivers\peripheral\prot/cy_prot.c ****     cy_en_prot_status_t status = CY_PROT_UNAVAILABLE;
 1804              		.loc 1 683 0 is_stmt 1
 1805 0050 504B     		ldr	r3, .L126+8
 1806 0052 7B61     		str	r3, [r7, #20]
 684:Generated_Source\PSoC6\pdl\drivers\peripheral\prot/cy_prot.c ****     int32_t stcIdx = (int32_t)smpuIndex;
 1807              		.loc 1 684 0
 1808 0054 7B68     		ldr	r3, [r7, #4]
 1809 0056 3B61     		str	r3, [r7, #16]
 685:Generated_Source\PSoC6\pdl\drivers\peripheral\prot/cy_prot.c **** 
 686:Generated_Source\PSoC6\pdl\drivers\peripheral\prot/cy_prot.c ****     *base = NULL;
ARM GAS  C:\Users\JC\AppData\Local\Temp\ccU1E72d.s 			page 45


 1810              		.loc 1 686 0
 1811 0058 FB68     		ldr	r3, [r7, #12]
 1812 005a 0022     		movs	r2, #0
 1813 005c 1A60     		str	r2, [r3]
 687:Generated_Source\PSoC6\pdl\drivers\peripheral\prot/cy_prot.c **** 
 688:Generated_Source\PSoC6\pdl\drivers\peripheral\prot/cy_prot.c ****     switch (reqMode)
 1814              		.loc 1 688 0
 1815 005e 0B23     		movs	r3, #11
 1816 0060 FB18     		adds	r3, r7, r3
 1817 0062 1B78     		ldrb	r3, [r3]
 1818 0064 012B     		cmp	r3, #1
 1819 0066 19D0     		beq	.L106
 1820 0068 022B     		cmp	r3, #2
 1821 006a 2CD0     		beq	.L107
 1822 006c 002B     		cmp	r3, #0
 1823 006e 00D0     		beq	.L108
 689:Generated_Source\PSoC6\pdl\drivers\peripheral\prot/cy_prot.c ****     {
 690:Generated_Source\PSoC6\pdl\drivers\peripheral\prot/cy_prot.c ****         /* The SMPU priority goes from PROT_SMPU_STRUCT_HIGHEST_PR 
 691:Generated_Source\PSoC6\pdl\drivers\peripheral\prot/cy_prot.c ****         *  (highest priority) to 0 (lowest priority)
 692:Generated_Source\PSoC6\pdl\drivers\peripheral\prot/cy_prot.c ****         */
 693:Generated_Source\PSoC6\pdl\drivers\peripheral\prot/cy_prot.c ****         case CY_PROT_REQMODE_HIGHPRIOR:
 694:Generated_Source\PSoC6\pdl\drivers\peripheral\prot/cy_prot.c **** 
 695:Generated_Source\PSoC6\pdl\drivers\peripheral\prot/cy_prot.c ****             stcIdx = PROT_SMPU_STRUCT_WTH_HIGHEST_PR;
 696:Generated_Source\PSoC6\pdl\drivers\peripheral\prot/cy_prot.c ****             do
 697:Generated_Source\PSoC6\pdl\drivers\peripheral\prot/cy_prot.c ****             {
 698:Generated_Source\PSoC6\pdl\drivers\peripheral\prot/cy_prot.c ****                 if (Prot_IsSmpuStructDisabled((uint32_t)stcIdx))
 699:Generated_Source\PSoC6\pdl\drivers\peripheral\prot/cy_prot.c ****                 {
 700:Generated_Source\PSoC6\pdl\drivers\peripheral\prot/cy_prot.c ****                     status = CY_PROT_SUCCESS;
 701:Generated_Source\PSoC6\pdl\drivers\peripheral\prot/cy_prot.c ****                 }
 702:Generated_Source\PSoC6\pdl\drivers\peripheral\prot/cy_prot.c ****                 else
 703:Generated_Source\PSoC6\pdl\drivers\peripheral\prot/cy_prot.c ****                 {
 704:Generated_Source\PSoC6\pdl\drivers\peripheral\prot/cy_prot.c ****                     --stcIdx;
 705:Generated_Source\PSoC6\pdl\drivers\peripheral\prot/cy_prot.c ****                 }
 706:Generated_Source\PSoC6\pdl\drivers\peripheral\prot/cy_prot.c ****             } while ((stcIdx >= 0) && (CY_PROT_SUCCESS != status));
 707:Generated_Source\PSoC6\pdl\drivers\peripheral\prot/cy_prot.c ****             break;
 708:Generated_Source\PSoC6\pdl\drivers\peripheral\prot/cy_prot.c ****         
 709:Generated_Source\PSoC6\pdl\drivers\peripheral\prot/cy_prot.c ****         case CY_PROT_REQMODE_LOWPRIOR:
 710:Generated_Source\PSoC6\pdl\drivers\peripheral\prot/cy_prot.c ****             stcIdx = 0;
 711:Generated_Source\PSoC6\pdl\drivers\peripheral\prot/cy_prot.c ****             do
 712:Generated_Source\PSoC6\pdl\drivers\peripheral\prot/cy_prot.c ****             {
 713:Generated_Source\PSoC6\pdl\drivers\peripheral\prot/cy_prot.c ****                 if (Prot_IsSmpuStructDisabled((uint32_t)stcIdx))
 714:Generated_Source\PSoC6\pdl\drivers\peripheral\prot/cy_prot.c ****                 {
 715:Generated_Source\PSoC6\pdl\drivers\peripheral\prot/cy_prot.c ****                     status = CY_PROT_SUCCESS;
 716:Generated_Source\PSoC6\pdl\drivers\peripheral\prot/cy_prot.c ****                 }
 717:Generated_Source\PSoC6\pdl\drivers\peripheral\prot/cy_prot.c ****                 else
 718:Generated_Source\PSoC6\pdl\drivers\peripheral\prot/cy_prot.c ****                 {
 719:Generated_Source\PSoC6\pdl\drivers\peripheral\prot/cy_prot.c ****                     ++stcIdx;
 720:Generated_Source\PSoC6\pdl\drivers\peripheral\prot/cy_prot.c ****                 }
 721:Generated_Source\PSoC6\pdl\drivers\peripheral\prot/cy_prot.c ****             } while ((stcIdx <= PROT_SMPU_STRUCT_WTH_HIGHEST_PR) && (CY_PROT_SUCCESS != status));
 722:Generated_Source\PSoC6\pdl\drivers\peripheral\prot/cy_prot.c ****             break;
 723:Generated_Source\PSoC6\pdl\drivers\peripheral\prot/cy_prot.c ****         
 724:Generated_Source\PSoC6\pdl\drivers\peripheral\prot/cy_prot.c ****         case CY_PROT_REQMODE_INDEX:
 725:Generated_Source\PSoC6\pdl\drivers\peripheral\prot/cy_prot.c ****             if (Prot_IsSmpuStructDisabled((uint32_t)stcIdx))
 726:Generated_Source\PSoC6\pdl\drivers\peripheral\prot/cy_prot.c ****             {
 727:Generated_Source\PSoC6\pdl\drivers\peripheral\prot/cy_prot.c ****                 status = CY_PROT_SUCCESS;
 728:Generated_Source\PSoC6\pdl\drivers\peripheral\prot/cy_prot.c ****             }
 729:Generated_Source\PSoC6\pdl\drivers\peripheral\prot/cy_prot.c ****             break;
ARM GAS  C:\Users\JC\AppData\Local\Temp\ccU1E72d.s 			page 46


 730:Generated_Source\PSoC6\pdl\drivers\peripheral\prot/cy_prot.c **** 
 731:Generated_Source\PSoC6\pdl\drivers\peripheral\prot/cy_prot.c ****         default:
 732:Generated_Source\PSoC6\pdl\drivers\peripheral\prot/cy_prot.c ****             break;
 1824              		.loc 1 732 0
 1825 0070 37E0     		b	.L113
 1826              	.L108:
 695:Generated_Source\PSoC6\pdl\drivers\peripheral\prot/cy_prot.c ****             do
 1827              		.loc 1 695 0
 1828 0072 0F23     		movs	r3, #15
 1829 0074 3B61     		str	r3, [r7, #16]
 1830              	.L112:
 698:Generated_Source\PSoC6\pdl\drivers\peripheral\prot/cy_prot.c ****                 {
 1831              		.loc 1 698 0
 1832 0076 3B69     		ldr	r3, [r7, #16]
 1833 0078 1800     		movs	r0, r3
 1834 007a FFF7FEFF 		bl	Prot_IsSmpuStructDisabled
 1835 007e 031E     		subs	r3, r0, #0
 1836 0080 02D0     		beq	.L109
 700:Generated_Source\PSoC6\pdl\drivers\peripheral\prot/cy_prot.c ****                 }
 1837              		.loc 1 700 0
 1838 0082 0023     		movs	r3, #0
 1839 0084 7B61     		str	r3, [r7, #20]
 1840 0086 02E0     		b	.L110
 1841              	.L109:
 704:Generated_Source\PSoC6\pdl\drivers\peripheral\prot/cy_prot.c ****                 }
 1842              		.loc 1 704 0
 1843 0088 3B69     		ldr	r3, [r7, #16]
 1844 008a 013B     		subs	r3, r3, #1
 1845 008c 3B61     		str	r3, [r7, #16]
 1846              	.L110:
 706:Generated_Source\PSoC6\pdl\drivers\peripheral\prot/cy_prot.c ****             break;
 1847              		.loc 1 706 0
 1848 008e 3B69     		ldr	r3, [r7, #16]
 1849 0090 002B     		cmp	r3, #0
 1850 0092 21DB     		blt	.L123
 706:Generated_Source\PSoC6\pdl\drivers\peripheral\prot/cy_prot.c ****             break;
 1851              		.loc 1 706 0 is_stmt 0 discriminator 1
 1852 0094 7B69     		ldr	r3, [r7, #20]
 1853 0096 002B     		cmp	r3, #0
 1854 0098 EDD1     		bne	.L112
 707:Generated_Source\PSoC6\pdl\drivers\peripheral\prot/cy_prot.c ****         
 1855              		.loc 1 707 0 is_stmt 1
 1856 009a 1DE0     		b	.L123
 1857              	.L106:
 710:Generated_Source\PSoC6\pdl\drivers\peripheral\prot/cy_prot.c ****             do
 1858              		.loc 1 710 0
 1859 009c 0023     		movs	r3, #0
 1860 009e 3B61     		str	r3, [r7, #16]
 1861              	.L117:
 713:Generated_Source\PSoC6\pdl\drivers\peripheral\prot/cy_prot.c ****                 {
 1862              		.loc 1 713 0
 1863 00a0 3B69     		ldr	r3, [r7, #16]
 1864 00a2 1800     		movs	r0, r3
 1865 00a4 FFF7FEFF 		bl	Prot_IsSmpuStructDisabled
 1866 00a8 031E     		subs	r3, r0, #0
 1867 00aa 02D0     		beq	.L114
 715:Generated_Source\PSoC6\pdl\drivers\peripheral\prot/cy_prot.c ****                 }
ARM GAS  C:\Users\JC\AppData\Local\Temp\ccU1E72d.s 			page 47


 1868              		.loc 1 715 0
 1869 00ac 0023     		movs	r3, #0
 1870 00ae 7B61     		str	r3, [r7, #20]
 1871 00b0 02E0     		b	.L115
 1872              	.L114:
 719:Generated_Source\PSoC6\pdl\drivers\peripheral\prot/cy_prot.c ****                 }
 1873              		.loc 1 719 0
 1874 00b2 3B69     		ldr	r3, [r7, #16]
 1875 00b4 0133     		adds	r3, r3, #1
 1876 00b6 3B61     		str	r3, [r7, #16]
 1877              	.L115:
 721:Generated_Source\PSoC6\pdl\drivers\peripheral\prot/cy_prot.c ****             break;
 1878              		.loc 1 721 0
 1879 00b8 3B69     		ldr	r3, [r7, #16]
 1880 00ba 0F2B     		cmp	r3, #15
 1881 00bc 0EDC     		bgt	.L124
 721:Generated_Source\PSoC6\pdl\drivers\peripheral\prot/cy_prot.c ****             break;
 1882              		.loc 1 721 0 is_stmt 0 discriminator 1
 1883 00be 7B69     		ldr	r3, [r7, #20]
 1884 00c0 002B     		cmp	r3, #0
 1885 00c2 EDD1     		bne	.L117
 722:Generated_Source\PSoC6\pdl\drivers\peripheral\prot/cy_prot.c ****         
 1886              		.loc 1 722 0 is_stmt 1
 1887 00c4 0AE0     		b	.L124
 1888              	.L107:
 725:Generated_Source\PSoC6\pdl\drivers\peripheral\prot/cy_prot.c ****             {
 1889              		.loc 1 725 0
 1890 00c6 3B69     		ldr	r3, [r7, #16]
 1891 00c8 1800     		movs	r0, r3
 1892 00ca FFF7FEFF 		bl	Prot_IsSmpuStructDisabled
 1893 00ce 031E     		subs	r3, r0, #0
 1894 00d0 06D0     		beq	.L125
 727:Generated_Source\PSoC6\pdl\drivers\peripheral\prot/cy_prot.c ****             }
 1895              		.loc 1 727 0
 1896 00d2 0023     		movs	r3, #0
 1897 00d4 7B61     		str	r3, [r7, #20]
 729:Generated_Source\PSoC6\pdl\drivers\peripheral\prot/cy_prot.c **** 
 1898              		.loc 1 729 0
 1899 00d6 03E0     		b	.L125
 1900              	.L123:
 707:Generated_Source\PSoC6\pdl\drivers\peripheral\prot/cy_prot.c ****         
 1901              		.loc 1 707 0
 1902 00d8 C046     		nop
 1903 00da 02E0     		b	.L113
 1904              	.L124:
 722:Generated_Source\PSoC6\pdl\drivers\peripheral\prot/cy_prot.c ****         
 1905              		.loc 1 722 0
 1906 00dc C046     		nop
 1907 00de 00E0     		b	.L113
 1908              	.L125:
 729:Generated_Source\PSoC6\pdl\drivers\peripheral\prot/cy_prot.c **** 
 1909              		.loc 1 729 0
 1910 00e0 C046     		nop
 1911              	.L113:
 733:Generated_Source\PSoC6\pdl\drivers\peripheral\prot/cy_prot.c ****     }
 734:Generated_Source\PSoC6\pdl\drivers\peripheral\prot/cy_prot.c **** 
 735:Generated_Source\PSoC6\pdl\drivers\peripheral\prot/cy_prot.c ****     /* Proceed if required structure is found */
ARM GAS  C:\Users\JC\AppData\Local\Temp\ccU1E72d.s 			page 48


 736:Generated_Source\PSoC6\pdl\drivers\peripheral\prot/cy_prot.c ****     if (CY_PROT_SUCCESS == status)
 1912              		.loc 1 736 0
 1913 00e2 7B69     		ldr	r3, [r7, #20]
 1914 00e4 002B     		cmp	r3, #0
 1915 00e6 4CD1     		bne	.L119
 737:Generated_Source\PSoC6\pdl\drivers\peripheral\prot/cy_prot.c ****     {
 738:Generated_Source\PSoC6\pdl\drivers\peripheral\prot/cy_prot.c ****         /* Enable Slave SMPU struct */
 739:Generated_Source\PSoC6\pdl\drivers\peripheral\prot/cy_prot.c ****         PROT_SMPU_SMPU_STRUCT_IDX_ATT0(stcIdx) |= _VAL2FLD(PROT_SMPU_SMPU_STRUCT_ATT0_ENABLED, CY_P
 1916              		.loc 1 739 0
 1917 00e8 2B4B     		ldr	r3, .L126+12
 1918 00ea 1B68     		ldr	r3, [r3]
 1919 00ec 1B69     		ldr	r3, [r3, #16]
 1920 00ee 1900     		movs	r1, r3
 1921 00f0 294B     		ldr	r3, .L126+12
 1922 00f2 1B68     		ldr	r3, [r3]
 1923 00f4 1B69     		ldr	r3, [r3, #16]
 1924 00f6 1A00     		movs	r2, r3
 1925 00f8 3B69     		ldr	r3, [r7, #16]
 1926 00fa 8033     		adds	r3, r3, #128
 1927 00fc 9B01     		lsls	r3, r3, #6
 1928 00fe D318     		adds	r3, r2, r3
 1929 0100 0433     		adds	r3, r3, #4
 1930 0102 1B68     		ldr	r3, [r3]
 1931 0104 8022     		movs	r2, #128
 1932 0106 1206     		lsls	r2, r2, #24
 1933 0108 1A43     		orrs	r2, r3
 1934 010a 3B69     		ldr	r3, [r7, #16]
 1935 010c 8033     		adds	r3, r3, #128
 1936 010e 9B01     		lsls	r3, r3, #6
 1937 0110 CB18     		adds	r3, r1, r3
 1938 0112 0433     		adds	r3, r3, #4
 1939 0114 1A60     		str	r2, [r3]
 740:Generated_Source\PSoC6\pdl\drivers\peripheral\prot/cy_prot.c ****         
 741:Generated_Source\PSoC6\pdl\drivers\peripheral\prot/cy_prot.c ****         status = 
 742:Generated_Source\PSoC6\pdl\drivers\peripheral\prot/cy_prot.c ****         (_FLD2VAL(PROT_SMPU_SMPU_STRUCT_ATT0_ENABLED, PROT_SMPU_SMPU_STRUCT_IDX_ATT0(stcIdx)) != CY
 1940              		.loc 1 742 0
 1941 0116 204B     		ldr	r3, .L126+12
 1942 0118 1B68     		ldr	r3, [r3]
 1943 011a 1B69     		ldr	r3, [r3, #16]
 1944 011c 1A00     		movs	r2, r3
 1945 011e 3B69     		ldr	r3, [r7, #16]
 1946 0120 8033     		adds	r3, r3, #128
 1947 0122 9B01     		lsls	r3, r3, #6
 1948 0124 D318     		adds	r3, r2, r3
 1949 0126 0433     		adds	r3, r3, #4
 1950 0128 1B68     		ldr	r3, [r3]
 1951 012a DB0F     		lsrs	r3, r3, #31
 1952 012c DB07     		lsls	r3, r3, #31
 1953 012e DB0F     		lsrs	r3, r3, #31
 741:Generated_Source\PSoC6\pdl\drivers\peripheral\prot/cy_prot.c ****         (_FLD2VAL(PROT_SMPU_SMPU_STRUCT_ATT0_ENABLED, PROT_SMPU_SMPU_STRUCT_IDX_ATT0(stcIdx)) != CY
 1954              		.loc 1 741 0
 1955 0130 012B     		cmp	r3, #1
 1956 0132 01D0     		beq	.L120
 741:Generated_Source\PSoC6\pdl\drivers\peripheral\prot/cy_prot.c ****         (_FLD2VAL(PROT_SMPU_SMPU_STRUCT_ATT0_ENABLED, PROT_SMPU_SMPU_STRUCT_IDX_ATT0(stcIdx)) != CY
 1957              		.loc 1 741 0 is_stmt 0 discriminator 1
 1958 0134 194B     		ldr	r3, .L126+16
 1959 0136 00E0     		b	.L121
ARM GAS  C:\Users\JC\AppData\Local\Temp\ccU1E72d.s 			page 49


 1960              	.L120:
 741:Generated_Source\PSoC6\pdl\drivers\peripheral\prot/cy_prot.c ****         (_FLD2VAL(PROT_SMPU_SMPU_STRUCT_ATT0_ENABLED, PROT_SMPU_SMPU_STRUCT_IDX_ATT0(stcIdx)) != CY
 1961              		.loc 1 741 0 discriminator 2
 1962 0138 0023     		movs	r3, #0
 1963              	.L121:
 741:Generated_Source\PSoC6\pdl\drivers\peripheral\prot/cy_prot.c ****         (_FLD2VAL(PROT_SMPU_SMPU_STRUCT_ATT0_ENABLED, PROT_SMPU_SMPU_STRUCT_IDX_ATT0(stcIdx)) != CY
 1964              		.loc 1 741 0 discriminator 4
 1965 013a 7B61     		str	r3, [r7, #20]
 743:Generated_Source\PSoC6\pdl\drivers\peripheral\prot/cy_prot.c ****         CY_PROT_FAILURE : CY_PROT_SUCCESS;
 744:Generated_Source\PSoC6\pdl\drivers\peripheral\prot/cy_prot.c **** 
 745:Generated_Source\PSoC6\pdl\drivers\peripheral\prot/cy_prot.c ****         /* Enable all attributes only if Slave struct was enabled */
 746:Generated_Source\PSoC6\pdl\drivers\peripheral\prot/cy_prot.c ****         if (CY_PROT_SUCCESS == status)
 1966              		.loc 1 746 0 is_stmt 1 discriminator 4
 1967 013c 7B69     		ldr	r3, [r7, #20]
 1968 013e 002B     		cmp	r3, #0
 1969 0140 1FD1     		bne	.L119
 747:Generated_Source\PSoC6\pdl\drivers\peripheral\prot/cy_prot.c ****         {
 748:Generated_Source\PSoC6\pdl\drivers\peripheral\prot/cy_prot.c ****             *base = (PROT_SMPU_SMPU_STRUCT_Type* ) PROT_SMPU_SMPU_STRUCT_IDX(stcIdx);
 1970              		.loc 1 748 0
 1971 0142 154B     		ldr	r3, .L126+12
 1972 0144 1B68     		ldr	r3, [r3]
 1973 0146 1B69     		ldr	r3, [r3, #16]
 1974 0148 1A00     		movs	r2, r3
 1975 014a 3B69     		ldr	r3, [r7, #16]
 1976 014c 8033     		adds	r3, r3, #128
 1977 014e 9B01     		lsls	r3, r3, #6
 1978 0150 D218     		adds	r2, r2, r3
 1979 0152 FB68     		ldr	r3, [r7, #12]
 1980 0154 1A60     		str	r2, [r3]
 749:Generated_Source\PSoC6\pdl\drivers\peripheral\prot/cy_prot.c ****             PROT_SMPU_SMPU_STRUCT_IDX_ATT0(stcIdx) |= PROT_SMPU_STRUCT_ATT0_ENABLE_ALL_MASK;
 1981              		.loc 1 749 0
 1982 0156 104B     		ldr	r3, .L126+12
 1983 0158 1B68     		ldr	r3, [r3]
 1984 015a 1B69     		ldr	r3, [r3, #16]
 1985 015c 1900     		movs	r1, r3
 1986 015e 0E4B     		ldr	r3, .L126+12
 1987 0160 1B68     		ldr	r3, [r3]
 1988 0162 1B69     		ldr	r3, [r3, #16]
 1989 0164 1A00     		movs	r2, r3
 1990 0166 3B69     		ldr	r3, [r7, #16]
 1991 0168 8033     		adds	r3, r3, #128
 1992 016a 9B01     		lsls	r3, r3, #6
 1993 016c D318     		adds	r3, r2, r3
 1994 016e 0433     		adds	r3, r3, #4
 1995 0170 1B68     		ldr	r3, [r3]
 1996 0172 7F22     		movs	r2, #127
 1997 0174 1A43     		orrs	r2, r3
 1998 0176 3B69     		ldr	r3, [r7, #16]
 1999 0178 8033     		adds	r3, r3, #128
 2000 017a 9B01     		lsls	r3, r3, #6
 2001 017c CB18     		adds	r3, r1, r3
 2002 017e 0433     		adds	r3, r3, #4
 2003 0180 1A60     		str	r2, [r3]
 2004              	.L119:
 750:Generated_Source\PSoC6\pdl\drivers\peripheral\prot/cy_prot.c ****         }
 751:Generated_Source\PSoC6\pdl\drivers\peripheral\prot/cy_prot.c ****     }
 752:Generated_Source\PSoC6\pdl\drivers\peripheral\prot/cy_prot.c ****     return status;
ARM GAS  C:\Users\JC\AppData\Local\Temp\ccU1E72d.s 			page 50


 2005              		.loc 1 752 0
 2006 0182 7B69     		ldr	r3, [r7, #20]
 753:Generated_Source\PSoC6\pdl\drivers\peripheral\prot/cy_prot.c **** }
 2007              		.loc 1 753 0
 2008 0184 1800     		movs	r0, r3
 2009 0186 BD46     		mov	sp, r7
 2010 0188 06B0     		add	sp, sp, #24
 2011              		@ sp needed
 2012 018a 80BD     		pop	{r7, pc}
 2013              	.L127:
 2014              		.align	2
 2015              	.L126:
 2016 018c 00000000 		.word	.LC1
 2017 0190 A9020000 		.word	681
 2018 0194 0400C200 		.word	12713988
 2019 0198 00000000 		.word	cy_device
 2020 019c 0300C200 		.word	12713987
 2021              		.cfi_endproc
 2022              	.LFE59:
 2023              		.size	Cy_Prot_GetSmpuStruct, .-Cy_Prot_GetSmpuStruct
 2024              		.section	.text.Prot_ConfigPpuAtt,"ax",%progbits
 2025              		.align	2
 2026              		.code	16
 2027              		.thumb_func
 2028              		.type	Prot_ConfigPpuAtt, %function
 2029              	Prot_ConfigPpuAtt:
 2030              	.LFB60:
 754:Generated_Source\PSoC6\pdl\drivers\peripheral\prot/cy_prot.c **** 
 755:Generated_Source\PSoC6\pdl\drivers\peripheral\prot/cy_prot.c **** 
 756:Generated_Source\PSoC6\pdl\drivers\peripheral\prot/cy_prot.c **** /*******************************************************************************
 757:Generated_Source\PSoC6\pdl\drivers\peripheral\prot/cy_prot.c **** * Function Name: Prot_ConfigPpuAtt
 758:Generated_Source\PSoC6\pdl\drivers\peripheral\prot/cy_prot.c **** ********************************************************************************
 759:Generated_Source\PSoC6\pdl\drivers\peripheral\prot/cy_prot.c **** *
 760:Generated_Source\PSoC6\pdl\drivers\peripheral\prot/cy_prot.c **** * An internal function to hold the common code for 
 761:Generated_Source\PSoC6\pdl\drivers\peripheral\prot/cy_prot.c **** * Cy_Prot_ConfigPpu[Prog/Fixed][Master/Slave]Att API functions
 762:Generated_Source\PSoC6\pdl\drivers\peripheral\prot/cy_prot.c **** *
 763:Generated_Source\PSoC6\pdl\drivers\peripheral\prot/cy_prot.c **** * \note This function is applicable for CPUSS ver_2 only.
 764:Generated_Source\PSoC6\pdl\drivers\peripheral\prot/cy_prot.c **** *
 765:Generated_Source\PSoC6\pdl\drivers\peripheral\prot/cy_prot.c **** * \param reg
 766:Generated_Source\PSoC6\pdl\drivers\peripheral\prot/cy_prot.c **** * The register to update attributes in.
 767:Generated_Source\PSoC6\pdl\drivers\peripheral\prot/cy_prot.c **** *
 768:Generated_Source\PSoC6\pdl\drivers\peripheral\prot/cy_prot.c **** * \param pcMask
 769:Generated_Source\PSoC6\pdl\drivers\peripheral\prot/cy_prot.c **** * The protection context mask. This is a 16-bit value of the allowed contexts. 
 770:Generated_Source\PSoC6\pdl\drivers\peripheral\prot/cy_prot.c **** * It is an OR'ed (|) field of the * provided defines in cy_prot.h. 
 771:Generated_Source\PSoC6\pdl\drivers\peripheral\prot/cy_prot.c **** * For example: (CY_PROT_PCMASK1 | CY_PROT_PCMASK3 | CY_PROT_PCMASK4).
 772:Generated_Source\PSoC6\pdl\drivers\peripheral\prot/cy_prot.c **** * \note The function accepts pcMask values from CY_PROT_PCMASK1 to CY_PROT_PCMASK5. 
 773:Generated_Source\PSoC6\pdl\drivers\peripheral\prot/cy_prot.c **** * But each device has its own number of available protection contexts. 
 774:Generated_Source\PSoC6\pdl\drivers\peripheral\prot/cy_prot.c **** * That number is defined by PERI_PC_NR in the config file.
 775:Generated_Source\PSoC6\pdl\drivers\peripheral\prot/cy_prot.c **** *
 776:Generated_Source\PSoC6\pdl\drivers\peripheral\prot/cy_prot.c **** * \param userPermission
 777:Generated_Source\PSoC6\pdl\drivers\peripheral\prot/cy_prot.c **** * The user permissions for the region.
 778:Generated_Source\PSoC6\pdl\drivers\peripheral\prot/cy_prot.c **** *
 779:Generated_Source\PSoC6\pdl\drivers\peripheral\prot/cy_prot.c **** * \param privPermission
 780:Generated_Source\PSoC6\pdl\drivers\peripheral\prot/cy_prot.c **** * The privileged permissions for the region.
 781:Generated_Source\PSoC6\pdl\drivers\peripheral\prot/cy_prot.c **** *
 782:Generated_Source\PSoC6\pdl\drivers\peripheral\prot/cy_prot.c **** * \param secure 
 783:Generated_Source\PSoC6\pdl\drivers\peripheral\prot/cy_prot.c **** * Non Secure = false, Secure = true
ARM GAS  C:\Users\JC\AppData\Local\Temp\ccU1E72d.s 			page 51


 784:Generated_Source\PSoC6\pdl\drivers\peripheral\prot/cy_prot.c **** *
 785:Generated_Source\PSoC6\pdl\drivers\peripheral\prot/cy_prot.c **** * \return
 786:Generated_Source\PSoC6\pdl\drivers\peripheral\prot/cy_prot.c **** * The status of the function call.
 787:Generated_Source\PSoC6\pdl\drivers\peripheral\prot/cy_prot.c **** *
 788:Generated_Source\PSoC6\pdl\drivers\peripheral\prot/cy_prot.c **** *   Status              | Description
 789:Generated_Source\PSoC6\pdl\drivers\peripheral\prot/cy_prot.c **** * ----------------------| ---------------------------------------
 790:Generated_Source\PSoC6\pdl\drivers\peripheral\prot/cy_prot.c **** * CY_PROT_SUCCESS       | The attributes were set up.
 791:Generated_Source\PSoC6\pdl\drivers\peripheral\prot/cy_prot.c **** * CY_PROT_FAILURE       | The attributes were not set up because the structure is possibly locked.
 792:Generated_Source\PSoC6\pdl\drivers\peripheral\prot/cy_prot.c **** * CY_PROT_INVALID_STATE | The function was called on the device with an unsupported PERI HW version
 793:Generated_Source\PSoC6\pdl\drivers\peripheral\prot/cy_prot.c **** *
 794:Generated_Source\PSoC6\pdl\drivers\peripheral\prot/cy_prot.c **** *******************************************************************************/
 795:Generated_Source\PSoC6\pdl\drivers\peripheral\prot/cy_prot.c **** static cy_en_prot_status_t Prot_ConfigPpuAtt(volatile uint32_t * reg, uint16_t pcMask, 
 796:Generated_Source\PSoC6\pdl\drivers\peripheral\prot/cy_prot.c ****                                        cy_en_prot_perm_t userPermission, cy_en_prot_perm_t privPerm
 797:Generated_Source\PSoC6\pdl\drivers\peripheral\prot/cy_prot.c **** {
 2031              		.loc 1 797 0
 2032              		.cfi_startproc
 2033              		@ args = 4, pretend = 0, frame = 32
 2034              		@ frame_needed = 1, uses_anonymous_args = 0
 2035 0000 90B5     		push	{r4, r7, lr}
 2036              		.cfi_def_cfa_offset 12
 2037              		.cfi_offset 4, -12
 2038              		.cfi_offset 7, -8
 2039              		.cfi_offset 14, -4
 2040 0002 89B0     		sub	sp, sp, #36
 2041              		.cfi_def_cfa_offset 48
 2042 0004 00AF     		add	r7, sp, #0
 2043              		.cfi_def_cfa_register 7
 2044 0006 7860     		str	r0, [r7, #4]
 2045 0008 0C00     		movs	r4, r1
 2046 000a 1000     		movs	r0, r2
 2047 000c 1900     		movs	r1, r3
 2048 000e BB1C     		adds	r3, r7, #2
 2049 0010 221C     		adds	r2, r4, #0
 2050 0012 1A80     		strh	r2, [r3]
 2051 0014 7B1C     		adds	r3, r7, #1
 2052 0016 021C     		adds	r2, r0, #0
 2053 0018 1A70     		strb	r2, [r3]
 2054 001a 3B00     		movs	r3, r7
 2055 001c 0A1C     		adds	r2, r1, #0
 2056 001e 1A70     		strb	r2, [r3]
 798:Generated_Source\PSoC6\pdl\drivers\peripheral\prot/cy_prot.c ****     cy_en_prot_status_t status = CY_PROT_INVALID_STATE;
 2057              		.loc 1 798 0
 2058 0020 3E4B     		ldr	r3, .L142
 2059 0022 FB61     		str	r3, [r7, #28]
 799:Generated_Source\PSoC6\pdl\drivers\peripheral\prot/cy_prot.c **** 
 800:Generated_Source\PSoC6\pdl\drivers\peripheral\prot/cy_prot.c ****     if (!CY_PERI_V1)
 2060              		.loc 1 800 0
 2061 0024 3E4B     		ldr	r3, .L142+4
 2062 0026 1B68     		ldr	r3, [r3]
 2063 0028 2F22     		movs	r2, #47
 2064 002a 9B5C     		ldrb	r3, [r3, r2]
 2065 002c 012B     		cmp	r3, #1
 2066 002e 00D1     		bne	.LCB1793
 2067 0030 6FE0     		b	.L129	@long jump
 2068              	.LCB1793:
 2069              	.LBB2:
 801:Generated_Source\PSoC6\pdl\drivers\peripheral\prot/cy_prot.c ****     {
ARM GAS  C:\Users\JC\AppData\Local\Temp\ccU1E72d.s 			page 52


 802:Generated_Source\PSoC6\pdl\drivers\peripheral\prot/cy_prot.c ****         uint32_t tmpMask = (uint32_t)pcMask << CY_PROT_PCMASK_CHECK;
 2070              		.loc 1 802 0
 2071 0032 BB1C     		adds	r3, r7, #2
 2072 0034 1B88     		ldrh	r3, [r3]
 2073 0036 5B00     		lsls	r3, r3, #1
 2074 0038 BB61     		str	r3, [r7, #24]
 803:Generated_Source\PSoC6\pdl\drivers\peripheral\prot/cy_prot.c ****         uint32_t attReg;
 804:Generated_Source\PSoC6\pdl\drivers\peripheral\prot/cy_prot.c ****         uint32_t regIdx;
 805:Generated_Source\PSoC6\pdl\drivers\peripheral\prot/cy_prot.c ****         uint32_t fldIdx;
 806:Generated_Source\PSoC6\pdl\drivers\peripheral\prot/cy_prot.c ****         
 807:Generated_Source\PSoC6\pdl\drivers\peripheral\prot/cy_prot.c ****         status = CY_PROT_SUCCESS;
 2075              		.loc 1 807 0
 2076 003a 0023     		movs	r3, #0
 2077 003c FB61     		str	r3, [r7, #28]
 808:Generated_Source\PSoC6\pdl\drivers\peripheral\prot/cy_prot.c ****         
 809:Generated_Source\PSoC6\pdl\drivers\peripheral\prot/cy_prot.c ****         /* Populate the ATT values */
 810:Generated_Source\PSoC6\pdl\drivers\peripheral\prot/cy_prot.c ****         for(regIdx = 0U; regIdx < CY_PROT_ATT_REGS_MAX; regIdx++)
 2078              		.loc 1 810 0
 2079 003e 0023     		movs	r3, #0
 2080 0040 3B61     		str	r3, [r7, #16]
 2081 0042 61E0     		b	.L130
 2082              	.L139:
 811:Generated_Source\PSoC6\pdl\drivers\peripheral\prot/cy_prot.c ****         {
 812:Generated_Source\PSoC6\pdl\drivers\peripheral\prot/cy_prot.c ****             if (0UL == tmpMask)
 2083              		.loc 1 812 0
 2084 0044 BB69     		ldr	r3, [r7, #24]
 2085 0046 002B     		cmp	r3, #0
 2086 0048 62D0     		beq	.L141
 813:Generated_Source\PSoC6\pdl\drivers\peripheral\prot/cy_prot.c ****             {
 814:Generated_Source\PSoC6\pdl\drivers\peripheral\prot/cy_prot.c ****                 break;
 815:Generated_Source\PSoC6\pdl\drivers\peripheral\prot/cy_prot.c ****             }
 816:Generated_Source\PSoC6\pdl\drivers\peripheral\prot/cy_prot.c ****             
 817:Generated_Source\PSoC6\pdl\drivers\peripheral\prot/cy_prot.c ****             /* Get the attributes register value */
 818:Generated_Source\PSoC6\pdl\drivers\peripheral\prot/cy_prot.c ****             attReg = reg[regIdx];
 2087              		.loc 1 818 0
 2088 004a 3B69     		ldr	r3, [r7, #16]
 2089 004c 9B00     		lsls	r3, r3, #2
 2090 004e 7A68     		ldr	r2, [r7, #4]
 2091 0050 D318     		adds	r3, r2, r3
 2092 0052 1B68     		ldr	r3, [r3]
 2093 0054 7B61     		str	r3, [r7, #20]
 819:Generated_Source\PSoC6\pdl\drivers\peripheral\prot/cy_prot.c **** 
 820:Generated_Source\PSoC6\pdl\drivers\peripheral\prot/cy_prot.c ****             for(fldIdx = 0UL; fldIdx < CY_PROT_ATT_PC_MAX; fldIdx++)
 2094              		.loc 1 820 0
 2095 0056 0023     		movs	r3, #0
 2096 0058 FB60     		str	r3, [r7, #12]
 2097 005a 2FE0     		b	.L132
 2098              	.L136:
 821:Generated_Source\PSoC6\pdl\drivers\peripheral\prot/cy_prot.c ****             {
 822:Generated_Source\PSoC6\pdl\drivers\peripheral\prot/cy_prot.c ****                 if((tmpMask & CY_PROT_PCMASK_CHECK) == CY_PROT_STRUCT_ENABLE)
 2099              		.loc 1 822 0
 2100 005c BB69     		ldr	r3, [r7, #24]
 2101 005e 0122     		movs	r2, #1
 2102 0060 1340     		ands	r3, r2
 2103 0062 25D0     		beq	.L133
 823:Generated_Source\PSoC6\pdl\drivers\peripheral\prot/cy_prot.c ****                 {
 824:Generated_Source\PSoC6\pdl\drivers\peripheral\prot/cy_prot.c ****                     /* Reset the bitfield for the PCx attributes */
ARM GAS  C:\Users\JC\AppData\Local\Temp\ccU1E72d.s 			page 53


 825:Generated_Source\PSoC6\pdl\drivers\peripheral\prot/cy_prot.c ****                     attReg &= ~((_VAL2FLD(CY_PROT_ATT_PERI_USER_PERM, CY_PROT_PERM_RW) |
 826:Generated_Source\PSoC6\pdl\drivers\peripheral\prot/cy_prot.c ****                                  _VAL2FLD(CY_PROT_ATT_PERI_PRIV_PERM, CY_PROT_PERM_RW) |
 827:Generated_Source\PSoC6\pdl\drivers\peripheral\prot/cy_prot.c ****                                  _BOOL2FLD(PERI_MS_PPU_PR_V2_MS_ATT0_PC0_NS, true)) <<
 828:Generated_Source\PSoC6\pdl\drivers\peripheral\prot/cy_prot.c ****                                 (PERI_MS_PPU_PR_V2_MS_ATT0_PC1_UR_Pos * fldIdx)); 
 2104              		.loc 1 828 0
 2105 0064 FB68     		ldr	r3, [r7, #12]
 2106 0066 DB00     		lsls	r3, r3, #3
 827:Generated_Source\PSoC6\pdl\drivers\peripheral\prot/cy_prot.c ****                                 (PERI_MS_PPU_PR_V2_MS_ATT0_PC1_UR_Pos * fldIdx)); 
 2107              		.loc 1 827 0
 2108 0068 1F22     		movs	r2, #31
 2109 006a 9A40     		lsls	r2, r2, r3
 2110 006c 1300     		movs	r3, r2
 825:Generated_Source\PSoC6\pdl\drivers\peripheral\prot/cy_prot.c ****                                  _VAL2FLD(CY_PROT_ATT_PERI_PRIV_PERM, CY_PROT_PERM_RW) |
 2111              		.loc 1 825 0
 2112 006e DA43     		mvns	r2, r3
 2113 0070 7B69     		ldr	r3, [r7, #20]
 2114 0072 1340     		ands	r3, r2
 2115 0074 7B61     		str	r3, [r7, #20]
 829:Generated_Source\PSoC6\pdl\drivers\peripheral\prot/cy_prot.c ****                     
 830:Generated_Source\PSoC6\pdl\drivers\peripheral\prot/cy_prot.c ****                     /* Set the bitfield for the PCx attributes */
 831:Generated_Source\PSoC6\pdl\drivers\peripheral\prot/cy_prot.c ****                     attReg |= (_VAL2FLD(CY_PROT_ATT_PERI_USER_PERM, userPermission) |
 2116              		.loc 1 831 0
 2117 0076 7B1C     		adds	r3, r7, #1
 2118 0078 1B78     		ldrb	r3, [r3]
 2119 007a 0322     		movs	r2, #3
 2120 007c 1A40     		ands	r2, r3
 832:Generated_Source\PSoC6\pdl\drivers\peripheral\prot/cy_prot.c ****                                _VAL2FLD(CY_PROT_ATT_PERI_PRIV_PERM, privPermission) |
 2121              		.loc 1 832 0
 2122 007e 3B00     		movs	r3, r7
 2123 0080 1B78     		ldrb	r3, [r3]
 2124 0082 9B00     		lsls	r3, r3, #2
 2125 0084 0C21     		movs	r1, #12
 2126 0086 0B40     		ands	r3, r1
 831:Generated_Source\PSoC6\pdl\drivers\peripheral\prot/cy_prot.c ****                                _VAL2FLD(CY_PROT_ATT_PERI_PRIV_PERM, privPermission) |
 2127              		.loc 1 831 0
 2128 0088 1A43     		orrs	r2, r3
 833:Generated_Source\PSoC6\pdl\drivers\peripheral\prot/cy_prot.c ****                               _BOOL2FLD(PERI_MS_PPU_PR_V2_MS_ATT0_PC0_NS, !secure)) <<
 2129              		.loc 1 833 0
 2130 008a 3023     		movs	r3, #48
 2131 008c FB18     		adds	r3, r7, r3
 2132 008e 1B78     		ldrb	r3, [r3]
 2133 0090 0121     		movs	r1, #1
 2134 0092 4B40     		eors	r3, r1
 2135 0094 DBB2     		uxtb	r3, r3
 2136 0096 002B     		cmp	r3, #0
 2137 0098 01D0     		beq	.L134
 2138              		.loc 1 833 0 is_stmt 0 discriminator 1
 2139 009a 1023     		movs	r3, #16
 2140 009c 00E0     		b	.L135
 2141              	.L134:
 2142              		.loc 1 833 0 discriminator 2
 2143 009e 0023     		movs	r3, #0
 2144              	.L135:
 832:Generated_Source\PSoC6\pdl\drivers\peripheral\prot/cy_prot.c ****                                _VAL2FLD(CY_PROT_ATT_PERI_PRIV_PERM, privPermission) |
 2145              		.loc 1 832 0 is_stmt 1
 2146 00a0 1A43     		orrs	r2, r3
 834:Generated_Source\PSoC6\pdl\drivers\peripheral\prot/cy_prot.c ****                                (PERI_MS_PPU_PR_V2_MS_ATT0_PC1_UR_Pos * fldIdx);
ARM GAS  C:\Users\JC\AppData\Local\Temp\ccU1E72d.s 			page 54


 2147              		.loc 1 834 0
 2148 00a2 FB68     		ldr	r3, [r7, #12]
 2149 00a4 DB00     		lsls	r3, r3, #3
 833:Generated_Source\PSoC6\pdl\drivers\peripheral\prot/cy_prot.c ****                               _BOOL2FLD(PERI_MS_PPU_PR_V2_MS_ATT0_PC0_NS, !secure)) <<
 2150              		.loc 1 833 0
 2151 00a6 9A40     		lsls	r2, r2, r3
 2152 00a8 1300     		movs	r3, r2
 831:Generated_Source\PSoC6\pdl\drivers\peripheral\prot/cy_prot.c ****                                _VAL2FLD(CY_PROT_ATT_PERI_PRIV_PERM, privPermission) |
 2153              		.loc 1 831 0
 2154 00aa 7A69     		ldr	r2, [r7, #20]
 2155 00ac 1343     		orrs	r3, r2
 2156 00ae 7B61     		str	r3, [r7, #20]
 2157              	.L133:
 835:Generated_Source\PSoC6\pdl\drivers\peripheral\prot/cy_prot.c ****                 }
 836:Generated_Source\PSoC6\pdl\drivers\peripheral\prot/cy_prot.c ****                 tmpMask = tmpMask >> CY_PROT_PCMASK_CHECK;
 2158              		.loc 1 836 0 discriminator 2
 2159 00b0 BB69     		ldr	r3, [r7, #24]
 2160 00b2 5B08     		lsrs	r3, r3, #1
 2161 00b4 BB61     		str	r3, [r7, #24]
 820:Generated_Source\PSoC6\pdl\drivers\peripheral\prot/cy_prot.c ****             {
 2162              		.loc 1 820 0 discriminator 2
 2163 00b6 FB68     		ldr	r3, [r7, #12]
 2164 00b8 0133     		adds	r3, r3, #1
 2165 00ba FB60     		str	r3, [r7, #12]
 2166              	.L132:
 820:Generated_Source\PSoC6\pdl\drivers\peripheral\prot/cy_prot.c ****             {
 2167              		.loc 1 820 0 is_stmt 0 discriminator 1
 2168 00bc FB68     		ldr	r3, [r7, #12]
 2169 00be 032B     		cmp	r3, #3
 2170 00c0 CCD9     		bls	.L136
 837:Generated_Source\PSoC6\pdl\drivers\peripheral\prot/cy_prot.c ****             }
 838:Generated_Source\PSoC6\pdl\drivers\peripheral\prot/cy_prot.c ****             
 839:Generated_Source\PSoC6\pdl\drivers\peripheral\prot/cy_prot.c ****             /* Update the attributes register */
 840:Generated_Source\PSoC6\pdl\drivers\peripheral\prot/cy_prot.c ****             reg[regIdx] = attReg;
 2171              		.loc 1 840 0 is_stmt 1
 2172 00c2 3B69     		ldr	r3, [r7, #16]
 2173 00c4 9B00     		lsls	r3, r3, #2
 2174 00c6 7A68     		ldr	r2, [r7, #4]
 2175 00c8 D318     		adds	r3, r2, r3
 2176 00ca 7A69     		ldr	r2, [r7, #20]
 2177 00cc 1A60     		str	r2, [r3]
 841:Generated_Source\PSoC6\pdl\drivers\peripheral\prot/cy_prot.c **** 
 842:Generated_Source\PSoC6\pdl\drivers\peripheral\prot/cy_prot.c ****             /* Check the result */
 843:Generated_Source\PSoC6\pdl\drivers\peripheral\prot/cy_prot.c ****             if ((0UL == regIdx) && 
 2178              		.loc 1 843 0
 2179 00ce 3B69     		ldr	r3, [r7, #16]
 2180 00d0 002B     		cmp	r3, #0
 2181 00d2 0CD1     		bne	.L137
 844:Generated_Source\PSoC6\pdl\drivers\peripheral\prot/cy_prot.c ****                 ((reg[regIdx] & PROT_PERI_PPU_PROG_PC1_PC3_MASK) != (attReg & PROT_PERI_PPU_PROG_PC
 2182              		.loc 1 844 0 discriminator 1
 2183 00d4 3B69     		ldr	r3, [r7, #16]
 2184 00d6 9B00     		lsls	r3, r3, #2
 2185 00d8 7A68     		ldr	r2, [r7, #4]
 2186 00da D318     		adds	r3, r2, r3
 2187 00dc 1A68     		ldr	r2, [r3]
 2188 00de 7B69     		ldr	r3, [r7, #20]
 2189 00e0 5340     		eors	r3, r2
ARM GAS  C:\Users\JC\AppData\Local\Temp\ccU1E72d.s 			page 55


 2190 00e2 1F22     		movs	r2, #31
 2191 00e4 9343     		bics	r3, r2
 843:Generated_Source\PSoC6\pdl\drivers\peripheral\prot/cy_prot.c ****                 ((reg[regIdx] & PROT_PERI_PPU_PROG_PC1_PC3_MASK) != (attReg & PROT_PERI_PPU_PROG_PC
 2192              		.loc 1 843 0 discriminator 1
 2193 00e6 02D0     		beq	.L137
 845:Generated_Source\PSoC6\pdl\drivers\peripheral\prot/cy_prot.c ****             {
 846:Generated_Source\PSoC6\pdl\drivers\peripheral\prot/cy_prot.c ****                 status = CY_PROT_FAILURE;
 2194              		.loc 1 846 0
 2195 00e8 0E4B     		ldr	r3, .L142+8
 2196 00ea FB61     		str	r3, [r7, #28]
 2197 00ec 09E0     		b	.L138
 2198              	.L137:
 847:Generated_Source\PSoC6\pdl\drivers\peripheral\prot/cy_prot.c ****             }
 848:Generated_Source\PSoC6\pdl\drivers\peripheral\prot/cy_prot.c ****             else if (reg[regIdx] != attReg)
 2199              		.loc 1 848 0
 2200 00ee 3B69     		ldr	r3, [r7, #16]
 2201 00f0 9B00     		lsls	r3, r3, #2
 2202 00f2 7A68     		ldr	r2, [r7, #4]
 2203 00f4 D318     		adds	r3, r2, r3
 2204 00f6 1A68     		ldr	r2, [r3]
 2205 00f8 7B69     		ldr	r3, [r7, #20]
 2206 00fa 9A42     		cmp	r2, r3
 2207 00fc 01D0     		beq	.L138
 849:Generated_Source\PSoC6\pdl\drivers\peripheral\prot/cy_prot.c ****             {
 850:Generated_Source\PSoC6\pdl\drivers\peripheral\prot/cy_prot.c ****                 status = CY_PROT_FAILURE;
 2208              		.loc 1 850 0
 2209 00fe 094B     		ldr	r3, .L142+8
 2210 0100 FB61     		str	r3, [r7, #28]
 2211              	.L138:
 810:Generated_Source\PSoC6\pdl\drivers\peripheral\prot/cy_prot.c ****         {
 2212              		.loc 1 810 0 discriminator 2
 2213 0102 3B69     		ldr	r3, [r7, #16]
 2214 0104 0133     		adds	r3, r3, #1
 2215 0106 3B61     		str	r3, [r7, #16]
 2216              	.L130:
 810:Generated_Source\PSoC6\pdl\drivers\peripheral\prot/cy_prot.c ****         {
 2217              		.loc 1 810 0 is_stmt 0 discriminator 1
 2218 0108 3B69     		ldr	r3, [r7, #16]
 2219 010a 032B     		cmp	r3, #3
 2220 010c 9AD9     		bls	.L139
 2221 010e 00E0     		b	.L129
 2222              	.L141:
 814:Generated_Source\PSoC6\pdl\drivers\peripheral\prot/cy_prot.c ****             }
 2223              		.loc 1 814 0 is_stmt 1
 2224 0110 C046     		nop
 2225              	.L129:
 2226              	.LBE2:
 851:Generated_Source\PSoC6\pdl\drivers\peripheral\prot/cy_prot.c ****             }
 852:Generated_Source\PSoC6\pdl\drivers\peripheral\prot/cy_prot.c ****             else
 853:Generated_Source\PSoC6\pdl\drivers\peripheral\prot/cy_prot.c ****             {
 854:Generated_Source\PSoC6\pdl\drivers\peripheral\prot/cy_prot.c ****                 /* CY_PROT_SUCCESS */
 855:Generated_Source\PSoC6\pdl\drivers\peripheral\prot/cy_prot.c ****             }
 856:Generated_Source\PSoC6\pdl\drivers\peripheral\prot/cy_prot.c ****         }
 857:Generated_Source\PSoC6\pdl\drivers\peripheral\prot/cy_prot.c ****     }
 858:Generated_Source\PSoC6\pdl\drivers\peripheral\prot/cy_prot.c **** 
 859:Generated_Source\PSoC6\pdl\drivers\peripheral\prot/cy_prot.c ****     return status;
 2227              		.loc 1 859 0
ARM GAS  C:\Users\JC\AppData\Local\Temp\ccU1E72d.s 			page 56


 2228 0112 FB69     		ldr	r3, [r7, #28]
 860:Generated_Source\PSoC6\pdl\drivers\peripheral\prot/cy_prot.c **** }
 2229              		.loc 1 860 0
 2230 0114 1800     		movs	r0, r3
 2231 0116 BD46     		mov	sp, r7
 2232 0118 09B0     		add	sp, sp, #36
 2233              		@ sp needed
 2234 011a 90BD     		pop	{r4, r7, pc}
 2235              	.L143:
 2236              		.align	2
 2237              	.L142:
 2238 011c 0200C200 		.word	12713986
 2239 0120 00000000 		.word	cy_device
 2240 0124 0300C200 		.word	12713987
 2241              		.cfi_endproc
 2242              	.LFE60:
 2243              		.size	Prot_ConfigPpuAtt, .-Prot_ConfigPpuAtt
 2244              		.section	.text.Cy_Prot_ConfigPpuProgMasterAtt,"ax",%progbits
 2245              		.align	2
 2246              		.global	Cy_Prot_ConfigPpuProgMasterAtt
 2247              		.code	16
 2248              		.thumb_func
 2249              		.type	Cy_Prot_ConfigPpuProgMasterAtt, %function
 2250              	Cy_Prot_ConfigPpuProgMasterAtt:
 2251              	.LFB61:
 861:Generated_Source\PSoC6\pdl\drivers\peripheral\prot/cy_prot.c **** 
 862:Generated_Source\PSoC6\pdl\drivers\peripheral\prot/cy_prot.c **** 
 863:Generated_Source\PSoC6\pdl\drivers\peripheral\prot/cy_prot.c **** /*******************************************************************************
 864:Generated_Source\PSoC6\pdl\drivers\peripheral\prot/cy_prot.c **** * Function Name: Cy_Prot_ConfigPpuProgMasterAtt
 865:Generated_Source\PSoC6\pdl\drivers\peripheral\prot/cy_prot.c **** ****************************************************************************//**
 866:Generated_Source\PSoC6\pdl\drivers\peripheral\prot/cy_prot.c **** *
 867:Generated_Source\PSoC6\pdl\drivers\peripheral\prot/cy_prot.c **** * Configures the protection-structure attributes of the 
 868:Generated_Source\PSoC6\pdl\drivers\peripheral\prot/cy_prot.c **** * Programmable Peripheral Protection Unit (PPU PROG) master. 
 869:Generated_Source\PSoC6\pdl\drivers\peripheral\prot/cy_prot.c **** *
 870:Generated_Source\PSoC6\pdl\drivers\peripheral\prot/cy_prot.c **** * This function configures the master structure governing the corresponding slave
 871:Generated_Source\PSoC6\pdl\drivers\peripheral\prot/cy_prot.c **** * structure pair. It is a mechanism to protect the slave PPU PROG structure.
 872:Generated_Source\PSoC6\pdl\drivers\peripheral\prot/cy_prot.c **** * The memory location of the slave structure is known, so the address, regionSize, and
 873:Generated_Source\PSoC6\pdl\drivers\peripheral\prot/cy_prot.c **** * sub-regions of the configuration structure are not applicable.
 874:Generated_Source\PSoC6\pdl\drivers\peripheral\prot/cy_prot.c **** *
 875:Generated_Source\PSoC6\pdl\drivers\peripheral\prot/cy_prot.c **** * \note This function is applicable for CPUSS ver_2 only.
 876:Generated_Source\PSoC6\pdl\drivers\peripheral\prot/cy_prot.c **** *
 877:Generated_Source\PSoC6\pdl\drivers\peripheral\prot/cy_prot.c **** * \param base
 878:Generated_Source\PSoC6\pdl\drivers\peripheral\prot/cy_prot.c **** * The register base address of the protection structure is being configured.
 879:Generated_Source\PSoC6\pdl\drivers\peripheral\prot/cy_prot.c **** *
 880:Generated_Source\PSoC6\pdl\drivers\peripheral\prot/cy_prot.c **** * \param pcMask
 881:Generated_Source\PSoC6\pdl\drivers\peripheral\prot/cy_prot.c **** * The protection context mask. This is a 16-bit value of the allowed contexts, 
 882:Generated_Source\PSoC6\pdl\drivers\peripheral\prot/cy_prot.c **** * it is an OR'ed (|) field of the * provided defines in cy_prot.h. 
 883:Generated_Source\PSoC6\pdl\drivers\peripheral\prot/cy_prot.c **** * For example: (CY_PROT_PCMASK1 | CY_PROT_PCMASK3 | CY_PROT_PCMASK4).
 884:Generated_Source\PSoC6\pdl\drivers\peripheral\prot/cy_prot.c **** * \note The function accepts pcMask values from CY_PROT_PCMASK1 to CY_PROT_PCMASK15. 
 885:Generated_Source\PSoC6\pdl\drivers\peripheral\prot/cy_prot.c **** * But each device has its own number of available protection contexts. 
 886:Generated_Source\PSoC6\pdl\drivers\peripheral\prot/cy_prot.c **** * That number is defined by PERI_PC_NR in the config file.
 887:Generated_Source\PSoC6\pdl\drivers\peripheral\prot/cy_prot.c **** *
 888:Generated_Source\PSoC6\pdl\drivers\peripheral\prot/cy_prot.c **** * \param userPermission
 889:Generated_Source\PSoC6\pdl\drivers\peripheral\prot/cy_prot.c **** * The user permission setting. The CY_PROT_PERM_R or CY_PROT_PERM_RW values 
 890:Generated_Source\PSoC6\pdl\drivers\peripheral\prot/cy_prot.c **** * are valid for the master.
 891:Generated_Source\PSoC6\pdl\drivers\peripheral\prot/cy_prot.c **** *
 892:Generated_Source\PSoC6\pdl\drivers\peripheral\prot/cy_prot.c **** * \param privPermission
ARM GAS  C:\Users\JC\AppData\Local\Temp\ccU1E72d.s 			page 57


 893:Generated_Source\PSoC6\pdl\drivers\peripheral\prot/cy_prot.c **** * The privileged permission setting. CY_PROT_PERM_R or CY_PROT_PERM_RW values 
 894:Generated_Source\PSoC6\pdl\drivers\peripheral\prot/cy_prot.c **** * are valid for the master.
 895:Generated_Source\PSoC6\pdl\drivers\peripheral\prot/cy_prot.c **** *
 896:Generated_Source\PSoC6\pdl\drivers\peripheral\prot/cy_prot.c **** * \param secure
 897:Generated_Source\PSoC6\pdl\drivers\peripheral\prot/cy_prot.c **** * The secure flag.
 898:Generated_Source\PSoC6\pdl\drivers\peripheral\prot/cy_prot.c **** * 
 899:Generated_Source\PSoC6\pdl\drivers\peripheral\prot/cy_prot.c **** * \return
 900:Generated_Source\PSoC6\pdl\drivers\peripheral\prot/cy_prot.c **** * The status of the function call.
 901:Generated_Source\PSoC6\pdl\drivers\peripheral\prot/cy_prot.c **** *
 902:Generated_Source\PSoC6\pdl\drivers\peripheral\prot/cy_prot.c **** *   Status              | Description
 903:Generated_Source\PSoC6\pdl\drivers\peripheral\prot/cy_prot.c **** * ----------------------| ---------------------------------------
 904:Generated_Source\PSoC6\pdl\drivers\peripheral\prot/cy_prot.c **** * CY_PROT_SUCCESS       | The attributes were set up.
 905:Generated_Source\PSoC6\pdl\drivers\peripheral\prot/cy_prot.c **** * CY_PROT_FAILURE       | The attributes were not set up because the structure is possibly locked.
 906:Generated_Source\PSoC6\pdl\drivers\peripheral\prot/cy_prot.c **** * CY_PROT_INVALID_STATE | The function was called on the device with an unsupported PERI HW version
 907:Generated_Source\PSoC6\pdl\drivers\peripheral\prot/cy_prot.c **** *
 908:Generated_Source\PSoC6\pdl\drivers\peripheral\prot/cy_prot.c **** * \note Only the user's/privileged Write permissions are configurable. The 
 909:Generated_Source\PSoC6\pdl\drivers\peripheral\prot/cy_prot.c **** * Read permissions are read-only and cannot be configured.
 910:Generated_Source\PSoC6\pdl\drivers\peripheral\prot/cy_prot.c **** *
 911:Generated_Source\PSoC6\pdl\drivers\peripheral\prot/cy_prot.c **** * \note PC0 accesses are read-only and are always enabled. 
 912:Generated_Source\PSoC6\pdl\drivers\peripheral\prot/cy_prot.c **** *
 913:Generated_Source\PSoC6\pdl\drivers\peripheral\prot/cy_prot.c **** * \funcusage
 914:Generated_Source\PSoC6\pdl\drivers\peripheral\prot/cy_prot.c **** * \snippet prot/1.20/snippet/main.c snippet_Cy_Prot_ConfigPpuProgMasterAtt
 915:Generated_Source\PSoC6\pdl\drivers\peripheral\prot/cy_prot.c **** *
 916:Generated_Source\PSoC6\pdl\drivers\peripheral\prot/cy_prot.c **** *******************************************************************************/
 917:Generated_Source\PSoC6\pdl\drivers\peripheral\prot/cy_prot.c **** cy_en_prot_status_t Cy_Prot_ConfigPpuProgMasterAtt(PERI_MS_PPU_PR_Type* base, uint16_t pcMask, 
 918:Generated_Source\PSoC6\pdl\drivers\peripheral\prot/cy_prot.c ****                                        cy_en_prot_perm_t userPermission, cy_en_prot_perm_t privPerm
 919:Generated_Source\PSoC6\pdl\drivers\peripheral\prot/cy_prot.c **** {   
 2252              		.loc 1 919 0
 2253              		.cfi_startproc
 2254              		@ args = 4, pretend = 0, frame = 8
 2255              		@ frame_needed = 1, uses_anonymous_args = 0
 2256 0000 90B5     		push	{r4, r7, lr}
 2257              		.cfi_def_cfa_offset 12
 2258              		.cfi_offset 4, -12
 2259              		.cfi_offset 7, -8
 2260              		.cfi_offset 14, -4
 2261 0002 85B0     		sub	sp, sp, #20
 2262              		.cfi_def_cfa_offset 32
 2263 0004 02AF     		add	r7, sp, #8
 2264              		.cfi_def_cfa 7, 24
 2265 0006 7860     		str	r0, [r7, #4]
 2266 0008 0C00     		movs	r4, r1
 2267 000a 1000     		movs	r0, r2
 2268 000c 1900     		movs	r1, r3
 2269 000e BB1C     		adds	r3, r7, #2
 2270 0010 221C     		adds	r2, r4, #0
 2271 0012 1A80     		strh	r2, [r3]
 2272 0014 7B1C     		adds	r3, r7, #1
 2273 0016 021C     		adds	r2, r0, #0
 2274 0018 1A70     		strb	r2, [r3]
 2275 001a 3B00     		movs	r3, r7
 2276 001c 0A1C     		adds	r2, r1, #0
 2277 001e 1A70     		strb	r2, [r3]
 920:Generated_Source\PSoC6\pdl\drivers\peripheral\prot/cy_prot.c ****     /* The parameter checks */
 921:Generated_Source\PSoC6\pdl\drivers\peripheral\prot/cy_prot.c ****     CY_ASSERT_L1(NULL != base);
 2278              		.loc 1 921 0
 2279 0020 7B68     		ldr	r3, [r7, #4]
ARM GAS  C:\Users\JC\AppData\Local\Temp\ccU1E72d.s 			page 58


 2280 0022 002B     		cmp	r3, #0
 2281 0024 05D1     		bne	.L145
 2282              		.loc 1 921 0 is_stmt 0 discriminator 1
 2283 0026 1B4A     		ldr	r2, .L149
 2284 0028 1B4B     		ldr	r3, .L149+4
 2285 002a 1100     		movs	r1, r2
 2286 002c 1800     		movs	r0, r3
 2287 002e FFF7FEFF 		bl	Cy_SysLib_AssertFailed
 2288              	.L145:
 922:Generated_Source\PSoC6\pdl\drivers\peripheral\prot/cy_prot.c ****     CY_ASSERT_L3(CY_PROT_IS_PROG_MS_PERM_VALID(userPermission));
 2289              		.loc 1 922 0 is_stmt 1
 2290 0032 7B1C     		adds	r3, r7, #1
 2291 0034 1B78     		ldrb	r3, [r3]
 2292 0036 012B     		cmp	r3, #1
 2293 0038 09D0     		beq	.L146
 2294              		.loc 1 922 0 is_stmt 0 discriminator 1
 2295 003a 7B1C     		adds	r3, r7, #1
 2296 003c 1B78     		ldrb	r3, [r3]
 2297 003e 032B     		cmp	r3, #3
 2298 0040 05D0     		beq	.L146
 2299              		.loc 1 922 0 discriminator 2
 2300 0042 164A     		ldr	r2, .L149+8
 2301 0044 144B     		ldr	r3, .L149+4
 2302 0046 1100     		movs	r1, r2
 2303 0048 1800     		movs	r0, r3
 2304 004a FFF7FEFF 		bl	Cy_SysLib_AssertFailed
 2305              	.L146:
 923:Generated_Source\PSoC6\pdl\drivers\peripheral\prot/cy_prot.c ****     CY_ASSERT_L3(CY_PROT_IS_PROG_MS_PERM_VALID(privPermission));
 2306              		.loc 1 923 0 is_stmt 1
 2307 004e 3B00     		movs	r3, r7
 2308 0050 1B78     		ldrb	r3, [r3]
 2309 0052 012B     		cmp	r3, #1
 2310 0054 09D0     		beq	.L147
 2311              		.loc 1 923 0 is_stmt 0 discriminator 1
 2312 0056 3B00     		movs	r3, r7
 2313 0058 1B78     		ldrb	r3, [r3]
 2314 005a 032B     		cmp	r3, #3
 2315 005c 05D0     		beq	.L147
 2316              		.loc 1 923 0 discriminator 2
 2317 005e 104A     		ldr	r2, .L149+12
 2318 0060 0D4B     		ldr	r3, .L149+4
 2319 0062 1100     		movs	r1, r2
 2320 0064 1800     		movs	r0, r3
 2321 0066 FFF7FEFF 		bl	Cy_SysLib_AssertFailed
 2322              	.L147:
 924:Generated_Source\PSoC6\pdl\drivers\peripheral\prot/cy_prot.c ****     
 925:Generated_Source\PSoC6\pdl\drivers\peripheral\prot/cy_prot.c ****     return (Prot_ConfigPpuAtt(PERI_MS_PPU_PR_MS_ATT(base), pcMask, userPermission, privPermission, 
 2323              		.loc 1 925 0 is_stmt 1
 2324 006a 7B68     		ldr	r3, [r7, #4]
 2325 006c 3033     		adds	r3, r3, #48
 2326 006e 1800     		movs	r0, r3
 2327 0070 3B00     		movs	r3, r7
 2328 0072 1C78     		ldrb	r4, [r3]
 2329 0074 7B1C     		adds	r3, r7, #1
 2330 0076 1A78     		ldrb	r2, [r3]
 2331 0078 BB1C     		adds	r3, r7, #2
 2332 007a 1988     		ldrh	r1, [r3]
ARM GAS  C:\Users\JC\AppData\Local\Temp\ccU1E72d.s 			page 59


 2333 007c 1823     		movs	r3, #24
 2334 007e FB18     		adds	r3, r7, r3
 2335 0080 1B78     		ldrb	r3, [r3]
 2336 0082 0093     		str	r3, [sp]
 2337 0084 2300     		movs	r3, r4
 2338 0086 FFF7FEFF 		bl	Prot_ConfigPpuAtt
 2339 008a 0300     		movs	r3, r0
 926:Generated_Source\PSoC6\pdl\drivers\peripheral\prot/cy_prot.c **** }
 2340              		.loc 1 926 0
 2341 008c 1800     		movs	r0, r3
 2342 008e BD46     		mov	sp, r7
 2343 0090 03B0     		add	sp, sp, #12
 2344              		@ sp needed
 2345 0092 90BD     		pop	{r4, r7, pc}
 2346              	.L150:
 2347              		.align	2
 2348              	.L149:
 2349 0094 99030000 		.word	921
 2350 0098 00000000 		.word	.LC1
 2351 009c 9A030000 		.word	922
 2352 00a0 9B030000 		.word	923
 2353              		.cfi_endproc
 2354              	.LFE61:
 2355              		.size	Cy_Prot_ConfigPpuProgMasterAtt, .-Cy_Prot_ConfigPpuProgMasterAtt
 2356              		.section	.text.Cy_Prot_ConfigPpuProgSlaveAddr,"ax",%progbits
 2357              		.align	2
 2358              		.global	Cy_Prot_ConfigPpuProgSlaveAddr
 2359              		.code	16
 2360              		.thumb_func
 2361              		.type	Cy_Prot_ConfigPpuProgSlaveAddr, %function
 2362              	Cy_Prot_ConfigPpuProgSlaveAddr:
 2363              	.LFB62:
 927:Generated_Source\PSoC6\pdl\drivers\peripheral\prot/cy_prot.c **** 
 928:Generated_Source\PSoC6\pdl\drivers\peripheral\prot/cy_prot.c **** 
 929:Generated_Source\PSoC6\pdl\drivers\peripheral\prot/cy_prot.c **** /*******************************************************************************
 930:Generated_Source\PSoC6\pdl\drivers\peripheral\prot/cy_prot.c **** * Function Name: Cy_Prot_ConfigPpuProgSlaveAddr
 931:Generated_Source\PSoC6\pdl\drivers\peripheral\prot/cy_prot.c **** ****************************************************************************//**
 932:Generated_Source\PSoC6\pdl\drivers\peripheral\prot/cy_prot.c **** *
 933:Generated_Source\PSoC6\pdl\drivers\peripheral\prot/cy_prot.c **** * Configures the protection-structure address settings  of the 
 934:Generated_Source\PSoC6\pdl\drivers\peripheral\prot/cy_prot.c **** * Programmable Peripheral Protection Unit (PPU PROG) slave. 
 935:Generated_Source\PSoC6\pdl\drivers\peripheral\prot/cy_prot.c **** * 
 936:Generated_Source\PSoC6\pdl\drivers\peripheral\prot/cy_prot.c **** * This function configures the slave structure of the PPU PROG pair, which can 
 937:Generated_Source\PSoC6\pdl\drivers\peripheral\prot/cy_prot.c **** * protect any peripheral memory region in a device from an invalid bus-master 
 938:Generated_Source\PSoC6\pdl\drivers\peripheral\prot/cy_prot.c **** * access.
 939:Generated_Source\PSoC6\pdl\drivers\peripheral\prot/cy_prot.c **** *
 940:Generated_Source\PSoC6\pdl\drivers\peripheral\prot/cy_prot.c **** * \note This function is applicable for CPUSS ver_2 only.
 941:Generated_Source\PSoC6\pdl\drivers\peripheral\prot/cy_prot.c **** *
 942:Generated_Source\PSoC6\pdl\drivers\peripheral\prot/cy_prot.c **** * \param base
 943:Generated_Source\PSoC6\pdl\drivers\peripheral\prot/cy_prot.c **** * The register base address of the protection structure is being configured.
 944:Generated_Source\PSoC6\pdl\drivers\peripheral\prot/cy_prot.c **** * 
 945:Generated_Source\PSoC6\pdl\drivers\peripheral\prot/cy_prot.c **** * \param address
 946:Generated_Source\PSoC6\pdl\drivers\peripheral\prot/cy_prot.c **** * The address.
 947:Generated_Source\PSoC6\pdl\drivers\peripheral\prot/cy_prot.c **** * 
 948:Generated_Source\PSoC6\pdl\drivers\peripheral\prot/cy_prot.c **** * \param regionSize
 949:Generated_Source\PSoC6\pdl\drivers\peripheral\prot/cy_prot.c **** * The region size.
 950:Generated_Source\PSoC6\pdl\drivers\peripheral\prot/cy_prot.c **** * 
 951:Generated_Source\PSoC6\pdl\drivers\peripheral\prot/cy_prot.c **** * \return
ARM GAS  C:\Users\JC\AppData\Local\Temp\ccU1E72d.s 			page 60


 952:Generated_Source\PSoC6\pdl\drivers\peripheral\prot/cy_prot.c **** * The status of the function call.
 953:Generated_Source\PSoC6\pdl\drivers\peripheral\prot/cy_prot.c **** *
 954:Generated_Source\PSoC6\pdl\drivers\peripheral\prot/cy_prot.c **** *   Status              | Description
 955:Generated_Source\PSoC6\pdl\drivers\peripheral\prot/cy_prot.c **** * ----------------------| ---------------------------------------
 956:Generated_Source\PSoC6\pdl\drivers\peripheral\prot/cy_prot.c **** * CY_PROT_SUCCESS       | The address settings were set up.
 957:Generated_Source\PSoC6\pdl\drivers\peripheral\prot/cy_prot.c **** * CY_PROT_FAILURE       | The address settings were not set up because the structure is possibly lo
 958:Generated_Source\PSoC6\pdl\drivers\peripheral\prot/cy_prot.c **** * CY_PROT_INVALID_STATE | The function was called on the device with an unsupported PERI HW version
 959:Generated_Source\PSoC6\pdl\drivers\peripheral\prot/cy_prot.c **** *
 960:Generated_Source\PSoC6\pdl\drivers\peripheral\prot/cy_prot.c **** * \note PC0 accesses are Read-only and are always enabled. 
 961:Generated_Source\PSoC6\pdl\drivers\peripheral\prot/cy_prot.c **** *
 962:Generated_Source\PSoC6\pdl\drivers\peripheral\prot/cy_prot.c **** * \funcusage
 963:Generated_Source\PSoC6\pdl\drivers\peripheral\prot/cy_prot.c **** * \ref Cy_Prot_ConfigPpuProgSlaveAtt
 964:Generated_Source\PSoC6\pdl\drivers\peripheral\prot/cy_prot.c **** *
 965:Generated_Source\PSoC6\pdl\drivers\peripheral\prot/cy_prot.c **** *******************************************************************************/
 966:Generated_Source\PSoC6\pdl\drivers\peripheral\prot/cy_prot.c **** cy_en_prot_status_t Cy_Prot_ConfigPpuProgSlaveAddr(PERI_MS_PPU_PR_Type* base, uint32_t address, 
 967:Generated_Source\PSoC6\pdl\drivers\peripheral\prot/cy_prot.c ****                                                                    cy_en_prot_size_t regionSize)
 968:Generated_Source\PSoC6\pdl\drivers\peripheral\prot/cy_prot.c **** {
 2364              		.loc 1 968 0
 2365              		.cfi_startproc
 2366              		@ args = 0, pretend = 0, frame = 24
 2367              		@ frame_needed = 1, uses_anonymous_args = 0
 2368 0000 80B5     		push	{r7, lr}
 2369              		.cfi_def_cfa_offset 8
 2370              		.cfi_offset 7, -8
 2371              		.cfi_offset 14, -4
 2372 0002 86B0     		sub	sp, sp, #24
 2373              		.cfi_def_cfa_offset 32
 2374 0004 00AF     		add	r7, sp, #0
 2375              		.cfi_def_cfa_register 7
 2376 0006 F860     		str	r0, [r7, #12]
 2377 0008 B960     		str	r1, [r7, #8]
 2378 000a FB1D     		adds	r3, r7, #7
 2379 000c 1A70     		strb	r2, [r3]
 969:Generated_Source\PSoC6\pdl\drivers\peripheral\prot/cy_prot.c ****     cy_en_prot_status_t status = CY_PROT_INVALID_STATE;
 2380              		.loc 1 969 0
 2381 000e 654B     		ldr	r3, .L159
 2382 0010 7B61     		str	r3, [r7, #20]
 970:Generated_Source\PSoC6\pdl\drivers\peripheral\prot/cy_prot.c ****     
 971:Generated_Source\PSoC6\pdl\drivers\peripheral\prot/cy_prot.c ****     /* The parameter checks */
 972:Generated_Source\PSoC6\pdl\drivers\peripheral\prot/cy_prot.c ****     CY_ASSERT_L1(NULL != base);
 2383              		.loc 1 972 0
 2384 0012 FB68     		ldr	r3, [r7, #12]
 2385 0014 002B     		cmp	r3, #0
 2386 0016 06D1     		bne	.L152
 2387              		.loc 1 972 0 is_stmt 0 discriminator 1
 2388 0018 F323     		movs	r3, #243
 2389 001a 9A00     		lsls	r2, r3, #2
 2390 001c 624B     		ldr	r3, .L159+4
 2391 001e 1100     		movs	r1, r2
 2392 0020 1800     		movs	r0, r3
 2393 0022 FFF7FEFF 		bl	Cy_SysLib_AssertFailed
 2394              	.L152:
 973:Generated_Source\PSoC6\pdl\drivers\peripheral\prot/cy_prot.c ****     CY_ASSERT_L3(CY_PROT_IS_PPU_V2_SIZE_VALID(regionSize));
 2395              		.loc 1 973 0 is_stmt 1
 2396 0026 FB1D     		adds	r3, r7, #7
 2397 0028 1B78     		ldrb	r3, [r3]
 2398 002a 012B     		cmp	r3, #1
ARM GAS  C:\Users\JC\AppData\Local\Temp\ccU1E72d.s 			page 61


 2399 002c 00D1     		bne	.LCB2094
 2400 002e 86E0     		b	.L153	@long jump
 2401              	.LCB2094:
 2402              		.loc 1 973 0 is_stmt 0 discriminator 1
 2403 0030 FB1D     		adds	r3, r7, #7
 2404 0032 1B78     		ldrb	r3, [r3]
 2405 0034 022B     		cmp	r3, #2
 2406 0036 00D1     		bne	.LCB2098
 2407 0038 81E0     		b	.L153	@long jump
 2408              	.LCB2098:
 2409              		.loc 1 973 0 discriminator 2
 2410 003a FB1D     		adds	r3, r7, #7
 2411 003c 1B78     		ldrb	r3, [r3]
 2412 003e 032B     		cmp	r3, #3
 2413 0040 00D1     		bne	.LCB2102
 2414 0042 7CE0     		b	.L153	@long jump
 2415              	.LCB2102:
 2416              		.loc 1 973 0 discriminator 3
 2417 0044 FB1D     		adds	r3, r7, #7
 2418 0046 1B78     		ldrb	r3, [r3]
 2419 0048 042B     		cmp	r3, #4
 2420 004a 00D1     		bne	.LCB2106
 2421 004c 77E0     		b	.L153	@long jump
 2422              	.LCB2106:
 2423              		.loc 1 973 0 discriminator 4
 2424 004e FB1D     		adds	r3, r7, #7
 2425 0050 1B78     		ldrb	r3, [r3]
 2426 0052 052B     		cmp	r3, #5
 2427 0054 00D1     		bne	.LCB2110
 2428 0056 72E0     		b	.L153	@long jump
 2429              	.LCB2110:
 2430              		.loc 1 973 0 discriminator 5
 2431 0058 FB1D     		adds	r3, r7, #7
 2432 005a 1B78     		ldrb	r3, [r3]
 2433 005c 062B     		cmp	r3, #6
 2434 005e 00D1     		bne	.LCB2114
 2435 0060 6DE0     		b	.L153	@long jump
 2436              	.LCB2114:
 2437              		.loc 1 973 0 discriminator 6
 2438 0062 FB1D     		adds	r3, r7, #7
 2439 0064 1B78     		ldrb	r3, [r3]
 2440 0066 072B     		cmp	r3, #7
 2441 0068 00D1     		bne	.LCB2118
 2442 006a 68E0     		b	.L153	@long jump
 2443              	.LCB2118:
 2444              		.loc 1 973 0 discriminator 7
 2445 006c FB1D     		adds	r3, r7, #7
 2446 006e 1B78     		ldrb	r3, [r3]
 2447 0070 082B     		cmp	r3, #8
 2448 0072 00D1     		bne	.LCB2122
 2449 0074 63E0     		b	.L153	@long jump
 2450              	.LCB2122:
 2451              		.loc 1 973 0 discriminator 8
 2452 0076 FB1D     		adds	r3, r7, #7
 2453 0078 1B78     		ldrb	r3, [r3]
 2454 007a 092B     		cmp	r3, #9
 2455 007c 00D1     		bne	.LCB2126
ARM GAS  C:\Users\JC\AppData\Local\Temp\ccU1E72d.s 			page 62


 2456 007e 5EE0     		b	.L153	@long jump
 2457              	.LCB2126:
 2458              		.loc 1 973 0 discriminator 9
 2459 0080 FB1D     		adds	r3, r7, #7
 2460 0082 1B78     		ldrb	r3, [r3]
 2461 0084 0A2B     		cmp	r3, #10
 2462 0086 00D1     		bne	.LCB2130
 2463 0088 59E0     		b	.L153	@long jump
 2464              	.LCB2130:
 2465              		.loc 1 973 0 discriminator 10
 2466 008a FB1D     		adds	r3, r7, #7
 2467 008c 1B78     		ldrb	r3, [r3]
 2468 008e 0B2B     		cmp	r3, #11
 2469 0090 55D0     		beq	.L153
 2470              		.loc 1 973 0 discriminator 11
 2471 0092 FB1D     		adds	r3, r7, #7
 2472 0094 1B78     		ldrb	r3, [r3]
 2473 0096 0C2B     		cmp	r3, #12
 2474 0098 51D0     		beq	.L153
 2475              		.loc 1 973 0 discriminator 12
 2476 009a FB1D     		adds	r3, r7, #7
 2477 009c 1B78     		ldrb	r3, [r3]
 2478 009e 0D2B     		cmp	r3, #13
 2479 00a0 4DD0     		beq	.L153
 2480              		.loc 1 973 0 discriminator 13
 2481 00a2 FB1D     		adds	r3, r7, #7
 2482 00a4 1B78     		ldrb	r3, [r3]
 2483 00a6 0E2B     		cmp	r3, #14
 2484 00a8 49D0     		beq	.L153
 2485              		.loc 1 973 0 discriminator 14
 2486 00aa FB1D     		adds	r3, r7, #7
 2487 00ac 1B78     		ldrb	r3, [r3]
 2488 00ae 0F2B     		cmp	r3, #15
 2489 00b0 45D0     		beq	.L153
 2490              		.loc 1 973 0 discriminator 15
 2491 00b2 FB1D     		adds	r3, r7, #7
 2492 00b4 1B78     		ldrb	r3, [r3]
 2493 00b6 102B     		cmp	r3, #16
 2494 00b8 41D0     		beq	.L153
 2495              		.loc 1 973 0 discriminator 16
 2496 00ba FB1D     		adds	r3, r7, #7
 2497 00bc 1B78     		ldrb	r3, [r3]
 2498 00be 112B     		cmp	r3, #17
 2499 00c0 3DD0     		beq	.L153
 2500              		.loc 1 973 0 discriminator 17
 2501 00c2 FB1D     		adds	r3, r7, #7
 2502 00c4 1B78     		ldrb	r3, [r3]
 2503 00c6 122B     		cmp	r3, #18
 2504 00c8 39D0     		beq	.L153
 2505              		.loc 1 973 0 discriminator 18
 2506 00ca FB1D     		adds	r3, r7, #7
 2507 00cc 1B78     		ldrb	r3, [r3]
 2508 00ce 132B     		cmp	r3, #19
 2509 00d0 35D0     		beq	.L153
 2510              		.loc 1 973 0 discriminator 19
 2511 00d2 FB1D     		adds	r3, r7, #7
 2512 00d4 1B78     		ldrb	r3, [r3]
ARM GAS  C:\Users\JC\AppData\Local\Temp\ccU1E72d.s 			page 63


 2513 00d6 142B     		cmp	r3, #20
 2514 00d8 31D0     		beq	.L153
 2515              		.loc 1 973 0 discriminator 20
 2516 00da FB1D     		adds	r3, r7, #7
 2517 00dc 1B78     		ldrb	r3, [r3]
 2518 00de 152B     		cmp	r3, #21
 2519 00e0 2DD0     		beq	.L153
 2520              		.loc 1 973 0 discriminator 21
 2521 00e2 FB1D     		adds	r3, r7, #7
 2522 00e4 1B78     		ldrb	r3, [r3]
 2523 00e6 162B     		cmp	r3, #22
 2524 00e8 29D0     		beq	.L153
 2525              		.loc 1 973 0 discriminator 22
 2526 00ea FB1D     		adds	r3, r7, #7
 2527 00ec 1B78     		ldrb	r3, [r3]
 2528 00ee 172B     		cmp	r3, #23
 2529 00f0 25D0     		beq	.L153
 2530              		.loc 1 973 0 discriminator 23
 2531 00f2 FB1D     		adds	r3, r7, #7
 2532 00f4 1B78     		ldrb	r3, [r3]
 2533 00f6 182B     		cmp	r3, #24
 2534 00f8 21D0     		beq	.L153
 2535              		.loc 1 973 0 discriminator 24
 2536 00fa FB1D     		adds	r3, r7, #7
 2537 00fc 1B78     		ldrb	r3, [r3]
 2538 00fe 192B     		cmp	r3, #25
 2539 0100 1DD0     		beq	.L153
 2540              		.loc 1 973 0 discriminator 25
 2541 0102 FB1D     		adds	r3, r7, #7
 2542 0104 1B78     		ldrb	r3, [r3]
 2543 0106 1A2B     		cmp	r3, #26
 2544 0108 19D0     		beq	.L153
 2545              		.loc 1 973 0 discriminator 26
 2546 010a FB1D     		adds	r3, r7, #7
 2547 010c 1B78     		ldrb	r3, [r3]
 2548 010e 1B2B     		cmp	r3, #27
 2549 0110 15D0     		beq	.L153
 2550              		.loc 1 973 0 discriminator 27
 2551 0112 FB1D     		adds	r3, r7, #7
 2552 0114 1B78     		ldrb	r3, [r3]
 2553 0116 1C2B     		cmp	r3, #28
 2554 0118 11D0     		beq	.L153
 2555              		.loc 1 973 0 discriminator 28
 2556 011a FB1D     		adds	r3, r7, #7
 2557 011c 1B78     		ldrb	r3, [r3]
 2558 011e 1D2B     		cmp	r3, #29
 2559 0120 0DD0     		beq	.L153
 2560              		.loc 1 973 0 discriminator 29
 2561 0122 FB1D     		adds	r3, r7, #7
 2562 0124 1B78     		ldrb	r3, [r3]
 2563 0126 1E2B     		cmp	r3, #30
 2564 0128 09D0     		beq	.L153
 2565              		.loc 1 973 0 discriminator 30
 2566 012a FB1D     		adds	r3, r7, #7
 2567 012c 1B78     		ldrb	r3, [r3]
 2568 012e 1F2B     		cmp	r3, #31
 2569 0130 05D0     		beq	.L153
ARM GAS  C:\Users\JC\AppData\Local\Temp\ccU1E72d.s 			page 64


 2570              		.loc 1 973 0 discriminator 31
 2571 0132 1E4A     		ldr	r2, .L159+8
 2572 0134 1C4B     		ldr	r3, .L159+4
 2573 0136 1100     		movs	r1, r2
 2574 0138 1800     		movs	r0, r3
 2575 013a FFF7FEFF 		bl	Cy_SysLib_AssertFailed
 2576              	.L153:
 974:Generated_Source\PSoC6\pdl\drivers\peripheral\prot/cy_prot.c ****     
 975:Generated_Source\PSoC6\pdl\drivers\peripheral\prot/cy_prot.c ****     if (!CY_PERI_V1)
 2577              		.loc 1 975 0 is_stmt 1
 2578 013e 1C4B     		ldr	r3, .L159+12
 2579 0140 1B68     		ldr	r3, [r3]
 2580 0142 2F22     		movs	r2, #47
 2581 0144 9B5C     		ldrb	r3, [r3, r2]
 2582 0146 012B     		cmp	r3, #1
 2583 0148 27D0     		beq	.L154
 976:Generated_Source\PSoC6\pdl\drivers\peripheral\prot/cy_prot.c ****     {
 977:Generated_Source\PSoC6\pdl\drivers\peripheral\prot/cy_prot.c ****         PERI_MS_PPU_PR_SL_ADDR(base) = address & PERI_MS_PPU_PR_V2_SL_ADDR_ADDR30_Msk;
 2584              		.loc 1 977 0
 2585 014a BB68     		ldr	r3, [r7, #8]
 2586 014c 0322     		movs	r2, #3
 2587 014e 9343     		bics	r3, r2
 2588 0150 1A00     		movs	r2, r3
 2589 0152 FB68     		ldr	r3, [r7, #12]
 2590 0154 1A60     		str	r2, [r3]
 978:Generated_Source\PSoC6\pdl\drivers\peripheral\prot/cy_prot.c ****         PERI_MS_PPU_PR_SL_SIZE(base) = _CLR_SET_FLD32U((PERI_MS_PPU_PR_SL_SIZE(base)), PERI_MS_PPU_
 2591              		.loc 1 978 0
 2592 0156 FB68     		ldr	r3, [r7, #12]
 2593 0158 5B68     		ldr	r3, [r3, #4]
 2594 015a 164A     		ldr	r2, .L159+16
 2595 015c 1A40     		ands	r2, r3
 2596 015e FB1D     		adds	r3, r7, #7
 2597 0160 1B78     		ldrb	r3, [r3]
 2598 0162 1906     		lsls	r1, r3, #24
 2599 0164 F823     		movs	r3, #248
 2600 0166 5B05     		lsls	r3, r3, #21
 2601 0168 0B40     		ands	r3, r1
 2602 016a 1A43     		orrs	r2, r3
 2603 016c FB68     		ldr	r3, [r7, #12]
 2604 016e 5A60     		str	r2, [r3, #4]
 979:Generated_Source\PSoC6\pdl\drivers\peripheral\prot/cy_prot.c ****         
 980:Generated_Source\PSoC6\pdl\drivers\peripheral\prot/cy_prot.c ****         status = ((PERI_MS_PPU_PR_SL_ADDR(base) != (address & PERI_MS_PPU_PR_V2_SL_ADDR_ADDR30_Msk)
 2605              		.loc 1 980 0
 2606 0170 FB68     		ldr	r3, [r7, #12]
 2607 0172 1A68     		ldr	r2, [r3]
 2608 0174 BB68     		ldr	r3, [r7, #8]
 2609 0176 0321     		movs	r1, #3
 2610 0178 8B43     		bics	r3, r1
 2611 017a 9A42     		cmp	r2, r3
 2612 017c 09D1     		bne	.L155
 981:Generated_Source\PSoC6\pdl\drivers\peripheral\prot/cy_prot.c ****                   (_FLD2VAL(PERI_MS_PPU_PR_V2_SL_SIZE_REGION_SIZE, PERI_MS_PPU_PR_SL_SIZE(base)) !=
 2613              		.loc 1 981 0 discriminator 2
 2614 017e FB68     		ldr	r3, [r7, #12]
 2615 0180 5A68     		ldr	r2, [r3, #4]
 2616 0182 F823     		movs	r3, #248
 2617 0184 5B05     		lsls	r3, r3, #21
 2618 0186 1340     		ands	r3, r2
ARM GAS  C:\Users\JC\AppData\Local\Temp\ccU1E72d.s 			page 65


 2619 0188 1A0E     		lsrs	r2, r3, #24
 2620 018a FB1D     		adds	r3, r7, #7
 2621 018c 1B78     		ldrb	r3, [r3]
 980:Generated_Source\PSoC6\pdl\drivers\peripheral\prot/cy_prot.c ****                   (_FLD2VAL(PERI_MS_PPU_PR_V2_SL_SIZE_REGION_SIZE, PERI_MS_PPU_PR_SL_SIZE(base)) !=
 2622              		.loc 1 980 0 discriminator 2
 2623 018e 9A42     		cmp	r2, r3
 2624 0190 01D0     		beq	.L156
 2625              	.L155:
 980:Generated_Source\PSoC6\pdl\drivers\peripheral\prot/cy_prot.c ****                   (_FLD2VAL(PERI_MS_PPU_PR_V2_SL_SIZE_REGION_SIZE, PERI_MS_PPU_PR_SL_SIZE(base)) !=
 2626              		.loc 1 980 0 is_stmt 0 discriminator 3
 2627 0192 094B     		ldr	r3, .L159+20
 2628 0194 00E0     		b	.L157
 2629              	.L156:
 980:Generated_Source\PSoC6\pdl\drivers\peripheral\prot/cy_prot.c ****                   (_FLD2VAL(PERI_MS_PPU_PR_V2_SL_SIZE_REGION_SIZE, PERI_MS_PPU_PR_SL_SIZE(base)) !=
 2630              		.loc 1 980 0 discriminator 4
 2631 0196 0023     		movs	r3, #0
 2632              	.L157:
 980:Generated_Source\PSoC6\pdl\drivers\peripheral\prot/cy_prot.c ****                   (_FLD2VAL(PERI_MS_PPU_PR_V2_SL_SIZE_REGION_SIZE, PERI_MS_PPU_PR_SL_SIZE(base)) !=
 2633              		.loc 1 980 0 discriminator 6
 2634 0198 7B61     		str	r3, [r7, #20]
 2635              	.L154:
 982:Generated_Source\PSoC6\pdl\drivers\peripheral\prot/cy_prot.c ****                    CY_PROT_FAILURE : CY_PROT_SUCCESS;
 983:Generated_Source\PSoC6\pdl\drivers\peripheral\prot/cy_prot.c ****     }
 984:Generated_Source\PSoC6\pdl\drivers\peripheral\prot/cy_prot.c ****     
 985:Generated_Source\PSoC6\pdl\drivers\peripheral\prot/cy_prot.c ****     return status;
 2636              		.loc 1 985 0 is_stmt 1
 2637 019a 7B69     		ldr	r3, [r7, #20]
 986:Generated_Source\PSoC6\pdl\drivers\peripheral\prot/cy_prot.c **** }
 2638              		.loc 1 986 0
 2639 019c 1800     		movs	r0, r3
 2640 019e BD46     		mov	sp, r7
 2641 01a0 06B0     		add	sp, sp, #24
 2642              		@ sp needed
 2643 01a2 80BD     		pop	{r7, pc}
 2644              	.L160:
 2645              		.align	2
 2646              	.L159:
 2647 01a4 0200C200 		.word	12713986
 2648 01a8 00000000 		.word	.LC1
 2649 01ac CD030000 		.word	973
 2650 01b0 00000000 		.word	cy_device
 2651 01b4 FFFFFFE0 		.word	-520093697
 2652 01b8 0300C200 		.word	12713987
 2653              		.cfi_endproc
 2654              	.LFE62:
 2655              		.size	Cy_Prot_ConfigPpuProgSlaveAddr, .-Cy_Prot_ConfigPpuProgSlaveAddr
 2656              		.section	.text.Cy_Prot_ConfigPpuProgSlaveAtt,"ax",%progbits
 2657              		.align	2
 2658              		.global	Cy_Prot_ConfigPpuProgSlaveAtt
 2659              		.code	16
 2660              		.thumb_func
 2661              		.type	Cy_Prot_ConfigPpuProgSlaveAtt, %function
 2662              	Cy_Prot_ConfigPpuProgSlaveAtt:
 2663              	.LFB63:
 987:Generated_Source\PSoC6\pdl\drivers\peripheral\prot/cy_prot.c **** 
 988:Generated_Source\PSoC6\pdl\drivers\peripheral\prot/cy_prot.c **** 
 989:Generated_Source\PSoC6\pdl\drivers\peripheral\prot/cy_prot.c **** /*******************************************************************************
ARM GAS  C:\Users\JC\AppData\Local\Temp\ccU1E72d.s 			page 66


 990:Generated_Source\PSoC6\pdl\drivers\peripheral\prot/cy_prot.c **** * Function Name: Cy_Prot_ConfigPpuProgSlaveAtt
 991:Generated_Source\PSoC6\pdl\drivers\peripheral\prot/cy_prot.c **** ****************************************************************************//**
 992:Generated_Source\PSoC6\pdl\drivers\peripheral\prot/cy_prot.c **** *
 993:Generated_Source\PSoC6\pdl\drivers\peripheral\prot/cy_prot.c **** * Configures the protection structure with its protection attributes of the 
 994:Generated_Source\PSoC6\pdl\drivers\peripheral\prot/cy_prot.c **** * Programmable Peripheral Protection Unit (PPU PROG) slave. 
 995:Generated_Source\PSoC6\pdl\drivers\peripheral\prot/cy_prot.c **** * 
 996:Generated_Source\PSoC6\pdl\drivers\peripheral\prot/cy_prot.c **** * This function configures the slave structure of the PPU PROG pair, which can 
 997:Generated_Source\PSoC6\pdl\drivers\peripheral\prot/cy_prot.c **** * protect any peripheral memory region in a device from invalid bus-master 
 998:Generated_Source\PSoC6\pdl\drivers\peripheral\prot/cy_prot.c **** * access.
 999:Generated_Source\PSoC6\pdl\drivers\peripheral\prot/cy_prot.c **** *
1000:Generated_Source\PSoC6\pdl\drivers\peripheral\prot/cy_prot.c **** * \note This function is applicable for CPUSS ver_2 only.
1001:Generated_Source\PSoC6\pdl\drivers\peripheral\prot/cy_prot.c **** *
1002:Generated_Source\PSoC6\pdl\drivers\peripheral\prot/cy_prot.c **** * \param base
1003:Generated_Source\PSoC6\pdl\drivers\peripheral\prot/cy_prot.c **** * The register base address of the protection structure is being configured.
1004:Generated_Source\PSoC6\pdl\drivers\peripheral\prot/cy_prot.c **** *
1005:Generated_Source\PSoC6\pdl\drivers\peripheral\prot/cy_prot.c **** * \param pcMask
1006:Generated_Source\PSoC6\pdl\drivers\peripheral\prot/cy_prot.c **** * The protection context mask. This is a 16-bit value of the allowed contexts, 
1007:Generated_Source\PSoC6\pdl\drivers\peripheral\prot/cy_prot.c **** * it is an OR'ed (|) field of the * provided defines in cy_prot.h. 
1008:Generated_Source\PSoC6\pdl\drivers\peripheral\prot/cy_prot.c **** * For example: (CY_PROT_PCMASK1 | CY_PROT_PCMASK3 | CY_PROT_PCMASK4).
1009:Generated_Source\PSoC6\pdl\drivers\peripheral\prot/cy_prot.c **** * \note The function accepts pcMask values from CY_PROT_PCMASK1 to CY_PROT_PCMASK15. 
1010:Generated_Source\PSoC6\pdl\drivers\peripheral\prot/cy_prot.c **** * But each device has its own number of available protection contexts. 
1011:Generated_Source\PSoC6\pdl\drivers\peripheral\prot/cy_prot.c **** * That number is defined by PERI_PC_NR in the config file.
1012:Generated_Source\PSoC6\pdl\drivers\peripheral\prot/cy_prot.c **** *
1013:Generated_Source\PSoC6\pdl\drivers\peripheral\prot/cy_prot.c **** * \param userPermission
1014:Generated_Source\PSoC6\pdl\drivers\peripheral\prot/cy_prot.c **** * The user permission setting.
1015:Generated_Source\PSoC6\pdl\drivers\peripheral\prot/cy_prot.c **** *
1016:Generated_Source\PSoC6\pdl\drivers\peripheral\prot/cy_prot.c **** * \param privPermission
1017:Generated_Source\PSoC6\pdl\drivers\peripheral\prot/cy_prot.c **** * The privileged permission setting.
1018:Generated_Source\PSoC6\pdl\drivers\peripheral\prot/cy_prot.c **** *
1019:Generated_Source\PSoC6\pdl\drivers\peripheral\prot/cy_prot.c **** * \param secure
1020:Generated_Source\PSoC6\pdl\drivers\peripheral\prot/cy_prot.c **** * The secure flag.
1021:Generated_Source\PSoC6\pdl\drivers\peripheral\prot/cy_prot.c **** * 
1022:Generated_Source\PSoC6\pdl\drivers\peripheral\prot/cy_prot.c **** * \return
1023:Generated_Source\PSoC6\pdl\drivers\peripheral\prot/cy_prot.c **** * The status of the function call.
1024:Generated_Source\PSoC6\pdl\drivers\peripheral\prot/cy_prot.c **** *
1025:Generated_Source\PSoC6\pdl\drivers\peripheral\prot/cy_prot.c **** *   Status              | Description
1026:Generated_Source\PSoC6\pdl\drivers\peripheral\prot/cy_prot.c **** * ----------------------| ---------------------------------------
1027:Generated_Source\PSoC6\pdl\drivers\peripheral\prot/cy_prot.c **** * CY_PROT_SUCCESS       | The attributes were set up.
1028:Generated_Source\PSoC6\pdl\drivers\peripheral\prot/cy_prot.c **** * CY_PROT_FAILURE       | The attributes were not set up because the structure is possibly locked.
1029:Generated_Source\PSoC6\pdl\drivers\peripheral\prot/cy_prot.c **** * CY_PROT_INVALID_STATE | The function was called on the device with an unsupported PERI HW version
1030:Generated_Source\PSoC6\pdl\drivers\peripheral\prot/cy_prot.c **** *
1031:Generated_Source\PSoC6\pdl\drivers\peripheral\prot/cy_prot.c **** * \note PC0 accesses are read-only and are always enabled. 
1032:Generated_Source\PSoC6\pdl\drivers\peripheral\prot/cy_prot.c **** *
1033:Generated_Source\PSoC6\pdl\drivers\peripheral\prot/cy_prot.c **** * \funcusage
1034:Generated_Source\PSoC6\pdl\drivers\peripheral\prot/cy_prot.c **** * \snippet prot/1.20/snippet/main.c snippet_Cy_Prot_ConfigPpuProgSlaveAtt
1035:Generated_Source\PSoC6\pdl\drivers\peripheral\prot/cy_prot.c **** *
1036:Generated_Source\PSoC6\pdl\drivers\peripheral\prot/cy_prot.c **** *******************************************************************************/
1037:Generated_Source\PSoC6\pdl\drivers\peripheral\prot/cy_prot.c **** cy_en_prot_status_t Cy_Prot_ConfigPpuProgSlaveAtt(PERI_MS_PPU_PR_Type* base, uint16_t pcMask, 
1038:Generated_Source\PSoC6\pdl\drivers\peripheral\prot/cy_prot.c ****                                        cy_en_prot_perm_t userPermission, cy_en_prot_perm_t privPerm
1039:Generated_Source\PSoC6\pdl\drivers\peripheral\prot/cy_prot.c **** {
 2664              		.loc 1 1039 0
 2665              		.cfi_startproc
 2666              		@ args = 4, pretend = 0, frame = 8
 2667              		@ frame_needed = 1, uses_anonymous_args = 0
 2668 0000 90B5     		push	{r4, r7, lr}
 2669              		.cfi_def_cfa_offset 12
 2670              		.cfi_offset 4, -12
ARM GAS  C:\Users\JC\AppData\Local\Temp\ccU1E72d.s 			page 67


 2671              		.cfi_offset 7, -8
 2672              		.cfi_offset 14, -4
 2673 0002 85B0     		sub	sp, sp, #20
 2674              		.cfi_def_cfa_offset 32
 2675 0004 02AF     		add	r7, sp, #8
 2676              		.cfi_def_cfa 7, 24
 2677 0006 7860     		str	r0, [r7, #4]
 2678 0008 0C00     		movs	r4, r1
 2679 000a 1000     		movs	r0, r2
 2680 000c 1900     		movs	r1, r3
 2681 000e BB1C     		adds	r3, r7, #2
 2682 0010 221C     		adds	r2, r4, #0
 2683 0012 1A80     		strh	r2, [r3]
 2684 0014 7B1C     		adds	r3, r7, #1
 2685 0016 021C     		adds	r2, r0, #0
 2686 0018 1A70     		strb	r2, [r3]
 2687 001a 3B00     		movs	r3, r7
 2688 001c 0A1C     		adds	r2, r1, #0
 2689 001e 1A70     		strb	r2, [r3]
1040:Generated_Source\PSoC6\pdl\drivers\peripheral\prot/cy_prot.c ****     /* The parameter checks */
1041:Generated_Source\PSoC6\pdl\drivers\peripheral\prot/cy_prot.c ****     CY_ASSERT_L1(NULL != base);
 2690              		.loc 1 1041 0
 2691 0020 7B68     		ldr	r3, [r7, #4]
 2692 0022 002B     		cmp	r3, #0
 2693 0024 05D1     		bne	.L162
 2694              		.loc 1 1041 0 is_stmt 0 discriminator 1
 2695 0026 234A     		ldr	r2, .L166
 2696 0028 234B     		ldr	r3, .L166+4
 2697 002a 1100     		movs	r1, r2
 2698 002c 1800     		movs	r0, r3
 2699 002e FFF7FEFF 		bl	Cy_SysLib_AssertFailed
 2700              	.L162:
1042:Generated_Source\PSoC6\pdl\drivers\peripheral\prot/cy_prot.c ****     CY_ASSERT_L3(CY_PROT_IS_PROG_SL_PERM_VALID(userPermission));
 2701              		.loc 1 1042 0 is_stmt 1
 2702 0032 7B1C     		adds	r3, r7, #1
 2703 0034 1B78     		ldrb	r3, [r3]
 2704 0036 002B     		cmp	r3, #0
 2705 0038 11D0     		beq	.L163
 2706              		.loc 1 1042 0 is_stmt 0 discriminator 1
 2707 003a 7B1C     		adds	r3, r7, #1
 2708 003c 1B78     		ldrb	r3, [r3]
 2709 003e 012B     		cmp	r3, #1
 2710 0040 0DD0     		beq	.L163
 2711              		.loc 1 1042 0 discriminator 2
 2712 0042 7B1C     		adds	r3, r7, #1
 2713 0044 1B78     		ldrb	r3, [r3]
 2714 0046 022B     		cmp	r3, #2
 2715 0048 09D0     		beq	.L163
 2716              		.loc 1 1042 0 discriminator 3
 2717 004a 7B1C     		adds	r3, r7, #1
 2718 004c 1B78     		ldrb	r3, [r3]
 2719 004e 032B     		cmp	r3, #3
 2720 0050 05D0     		beq	.L163
 2721              		.loc 1 1042 0 discriminator 4
 2722 0052 1A4A     		ldr	r2, .L166+8
 2723 0054 184B     		ldr	r3, .L166+4
 2724 0056 1100     		movs	r1, r2
ARM GAS  C:\Users\JC\AppData\Local\Temp\ccU1E72d.s 			page 68


 2725 0058 1800     		movs	r0, r3
 2726 005a FFF7FEFF 		bl	Cy_SysLib_AssertFailed
 2727              	.L163:
1043:Generated_Source\PSoC6\pdl\drivers\peripheral\prot/cy_prot.c ****     CY_ASSERT_L3(CY_PROT_IS_PROG_SL_PERM_VALID(privPermission));
 2728              		.loc 1 1043 0 is_stmt 1
 2729 005e 3B00     		movs	r3, r7
 2730 0060 1B78     		ldrb	r3, [r3]
 2731 0062 002B     		cmp	r3, #0
 2732 0064 11D0     		beq	.L164
 2733              		.loc 1 1043 0 is_stmt 0 discriminator 1
 2734 0066 3B00     		movs	r3, r7
 2735 0068 1B78     		ldrb	r3, [r3]
 2736 006a 012B     		cmp	r3, #1
 2737 006c 0DD0     		beq	.L164
 2738              		.loc 1 1043 0 discriminator 2
 2739 006e 3B00     		movs	r3, r7
 2740 0070 1B78     		ldrb	r3, [r3]
 2741 0072 022B     		cmp	r3, #2
 2742 0074 09D0     		beq	.L164
 2743              		.loc 1 1043 0 discriminator 3
 2744 0076 3B00     		movs	r3, r7
 2745 0078 1B78     		ldrb	r3, [r3]
 2746 007a 032B     		cmp	r3, #3
 2747 007c 05D0     		beq	.L164
 2748              		.loc 1 1043 0 discriminator 4
 2749 007e 104A     		ldr	r2, .L166+12
 2750 0080 0D4B     		ldr	r3, .L166+4
 2751 0082 1100     		movs	r1, r2
 2752 0084 1800     		movs	r0, r3
 2753 0086 FFF7FEFF 		bl	Cy_SysLib_AssertFailed
 2754              	.L164:
1044:Generated_Source\PSoC6\pdl\drivers\peripheral\prot/cy_prot.c **** 
1045:Generated_Source\PSoC6\pdl\drivers\peripheral\prot/cy_prot.c ****     return (Prot_ConfigPpuAtt(PERI_MS_PPU_PR_SL_ATT(base), pcMask, userPermission, privPermission, 
 2755              		.loc 1 1045 0 is_stmt 1
 2756 008a 7B68     		ldr	r3, [r7, #4]
 2757 008c 1033     		adds	r3, r3, #16
 2758 008e 1800     		movs	r0, r3
 2759 0090 3B00     		movs	r3, r7
 2760 0092 1C78     		ldrb	r4, [r3]
 2761 0094 7B1C     		adds	r3, r7, #1
 2762 0096 1A78     		ldrb	r2, [r3]
 2763 0098 BB1C     		adds	r3, r7, #2
 2764 009a 1988     		ldrh	r1, [r3]
 2765 009c 1823     		movs	r3, #24
 2766 009e FB18     		adds	r3, r7, r3
 2767 00a0 1B78     		ldrb	r3, [r3]
 2768 00a2 0093     		str	r3, [sp]
 2769 00a4 2300     		movs	r3, r4
 2770 00a6 FFF7FEFF 		bl	Prot_ConfigPpuAtt
 2771 00aa 0300     		movs	r3, r0
1046:Generated_Source\PSoC6\pdl\drivers\peripheral\prot/cy_prot.c **** }
 2772              		.loc 1 1046 0
 2773 00ac 1800     		movs	r0, r3
 2774 00ae BD46     		mov	sp, r7
 2775 00b0 03B0     		add	sp, sp, #12
 2776              		@ sp needed
 2777 00b2 90BD     		pop	{r4, r7, pc}
ARM GAS  C:\Users\JC\AppData\Local\Temp\ccU1E72d.s 			page 69


 2778              	.L167:
 2779              		.align	2
 2780              	.L166:
 2781 00b4 11040000 		.word	1041
 2782 00b8 00000000 		.word	.LC1
 2783 00bc 12040000 		.word	1042
 2784 00c0 13040000 		.word	1043
 2785              		.cfi_endproc
 2786              	.LFE63:
 2787              		.size	Cy_Prot_ConfigPpuProgSlaveAtt, .-Cy_Prot_ConfigPpuProgSlaveAtt
 2788              		.section	.text.Cy_Prot_EnablePpuProgSlaveRegion,"ax",%progbits
 2789              		.align	2
 2790              		.global	Cy_Prot_EnablePpuProgSlaveRegion
 2791              		.code	16
 2792              		.thumb_func
 2793              		.type	Cy_Prot_EnablePpuProgSlaveRegion, %function
 2794              	Cy_Prot_EnablePpuProgSlaveRegion:
 2795              	.LFB64:
1047:Generated_Source\PSoC6\pdl\drivers\peripheral\prot/cy_prot.c **** 
1048:Generated_Source\PSoC6\pdl\drivers\peripheral\prot/cy_prot.c **** 
1049:Generated_Source\PSoC6\pdl\drivers\peripheral\prot/cy_prot.c **** /*******************************************************************************
1050:Generated_Source\PSoC6\pdl\drivers\peripheral\prot/cy_prot.c **** * Function Name: Cy_Prot_EnablePpuProgSlaveRegion
1051:Generated_Source\PSoC6\pdl\drivers\peripheral\prot/cy_prot.c **** ****************************************************************************//**
1052:Generated_Source\PSoC6\pdl\drivers\peripheral\prot/cy_prot.c **** *
1053:Generated_Source\PSoC6\pdl\drivers\peripheral\prot/cy_prot.c **** * Enables the Slave PPU PROG structure.
1054:Generated_Source\PSoC6\pdl\drivers\peripheral\prot/cy_prot.c **** *
1055:Generated_Source\PSoC6\pdl\drivers\peripheral\prot/cy_prot.c **** * This is the PPU PROG slave-structure enable function. The PPU PROG protection 
1056:Generated_Source\PSoC6\pdl\drivers\peripheral\prot/cy_prot.c **** * settings will take effect after a successful completion of this function call.
1057:Generated_Source\PSoC6\pdl\drivers\peripheral\prot/cy_prot.c **** *
1058:Generated_Source\PSoC6\pdl\drivers\peripheral\prot/cy_prot.c **** * \note This function is applicable for CPUSS ver_2 only.
1059:Generated_Source\PSoC6\pdl\drivers\peripheral\prot/cy_prot.c **** *
1060:Generated_Source\PSoC6\pdl\drivers\peripheral\prot/cy_prot.c **** * \param base
1061:Generated_Source\PSoC6\pdl\drivers\peripheral\prot/cy_prot.c **** * The base address for the protection unit structure is being configured. 
1062:Generated_Source\PSoC6\pdl\drivers\peripheral\prot/cy_prot.c **** *
1063:Generated_Source\PSoC6\pdl\drivers\peripheral\prot/cy_prot.c **** * \return
1064:Generated_Source\PSoC6\pdl\drivers\peripheral\prot/cy_prot.c **** * The status of the function call.
1065:Generated_Source\PSoC6\pdl\drivers\peripheral\prot/cy_prot.c **** *
1066:Generated_Source\PSoC6\pdl\drivers\peripheral\prot/cy_prot.c **** *   Status              | Description
1067:Generated_Source\PSoC6\pdl\drivers\peripheral\prot/cy_prot.c **** * ----------------------| ---------------------------------------
1068:Generated_Source\PSoC6\pdl\drivers\peripheral\prot/cy_prot.c **** * CY_PROT_SUCCESS       | The structure was enabled.
1069:Generated_Source\PSoC6\pdl\drivers\peripheral\prot/cy_prot.c **** * CY_PROT_FAILURE       | The structure is disabled and possibly locked.
1070:Generated_Source\PSoC6\pdl\drivers\peripheral\prot/cy_prot.c **** * CY_PROT_INVALID_STATE | The function was called on the device with an unsupported PERI HW version
1071:Generated_Source\PSoC6\pdl\drivers\peripheral\prot/cy_prot.c **** *
1072:Generated_Source\PSoC6\pdl\drivers\peripheral\prot/cy_prot.c **** * \funcusage
1073:Generated_Source\PSoC6\pdl\drivers\peripheral\prot/cy_prot.c **** * \ref Cy_Prot_ConfigPpuProgSlaveAtt
1074:Generated_Source\PSoC6\pdl\drivers\peripheral\prot/cy_prot.c **** *
1075:Generated_Source\PSoC6\pdl\drivers\peripheral\prot/cy_prot.c **** *******************************************************************************/
1076:Generated_Source\PSoC6\pdl\drivers\peripheral\prot/cy_prot.c **** cy_en_prot_status_t Cy_Prot_EnablePpuProgSlaveRegion(PERI_MS_PPU_PR_Type* base)
1077:Generated_Source\PSoC6\pdl\drivers\peripheral\prot/cy_prot.c **** {   
 2796              		.loc 1 1077 0
 2797              		.cfi_startproc
 2798              		@ args = 0, pretend = 0, frame = 16
 2799              		@ frame_needed = 1, uses_anonymous_args = 0
 2800 0000 80B5     		push	{r7, lr}
 2801              		.cfi_def_cfa_offset 8
 2802              		.cfi_offset 7, -8
 2803              		.cfi_offset 14, -4
ARM GAS  C:\Users\JC\AppData\Local\Temp\ccU1E72d.s 			page 70


 2804 0002 84B0     		sub	sp, sp, #16
 2805              		.cfi_def_cfa_offset 24
 2806 0004 00AF     		add	r7, sp, #0
 2807              		.cfi_def_cfa_register 7
 2808 0006 7860     		str	r0, [r7, #4]
1078:Generated_Source\PSoC6\pdl\drivers\peripheral\prot/cy_prot.c ****     cy_en_prot_status_t status = CY_PROT_INVALID_STATE;
 2809              		.loc 1 1078 0
 2810 0008 144B     		ldr	r3, .L174
 2811 000a FB60     		str	r3, [r7, #12]
1079:Generated_Source\PSoC6\pdl\drivers\peripheral\prot/cy_prot.c ****     
1080:Generated_Source\PSoC6\pdl\drivers\peripheral\prot/cy_prot.c ****     CY_ASSERT_L1(NULL != base);
 2812              		.loc 1 1080 0
 2813 000c 7B68     		ldr	r3, [r7, #4]
 2814 000e 002B     		cmp	r3, #0
 2815 0010 06D1     		bne	.L169
 2816              		.loc 1 1080 0 is_stmt 0 discriminator 1
 2817 0012 8723     		movs	r3, #135
 2818 0014 DA00     		lsls	r2, r3, #3
 2819 0016 124B     		ldr	r3, .L174+4
 2820 0018 1100     		movs	r1, r2
 2821 001a 1800     		movs	r0, r3
 2822 001c FFF7FEFF 		bl	Cy_SysLib_AssertFailed
 2823              	.L169:
1081:Generated_Source\PSoC6\pdl\drivers\peripheral\prot/cy_prot.c ****     
1082:Generated_Source\PSoC6\pdl\drivers\peripheral\prot/cy_prot.c ****     if (!CY_PERI_V1)
 2824              		.loc 1 1082 0 is_stmt 1
 2825 0020 104B     		ldr	r3, .L174+8
 2826 0022 1B68     		ldr	r3, [r3]
 2827 0024 2F22     		movs	r2, #47
 2828 0026 9B5C     		ldrb	r3, [r3, r2]
 2829 0028 012B     		cmp	r3, #1
 2830 002a 11D0     		beq	.L170
1083:Generated_Source\PSoC6\pdl\drivers\peripheral\prot/cy_prot.c ****     {
1084:Generated_Source\PSoC6\pdl\drivers\peripheral\prot/cy_prot.c ****         PERI_MS_PPU_PR_SL_SIZE(base) = 
1085:Generated_Source\PSoC6\pdl\drivers\peripheral\prot/cy_prot.c ****         _CLR_SET_FLD32U((PERI_MS_PPU_PR_SL_SIZE(base)), PERI_MS_PPU_PR_V2_SL_SIZE_VALID, CY_PROT_ST
 2831              		.loc 1 1085 0
 2832 002c 7B68     		ldr	r3, [r7, #4]
 2833 002e 5B68     		ldr	r3, [r3, #4]
 2834 0030 8022     		movs	r2, #128
 2835 0032 1206     		lsls	r2, r2, #24
 2836 0034 1A43     		orrs	r2, r3
1084:Generated_Source\PSoC6\pdl\drivers\peripheral\prot/cy_prot.c ****         _CLR_SET_FLD32U((PERI_MS_PPU_PR_SL_SIZE(base)), PERI_MS_PPU_PR_V2_SL_SIZE_VALID, CY_PROT_ST
 2837              		.loc 1 1084 0
 2838 0036 7B68     		ldr	r3, [r7, #4]
 2839 0038 5A60     		str	r2, [r3, #4]
1086:Generated_Source\PSoC6\pdl\drivers\peripheral\prot/cy_prot.c ****         
1087:Generated_Source\PSoC6\pdl\drivers\peripheral\prot/cy_prot.c ****         status = (_FLD2VAL(PERI_MS_PPU_PR_V2_SL_SIZE_VALID, PERI_MS_PPU_PR_SL_SIZE(base)) != CY_PRO
 2840              		.loc 1 1087 0
 2841 003a 7B68     		ldr	r3, [r7, #4]
 2842 003c 5B68     		ldr	r3, [r3, #4]
 2843 003e DB0F     		lsrs	r3, r3, #31
 2844 0040 DB07     		lsls	r3, r3, #31
 2845 0042 DB0F     		lsrs	r3, r3, #31
 2846 0044 012B     		cmp	r3, #1
 2847 0046 01D0     		beq	.L171
 2848              		.loc 1 1087 0 is_stmt 0 discriminator 1
 2849 0048 074B     		ldr	r3, .L174+12
ARM GAS  C:\Users\JC\AppData\Local\Temp\ccU1E72d.s 			page 71


 2850 004a 00E0     		b	.L172
 2851              	.L171:
 2852              		.loc 1 1087 0 discriminator 2
 2853 004c 0023     		movs	r3, #0
 2854              	.L172:
 2855              		.loc 1 1087 0 discriminator 4
 2856 004e FB60     		str	r3, [r7, #12]
 2857              	.L170:
1088:Generated_Source\PSoC6\pdl\drivers\peripheral\prot/cy_prot.c ****         CY_PROT_FAILURE : CY_PROT_SUCCESS;
1089:Generated_Source\PSoC6\pdl\drivers\peripheral\prot/cy_prot.c ****     }
1090:Generated_Source\PSoC6\pdl\drivers\peripheral\prot/cy_prot.c ****     
1091:Generated_Source\PSoC6\pdl\drivers\peripheral\prot/cy_prot.c ****     return status;
 2858              		.loc 1 1091 0 is_stmt 1
 2859 0050 FB68     		ldr	r3, [r7, #12]
1092:Generated_Source\PSoC6\pdl\drivers\peripheral\prot/cy_prot.c **** }
 2860              		.loc 1 1092 0
 2861 0052 1800     		movs	r0, r3
 2862 0054 BD46     		mov	sp, r7
 2863 0056 04B0     		add	sp, sp, #16
 2864              		@ sp needed
 2865 0058 80BD     		pop	{r7, pc}
 2866              	.L175:
 2867 005a C046     		.align	2
 2868              	.L174:
 2869 005c 0200C200 		.word	12713986
 2870 0060 00000000 		.word	.LC1
 2871 0064 00000000 		.word	cy_device
 2872 0068 0300C200 		.word	12713987
 2873              		.cfi_endproc
 2874              	.LFE64:
 2875              		.size	Cy_Prot_EnablePpuProgSlaveRegion, .-Cy_Prot_EnablePpuProgSlaveRegion
 2876              		.section	.text.Cy_Prot_DisablePpuProgSlaveRegion,"ax",%progbits
 2877              		.align	2
 2878              		.global	Cy_Prot_DisablePpuProgSlaveRegion
 2879              		.code	16
 2880              		.thumb_func
 2881              		.type	Cy_Prot_DisablePpuProgSlaveRegion, %function
 2882              	Cy_Prot_DisablePpuProgSlaveRegion:
 2883              	.LFB65:
1093:Generated_Source\PSoC6\pdl\drivers\peripheral\prot/cy_prot.c **** 
1094:Generated_Source\PSoC6\pdl\drivers\peripheral\prot/cy_prot.c **** 
1095:Generated_Source\PSoC6\pdl\drivers\peripheral\prot/cy_prot.c **** /*******************************************************************************
1096:Generated_Source\PSoC6\pdl\drivers\peripheral\prot/cy_prot.c **** * Function Name: Cy_Prot_DisablePpuProgSlaveRegion
1097:Generated_Source\PSoC6\pdl\drivers\peripheral\prot/cy_prot.c **** ****************************************************************************//**
1098:Generated_Source\PSoC6\pdl\drivers\peripheral\prot/cy_prot.c **** *
1099:Generated_Source\PSoC6\pdl\drivers\peripheral\prot/cy_prot.c **** * Disables the Slave PPU PROG structure.
1100:Generated_Source\PSoC6\pdl\drivers\peripheral\prot/cy_prot.c **** *
1101:Generated_Source\PSoC6\pdl\drivers\peripheral\prot/cy_prot.c **** * This is the PPU PROG slave-structure disable function. The PPU PROG protection 
1102:Generated_Source\PSoC6\pdl\drivers\peripheral\prot/cy_prot.c **** * settings will seize to take effect after successful completion of this 
1103:Generated_Source\PSoC6\pdl\drivers\peripheral\prot/cy_prot.c **** * function call.
1104:Generated_Source\PSoC6\pdl\drivers\peripheral\prot/cy_prot.c **** *
1105:Generated_Source\PSoC6\pdl\drivers\peripheral\prot/cy_prot.c **** * \note This function is applicable for CPUSS ver_2 only.
1106:Generated_Source\PSoC6\pdl\drivers\peripheral\prot/cy_prot.c **** *
1107:Generated_Source\PSoC6\pdl\drivers\peripheral\prot/cy_prot.c **** * \param base
1108:Generated_Source\PSoC6\pdl\drivers\peripheral\prot/cy_prot.c **** * The base address for the protection unit structure is being configured. 
1109:Generated_Source\PSoC6\pdl\drivers\peripheral\prot/cy_prot.c **** *
1110:Generated_Source\PSoC6\pdl\drivers\peripheral\prot/cy_prot.c **** * \return
ARM GAS  C:\Users\JC\AppData\Local\Temp\ccU1E72d.s 			page 72


1111:Generated_Source\PSoC6\pdl\drivers\peripheral\prot/cy_prot.c **** * The status of the function call.
1112:Generated_Source\PSoC6\pdl\drivers\peripheral\prot/cy_prot.c **** *
1113:Generated_Source\PSoC6\pdl\drivers\peripheral\prot/cy_prot.c **** *   Status              | Description
1114:Generated_Source\PSoC6\pdl\drivers\peripheral\prot/cy_prot.c **** * ----------------------| ---------------------------------------
1115:Generated_Source\PSoC6\pdl\drivers\peripheral\prot/cy_prot.c **** * CY_PROT_SUCCESS       | The slave PPU PROG structure was disabled.
1116:Generated_Source\PSoC6\pdl\drivers\peripheral\prot/cy_prot.c **** * CY_PROT_FAILURE       | The structure is enabled and possibly locked.
1117:Generated_Source\PSoC6\pdl\drivers\peripheral\prot/cy_prot.c **** * CY_PROT_INVALID_STATE | The function was called on the device with an unsupported PERI HW version
1118:Generated_Source\PSoC6\pdl\drivers\peripheral\prot/cy_prot.c **** *
1119:Generated_Source\PSoC6\pdl\drivers\peripheral\prot/cy_prot.c **** * \funcusage
1120:Generated_Source\PSoC6\pdl\drivers\peripheral\prot/cy_prot.c **** * \snippet prot/1.20/snippet/main.c snippet_Cy_Prot_DisablePpuProgSlaveRegion
1121:Generated_Source\PSoC6\pdl\drivers\peripheral\prot/cy_prot.c **** *
1122:Generated_Source\PSoC6\pdl\drivers\peripheral\prot/cy_prot.c **** *******************************************************************************/
1123:Generated_Source\PSoC6\pdl\drivers\peripheral\prot/cy_prot.c **** cy_en_prot_status_t Cy_Prot_DisablePpuProgSlaveRegion(PERI_MS_PPU_PR_Type* base)
1124:Generated_Source\PSoC6\pdl\drivers\peripheral\prot/cy_prot.c **** {
 2884              		.loc 1 1124 0
 2885              		.cfi_startproc
 2886              		@ args = 0, pretend = 0, frame = 16
 2887              		@ frame_needed = 1, uses_anonymous_args = 0
 2888 0000 80B5     		push	{r7, lr}
 2889              		.cfi_def_cfa_offset 8
 2890              		.cfi_offset 7, -8
 2891              		.cfi_offset 14, -4
 2892 0002 84B0     		sub	sp, sp, #16
 2893              		.cfi_def_cfa_offset 24
 2894 0004 00AF     		add	r7, sp, #0
 2895              		.cfi_def_cfa_register 7
 2896 0006 7860     		str	r0, [r7, #4]
1125:Generated_Source\PSoC6\pdl\drivers\peripheral\prot/cy_prot.c ****     cy_en_prot_status_t status = CY_PROT_INVALID_STATE;
 2897              		.loc 1 1125 0
 2898 0008 124B     		ldr	r3, .L182
 2899 000a FB60     		str	r3, [r7, #12]
1126:Generated_Source\PSoC6\pdl\drivers\peripheral\prot/cy_prot.c ****     
1127:Generated_Source\PSoC6\pdl\drivers\peripheral\prot/cy_prot.c ****     CY_ASSERT_L1(NULL != base);
 2900              		.loc 1 1127 0
 2901 000c 7B68     		ldr	r3, [r7, #4]
 2902 000e 002B     		cmp	r3, #0
 2903 0010 05D1     		bne	.L177
 2904              		.loc 1 1127 0 is_stmt 0 discriminator 1
 2905 0012 114A     		ldr	r2, .L182+4
 2906 0014 114B     		ldr	r3, .L182+8
 2907 0016 1100     		movs	r1, r2
 2908 0018 1800     		movs	r0, r3
 2909 001a FFF7FEFF 		bl	Cy_SysLib_AssertFailed
 2910              	.L177:
1128:Generated_Source\PSoC6\pdl\drivers\peripheral\prot/cy_prot.c ****     
1129:Generated_Source\PSoC6\pdl\drivers\peripheral\prot/cy_prot.c ****     if (!CY_PERI_V1)
 2911              		.loc 1 1129 0 is_stmt 1
 2912 001e 104B     		ldr	r3, .L182+12
 2913 0020 1B68     		ldr	r3, [r3]
 2914 0022 2F22     		movs	r2, #47
 2915 0024 9B5C     		ldrb	r3, [r3, r2]
 2916 0026 012B     		cmp	r3, #1
 2917 0028 0ED0     		beq	.L178
1130:Generated_Source\PSoC6\pdl\drivers\peripheral\prot/cy_prot.c ****     {
1131:Generated_Source\PSoC6\pdl\drivers\peripheral\prot/cy_prot.c ****         PERI_MS_PPU_PR_SL_SIZE(base) = 
1132:Generated_Source\PSoC6\pdl\drivers\peripheral\prot/cy_prot.c ****         _CLR_SET_FLD32U((PERI_MS_PPU_PR_SL_SIZE(base)), PERI_MS_PPU_PR_V2_SL_SIZE_VALID, CY_PROT_ST
 2918              		.loc 1 1132 0
ARM GAS  C:\Users\JC\AppData\Local\Temp\ccU1E72d.s 			page 73


 2919 002a 7B68     		ldr	r3, [r7, #4]
 2920 002c 5B68     		ldr	r3, [r3, #4]
 2921 002e 5B00     		lsls	r3, r3, #1
 2922 0030 5A08     		lsrs	r2, r3, #1
1131:Generated_Source\PSoC6\pdl\drivers\peripheral\prot/cy_prot.c ****         _CLR_SET_FLD32U((PERI_MS_PPU_PR_SL_SIZE(base)), PERI_MS_PPU_PR_V2_SL_SIZE_VALID, CY_PROT_ST
 2923              		.loc 1 1131 0
 2924 0032 7B68     		ldr	r3, [r7, #4]
 2925 0034 5A60     		str	r2, [r3, #4]
1133:Generated_Source\PSoC6\pdl\drivers\peripheral\prot/cy_prot.c **** 
1134:Generated_Source\PSoC6\pdl\drivers\peripheral\prot/cy_prot.c ****         status = (_FLD2VAL(PERI_MS_PPU_PR_V2_SL_SIZE_VALID, PERI_MS_PPU_PR_SL_SIZE(base)) != CY_PRO
 2926              		.loc 1 1134 0
 2927 0036 7B68     		ldr	r3, [r7, #4]
 2928 0038 5B68     		ldr	r3, [r3, #4]
 2929 003a DB0F     		lsrs	r3, r3, #31
 2930 003c DB07     		lsls	r3, r3, #31
 2931 003e 01D5     		bpl	.L179
 2932              		.loc 1 1134 0 is_stmt 0 discriminator 1
 2933 0040 084B     		ldr	r3, .L182+16
 2934 0042 00E0     		b	.L180
 2935              	.L179:
 2936              		.loc 1 1134 0 discriminator 2
 2937 0044 0023     		movs	r3, #0
 2938              	.L180:
 2939              		.loc 1 1134 0 discriminator 4
 2940 0046 FB60     		str	r3, [r7, #12]
 2941              	.L178:
1135:Generated_Source\PSoC6\pdl\drivers\peripheral\prot/cy_prot.c ****         CY_PROT_FAILURE : CY_PROT_SUCCESS;
1136:Generated_Source\PSoC6\pdl\drivers\peripheral\prot/cy_prot.c ****     }
1137:Generated_Source\PSoC6\pdl\drivers\peripheral\prot/cy_prot.c ****     
1138:Generated_Source\PSoC6\pdl\drivers\peripheral\prot/cy_prot.c ****     return status;
 2942              		.loc 1 1138 0 is_stmt 1
 2943 0048 FB68     		ldr	r3, [r7, #12]
1139:Generated_Source\PSoC6\pdl\drivers\peripheral\prot/cy_prot.c **** }
 2944              		.loc 1 1139 0
 2945 004a 1800     		movs	r0, r3
 2946 004c BD46     		mov	sp, r7
 2947 004e 04B0     		add	sp, sp, #16
 2948              		@ sp needed
 2949 0050 80BD     		pop	{r7, pc}
 2950              	.L183:
 2951 0052 C046     		.align	2
 2952              	.L182:
 2953 0054 0200C200 		.word	12713986
 2954 0058 67040000 		.word	1127
 2955 005c 00000000 		.word	.LC1
 2956 0060 00000000 		.word	cy_device
 2957 0064 0300C200 		.word	12713987
 2958              		.cfi_endproc
 2959              	.LFE65:
 2960              		.size	Cy_Prot_DisablePpuProgSlaveRegion, .-Cy_Prot_DisablePpuProgSlaveRegion
 2961              		.section	.text.Cy_Prot_ConfigPpuFixedMasterAtt,"ax",%progbits
 2962              		.align	2
 2963              		.global	Cy_Prot_ConfigPpuFixedMasterAtt
 2964              		.code	16
 2965              		.thumb_func
 2966              		.type	Cy_Prot_ConfigPpuFixedMasterAtt, %function
 2967              	Cy_Prot_ConfigPpuFixedMasterAtt:
ARM GAS  C:\Users\JC\AppData\Local\Temp\ccU1E72d.s 			page 74


 2968              	.LFB66:
1140:Generated_Source\PSoC6\pdl\drivers\peripheral\prot/cy_prot.c **** 
1141:Generated_Source\PSoC6\pdl\drivers\peripheral\prot/cy_prot.c **** 
1142:Generated_Source\PSoC6\pdl\drivers\peripheral\prot/cy_prot.c **** /*******************************************************************************
1143:Generated_Source\PSoC6\pdl\drivers\peripheral\prot/cy_prot.c **** * Function Name: Cy_Prot_ConfigPpuFixedMasterAtt
1144:Generated_Source\PSoC6\pdl\drivers\peripheral\prot/cy_prot.c **** ****************************************************************************//**
1145:Generated_Source\PSoC6\pdl\drivers\peripheral\prot/cy_prot.c **** *
1146:Generated_Source\PSoC6\pdl\drivers\peripheral\prot/cy_prot.c **** * Configures the protection structure with its protection attributes of the
1147:Generated_Source\PSoC6\pdl\drivers\peripheral\prot/cy_prot.c **** * Fixed Peripheral Protection Unit (PPU FIXED) master. 
1148:Generated_Source\PSoC6\pdl\drivers\peripheral\prot/cy_prot.c **** *
1149:Generated_Source\PSoC6\pdl\drivers\peripheral\prot/cy_prot.c **** * This function configures the master structure governing the corresponding slave
1150:Generated_Source\PSoC6\pdl\drivers\peripheral\prot/cy_prot.c **** * structure pair. It is a mechanism to protect the slave PPU FIXED structure.
