ARM GAS  C:\Users\JC\AppData\Local\Temp\ccU1E72d.s 			page 1


   1              		.syntax unified
   2              		.cpu cortex-m0plus
   3              		.fpu softvfp
   4              		.eabi_attribute 20, 1
   5              		.eabi_attribute 21, 1
   6              		.eabi_attribute 23, 3
   7              		.eabi_attribute 24, 1
   8              		.eabi_attribute 25, 1
   9              		.eabi_attribute 26, 1
  10              		.eabi_attribute 30, 6
  11              		.eabi_attribute 34, 0
  12              		.eabi_attribute 18, 4
  13              		.thumb
  14              		.syntax unified
  15              		.file	"cy_prot.c"
  16              		.text
  17              	.Ltext0:
  18              		.cfi_sections	.debug_frame
  19              		.section	.rodata
  20              		.align	2
  21              	.LC1:
  22 0000 47656E65 		.ascii	"Generated_Source\\PSoC6\\pdl\\drivers\\peripheral\\"
  22      72617465 
  22      645F536F 
  22      75726365 
  22      5C50536F 
  23 002e 70726F74 		.ascii	"prot\\cy_prot.c\000"
  23      5C63795F 
  23      70726F74 
  23      2E6300
  24              		.section	.text.Cy_Prot_ConfigBusMaster,"ax",%progbits
  25              		.align	2
  26              		.global	Cy_Prot_ConfigBusMaster
  27              		.code	16
  28              		.thumb_func
  29              		.type	Cy_Prot_ConfigBusMaster, %function
  30              	Cy_Prot_ConfigBusMaster:
  31              	.LFB47:
  32              		.file 1 "Generated_Source\\PSoC6\\pdl\\drivers\\peripheral\\prot\\cy_prot.c"
   1:Generated_Source\PSoC6\pdl\drivers\peripheral\prot/cy_prot.c **** /***************************************************************************//**
   2:Generated_Source\PSoC6\pdl\drivers\peripheral\prot/cy_prot.c **** * \file cy_prot.c
   3:Generated_Source\PSoC6\pdl\drivers\peripheral\prot/cy_prot.c **** * \version 1.20
   4:Generated_Source\PSoC6\pdl\drivers\peripheral\prot/cy_prot.c **** *
   5:Generated_Source\PSoC6\pdl\drivers\peripheral\prot/cy_prot.c **** * \brief
   6:Generated_Source\PSoC6\pdl\drivers\peripheral\prot/cy_prot.c **** * Provides an API implementation of the Protection Unit driver
   7:Generated_Source\PSoC6\pdl\drivers\peripheral\prot/cy_prot.c **** *
   8:Generated_Source\PSoC6\pdl\drivers\peripheral\prot/cy_prot.c **** ********************************************************************************
   9:Generated_Source\PSoC6\pdl\drivers\peripheral\prot/cy_prot.c **** * \copyright
  10:Generated_Source\PSoC6\pdl\drivers\peripheral\prot/cy_prot.c **** * Copyright 2016-2018, Cypress Semiconductor Corporation. All rights reserved.
  11:Generated_Source\PSoC6\pdl\drivers\peripheral\prot/cy_prot.c **** * You may use this file only in accordance with the license, terms, conditions,
  12:Generated_Source\PSoC6\pdl\drivers\peripheral\prot/cy_prot.c **** * disclaimers, and limitations in the end user license agreement accompanying
  13:Generated_Source\PSoC6\pdl\drivers\peripheral\prot/cy_prot.c **** * the software package with which this file was provided.
  14:Generated_Source\PSoC6\pdl\drivers\peripheral\prot/cy_prot.c **** *******************************************************************************/
  15:Generated_Source\PSoC6\pdl\drivers\peripheral\prot/cy_prot.c **** 
  16:Generated_Source\PSoC6\pdl\drivers\peripheral\prot/cy_prot.c **** #include "cy_prot.h"
  17:Generated_Source\PSoC6\pdl\drivers\peripheral\prot/cy_prot.c **** 
  18:Generated_Source\PSoC6\pdl\drivers\peripheral\prot/cy_prot.c **** #if defined(__cplusplus)
ARM GAS  C:\Users\JC\AppData\Local\Temp\ccU1E72d.s 			page 2


  19:Generated_Source\PSoC6\pdl\drivers\peripheral\prot/cy_prot.c **** extern "C" {
  20:Generated_Source\PSoC6\pdl\drivers\peripheral\prot/cy_prot.c **** #endif
  21:Generated_Source\PSoC6\pdl\drivers\peripheral\prot/cy_prot.c **** 
  22:Generated_Source\PSoC6\pdl\drivers\peripheral\prot/cy_prot.c **** static bool Prot_IsSmpuStructDisabled(uint32_t smpuStcIndex);
  23:Generated_Source\PSoC6\pdl\drivers\peripheral\prot/cy_prot.c **** static bool Prot_IsPpuProgStructDisabled(uint32_t ppuStcIndex);
  24:Generated_Source\PSoC6\pdl\drivers\peripheral\prot/cy_prot.c **** static cy_en_prot_status_t Prot_ConfigPpuAtt(volatile uint32_t * reg, uint16_t pcMask, 
  25:Generated_Source\PSoC6\pdl\drivers\peripheral\prot/cy_prot.c ****                                        cy_en_prot_perm_t userPermission, cy_en_prot_perm_t privPerm
  26:Generated_Source\PSoC6\pdl\drivers\peripheral\prot/cy_prot.c **** 
  27:Generated_Source\PSoC6\pdl\drivers\peripheral\prot/cy_prot.c **** /* Define to enable all attributes for SMPU slave structure */
  28:Generated_Source\PSoC6\pdl\drivers\peripheral\prot/cy_prot.c **** #define PROT_SMPU_STRUCT_ATT0_ENABLE_ALL_MASK      (PROT_SMPU_SMPU_STRUCT_ATT0_UR_Msk | \
  29:Generated_Source\PSoC6\pdl\drivers\peripheral\prot/cy_prot.c ****                                                     PROT_SMPU_SMPU_STRUCT_ATT0_UW_Msk | \
  30:Generated_Source\PSoC6\pdl\drivers\peripheral\prot/cy_prot.c ****                                                     PROT_SMPU_SMPU_STRUCT_ATT0_UX_Msk | \
  31:Generated_Source\PSoC6\pdl\drivers\peripheral\prot/cy_prot.c ****                                                     PROT_SMPU_SMPU_STRUCT_ATT0_PR_Msk | \
  32:Generated_Source\PSoC6\pdl\drivers\peripheral\prot/cy_prot.c ****                                                     PROT_SMPU_SMPU_STRUCT_ATT0_PW_Msk | \
  33:Generated_Source\PSoC6\pdl\drivers\peripheral\prot/cy_prot.c ****                                                     PROT_SMPU_SMPU_STRUCT_ATT0_PX_Msk | \
  34:Generated_Source\PSoC6\pdl\drivers\peripheral\prot/cy_prot.c ****                                                     PROT_SMPU_SMPU_STRUCT_ATT0_NS_Msk)
  35:Generated_Source\PSoC6\pdl\drivers\peripheral\prot/cy_prot.c **** 
  36:Generated_Source\PSoC6\pdl\drivers\peripheral\prot/cy_prot.c ****  /* Define to enable all attributes for programmable PPU slave structure */
  37:Generated_Source\PSoC6\pdl\drivers\peripheral\prot/cy_prot.c **** #define PROT_PERI_PPU_PR_ATT0_ENABLE_ALL_MASK      (PERI_PPU_PR_ATT0_UR_Msk | \
  38:Generated_Source\PSoC6\pdl\drivers\peripheral\prot/cy_prot.c ****                                                     PERI_PPU_PR_ATT0_UW_Msk | \
  39:Generated_Source\PSoC6\pdl\drivers\peripheral\prot/cy_prot.c ****                                                     PERI_PPU_PR_ATT0_UX_Msk | \
  40:Generated_Source\PSoC6\pdl\drivers\peripheral\prot/cy_prot.c ****                                                     PERI_PPU_PR_ATT0_PR_Msk | \
  41:Generated_Source\PSoC6\pdl\drivers\peripheral\prot/cy_prot.c ****                                                     PERI_PPU_PR_ATT0_PW_Msk | \
  42:Generated_Source\PSoC6\pdl\drivers\peripheral\prot/cy_prot.c ****                                                     PERI_PPU_PR_ATT0_PX_Msk | \
  43:Generated_Source\PSoC6\pdl\drivers\peripheral\prot/cy_prot.c ****                                                     PERI_PPU_PR_ATT0_NS_Msk)
  44:Generated_Source\PSoC6\pdl\drivers\peripheral\prot/cy_prot.c **** 
  45:Generated_Source\PSoC6\pdl\drivers\peripheral\prot/cy_prot.c **** #define PROT_PERI_PPU_PROG_PC1_PC3_MASK            (0xffffffe0UL)  /* PC1 - PC3 bits mask */
  46:Generated_Source\PSoC6\pdl\drivers\peripheral\prot/cy_prot.c **** 
  47:Generated_Source\PSoC6\pdl\drivers\peripheral\prot/cy_prot.c **** /*******************************************************************************
  48:Generated_Source\PSoC6\pdl\drivers\peripheral\prot/cy_prot.c **** * Function Name: Cy_Prot_ConfigBusMaster
  49:Generated_Source\PSoC6\pdl\drivers\peripheral\prot/cy_prot.c **** ****************************************************************************//**
  50:Generated_Source\PSoC6\pdl\drivers\peripheral\prot/cy_prot.c **** *
  51:Generated_Source\PSoC6\pdl\drivers\peripheral\prot/cy_prot.c **** * Configures the allowed protection contexts, security (secure/non-secure)
  52:Generated_Source\PSoC6\pdl\drivers\peripheral\prot/cy_prot.c **** * and privilege level of the bus transaction created by the specified master.
  53:Generated_Source\PSoC6\pdl\drivers\peripheral\prot/cy_prot.c **** *
  54:Generated_Source\PSoC6\pdl\drivers\peripheral\prot/cy_prot.c **** * \note This function is applicable for both CPUSS ver_1 and ver_2.
  55:Generated_Source\PSoC6\pdl\drivers\peripheral\prot/cy_prot.c **** *
  56:Generated_Source\PSoC6\pdl\drivers\peripheral\prot/cy_prot.c **** * \param busMaster
  57:Generated_Source\PSoC6\pdl\drivers\peripheral\prot/cy_prot.c **** * Indicates which master needs to be configured. Refer to the CPUSS_MS_ID_X
  58:Generated_Source\PSoC6\pdl\drivers\peripheral\prot/cy_prot.c **** * defines in the device config header file.
  59:Generated_Source\PSoC6\pdl\drivers\peripheral\prot/cy_prot.c **** * 
  60:Generated_Source\PSoC6\pdl\drivers\peripheral\prot/cy_prot.c **** * \param privileged
  61:Generated_Source\PSoC6\pdl\drivers\peripheral\prot/cy_prot.c **** * Boolean to define the privilege level of all subsequent bus transfers.
  62:Generated_Source\PSoC6\pdl\drivers\peripheral\prot/cy_prot.c **** * True - privileged, False - not privileged.
  63:Generated_Source\PSoC6\pdl\drivers\peripheral\prot/cy_prot.c **** * Note that this is an inherited value. If not inherited, then this bit will 
  64:Generated_Source\PSoC6\pdl\drivers\peripheral\prot/cy_prot.c **** * be used.
  65:Generated_Source\PSoC6\pdl\drivers\peripheral\prot/cy_prot.c **** *
  66:Generated_Source\PSoC6\pdl\drivers\peripheral\prot/cy_prot.c **** * \param secure
  67:Generated_Source\PSoC6\pdl\drivers\peripheral\prot/cy_prot.c **** * Security setting for the master. True - Secure, False - Not secure.
  68:Generated_Source\PSoC6\pdl\drivers\peripheral\prot/cy_prot.c **** * 
  69:Generated_Source\PSoC6\pdl\drivers\peripheral\prot/cy_prot.c **** * \param pcMask
  70:Generated_Source\PSoC6\pdl\drivers\peripheral\prot/cy_prot.c **** * This is a 16 bit value of the allowed contexts, it is an OR'ed (|) field of the
  71:Generated_Source\PSoC6\pdl\drivers\peripheral\prot/cy_prot.c **** * provided defines in cy_prot.h. For example: (CY_PROT_PCMASK1 | CY_PROT_PCMASK3 | CY_PROT_PCMASK4)
  72:Generated_Source\PSoC6\pdl\drivers\peripheral\prot/cy_prot.c **** * \note The function accepts pcMask values from CY_PROT_PCMASK1 to CY_PROT_PCMASK15. 
  73:Generated_Source\PSoC6\pdl\drivers\peripheral\prot/cy_prot.c **** * But each device has its own number of available protection contexts. 
  74:Generated_Source\PSoC6\pdl\drivers\peripheral\prot/cy_prot.c **** * That number is defined by PERI_PC_NR in the config file.
  75:Generated_Source\PSoC6\pdl\drivers\peripheral\prot/cy_prot.c **** *
ARM GAS  C:\Users\JC\AppData\Local\Temp\ccU1E72d.s 			page 3


  76:Generated_Source\PSoC6\pdl\drivers\peripheral\prot/cy_prot.c **** * \return
  77:Generated_Source\PSoC6\pdl\drivers\peripheral\prot/cy_prot.c **** * Status of the function call.
  78:Generated_Source\PSoC6\pdl\drivers\peripheral\prot/cy_prot.c **** *
  79:Generated_Source\PSoC6\pdl\drivers\peripheral\prot/cy_prot.c **** *   Status               | Description
  80:Generated_Source\PSoC6\pdl\drivers\peripheral\prot/cy_prot.c **** *   ------------         | -----------
  81:Generated_Source\PSoC6\pdl\drivers\peripheral\prot/cy_prot.c **** *   CY_PROT_SUCCESS      | The function completed successfully.
  82:Generated_Source\PSoC6\pdl\drivers\peripheral\prot/cy_prot.c **** *   CY_PROT_FAILURE      | The resource is locked.
  83:Generated_Source\PSoC6\pdl\drivers\peripheral\prot/cy_prot.c **** *
  84:Generated_Source\PSoC6\pdl\drivers\peripheral\prot/cy_prot.c **** * \funcusage
  85:Generated_Source\PSoC6\pdl\drivers\peripheral\prot/cy_prot.c **** * \snippet prot/1.20/snippet/main.c snippet_Cy_Prot_ConfigBusMaster
  86:Generated_Source\PSoC6\pdl\drivers\peripheral\prot/cy_prot.c **** *
  87:Generated_Source\PSoC6\pdl\drivers\peripheral\prot/cy_prot.c **** *******************************************************************************/
  88:Generated_Source\PSoC6\pdl\drivers\peripheral\prot/cy_prot.c **** cy_en_prot_status_t Cy_Prot_ConfigBusMaster(en_prot_master_t busMaster, bool privileged, bool secur
  89:Generated_Source\PSoC6\pdl\drivers\peripheral\prot/cy_prot.c **** {
  33              		.loc 1 89 0
  34              		.cfi_startproc
  35              		@ args = 0, pretend = 0, frame = 24
  36              		@ frame_needed = 1, uses_anonymous_args = 0
  37 0000 90B5     		push	{r4, r7, lr}
  38              		.cfi_def_cfa_offset 12
  39              		.cfi_offset 4, -12
  40              		.cfi_offset 7, -8
  41              		.cfi_offset 14, -4
  42 0002 87B0     		sub	sp, sp, #28
  43              		.cfi_def_cfa_offset 40
  44 0004 00AF     		add	r7, sp, #0
  45              		.cfi_def_cfa_register 7
  46 0006 0400     		movs	r4, r0
  47 0008 0800     		movs	r0, r1
  48 000a 1100     		movs	r1, r2
  49 000c 3B60     		str	r3, [r7]
  50 000e FB1D     		adds	r3, r7, #7
  51 0010 221C     		adds	r2, r4, #0
  52 0012 1A70     		strb	r2, [r3]
  53 0014 BB1D     		adds	r3, r7, #6
  54 0016 021C     		adds	r2, r0, #0
  55 0018 1A70     		strb	r2, [r3]
  56 001a 7B1D     		adds	r3, r7, #5
  57 001c 0A1C     		adds	r2, r1, #0
  58 001e 1A70     		strb	r2, [r3]
  90:Generated_Source\PSoC6\pdl\drivers\peripheral\prot/cy_prot.c ****     cy_en_prot_status_t status = CY_PROT_SUCCESS;
  59              		.loc 1 90 0
  60 0020 0023     		movs	r3, #0
  61 0022 7B61     		str	r3, [r7, #20]
  91:Generated_Source\PSoC6\pdl\drivers\peripheral\prot/cy_prot.c ****     uint32_t regVal;
  92:Generated_Source\PSoC6\pdl\drivers\peripheral\prot/cy_prot.c ****     volatile uint32_t *addrMsCtl; /* addrMsCtl is pointer to a register that is volatile by 
  93:Generated_Source\PSoC6\pdl\drivers\peripheral\prot/cy_prot.c ****                                    * nature as can be changed outside of firmware control. 
  94:Generated_Source\PSoC6\pdl\drivers\peripheral\prot/cy_prot.c ****                                    */
  95:Generated_Source\PSoC6\pdl\drivers\peripheral\prot/cy_prot.c **** 
  96:Generated_Source\PSoC6\pdl\drivers\peripheral\prot/cy_prot.c ****     CY_ASSERT_L1(CY_PROT_IS_BUS_MASTER_VALID(busMaster));
  62              		.loc 1 96 0
  63 0024 1F4B     		ldr	r3, .L7
  64 0026 1B68     		ldr	r3, [r3]
  65 0028 9A6C     		ldr	r2, [r3, #72]
  66 002a FB1D     		adds	r3, r7, #7
  67 002c 1B78     		ldrb	r3, [r3]
  68 002e DA40     		lsrs	r2, r2, r3
ARM GAS  C:\Users\JC\AppData\Local\Temp\ccU1E72d.s 			page 4


  69 0030 1300     		movs	r3, r2
  70 0032 0122     		movs	r2, #1
  71 0034 1340     		ands	r3, r2
  72 0036 04D1     		bne	.L2
  73              		.loc 1 96 0 is_stmt 0 discriminator 1
  74 0038 1B4B     		ldr	r3, .L7+4
  75 003a 6021     		movs	r1, #96
  76 003c 1800     		movs	r0, r3
  77 003e FFF7FEFF 		bl	Cy_SysLib_AssertFailed
  78              	.L2:
  97:Generated_Source\PSoC6\pdl\drivers\peripheral\prot/cy_prot.c ****     CY_ASSERT_L2(CY_PROT_IS_PC_MASK_VALID(pcMask));
  79              		.loc 1 97 0 is_stmt 1
  80 0042 3B68     		ldr	r3, [r7]
  81 0044 DB0B     		lsrs	r3, r3, #15
  82 0046 DB03     		lsls	r3, r3, #15
  83 0048 04D0     		beq	.L3
  84              		.loc 1 97 0 is_stmt 0 discriminator 1
  85 004a 174B     		ldr	r3, .L7+4
  86 004c 6121     		movs	r1, #97
  87 004e 1800     		movs	r0, r3
  88 0050 FFF7FEFF 		bl	Cy_SysLib_AssertFailed
  89              	.L3:
  98:Generated_Source\PSoC6\pdl\drivers\peripheral\prot/cy_prot.c ****     
  99:Generated_Source\PSoC6\pdl\drivers\peripheral\prot/cy_prot.c ****     /* Get the address of Master x protection context control register (MSx_CTL) */
 100:Generated_Source\PSoC6\pdl\drivers\peripheral\prot/cy_prot.c ****     addrMsCtl = (uint32_t *)(CY_PROT_BASE + (uint32_t)((uint32_t)busMaster << CY_PROT_MSX_CTL_SHIFT
  90              		.loc 1 100 0 is_stmt 1
  91 0054 134B     		ldr	r3, .L7
  92 0056 1B68     		ldr	r3, [r3]
  93 0058 1A69     		ldr	r2, [r3, #16]
  94 005a FB1D     		adds	r3, r7, #7
  95 005c 1B78     		ldrb	r3, [r3]
  96 005e 9B00     		lsls	r3, r3, #2
  97 0060 D318     		adds	r3, r2, r3
  98 0062 3B61     		str	r3, [r7, #16]
 101:Generated_Source\PSoC6\pdl\drivers\peripheral\prot/cy_prot.c **** 
 102:Generated_Source\PSoC6\pdl\drivers\peripheral\prot/cy_prot.c ****     /* Get bitfields for MSx_CTL */
 103:Generated_Source\PSoC6\pdl\drivers\peripheral\prot/cy_prot.c ****     regVal = _VAL2FLD(PROT_SMPU_MS0_CTL_NS, !secure)   /* Security setting */
  99              		.loc 1 103 0
 100 0064 7B1D     		adds	r3, r7, #5
 101 0066 1B78     		ldrb	r3, [r3]
 102 0068 0122     		movs	r2, #1
 103 006a 5340     		eors	r3, r2
 104 006c DBB2     		uxtb	r3, r3
 105 006e 5B00     		lsls	r3, r3, #1
 106 0070 0222     		movs	r2, #2
 107 0072 1A40     		ands	r2, r3
 104:Generated_Source\PSoC6\pdl\drivers\peripheral\prot/cy_prot.c ****             | _VAL2FLD(PROT_SMPU_MS0_CTL_P, privileged) /* Privileged setting */
 108              		.loc 1 104 0
 109 0074 BB1D     		adds	r3, r7, #6
 110 0076 1B78     		ldrb	r3, [r3]
 111 0078 1A43     		orrs	r2, r3
 105:Generated_Source\PSoC6\pdl\drivers\peripheral\prot/cy_prot.c ****             | _VAL2FLD(PROT_SMPU_MS0_CTL_PC_MASK_15_TO_1, pcMask); /* Protection context mask */
 112              		.loc 1 105 0
 113 007a 3B68     		ldr	r3, [r7]
 114 007c 5B04     		lsls	r3, r3, #17
 103:Generated_Source\PSoC6\pdl\drivers\peripheral\prot/cy_prot.c ****             | _VAL2FLD(PROT_SMPU_MS0_CTL_P, privileged) /* Privileged setting */
 115              		.loc 1 103 0
ARM GAS  C:\Users\JC\AppData\Local\Temp\ccU1E72d.s 			page 5


 116 007e 1343     		orrs	r3, r2
 117 0080 FB60     		str	r3, [r7, #12]
 106:Generated_Source\PSoC6\pdl\drivers\peripheral\prot/cy_prot.c ****             
 107:Generated_Source\PSoC6\pdl\drivers\peripheral\prot/cy_prot.c ****     /* Set the value of MSx_CTL */
 108:Generated_Source\PSoC6\pdl\drivers\peripheral\prot/cy_prot.c ****     *addrMsCtl = regVal;
 118              		.loc 1 108 0
 119 0082 3B69     		ldr	r3, [r7, #16]
 120 0084 FA68     		ldr	r2, [r7, #12]
 121 0086 1A60     		str	r2, [r3]
 109:Generated_Source\PSoC6\pdl\drivers\peripheral\prot/cy_prot.c **** 
 110:Generated_Source\PSoC6\pdl\drivers\peripheral\prot/cy_prot.c ****     /* Check if the MSx_CTL register is successfully updated with the new register value. 
 111:Generated_Source\PSoC6\pdl\drivers\peripheral\prot/cy_prot.c ****      * The register will not be updated for the invalid master-protection context. 
 112:Generated_Source\PSoC6\pdl\drivers\peripheral\prot/cy_prot.c ****      */ 
 113:Generated_Source\PSoC6\pdl\drivers\peripheral\prot/cy_prot.c ****     status = (*addrMsCtl != regVal) ? CY_PROT_FAILURE : CY_PROT_SUCCESS;
 122              		.loc 1 113 0
 123 0088 3B69     		ldr	r3, [r7, #16]
 124 008a 1A68     		ldr	r2, [r3]
 125 008c FB68     		ldr	r3, [r7, #12]
 126 008e 9A42     		cmp	r2, r3
 127 0090 01D0     		beq	.L4
 128              		.loc 1 113 0 is_stmt 0 discriminator 1
 129 0092 064B     		ldr	r3, .L7+8
 130 0094 00E0     		b	.L5
 131              	.L4:
 132              		.loc 1 113 0 discriminator 2
 133 0096 0023     		movs	r3, #0
 134              	.L5:
 135              		.loc 1 113 0 discriminator 4
 136 0098 7B61     		str	r3, [r7, #20]
 114:Generated_Source\PSoC6\pdl\drivers\peripheral\prot/cy_prot.c ****     
 115:Generated_Source\PSoC6\pdl\drivers\peripheral\prot/cy_prot.c ****     return status;
 137              		.loc 1 115 0 is_stmt 1 discriminator 4
 138 009a 7B69     		ldr	r3, [r7, #20]
 116:Generated_Source\PSoC6\pdl\drivers\peripheral\prot/cy_prot.c **** }
 139              		.loc 1 116 0 discriminator 4
 140 009c 1800     		movs	r0, r3
 141 009e BD46     		mov	sp, r7
 142 00a0 07B0     		add	sp, sp, #28
 143              		@ sp needed
 144 00a2 90BD     		pop	{r4, r7, pc}
 145              	.L8:
 146              		.align	2
 147              	.L7:
 148 00a4 00000000 		.word	cy_device
 149 00a8 00000000 		.word	.LC1
 150 00ac 0300C200 		.word	12713987
 151              		.cfi_endproc
 152              	.LFE47:
 153              		.size	Cy_Prot_ConfigBusMaster, .-Cy_Prot_ConfigBusMaster
 154              		.section	.text.Cy_Prot_SetActivePC,"ax",%progbits
 155              		.align	2
 156              		.global	Cy_Prot_SetActivePC
 157              		.code	16
 158              		.thumb_func
 159              		.type	Cy_Prot_SetActivePC, %function
 160              	Cy_Prot_SetActivePC:
 161              	.LFB48:
ARM GAS  C:\Users\JC\AppData\Local\Temp\ccU1E72d.s 			page 6


 117:Generated_Source\PSoC6\pdl\drivers\peripheral\prot/cy_prot.c **** 
 118:Generated_Source\PSoC6\pdl\drivers\peripheral\prot/cy_prot.c **** 
 119:Generated_Source\PSoC6\pdl\drivers\peripheral\prot/cy_prot.c **** /*******************************************************************************
 120:Generated_Source\PSoC6\pdl\drivers\peripheral\prot/cy_prot.c **** * Function Name: Cy_Prot_SetActivePC
 121:Generated_Source\PSoC6\pdl\drivers\peripheral\prot/cy_prot.c **** ****************************************************************************//**
 122:Generated_Source\PSoC6\pdl\drivers\peripheral\prot/cy_prot.c **** *
 123:Generated_Source\PSoC6\pdl\drivers\peripheral\prot/cy_prot.c **** * Sets the current/active protection context of the specified bus master.
 124:Generated_Source\PSoC6\pdl\drivers\peripheral\prot/cy_prot.c **** * 
 125:Generated_Source\PSoC6\pdl\drivers\peripheral\prot/cy_prot.c **** * Allowed PC values are 1-15. If this value is not inherited from another bus 
 126:Generated_Source\PSoC6\pdl\drivers\peripheral\prot/cy_prot.c **** * master, the value set through this function is used.
 127:Generated_Source\PSoC6\pdl\drivers\peripheral\prot/cy_prot.c **** *
 128:Generated_Source\PSoC6\pdl\drivers\peripheral\prot/cy_prot.c **** * \note This function is applicable for both CPUSS ver_1 and ver_2.
 129:Generated_Source\PSoC6\pdl\drivers\peripheral\prot/cy_prot.c **** *
 130:Generated_Source\PSoC6\pdl\drivers\peripheral\prot/cy_prot.c **** * \param busMaster
 131:Generated_Source\PSoC6\pdl\drivers\peripheral\prot/cy_prot.c **** * The bus master to configure. Refer to the CPUSS_MS_ID_X defines in the device
 132:Generated_Source\PSoC6\pdl\drivers\peripheral\prot/cy_prot.c **** * config header file.
 133:Generated_Source\PSoC6\pdl\drivers\peripheral\prot/cy_prot.c **** * 
 134:Generated_Source\PSoC6\pdl\drivers\peripheral\prot/cy_prot.c **** * \param pc
 135:Generated_Source\PSoC6\pdl\drivers\peripheral\prot/cy_prot.c **** * Active protection context of the specified master \ref cy_en_prot_pc_t. 
 136:Generated_Source\PSoC6\pdl\drivers\peripheral\prot/cy_prot.c **** * \note that only those protection contexts allowed by the pcMask (which was 
 137:Generated_Source\PSoC6\pdl\drivers\peripheral\prot/cy_prot.c **** * configured in \ref Cy_Prot_ConfigBusMaster) will take effect. 
 138:Generated_Source\PSoC6\pdl\drivers\peripheral\prot/cy_prot.c **** * \note The function accepts pcMask values from CY_PROT_PC1 to CY_PROT_PC15. 
 139:Generated_Source\PSoC6\pdl\drivers\peripheral\prot/cy_prot.c **** * But each device has its own number of available protection contexts. 
 140:Generated_Source\PSoC6\pdl\drivers\peripheral\prot/cy_prot.c **** * That number is defined by PERI_PC_NR in the config file.
 141:Generated_Source\PSoC6\pdl\drivers\peripheral\prot/cy_prot.c **** *
 142:Generated_Source\PSoC6\pdl\drivers\peripheral\prot/cy_prot.c **** * \return
 143:Generated_Source\PSoC6\pdl\drivers\peripheral\prot/cy_prot.c **** * Status of the function call.
 144:Generated_Source\PSoC6\pdl\drivers\peripheral\prot/cy_prot.c **** *
 145:Generated_Source\PSoC6\pdl\drivers\peripheral\prot/cy_prot.c **** *   Status               | Description
 146:Generated_Source\PSoC6\pdl\drivers\peripheral\prot/cy_prot.c **** *   ------------         | -----------
 147:Generated_Source\PSoC6\pdl\drivers\peripheral\prot/cy_prot.c **** *   CY_PROT_SUCCESS      | The function completed successfully.
 148:Generated_Source\PSoC6\pdl\drivers\peripheral\prot/cy_prot.c **** *   CY_PROT_FAILURE      | The resource is locked.
 149:Generated_Source\PSoC6\pdl\drivers\peripheral\prot/cy_prot.c **** *
 150:Generated_Source\PSoC6\pdl\drivers\peripheral\prot/cy_prot.c **** * \funcusage
 151:Generated_Source\PSoC6\pdl\drivers\peripheral\prot/cy_prot.c **** * \snippet prot/1.20/snippet/main.c snippet_Cy_Prot_SetActivePC
 152:Generated_Source\PSoC6\pdl\drivers\peripheral\prot/cy_prot.c **** *
 153:Generated_Source\PSoC6\pdl\drivers\peripheral\prot/cy_prot.c **** *******************************************************************************/
 154:Generated_Source\PSoC6\pdl\drivers\peripheral\prot/cy_prot.c **** cy_en_prot_status_t Cy_Prot_SetActivePC(en_prot_master_t busMaster, uint32_t pc)
 155:Generated_Source\PSoC6\pdl\drivers\peripheral\prot/cy_prot.c **** {
 162              		.loc 1 155 0
 163              		.cfi_startproc
 164              		@ args = 0, pretend = 0, frame = 16
 165              		@ frame_needed = 1, uses_anonymous_args = 0
 166 0000 90B5     		push	{r4, r7, lr}
 167              		.cfi_def_cfa_offset 12
 168              		.cfi_offset 4, -12
 169              		.cfi_offset 7, -8
 170              		.cfi_offset 14, -4
 171 0002 85B0     		sub	sp, sp, #20
 172              		.cfi_def_cfa_offset 32
 173 0004 00AF     		add	r7, sp, #0
 174              		.cfi_def_cfa_register 7
 175 0006 0200     		movs	r2, r0
 176 0008 3960     		str	r1, [r7]
 177 000a FB1D     		adds	r3, r7, #7
 178 000c 1A70     		strb	r2, [r3]
 156:Generated_Source\PSoC6\pdl\drivers\peripheral\prot/cy_prot.c ****     cy_en_prot_status_t status;
ARM GAS  C:\Users\JC\AppData\Local\Temp\ccU1E72d.s 			page 7


 157:Generated_Source\PSoC6\pdl\drivers\peripheral\prot/cy_prot.c ****     
 158:Generated_Source\PSoC6\pdl\drivers\peripheral\prot/cy_prot.c ****     CY_ASSERT_L1(CY_PROT_IS_BUS_MASTER_VALID(busMaster));
 179              		.loc 1 158 0
 180 000e 204B     		ldr	r3, .L15
 181 0010 1B68     		ldr	r3, [r3]
 182 0012 9A6C     		ldr	r2, [r3, #72]
 183 0014 FB1D     		adds	r3, r7, #7
 184 0016 1B78     		ldrb	r3, [r3]
 185 0018 DA40     		lsrs	r2, r2, r3
 186 001a 1300     		movs	r3, r2
 187 001c 0122     		movs	r2, #1
 188 001e 1340     		ands	r3, r2
 189 0020 04D1     		bne	.L10
 190              		.loc 1 158 0 is_stmt 0 discriminator 1
 191 0022 1C4B     		ldr	r3, .L15+4
 192 0024 9E21     		movs	r1, #158
 193 0026 1800     		movs	r0, r3
 194 0028 FFF7FEFF 		bl	Cy_SysLib_AssertFailed
 195              	.L10:
 159:Generated_Source\PSoC6\pdl\drivers\peripheral\prot/cy_prot.c ****     CY_ASSERT_L2(CY_PROT_IS_PC_VALID(pc));
 196              		.loc 1 159 0 is_stmt 1
 197 002c 3B68     		ldr	r3, [r7]
 198 002e 0F2B     		cmp	r3, #15
 199 0030 04D9     		bls	.L11
 200              		.loc 1 159 0 is_stmt 0 discriminator 1
 201 0032 184B     		ldr	r3, .L15+4
 202 0034 9F21     		movs	r1, #159
 203 0036 1800     		movs	r0, r3
 204 0038 FFF7FEFF 		bl	Cy_SysLib_AssertFailed
 205              	.L11:
 160:Generated_Source\PSoC6\pdl\drivers\peripheral\prot/cy_prot.c ****     
 161:Generated_Source\PSoC6\pdl\drivers\peripheral\prot/cy_prot.c ****     PROT_MPU_MS_CTL(busMaster) = _VAL2FLD(PROT_MPU_MS_CTL_PC, pc) | _VAL2FLD(PROT_MPU_MS_CTL_PC_SAV
 206              		.loc 1 161 0 is_stmt 1
 207 003c 144B     		ldr	r3, .L15
 208 003e 1B68     		ldr	r3, [r3]
 209 0040 1B69     		ldr	r3, [r3, #16]
 210 0042 1C00     		movs	r4, r3
 211 0044 FB1D     		adds	r3, r7, #7
 212 0046 1B78     		ldrb	r3, [r3]
 213 0048 3A68     		ldr	r2, [r7]
 214 004a 0F21     		movs	r1, #15
 215 004c 1140     		ands	r1, r2
 216 004e 3A68     		ldr	r2, [r7]
 217 0050 1004     		lsls	r0, r2, #16
 218 0052 F022     		movs	r2, #240
 219 0054 1203     		lsls	r2, r2, #12
 220 0056 0240     		ands	r2, r0
 221 0058 0A43     		orrs	r2, r1
 222 005a 1033     		adds	r3, r3, #16
 223 005c 9B02     		lsls	r3, r3, #10
 224 005e 1A51     		str	r2, [r3, r4]
 162:Generated_Source\PSoC6\pdl\drivers\peripheral\prot/cy_prot.c ****     status = (_FLD2VAL(PROT_MPU_MS_CTL_PC, PROT_MPU_MS_CTL(busMaster)) != pc) ? CY_PROT_FAILURE : C
 225              		.loc 1 162 0
 226 0060 0B4B     		ldr	r3, .L15
 227 0062 1B68     		ldr	r3, [r3]
 228 0064 1B69     		ldr	r3, [r3, #16]
 229 0066 1A00     		movs	r2, r3
ARM GAS  C:\Users\JC\AppData\Local\Temp\ccU1E72d.s 			page 8


 230 0068 FB1D     		adds	r3, r7, #7
 231 006a 1B78     		ldrb	r3, [r3]
 232 006c 1033     		adds	r3, r3, #16
 233 006e 9B02     		lsls	r3, r3, #10
 234 0070 9B58     		ldr	r3, [r3, r2]
 235 0072 0F22     		movs	r2, #15
 236 0074 1A40     		ands	r2, r3
 237 0076 3B68     		ldr	r3, [r7]
 238 0078 9A42     		cmp	r2, r3
 239 007a 01D0     		beq	.L12
 240              		.loc 1 162 0 is_stmt 0 discriminator 1
 241 007c 064B     		ldr	r3, .L15+8
 242 007e 00E0     		b	.L13
 243              	.L12:
 244              		.loc 1 162 0 discriminator 2
 245 0080 0023     		movs	r3, #0
 246              	.L13:
 247              		.loc 1 162 0 discriminator 4
 248 0082 FB60     		str	r3, [r7, #12]
 163:Generated_Source\PSoC6\pdl\drivers\peripheral\prot/cy_prot.c ****     
 164:Generated_Source\PSoC6\pdl\drivers\peripheral\prot/cy_prot.c ****     return status;
 249              		.loc 1 164 0 is_stmt 1 discriminator 4
 250 0084 FB68     		ldr	r3, [r7, #12]
 165:Generated_Source\PSoC6\pdl\drivers\peripheral\prot/cy_prot.c **** }
 251              		.loc 1 165 0 discriminator 4
 252 0086 1800     		movs	r0, r3
 253 0088 BD46     		mov	sp, r7
 254 008a 05B0     		add	sp, sp, #20
 255              		@ sp needed
 256 008c 90BD     		pop	{r4, r7, pc}
 257              	.L16:
 258 008e C046     		.align	2
 259              	.L15:
 260 0090 00000000 		.word	cy_device
 261 0094 00000000 		.word	.LC1
 262 0098 0300C200 		.word	12713987
 263              		.cfi_endproc
 264              	.LFE48:
 265              		.size	Cy_Prot_SetActivePC, .-Cy_Prot_SetActivePC
 266              		.section	.text.Cy_Prot_GetActivePC,"ax",%progbits
 267              		.align	2
 268              		.global	Cy_Prot_GetActivePC
 269              		.code	16
 270              		.thumb_func
 271              		.type	Cy_Prot_GetActivePC, %function
 272              	Cy_Prot_GetActivePC:
 273              	.LFB49:
 166:Generated_Source\PSoC6\pdl\drivers\peripheral\prot/cy_prot.c **** 
 167:Generated_Source\PSoC6\pdl\drivers\peripheral\prot/cy_prot.c **** 
 168:Generated_Source\PSoC6\pdl\drivers\peripheral\prot/cy_prot.c **** /*******************************************************************************
 169:Generated_Source\PSoC6\pdl\drivers\peripheral\prot/cy_prot.c **** * Function Name: Cy_Prot_GetActivePC
 170:Generated_Source\PSoC6\pdl\drivers\peripheral\prot/cy_prot.c **** ****************************************************************************//**
 171:Generated_Source\PSoC6\pdl\drivers\peripheral\prot/cy_prot.c **** *
 172:Generated_Source\PSoC6\pdl\drivers\peripheral\prot/cy_prot.c **** * \note This function is applicable for both CPUSS ver_1 and ver_2.
 173:Generated_Source\PSoC6\pdl\drivers\peripheral\prot/cy_prot.c **** *
 174:Generated_Source\PSoC6\pdl\drivers\peripheral\prot/cy_prot.c **** * Returns the active protection context of a master. 
 175:Generated_Source\PSoC6\pdl\drivers\peripheral\prot/cy_prot.c **** *
ARM GAS  C:\Users\JC\AppData\Local\Temp\ccU1E72d.s 			page 9


 176:Generated_Source\PSoC6\pdl\drivers\peripheral\prot/cy_prot.c **** * \param busMaster
 177:Generated_Source\PSoC6\pdl\drivers\peripheral\prot/cy_prot.c **** * The bus master, whose protection context is being read. Refer to the 
 178:Generated_Source\PSoC6\pdl\drivers\peripheral\prot/cy_prot.c **** * CPUSS_MS_ID_X defines in the device config header file.
 179:Generated_Source\PSoC6\pdl\drivers\peripheral\prot/cy_prot.c **** * 
 180:Generated_Source\PSoC6\pdl\drivers\peripheral\prot/cy_prot.c **** * \return
 181:Generated_Source\PSoC6\pdl\drivers\peripheral\prot/cy_prot.c **** * Active protection context of the master \ref cy_en_prot_pc_t.
 182:Generated_Source\PSoC6\pdl\drivers\peripheral\prot/cy_prot.c **** *
 183:Generated_Source\PSoC6\pdl\drivers\peripheral\prot/cy_prot.c **** * \funcusage
 184:Generated_Source\PSoC6\pdl\drivers\peripheral\prot/cy_prot.c **** * \snippet prot/1.20/snippet/main.c snippet_Cy_Prot_SetActivePC
 185:Generated_Source\PSoC6\pdl\drivers\peripheral\prot/cy_prot.c **** *
 186:Generated_Source\PSoC6\pdl\drivers\peripheral\prot/cy_prot.c **** *******************************************************************************/
 187:Generated_Source\PSoC6\pdl\drivers\peripheral\prot/cy_prot.c **** uint32_t Cy_Prot_GetActivePC(en_prot_master_t busMaster)
 188:Generated_Source\PSoC6\pdl\drivers\peripheral\prot/cy_prot.c **** {
 274              		.loc 1 188 0
 275              		.cfi_startproc
 276              		@ args = 0, pretend = 0, frame = 8
 277              		@ frame_needed = 1, uses_anonymous_args = 0
 278 0000 80B5     		push	{r7, lr}
 279              		.cfi_def_cfa_offset 8
 280              		.cfi_offset 7, -8
 281              		.cfi_offset 14, -4
 282 0002 82B0     		sub	sp, sp, #8
 283              		.cfi_def_cfa_offset 16
 284 0004 00AF     		add	r7, sp, #0
 285              		.cfi_def_cfa_register 7
 286 0006 0200     		movs	r2, r0
 287 0008 FB1D     		adds	r3, r7, #7
 288 000a 1A70     		strb	r2, [r3]
 189:Generated_Source\PSoC6\pdl\drivers\peripheral\prot/cy_prot.c ****     
 190:Generated_Source\PSoC6\pdl\drivers\peripheral\prot/cy_prot.c ****     CY_ASSERT_L1(CY_PROT_IS_BUS_MASTER_VALID(busMaster));
 289              		.loc 1 190 0
 290 000c 0E4B     		ldr	r3, .L20
 291 000e 1B68     		ldr	r3, [r3]
 292 0010 9A6C     		ldr	r2, [r3, #72]
 293 0012 FB1D     		adds	r3, r7, #7
 294 0014 1B78     		ldrb	r3, [r3]
 295 0016 DA40     		lsrs	r2, r2, r3
 296 0018 1300     		movs	r3, r2
 297 001a 0122     		movs	r2, #1
 298 001c 1340     		ands	r3, r2
 299 001e 04D1     		bne	.L18
 300              		.loc 1 190 0 is_stmt 0 discriminator 1
 301 0020 0A4B     		ldr	r3, .L20+4
 302 0022 BE21     		movs	r1, #190
 303 0024 1800     		movs	r0, r3
 304 0026 FFF7FEFF 		bl	Cy_SysLib_AssertFailed
 305              	.L18:
 191:Generated_Source\PSoC6\pdl\drivers\peripheral\prot/cy_prot.c ****     
 192:Generated_Source\PSoC6\pdl\drivers\peripheral\prot/cy_prot.c ****     return ((uint32_t)_FLD2VAL(PROT_MPU_MS_CTL_PC, PROT_MPU_MS_CTL(busMaster)));
 306              		.loc 1 192 0 is_stmt 1
 307 002a 074B     		ldr	r3, .L20
 308 002c 1B68     		ldr	r3, [r3]
 309 002e 1B69     		ldr	r3, [r3, #16]
 310 0030 1A00     		movs	r2, r3
 311 0032 FB1D     		adds	r3, r7, #7
 312 0034 1B78     		ldrb	r3, [r3]
 313 0036 1033     		adds	r3, r3, #16
ARM GAS  C:\Users\JC\AppData\Local\Temp\ccU1E72d.s 			page 10


 314 0038 9B02     		lsls	r3, r3, #10
 315 003a 9B58     		ldr	r3, [r3, r2]
 316 003c 0F22     		movs	r2, #15
 317 003e 1340     		ands	r3, r2
 193:Generated_Source\PSoC6\pdl\drivers\peripheral\prot/cy_prot.c **** }
 318              		.loc 1 193 0
 319 0040 1800     		movs	r0, r3
 320 0042 BD46     		mov	sp, r7
 321 0044 02B0     		add	sp, sp, #8
 322              		@ sp needed
 323 0046 80BD     		pop	{r7, pc}
 324              	.L21:
 325              		.align	2
 326              	.L20:
 327 0048 00000000 		.word	cy_device
 328 004c 00000000 		.word	.LC1
 329              		.cfi_endproc
 330              	.LFE49:
 331              		.size	Cy_Prot_GetActivePC, .-Cy_Prot_GetActivePC
 332              		.section	.text.Cy_Prot_ConfigMpuStruct,"ax",%progbits
 333              		.align	2
 334              		.global	Cy_Prot_ConfigMpuStruct
 335              		.code	16
 336              		.thumb_func
 337              		.type	Cy_Prot_ConfigMpuStruct, %function
 338              	Cy_Prot_ConfigMpuStruct:
 339              	.LFB50:
 194:Generated_Source\PSoC6\pdl\drivers\peripheral\prot/cy_prot.c **** 
 195:Generated_Source\PSoC6\pdl\drivers\peripheral\prot/cy_prot.c **** 
 196:Generated_Source\PSoC6\pdl\drivers\peripheral\prot/cy_prot.c **** /*******************************************************************************
 197:Generated_Source\PSoC6\pdl\drivers\peripheral\prot/cy_prot.c **** * Function Name: Cy_Prot_ConfigMpuStruct
 198:Generated_Source\PSoC6\pdl\drivers\peripheral\prot/cy_prot.c **** ****************************************************************************//**
 199:Generated_Source\PSoC6\pdl\drivers\peripheral\prot/cy_prot.c **** *
 200:Generated_Source\PSoC6\pdl\drivers\peripheral\prot/cy_prot.c **** * This function configures a memory protection unit (MPU) struct with its 
 201:Generated_Source\PSoC6\pdl\drivers\peripheral\prot/cy_prot.c **** * protection attributes. 
 202:Generated_Source\PSoC6\pdl\drivers\peripheral\prot/cy_prot.c **** *
 203:Generated_Source\PSoC6\pdl\drivers\peripheral\prot/cy_prot.c **** * The protection structs act like the gatekeepers for a master's accesses to
 204:Generated_Source\PSoC6\pdl\drivers\peripheral\prot/cy_prot.c **** * memory, allowing only the permitted transactions to go through.
 205:Generated_Source\PSoC6\pdl\drivers\peripheral\prot/cy_prot.c **** *
 206:Generated_Source\PSoC6\pdl\drivers\peripheral\prot/cy_prot.c **** * \note This function is applicable for both CPUSS ver_1 and ver_2.
 207:Generated_Source\PSoC6\pdl\drivers\peripheral\prot/cy_prot.c **** *
 208:Generated_Source\PSoC6\pdl\drivers\peripheral\prot/cy_prot.c **** * \param base
 209:Generated_Source\PSoC6\pdl\drivers\peripheral\prot/cy_prot.c **** * The base address for the MPU struct being configured. 
 210:Generated_Source\PSoC6\pdl\drivers\peripheral\prot/cy_prot.c **** * 
 211:Generated_Source\PSoC6\pdl\drivers\peripheral\prot/cy_prot.c **** * \param config
 212:Generated_Source\PSoC6\pdl\drivers\peripheral\prot/cy_prot.c **** * Initialization structure containing all the protection attributes.
 213:Generated_Source\PSoC6\pdl\drivers\peripheral\prot/cy_prot.c **** * 
 214:Generated_Source\PSoC6\pdl\drivers\peripheral\prot/cy_prot.c **** * \return
 215:Generated_Source\PSoC6\pdl\drivers\peripheral\prot/cy_prot.c **** * Status of the function call.
 216:Generated_Source\PSoC6\pdl\drivers\peripheral\prot/cy_prot.c **** *
 217:Generated_Source\PSoC6\pdl\drivers\peripheral\prot/cy_prot.c **** *   Status               | Description
 218:Generated_Source\PSoC6\pdl\drivers\peripheral\prot/cy_prot.c **** *   ------------         | -----------
 219:Generated_Source\PSoC6\pdl\drivers\peripheral\prot/cy_prot.c **** *   CY_PROT_SUCCESS      | The MPU struct was configured.
 220:Generated_Source\PSoC6\pdl\drivers\peripheral\prot/cy_prot.c **** *   CY_PROT_FAILURE      | Configuration failed due to a protection violation.
 221:Generated_Source\PSoC6\pdl\drivers\peripheral\prot/cy_prot.c **** *
 222:Generated_Source\PSoC6\pdl\drivers\peripheral\prot/cy_prot.c **** * \funcusage
 223:Generated_Source\PSoC6\pdl\drivers\peripheral\prot/cy_prot.c **** * \snippet prot/1.20/snippet/main.c snippet_Cy_Prot_ConfigMpuStruct
ARM GAS  C:\Users\JC\AppData\Local\Temp\ccU1E72d.s 			page 11


 224:Generated_Source\PSoC6\pdl\drivers\peripheral\prot/cy_prot.c **** *
 225:Generated_Source\PSoC6\pdl\drivers\peripheral\prot/cy_prot.c **** *******************************************************************************/
 226:Generated_Source\PSoC6\pdl\drivers\peripheral\prot/cy_prot.c **** cy_en_prot_status_t Cy_Prot_ConfigMpuStruct(PROT_MPU_MPU_STRUCT_Type* base, const cy_stc_mpu_cfg_t*
 227:Generated_Source\PSoC6\pdl\drivers\peripheral\prot/cy_prot.c **** {
 340              		.loc 1 227 0
 341              		.cfi_startproc
 342              		@ args = 0, pretend = 0, frame = 24
 343              		@ frame_needed = 1, uses_anonymous_args = 0
 344 0000 80B5     		push	{r7, lr}
 345              		.cfi_def_cfa_offset 8
 346              		.cfi_offset 7, -8
 347              		.cfi_offset 14, -4
 348 0002 86B0     		sub	sp, sp, #24
 349              		.cfi_def_cfa_offset 32
 350 0004 00AF     		add	r7, sp, #0
 351              		.cfi_def_cfa_register 7
 352 0006 7860     		str	r0, [r7, #4]
 353 0008 3960     		str	r1, [r7]
 228:Generated_Source\PSoC6\pdl\drivers\peripheral\prot/cy_prot.c ****     cy_en_prot_status_t status;
 229:Generated_Source\PSoC6\pdl\drivers\peripheral\prot/cy_prot.c ****     uint32_t addrReg;
 230:Generated_Source\PSoC6\pdl\drivers\peripheral\prot/cy_prot.c ****     uint32_t attReg;
 231:Generated_Source\PSoC6\pdl\drivers\peripheral\prot/cy_prot.c **** 
 232:Generated_Source\PSoC6\pdl\drivers\peripheral\prot/cy_prot.c ****     CY_ASSERT_L1(NULL != base);
 354              		.loc 1 232 0
 355 000a 7B68     		ldr	r3, [r7, #4]
 356 000c 002B     		cmp	r3, #0
 357 000e 04D1     		bne	.L23
 358              		.loc 1 232 0 is_stmt 0 discriminator 1
 359 0010 7D4B     		ldr	r3, .L31
 360 0012 E821     		movs	r1, #232
 361 0014 1800     		movs	r0, r3
 362 0016 FFF7FEFF 		bl	Cy_SysLib_AssertFailed
 363              	.L23:
 233:Generated_Source\PSoC6\pdl\drivers\peripheral\prot/cy_prot.c ****     CY_ASSERT_L3(CY_PROT_IS_MPU_PERM_VALID(config->userPermission));
 364              		.loc 1 233 0 is_stmt 1
 365 001a 3B68     		ldr	r3, [r7]
 366 001c 9B79     		ldrb	r3, [r3, #6]
 367 001e 002B     		cmp	r3, #0
 368 0020 20D0     		beq	.L24
 369              		.loc 1 233 0 is_stmt 0 discriminator 1
 370 0022 3B68     		ldr	r3, [r7]
 371 0024 9B79     		ldrb	r3, [r3, #6]
 372 0026 012B     		cmp	r3, #1
 373 0028 1CD0     		beq	.L24
 374              		.loc 1 233 0 discriminator 2
 375 002a 3B68     		ldr	r3, [r7]
 376 002c 9B79     		ldrb	r3, [r3, #6]
 377 002e 022B     		cmp	r3, #2
 378 0030 18D0     		beq	.L24
 379              		.loc 1 233 0 discriminator 3
 380 0032 3B68     		ldr	r3, [r7]
 381 0034 9B79     		ldrb	r3, [r3, #6]
 382 0036 032B     		cmp	r3, #3
 383 0038 14D0     		beq	.L24
 384              		.loc 1 233 0 discriminator 4
 385 003a 3B68     		ldr	r3, [r7]
 386 003c 9B79     		ldrb	r3, [r3, #6]
ARM GAS  C:\Users\JC\AppData\Local\Temp\ccU1E72d.s 			page 12


 387 003e 042B     		cmp	r3, #4
 388 0040 10D0     		beq	.L24
 389              		.loc 1 233 0 discriminator 5
 390 0042 3B68     		ldr	r3, [r7]
 391 0044 9B79     		ldrb	r3, [r3, #6]
 392 0046 052B     		cmp	r3, #5
 393 0048 0CD0     		beq	.L24
 394              		.loc 1 233 0 discriminator 6
 395 004a 3B68     		ldr	r3, [r7]
 396 004c 9B79     		ldrb	r3, [r3, #6]
 397 004e 062B     		cmp	r3, #6
 398 0050 08D0     		beq	.L24
 399              		.loc 1 233 0 discriminator 7
 400 0052 3B68     		ldr	r3, [r7]
 401 0054 9B79     		ldrb	r3, [r3, #6]
 402 0056 072B     		cmp	r3, #7
 403 0058 04D0     		beq	.L24
 404              		.loc 1 233 0 discriminator 8
 405 005a 6B4B     		ldr	r3, .L31
 406 005c E921     		movs	r1, #233
 407 005e 1800     		movs	r0, r3
 408 0060 FFF7FEFF 		bl	Cy_SysLib_AssertFailed
 409              	.L24:
 234:Generated_Source\PSoC6\pdl\drivers\peripheral\prot/cy_prot.c ****     CY_ASSERT_L3(CY_PROT_IS_MPU_PERM_VALID(config->privPermission));
 410              		.loc 1 234 0 is_stmt 1
 411 0064 3B68     		ldr	r3, [r7]
 412 0066 DB79     		ldrb	r3, [r3, #7]
 413 0068 002B     		cmp	r3, #0
 414 006a 20D0     		beq	.L25
 415              		.loc 1 234 0 is_stmt 0 discriminator 1
 416 006c 3B68     		ldr	r3, [r7]
 417 006e DB79     		ldrb	r3, [r3, #7]
 418 0070 012B     		cmp	r3, #1
 419 0072 1CD0     		beq	.L25
 420              		.loc 1 234 0 discriminator 2
 421 0074 3B68     		ldr	r3, [r7]
 422 0076 DB79     		ldrb	r3, [r3, #7]
 423 0078 022B     		cmp	r3, #2
 424 007a 18D0     		beq	.L25
 425              		.loc 1 234 0 discriminator 3
 426 007c 3B68     		ldr	r3, [r7]
 427 007e DB79     		ldrb	r3, [r3, #7]
 428 0080 032B     		cmp	r3, #3
 429 0082 14D0     		beq	.L25
 430              		.loc 1 234 0 discriminator 4
 431 0084 3B68     		ldr	r3, [r7]
 432 0086 DB79     		ldrb	r3, [r3, #7]
 433 0088 042B     		cmp	r3, #4
 434 008a 10D0     		beq	.L25
 435              		.loc 1 234 0 discriminator 5
 436 008c 3B68     		ldr	r3, [r7]
 437 008e DB79     		ldrb	r3, [r3, #7]
 438 0090 052B     		cmp	r3, #5
 439 0092 0CD0     		beq	.L25
 440              		.loc 1 234 0 discriminator 6
 441 0094 3B68     		ldr	r3, [r7]
 442 0096 DB79     		ldrb	r3, [r3, #7]
ARM GAS  C:\Users\JC\AppData\Local\Temp\ccU1E72d.s 			page 13


 443 0098 062B     		cmp	r3, #6
 444 009a 08D0     		beq	.L25
 445              		.loc 1 234 0 discriminator 7
 446 009c 3B68     		ldr	r3, [r7]
 447 009e DB79     		ldrb	r3, [r3, #7]
 448 00a0 072B     		cmp	r3, #7
 449 00a2 04D0     		beq	.L25
 450              		.loc 1 234 0 discriminator 8
 451 00a4 584B     		ldr	r3, .L31
 452 00a6 EA21     		movs	r1, #234
 453 00a8 1800     		movs	r0, r3
 454 00aa FFF7FEFF 		bl	Cy_SysLib_AssertFailed
 455              	.L25:
 235:Generated_Source\PSoC6\pdl\drivers\peripheral\prot/cy_prot.c ****     CY_ASSERT_L3(CY_PROT_IS_REGION_SIZE_VALID(config->regionSize));
 456              		.loc 1 235 0 is_stmt 1
 457 00ae 3B68     		ldr	r3, [r7]
 458 00b0 1B79     		ldrb	r3, [r3, #4]
 459 00b2 072B     		cmp	r3, #7
 460 00b4 00D1     		bne	.LCB385
 461 00b6 67E0     		b	.L26	@long jump
 462              	.LCB385:
 463              		.loc 1 235 0 is_stmt 0 discriminator 1
 464 00b8 3B68     		ldr	r3, [r7]
 465 00ba 1B79     		ldrb	r3, [r3, #4]
 466 00bc 082B     		cmp	r3, #8
 467 00be 00D1     		bne	.LCB389
 468 00c0 62E0     		b	.L26	@long jump
 469              	.LCB389:
 470              		.loc 1 235 0 discriminator 2
 471 00c2 3B68     		ldr	r3, [r7]
 472 00c4 1B79     		ldrb	r3, [r3, #4]
 473 00c6 092B     		cmp	r3, #9
 474 00c8 00D1     		bne	.LCB393
 475 00ca 5DE0     		b	.L26	@long jump
 476              	.LCB393:
 477              		.loc 1 235 0 discriminator 3
 478 00cc 3B68     		ldr	r3, [r7]
 479 00ce 1B79     		ldrb	r3, [r3, #4]
 480 00d0 0A2B     		cmp	r3, #10
 481 00d2 00D1     		bne	.LCB397
 482 00d4 58E0     		b	.L26	@long jump
 483              	.LCB397:
 484              		.loc 1 235 0 discriminator 4
 485 00d6 3B68     		ldr	r3, [r7]
 486 00d8 1B79     		ldrb	r3, [r3, #4]
 487 00da 0B2B     		cmp	r3, #11
 488 00dc 54D0     		beq	.L26
 489              		.loc 1 235 0 discriminator 5
 490 00de 3B68     		ldr	r3, [r7]
 491 00e0 1B79     		ldrb	r3, [r3, #4]
 492 00e2 0C2B     		cmp	r3, #12
 493 00e4 50D0     		beq	.L26
 494              		.loc 1 235 0 discriminator 6
 495 00e6 3B68     		ldr	r3, [r7]
 496 00e8 1B79     		ldrb	r3, [r3, #4]
 497 00ea 0D2B     		cmp	r3, #13
 498 00ec 4CD0     		beq	.L26
ARM GAS  C:\Users\JC\AppData\Local\Temp\ccU1E72d.s 			page 14


 499              		.loc 1 235 0 discriminator 7
 500 00ee 3B68     		ldr	r3, [r7]
 501 00f0 1B79     		ldrb	r3, [r3, #4]
 502 00f2 0E2B     		cmp	r3, #14
 503 00f4 48D0     		beq	.L26
 504              		.loc 1 235 0 discriminator 8
 505 00f6 3B68     		ldr	r3, [r7]
 506 00f8 1B79     		ldrb	r3, [r3, #4]
 507 00fa 0F2B     		cmp	r3, #15
 508 00fc 44D0     		beq	.L26
 509              		.loc 1 235 0 discriminator 9
 510 00fe 3B68     		ldr	r3, [r7]
 511 0100 1B79     		ldrb	r3, [r3, #4]
 512 0102 102B     		cmp	r3, #16
 513 0104 40D0     		beq	.L26
 514              		.loc 1 235 0 discriminator 10
 515 0106 3B68     		ldr	r3, [r7]
 516 0108 1B79     		ldrb	r3, [r3, #4]
 517 010a 112B     		cmp	r3, #17
 518 010c 3CD0     		beq	.L26
 519              		.loc 1 235 0 discriminator 11
 520 010e 3B68     		ldr	r3, [r7]
 521 0110 1B79     		ldrb	r3, [r3, #4]
 522 0112 122B     		cmp	r3, #18
 523 0114 38D0     		beq	.L26
 524              		.loc 1 235 0 discriminator 12
 525 0116 3B68     		ldr	r3, [r7]
 526 0118 1B79     		ldrb	r3, [r3, #4]
 527 011a 132B     		cmp	r3, #19
 528 011c 34D0     		beq	.L26
 529              		.loc 1 235 0 discriminator 13
 530 011e 3B68     		ldr	r3, [r7]
 531 0120 1B79     		ldrb	r3, [r3, #4]
 532 0122 142B     		cmp	r3, #20
 533 0124 30D0     		beq	.L26
 534              		.loc 1 235 0 discriminator 14
 535 0126 3B68     		ldr	r3, [r7]
 536 0128 1B79     		ldrb	r3, [r3, #4]
 537 012a 152B     		cmp	r3, #21
 538 012c 2CD0     		beq	.L26
 539              		.loc 1 235 0 discriminator 15
 540 012e 3B68     		ldr	r3, [r7]
 541 0130 1B79     		ldrb	r3, [r3, #4]
 542 0132 162B     		cmp	r3, #22
 543 0134 28D0     		beq	.L26
 544              		.loc 1 235 0 discriminator 16
 545 0136 3B68     		ldr	r3, [r7]
 546 0138 1B79     		ldrb	r3, [r3, #4]
 547 013a 172B     		cmp	r3, #23
 548 013c 24D0     		beq	.L26
 549              		.loc 1 235 0 discriminator 17
 550 013e 3B68     		ldr	r3, [r7]
 551 0140 1B79     		ldrb	r3, [r3, #4]
 552 0142 182B     		cmp	r3, #24
 553 0144 20D0     		beq	.L26
 554              		.loc 1 235 0 discriminator 18
 555 0146 3B68     		ldr	r3, [r7]
ARM GAS  C:\Users\JC\AppData\Local\Temp\ccU1E72d.s 			page 15


 556 0148 1B79     		ldrb	r3, [r3, #4]
 557 014a 192B     		cmp	r3, #25
 558 014c 1CD0     		beq	.L26
 559              		.loc 1 235 0 discriminator 19
 560 014e 3B68     		ldr	r3, [r7]
 561 0150 1B79     		ldrb	r3, [r3, #4]
 562 0152 1A2B     		cmp	r3, #26
 563 0154 18D0     		beq	.L26
 564              		.loc 1 235 0 discriminator 20
 565 0156 3B68     		ldr	r3, [r7]
 566 0158 1B79     		ldrb	r3, [r3, #4]
 567 015a 1B2B     		cmp	r3, #27
 568 015c 14D0     		beq	.L26
 569              		.loc 1 235 0 discriminator 21
 570 015e 3B68     		ldr	r3, [r7]
 571 0160 1B79     		ldrb	r3, [r3, #4]
 572 0162 1C2B     		cmp	r3, #28
 573 0164 10D0     		beq	.L26
 574              		.loc 1 235 0 discriminator 22
 575 0166 3B68     		ldr	r3, [r7]
 576 0168 1B79     		ldrb	r3, [r3, #4]
 577 016a 1D2B     		cmp	r3, #29
 578 016c 0CD0     		beq	.L26
 579              		.loc 1 235 0 discriminator 23
 580 016e 3B68     		ldr	r3, [r7]
 581 0170 1B79     		ldrb	r3, [r3, #4]
 582 0172 1E2B     		cmp	r3, #30
 583 0174 08D0     		beq	.L26
 584              		.loc 1 235 0 discriminator 24
 585 0176 3B68     		ldr	r3, [r7]
 586 0178 1B79     		ldrb	r3, [r3, #4]
 587 017a 1F2B     		cmp	r3, #31
 588 017c 04D0     		beq	.L26
 589              		.loc 1 235 0 discriminator 25
 590 017e 224B     		ldr	r3, .L31
 591 0180 EB21     		movs	r1, #235
 592 0182 1800     		movs	r0, r3
 593 0184 FFF7FEFF 		bl	Cy_SysLib_AssertFailed
 594              	.L26:
 236:Generated_Source\PSoC6\pdl\drivers\peripheral\prot/cy_prot.c **** 
 237:Generated_Source\PSoC6\pdl\drivers\peripheral\prot/cy_prot.c ****     addrReg = _VAL2FLD(PROT_MPU_MPU_STRUCT_ADDR_SUBREGION_DISABLE, config->subregions)
 595              		.loc 1 237 0 is_stmt 1
 596 0188 3B68     		ldr	r3, [r7]
 597 018a 5B79     		ldrb	r3, [r3, #5]
 598 018c 1A00     		movs	r2, r3
 238:Generated_Source\PSoC6\pdl\drivers\peripheral\prot/cy_prot.c ****               | _VAL2FLD(PROT_MPU_MPU_STRUCT_ADDR_ADDR24, (uint32_t)((uint32_t)config->address >> C
 599              		.loc 1 238 0
 600 018e 3B68     		ldr	r3, [r7]
 601 0190 1B68     		ldr	r3, [r3]
 602 0192 1900     		movs	r1, r3
 603 0194 FF23     		movs	r3, #255
 604 0196 9943     		bics	r1, r3
 605 0198 0B00     		movs	r3, r1
 237:Generated_Source\PSoC6\pdl\drivers\peripheral\prot/cy_prot.c ****               | _VAL2FLD(PROT_MPU_MPU_STRUCT_ADDR_ADDR24, (uint32_t)((uint32_t)config->address >> C
 606              		.loc 1 237 0
 607 019a 1343     		orrs	r3, r2
 608 019c 7B61     		str	r3, [r7, #20]
ARM GAS  C:\Users\JC\AppData\Local\Temp\ccU1E72d.s 			page 16


 239:Generated_Source\PSoC6\pdl\drivers\peripheral\prot/cy_prot.c ****     attReg  = ((uint32_t)config->userPermission & CY_PROT_ATT_PERMISSION_MASK)
 609              		.loc 1 239 0
 610 019e 3B68     		ldr	r3, [r7]
 611 01a0 9B79     		ldrb	r3, [r3, #6]
 612 01a2 1A00     		movs	r2, r3
 613 01a4 0723     		movs	r3, #7
 614 01a6 1A40     		ands	r2, r3
 240:Generated_Source\PSoC6\pdl\drivers\peripheral\prot/cy_prot.c ****               | (((uint32_t)config->privPermission & CY_PROT_ATT_PERMISSION_MASK) << CY_PROT_ATT_PR
 615              		.loc 1 240 0
 616 01a8 3B68     		ldr	r3, [r7]
 617 01aa DB79     		ldrb	r3, [r3, #7]
 618 01ac DB00     		lsls	r3, r3, #3
 619 01ae 3821     		movs	r1, #56
 620 01b0 0B40     		ands	r3, r1
 621 01b2 1A43     		orrs	r2, r3
 241:Generated_Source\PSoC6\pdl\drivers\peripheral\prot/cy_prot.c ****               | _VAL2FLD(PROT_MPU_MPU_STRUCT_ATT_NS, !(config->secure))
 622              		.loc 1 241 0
 623 01b4 3B68     		ldr	r3, [r7]
 624 01b6 1B7A     		ldrb	r3, [r3, #8]
 625 01b8 0121     		movs	r1, #1
 626 01ba 4B40     		eors	r3, r1
 627 01bc DBB2     		uxtb	r3, r3
 628 01be 9B01     		lsls	r3, r3, #6
 629 01c0 4021     		movs	r1, #64
 630 01c2 0B40     		ands	r3, r1
 631 01c4 1A43     		orrs	r2, r3
 242:Generated_Source\PSoC6\pdl\drivers\peripheral\prot/cy_prot.c ****               | _VAL2FLD(PROT_MPU_MPU_STRUCT_ATT_REGION_SIZE, config->regionSize);
 632              		.loc 1 242 0
 633 01c6 3B68     		ldr	r3, [r7]
 634 01c8 1B79     		ldrb	r3, [r3, #4]
 635 01ca 1906     		lsls	r1, r3, #24
 636 01cc F823     		movs	r3, #248
 637 01ce 5B05     		lsls	r3, r3, #21
 638 01d0 0B40     		ands	r3, r1
 239:Generated_Source\PSoC6\pdl\drivers\peripheral\prot/cy_prot.c ****               | (((uint32_t)config->privPermission & CY_PROT_ATT_PERMISSION_MASK) << CY_PROT_ATT_PR
 639              		.loc 1 239 0
 640 01d2 1343     		orrs	r3, r2
 641 01d4 3B61     		str	r3, [r7, #16]
 243:Generated_Source\PSoC6\pdl\drivers\peripheral\prot/cy_prot.c ****     PROT_MPU_MPU_STRUCT_ATT(base) = attReg;
 642              		.loc 1 243 0
 643 01d6 7B68     		ldr	r3, [r7, #4]
 644 01d8 3A69     		ldr	r2, [r7, #16]
 645 01da 5A60     		str	r2, [r3, #4]
 244:Generated_Source\PSoC6\pdl\drivers\peripheral\prot/cy_prot.c ****     PROT_MPU_MPU_STRUCT_ADDR(base) = addrReg;
 646              		.loc 1 244 0
 647 01dc 7B68     		ldr	r3, [r7, #4]
 648 01de 7A69     		ldr	r2, [r7, #20]
 649 01e0 1A60     		str	r2, [r3]
 245:Generated_Source\PSoC6\pdl\drivers\peripheral\prot/cy_prot.c ****     status = ((PROT_MPU_MPU_STRUCT_ADDR(base) != addrReg) || (PROT_MPU_MPU_STRUCT_ATT(base) != attR
 650              		.loc 1 245 0
 651 01e2 7B68     		ldr	r3, [r7, #4]
 652 01e4 1A68     		ldr	r2, [r3]
 653 01e6 7B69     		ldr	r3, [r7, #20]
 654 01e8 9A42     		cmp	r2, r3
 655 01ea 04D1     		bne	.L27
 656              		.loc 1 245 0 is_stmt 0 discriminator 2
 657 01ec 7B68     		ldr	r3, [r7, #4]
ARM GAS  C:\Users\JC\AppData\Local\Temp\ccU1E72d.s 			page 17


 658 01ee 5A68     		ldr	r2, [r3, #4]
 659 01f0 3B69     		ldr	r3, [r7, #16]
 660 01f2 9A42     		cmp	r2, r3
 661 01f4 01D0     		beq	.L28
 662              	.L27:
 663              		.loc 1 245 0 discriminator 3
 664 01f6 054B     		ldr	r3, .L31+4
 665 01f8 00E0     		b	.L29
 666              	.L28:
 667              		.loc 1 245 0 discriminator 4
 668 01fa 0023     		movs	r3, #0
 669              	.L29:
 670              		.loc 1 245 0 discriminator 6
 671 01fc FB60     		str	r3, [r7, #12]
 246:Generated_Source\PSoC6\pdl\drivers\peripheral\prot/cy_prot.c ****     
 247:Generated_Source\PSoC6\pdl\drivers\peripheral\prot/cy_prot.c ****     return status;
 672              		.loc 1 247 0 is_stmt 1 discriminator 6
 673 01fe FB68     		ldr	r3, [r7, #12]
 248:Generated_Source\PSoC6\pdl\drivers\peripheral\prot/cy_prot.c **** }
 674              		.loc 1 248 0 discriminator 6
 675 0200 1800     		movs	r0, r3
 676 0202 BD46     		mov	sp, r7
 677 0204 06B0     		add	sp, sp, #24
 678              		@ sp needed
 679 0206 80BD     		pop	{r7, pc}
 680              	.L32:
 681              		.align	2
 682              	.L31:
 683 0208 00000000 		.word	.LC1
 684 020c 0300C200 		.word	12713987
 685              		.cfi_endproc
 686              	.LFE50:
 687              		.size	Cy_Prot_ConfigMpuStruct, .-Cy_Prot_ConfigMpuStruct
 688              		.section	.text.Cy_Prot_EnableMpuStruct,"ax",%progbits
 689              		.align	2
 690              		.global	Cy_Prot_EnableMpuStruct
 691              		.code	16
 692              		.thumb_func
 693              		.type	Cy_Prot_EnableMpuStruct, %function
 694              	Cy_Prot_EnableMpuStruct:
 695              	.LFB51:
 249:Generated_Source\PSoC6\pdl\drivers\peripheral\prot/cy_prot.c **** 
 250:Generated_Source\PSoC6\pdl\drivers\peripheral\prot/cy_prot.c **** 
 251:Generated_Source\PSoC6\pdl\drivers\peripheral\prot/cy_prot.c **** /*******************************************************************************
 252:Generated_Source\PSoC6\pdl\drivers\peripheral\prot/cy_prot.c **** * Function Name: Cy_Prot_EnableMpuStruct
 253:Generated_Source\PSoC6\pdl\drivers\peripheral\prot/cy_prot.c **** ****************************************************************************//**
 254:Generated_Source\PSoC6\pdl\drivers\peripheral\prot/cy_prot.c **** *
 255:Generated_Source\PSoC6\pdl\drivers\peripheral\prot/cy_prot.c **** * Enables the MPU struct, which allows the MPU protection attributes to 
 256:Generated_Source\PSoC6\pdl\drivers\peripheral\prot/cy_prot.c **** * take effect. 
 257:Generated_Source\PSoC6\pdl\drivers\peripheral\prot/cy_prot.c **** *
 258:Generated_Source\PSoC6\pdl\drivers\peripheral\prot/cy_prot.c **** * \note This function is applicable for both CPUSS ver_1 and ver_2.
 259:Generated_Source\PSoC6\pdl\drivers\peripheral\prot/cy_prot.c **** *
 260:Generated_Source\PSoC6\pdl\drivers\peripheral\prot/cy_prot.c **** * \param base
 261:Generated_Source\PSoC6\pdl\drivers\peripheral\prot/cy_prot.c **** * The base address of the MPU struct being configured. 
 262:Generated_Source\PSoC6\pdl\drivers\peripheral\prot/cy_prot.c **** *
 263:Generated_Source\PSoC6\pdl\drivers\peripheral\prot/cy_prot.c **** * \return
 264:Generated_Source\PSoC6\pdl\drivers\peripheral\prot/cy_prot.c **** * Status of the function call.
ARM GAS  C:\Users\JC\AppData\Local\Temp\ccU1E72d.s 			page 18


 265:Generated_Source\PSoC6\pdl\drivers\peripheral\prot/cy_prot.c **** *
 266:Generated_Source\PSoC6\pdl\drivers\peripheral\prot/cy_prot.c **** *   Status               | Description
 267:Generated_Source\PSoC6\pdl\drivers\peripheral\prot/cy_prot.c **** *   ------------         | -----------
 268:Generated_Source\PSoC6\pdl\drivers\peripheral\prot/cy_prot.c **** *   CY_PROT_SUCCESS      | The MPU struct was enabled.
 269:Generated_Source\PSoC6\pdl\drivers\peripheral\prot/cy_prot.c **** *   CY_PROT_FAILURE      | The MPU struct is disabled and possibly locked.
 270:Generated_Source\PSoC6\pdl\drivers\peripheral\prot/cy_prot.c **** *
 271:Generated_Source\PSoC6\pdl\drivers\peripheral\prot/cy_prot.c **** * \funcusage
 272:Generated_Source\PSoC6\pdl\drivers\peripheral\prot/cy_prot.c **** * \snippet prot/1.20/snippet/main.c snippet_Cy_Prot_EnableMpuStruct
 273:Generated_Source\PSoC6\pdl\drivers\peripheral\prot/cy_prot.c **** *
 274:Generated_Source\PSoC6\pdl\drivers\peripheral\prot/cy_prot.c **** *******************************************************************************/
 275:Generated_Source\PSoC6\pdl\drivers\peripheral\prot/cy_prot.c **** cy_en_prot_status_t Cy_Prot_EnableMpuStruct(PROT_MPU_MPU_STRUCT_Type* base)
 276:Generated_Source\PSoC6\pdl\drivers\peripheral\prot/cy_prot.c **** {
 696              		.loc 1 276 0
 697              		.cfi_startproc
 698              		@ args = 0, pretend = 0, frame = 16
 699              		@ frame_needed = 1, uses_anonymous_args = 0
 700 0000 80B5     		push	{r7, lr}
 701              		.cfi_def_cfa_offset 8
 702              		.cfi_offset 7, -8
 703              		.cfi_offset 14, -4
 704 0002 84B0     		sub	sp, sp, #16
 705              		.cfi_def_cfa_offset 24
 706 0004 00AF     		add	r7, sp, #0
 707              		.cfi_def_cfa_register 7
 708 0006 7860     		str	r0, [r7, #4]
 277:Generated_Source\PSoC6\pdl\drivers\peripheral\prot/cy_prot.c ****     cy_en_prot_status_t status;
 278:Generated_Source\PSoC6\pdl\drivers\peripheral\prot/cy_prot.c ****     
 279:Generated_Source\PSoC6\pdl\drivers\peripheral\prot/cy_prot.c ****     CY_ASSERT_L1(NULL != base);
 709              		.loc 1 279 0
 710 0008 7B68     		ldr	r3, [r7, #4]
 711 000a 002B     		cmp	r3, #0
 712 000c 07D1     		bne	.L34
 713              		.loc 1 279 0 is_stmt 0 discriminator 1
 714 000e 1823     		movs	r3, #24
 715 0010 FF33     		adds	r3, r3, #255
 716 0012 1A00     		movs	r2, r3
 717 0014 0D4B     		ldr	r3, .L38
 718 0016 1100     		movs	r1, r2
 719 0018 1800     		movs	r0, r3
 720 001a FFF7FEFF 		bl	Cy_SysLib_AssertFailed
 721              	.L34:
 280:Generated_Source\PSoC6\pdl\drivers\peripheral\prot/cy_prot.c ****     
 281:Generated_Source\PSoC6\pdl\drivers\peripheral\prot/cy_prot.c ****     PROT_MPU_MPU_STRUCT_ATT(base) |= _VAL2FLD(PROT_MPU_MPU_STRUCT_ATT_ENABLED, CY_PROT_STRUCT_ENABL
 722              		.loc 1 281 0 is_stmt 1
 723 001e 7B68     		ldr	r3, [r7, #4]
 724 0020 5B68     		ldr	r3, [r3, #4]
 725 0022 8022     		movs	r2, #128
 726 0024 1206     		lsls	r2, r2, #24
 727 0026 1A43     		orrs	r2, r3
 728 0028 7B68     		ldr	r3, [r7, #4]
 729 002a 5A60     		str	r2, [r3, #4]
 282:Generated_Source\PSoC6\pdl\drivers\peripheral\prot/cy_prot.c ****     status = (_FLD2VAL(PROT_MPU_MPU_STRUCT_ATT_ENABLED, PROT_MPU_MPU_STRUCT_ATT(base)) != CY_PROT_S
 730              		.loc 1 282 0
 731 002c 7B68     		ldr	r3, [r7, #4]
 732 002e 5B68     		ldr	r3, [r3, #4]
 733 0030 DB0F     		lsrs	r3, r3, #31
 734 0032 DB07     		lsls	r3, r3, #31
ARM GAS  C:\Users\JC\AppData\Local\Temp\ccU1E72d.s 			page 19


 735 0034 DB0F     		lsrs	r3, r3, #31
 736 0036 012B     		cmp	r3, #1
 737 0038 01D0     		beq	.L35
 738              		.loc 1 282 0 is_stmt 0 discriminator 1
 739 003a 054B     		ldr	r3, .L38+4
 740 003c 00E0     		b	.L36
 741              	.L35:
 742              		.loc 1 282 0 discriminator 2
 743 003e 0023     		movs	r3, #0
 744              	.L36:
 745              		.loc 1 282 0 discriminator 4
 746 0040 FB60     		str	r3, [r7, #12]
 283:Generated_Source\PSoC6\pdl\drivers\peripheral\prot/cy_prot.c ****                 CY_PROT_FAILURE : CY_PROT_SUCCESS;
 284:Generated_Source\PSoC6\pdl\drivers\peripheral\prot/cy_prot.c ****     
 285:Generated_Source\PSoC6\pdl\drivers\peripheral\prot/cy_prot.c ****     return status;
 747              		.loc 1 285 0 is_stmt 1 discriminator 4
 748 0042 FB68     		ldr	r3, [r7, #12]
 286:Generated_Source\PSoC6\pdl\drivers\peripheral\prot/cy_prot.c **** }
 749              		.loc 1 286 0 discriminator 4
 750 0044 1800     		movs	r0, r3
 751 0046 BD46     		mov	sp, r7
 752 0048 04B0     		add	sp, sp, #16
 753              		@ sp needed
 754 004a 80BD     		pop	{r7, pc}
 755              	.L39:
 756              		.align	2
 757              	.L38:
 758 004c 00000000 		.word	.LC1
 759 0050 0300C200 		.word	12713987
 760              		.cfi_endproc
 761              	.LFE51:
 762              		.size	Cy_Prot_EnableMpuStruct, .-Cy_Prot_EnableMpuStruct
 763              		.section	.text.Cy_Prot_DisableMpuStruct,"ax",%progbits
 764              		.align	2
 765              		.global	Cy_Prot_DisableMpuStruct
 766              		.code	16
 767              		.thumb_func
 768              		.type	Cy_Prot_DisableMpuStruct, %function
 769              	Cy_Prot_DisableMpuStruct:
 770              	.LFB52:
 287:Generated_Source\PSoC6\pdl\drivers\peripheral\prot/cy_prot.c **** 
 288:Generated_Source\PSoC6\pdl\drivers\peripheral\prot/cy_prot.c **** 
 289:Generated_Source\PSoC6\pdl\drivers\peripheral\prot/cy_prot.c **** /*******************************************************************************
 290:Generated_Source\PSoC6\pdl\drivers\peripheral\prot/cy_prot.c **** * Function Name: Cy_Prot_DisableMpuStruct
 291:Generated_Source\PSoC6\pdl\drivers\peripheral\prot/cy_prot.c **** ****************************************************************************//**
 292:Generated_Source\PSoC6\pdl\drivers\peripheral\prot/cy_prot.c **** *
 293:Generated_Source\PSoC6\pdl\drivers\peripheral\prot/cy_prot.c **** * Disables the MPU struct, which prevents the MPU protection attributes
 294:Generated_Source\PSoC6\pdl\drivers\peripheral\prot/cy_prot.c **** * from taking effect.
 295:Generated_Source\PSoC6\pdl\drivers\peripheral\prot/cy_prot.c **** *
 296:Generated_Source\PSoC6\pdl\drivers\peripheral\prot/cy_prot.c **** * \note This function is applicable for both CPUSS ver_1 and ver_2.
 297:Generated_Source\PSoC6\pdl\drivers\peripheral\prot/cy_prot.c **** *
 298:Generated_Source\PSoC6\pdl\drivers\peripheral\prot/cy_prot.c **** * \param base
 299:Generated_Source\PSoC6\pdl\drivers\peripheral\prot/cy_prot.c **** * The base address of the MPU struct being configured. 
 300:Generated_Source\PSoC6\pdl\drivers\peripheral\prot/cy_prot.c **** *
 301:Generated_Source\PSoC6\pdl\drivers\peripheral\prot/cy_prot.c **** * \return
 302:Generated_Source\PSoC6\pdl\drivers\peripheral\prot/cy_prot.c **** * Status of the function call.
 303:Generated_Source\PSoC6\pdl\drivers\peripheral\prot/cy_prot.c **** *
ARM GAS  C:\Users\JC\AppData\Local\Temp\ccU1E72d.s 			page 20


 304:Generated_Source\PSoC6\pdl\drivers\peripheral\prot/cy_prot.c **** *   Status               | Description
 305:Generated_Source\PSoC6\pdl\drivers\peripheral\prot/cy_prot.c **** *   ------------         | -----------
 306:Generated_Source\PSoC6\pdl\drivers\peripheral\prot/cy_prot.c **** *   CY_PROT_SUCCESS      | The MPU struct was disabled.
 307:Generated_Source\PSoC6\pdl\drivers\peripheral\prot/cy_prot.c **** *   CY_PROT_FAILURE      | The MPU struct is enabled and possibly locked.
 308:Generated_Source\PSoC6\pdl\drivers\peripheral\prot/cy_prot.c **** *
 309:Generated_Source\PSoC6\pdl\drivers\peripheral\prot/cy_prot.c **** * \funcusage
 310:Generated_Source\PSoC6\pdl\drivers\peripheral\prot/cy_prot.c **** * \snippet prot/1.20/snippet/main.c snippet_Cy_Prot_DisableMpuStruct
 311:Generated_Source\PSoC6\pdl\drivers\peripheral\prot/cy_prot.c **** *
 312:Generated_Source\PSoC6\pdl\drivers\peripheral\prot/cy_prot.c **** *******************************************************************************/
 313:Generated_Source\PSoC6\pdl\drivers\peripheral\prot/cy_prot.c **** cy_en_prot_status_t Cy_Prot_DisableMpuStruct(PROT_MPU_MPU_STRUCT_Type* base)
 314:Generated_Source\PSoC6\pdl\drivers\peripheral\prot/cy_prot.c **** {
 771              		.loc 1 314 0
 772              		.cfi_startproc
 773              		@ args = 0, pretend = 0, frame = 16
 774              		@ frame_needed = 1, uses_anonymous_args = 0
 775 0000 80B5     		push	{r7, lr}
 776              		.cfi_def_cfa_offset 8
 777              		.cfi_offset 7, -8
 778              		.cfi_offset 14, -4
 779 0002 84B0     		sub	sp, sp, #16
 780              		.cfi_def_cfa_offset 24
 781 0004 00AF     		add	r7, sp, #0
 782              		.cfi_def_cfa_register 7
 783 0006 7860     		str	r0, [r7, #4]
 315:Generated_Source\PSoC6\pdl\drivers\peripheral\prot/cy_prot.c ****     cy_en_prot_status_t status;
 316:Generated_Source\PSoC6\pdl\drivers\peripheral\prot/cy_prot.c **** 
 317:Generated_Source\PSoC6\pdl\drivers\peripheral\prot/cy_prot.c ****     CY_ASSERT_L1(NULL != base);
 784              		.loc 1 317 0
 785 0008 7B68     		ldr	r3, [r7, #4]
 786 000a 002B     		cmp	r3, #0
 787 000c 07D1     		bne	.L41
 788              		.loc 1 317 0 is_stmt 0 discriminator 1
 789 000e 3E23     		movs	r3, #62
 790 0010 FF33     		adds	r3, r3, #255
 791 0012 1A00     		movs	r2, r3
 792 0014 0D4B     		ldr	r3, .L45
 793 0016 1100     		movs	r1, r2
 794 0018 1800     		movs	r0, r3
 795 001a FFF7FEFF 		bl	Cy_SysLib_AssertFailed
 796              	.L41:
 318:Generated_Source\PSoC6\pdl\drivers\peripheral\prot/cy_prot.c ****     
 319:Generated_Source\PSoC6\pdl\drivers\peripheral\prot/cy_prot.c ****     PROT_MPU_MPU_STRUCT_ATT(base) &= ~_VAL2FLD(PROT_MPU_MPU_STRUCT_ATT_ENABLED, CY_PROT_STRUCT_ENAB
 797              		.loc 1 319 0 is_stmt 1
 798 001e 7B68     		ldr	r3, [r7, #4]
 799 0020 5B68     		ldr	r3, [r3, #4]
 800 0022 5B00     		lsls	r3, r3, #1
 801 0024 5A08     		lsrs	r2, r3, #1
 802 0026 7B68     		ldr	r3, [r7, #4]
 803 0028 5A60     		str	r2, [r3, #4]
 320:Generated_Source\PSoC6\pdl\drivers\peripheral\prot/cy_prot.c ****     status = (_FLD2VAL(PROT_MPU_MPU_STRUCT_ATT_ENABLED, PROT_MPU_MPU_STRUCT_ATT(base)) == CY_PROT_S
 804              		.loc 1 320 0
 805 002a 7B68     		ldr	r3, [r7, #4]
 806 002c 5B68     		ldr	r3, [r3, #4]
 807 002e DB0F     		lsrs	r3, r3, #31
 808 0030 DB07     		lsls	r3, r3, #31
 809 0032 DB0F     		lsrs	r3, r3, #31
 810 0034 012B     		cmp	r3, #1
ARM GAS  C:\Users\JC\AppData\Local\Temp\ccU1E72d.s 			page 21


 811 0036 01D1     		bne	.L42
 812              		.loc 1 320 0 is_stmt 0 discriminator 1
 813 0038 054B     		ldr	r3, .L45+4
 814 003a 00E0     		b	.L43
 815              	.L42:
 816              		.loc 1 320 0 discriminator 2
 817 003c 0023     		movs	r3, #0
 818              	.L43:
 819              		.loc 1 320 0 discriminator 4
 820 003e FB60     		str	r3, [r7, #12]
 321:Generated_Source\PSoC6\pdl\drivers\peripheral\prot/cy_prot.c ****                CY_PROT_FAILURE : CY_PROT_SUCCESS;
 322:Generated_Source\PSoC6\pdl\drivers\peripheral\prot/cy_prot.c ****     
 323:Generated_Source\PSoC6\pdl\drivers\peripheral\prot/cy_prot.c ****     return status;
 821              		.loc 1 323 0 is_stmt 1 discriminator 4
 822 0040 FB68     		ldr	r3, [r7, #12]
 324:Generated_Source\PSoC6\pdl\drivers\peripheral\prot/cy_prot.c **** }
 823              		.loc 1 324 0 discriminator 4
 824 0042 1800     		movs	r0, r3
 825 0044 BD46     		mov	sp, r7
 826 0046 04B0     		add	sp, sp, #16
 827              		@ sp needed
 828 0048 80BD     		pop	{r7, pc}
 829              	.L46:
 830 004a C046     		.align	2
 831              	.L45:
 832 004c 00000000 		.word	.LC1
 833 0050 0300C200 		.word	12713987
 834              		.cfi_endproc
 835              	.LFE52:
 836              		.size	Cy_Prot_DisableMpuStruct, .-Cy_Prot_DisableMpuStruct
 837              		.section	.text.Cy_Prot_ConfigSmpuMasterStruct,"ax",%progbits
 838              		.align	2
 839              		.global	Cy_Prot_ConfigSmpuMasterStruct
 840              		.code	16
 841              		.thumb_func
 842              		.type	Cy_Prot_ConfigSmpuMasterStruct, %function
 843              	Cy_Prot_ConfigSmpuMasterStruct:
 844              	.LFB53:
 325:Generated_Source\PSoC6\pdl\drivers\peripheral\prot/cy_prot.c **** 
 326:Generated_Source\PSoC6\pdl\drivers\peripheral\prot/cy_prot.c **** 
 327:Generated_Source\PSoC6\pdl\drivers\peripheral\prot/cy_prot.c **** /*******************************************************************************
 328:Generated_Source\PSoC6\pdl\drivers\peripheral\prot/cy_prot.c **** * Function Name: Cy_Prot_ConfigSmpuMasterStruct
 329:Generated_Source\PSoC6\pdl\drivers\peripheral\prot/cy_prot.c **** ****************************************************************************//**
 330:Generated_Source\PSoC6\pdl\drivers\peripheral\prot/cy_prot.c **** *
 331:Generated_Source\PSoC6\pdl\drivers\peripheral\prot/cy_prot.c **** * Configures a Shared Memory Protection Unit (SMPU) master protection 
 332:Generated_Source\PSoC6\pdl\drivers\peripheral\prot/cy_prot.c **** * struct with its protection attributes. 
 333:Generated_Source\PSoC6\pdl\drivers\peripheral\prot/cy_prot.c **** *
 334:Generated_Source\PSoC6\pdl\drivers\peripheral\prot/cy_prot.c **** * This function configures the master struct governing the corresponding slave
 335:Generated_Source\PSoC6\pdl\drivers\peripheral\prot/cy_prot.c **** * struct pair. It is a mechanism to protect the slave SMPU struct. Since the
 336:Generated_Source\PSoC6\pdl\drivers\peripheral\prot/cy_prot.c **** * memory location of the slave struct is known, the address, regionSize and
 337:Generated_Source\PSoC6\pdl\drivers\peripheral\prot/cy_prot.c **** * subregions of the configuration struct are not applicable.
 338:Generated_Source\PSoC6\pdl\drivers\peripheral\prot/cy_prot.c **** *
 339:Generated_Source\PSoC6\pdl\drivers\peripheral\prot/cy_prot.c **** * Note that only the user/privileged write permissions are configurable. The 
 340:Generated_Source\PSoC6\pdl\drivers\peripheral\prot/cy_prot.c **** * read and execute permissions are read-only and cannot be configured.
 341:Generated_Source\PSoC6\pdl\drivers\peripheral\prot/cy_prot.c **** *
 342:Generated_Source\PSoC6\pdl\drivers\peripheral\prot/cy_prot.c **** * \note This function is applicable for both CPUSS ver_1 and ver_2.
 343:Generated_Source\PSoC6\pdl\drivers\peripheral\prot/cy_prot.c **** *
ARM GAS  C:\Users\JC\AppData\Local\Temp\ccU1E72d.s 			page 22


 344:Generated_Source\PSoC6\pdl\drivers\peripheral\prot/cy_prot.c **** * \param base
 345:Generated_Source\PSoC6\pdl\drivers\peripheral\prot/cy_prot.c **** * The register base address of the protection struct being configured.
 346:Generated_Source\PSoC6\pdl\drivers\peripheral\prot/cy_prot.c **** * 
 347:Generated_Source\PSoC6\pdl\drivers\peripheral\prot/cy_prot.c **** * \param config
 348:Generated_Source\PSoC6\pdl\drivers\peripheral\prot/cy_prot.c **** * Initialization structure with all the protection attributes.
 349:Generated_Source\PSoC6\pdl\drivers\peripheral\prot/cy_prot.c **** * 
 350:Generated_Source\PSoC6\pdl\drivers\peripheral\prot/cy_prot.c **** * \return
 351:Generated_Source\PSoC6\pdl\drivers\peripheral\prot/cy_prot.c **** * Status of the function call.
 352:Generated_Source\PSoC6\pdl\drivers\peripheral\prot/cy_prot.c **** *
 353:Generated_Source\PSoC6\pdl\drivers\peripheral\prot/cy_prot.c **** *   Status               | Description
 354:Generated_Source\PSoC6\pdl\drivers\peripheral\prot/cy_prot.c **** *   ------------         | -----------
 355:Generated_Source\PSoC6\pdl\drivers\peripheral\prot/cy_prot.c **** *   CY_PROT_SUCCESS      | SMPU master struct was successfully configured.
 356:Generated_Source\PSoC6\pdl\drivers\peripheral\prot/cy_prot.c **** *   CY_PROT_FAILURE      | The resource is locked.
 357:Generated_Source\PSoC6\pdl\drivers\peripheral\prot/cy_prot.c **** *   CY_PROT_BAD_PARAM    | An incorrect/invalid parameter was passed.
 358:Generated_Source\PSoC6\pdl\drivers\peripheral\prot/cy_prot.c **** *
 359:Generated_Source\PSoC6\pdl\drivers\peripheral\prot/cy_prot.c **** * \funcusage
 360:Generated_Source\PSoC6\pdl\drivers\peripheral\prot/cy_prot.c **** * \snippet prot/1.20/snippet/main.c snippet_Cy_Prot_ConfigSmpuMasterStruct
 361:Generated_Source\PSoC6\pdl\drivers\peripheral\prot/cy_prot.c **** *
 362:Generated_Source\PSoC6\pdl\drivers\peripheral\prot/cy_prot.c **** *******************************************************************************/
 363:Generated_Source\PSoC6\pdl\drivers\peripheral\prot/cy_prot.c **** cy_en_prot_status_t Cy_Prot_ConfigSmpuMasterStruct(PROT_SMPU_SMPU_STRUCT_Type* base, const cy_stc_s
 364:Generated_Source\PSoC6\pdl\drivers\peripheral\prot/cy_prot.c **** {
 845              		.loc 1 364 0
 846              		.cfi_startproc
 847              		@ args = 0, pretend = 0, frame = 16
 848              		@ frame_needed = 1, uses_anonymous_args = 0
 849 0000 80B5     		push	{r7, lr}
 850              		.cfi_def_cfa_offset 8
 851              		.cfi_offset 7, -8
 852              		.cfi_offset 14, -4
 853 0002 84B0     		sub	sp, sp, #16
 854              		.cfi_def_cfa_offset 24
 855 0004 00AF     		add	r7, sp, #0
 856              		.cfi_def_cfa_register 7
 857 0006 7860     		str	r0, [r7, #4]
 858 0008 3960     		str	r1, [r7]
 365:Generated_Source\PSoC6\pdl\drivers\peripheral\prot/cy_prot.c ****     cy_en_prot_status_t status;
 366:Generated_Source\PSoC6\pdl\drivers\peripheral\prot/cy_prot.c ****     uint32_t attReg;
 367:Generated_Source\PSoC6\pdl\drivers\peripheral\prot/cy_prot.c ****     
 368:Generated_Source\PSoC6\pdl\drivers\peripheral\prot/cy_prot.c ****     CY_ASSERT_L1(NULL != base);
 859              		.loc 1 368 0
 860 000a 7B68     		ldr	r3, [r7, #4]
 861 000c 002B     		cmp	r3, #0
 862 000e 06D1     		bne	.L48
 863              		.loc 1 368 0 is_stmt 0 discriminator 1
 864 0010 B823     		movs	r3, #184
 865 0012 5A00     		lsls	r2, r3, #1
 866 0014 3C4B     		ldr	r3, .L58
 867 0016 1100     		movs	r1, r2
 868 0018 1800     		movs	r0, r3
 869 001a FFF7FEFF 		bl	Cy_SysLib_AssertFailed
 870              	.L48:
 369:Generated_Source\PSoC6\pdl\drivers\peripheral\prot/cy_prot.c ****     CY_ASSERT_L2(CY_PROT_IS_PC_MASK_VALID(config->pcMask));
 871              		.loc 1 369 0 is_stmt 1
 872 001e 3B68     		ldr	r3, [r7]
 873 0020 5B89     		ldrh	r3, [r3, #10]
 874 0022 DB0B     		lsrs	r3, r3, #15
 875 0024 DB03     		lsls	r3, r3, #15
ARM GAS  C:\Users\JC\AppData\Local\Temp\ccU1E72d.s 			page 23


 876 0026 07D0     		beq	.L49
 877              		.loc 1 369 0 is_stmt 0 discriminator 1
 878 0028 7223     		movs	r3, #114
 879 002a FF33     		adds	r3, r3, #255
 880 002c 1A00     		movs	r2, r3
 881 002e 364B     		ldr	r3, .L58
 882 0030 1100     		movs	r1, r2
 883 0032 1800     		movs	r0, r3
 884 0034 FFF7FEFF 		bl	Cy_SysLib_AssertFailed
 885              	.L49:
 370:Generated_Source\PSoC6\pdl\drivers\peripheral\prot/cy_prot.c ****     CY_ASSERT_L3(CY_PROT_IS_SMPU_MS_PERM_VALID(config->userPermission));
 886              		.loc 1 370 0 is_stmt 1
 887 0038 3B68     		ldr	r3, [r7]
 888 003a 9B79     		ldrb	r3, [r3, #6]
 889 003c 012B     		cmp	r3, #1
 890 003e 0AD0     		beq	.L50
 891              		.loc 1 370 0 is_stmt 0 discriminator 1
 892 0040 3B68     		ldr	r3, [r7]
 893 0042 9B79     		ldrb	r3, [r3, #6]
 894 0044 032B     		cmp	r3, #3
 895 0046 06D0     		beq	.L50
 896              		.loc 1 370 0 discriminator 2
 897 0048 B923     		movs	r3, #185
 898 004a 5A00     		lsls	r2, r3, #1
 899 004c 2E4B     		ldr	r3, .L58
 900 004e 1100     		movs	r1, r2
 901 0050 1800     		movs	r0, r3
 902 0052 FFF7FEFF 		bl	Cy_SysLib_AssertFailed
 903              	.L50:
 371:Generated_Source\PSoC6\pdl\drivers\peripheral\prot/cy_prot.c ****     CY_ASSERT_L3(CY_PROT_IS_SMPU_MS_PERM_VALID(config->privPermission));
 904              		.loc 1 371 0 is_stmt 1
 905 0056 3B68     		ldr	r3, [r7]
 906 0058 DB79     		ldrb	r3, [r3, #7]
 907 005a 012B     		cmp	r3, #1
 908 005c 0BD0     		beq	.L51
 909              		.loc 1 371 0 is_stmt 0 discriminator 1
 910 005e 3B68     		ldr	r3, [r7]
 911 0060 DB79     		ldrb	r3, [r3, #7]
 912 0062 032B     		cmp	r3, #3
 913 0064 07D0     		beq	.L51
 914              		.loc 1 371 0 discriminator 2
 915 0066 7423     		movs	r3, #116
 916 0068 FF33     		adds	r3, r3, #255
 917 006a 1A00     		movs	r2, r3
 918 006c 264B     		ldr	r3, .L58
 919 006e 1100     		movs	r1, r2
 920 0070 1800     		movs	r0, r3
 921 0072 FFF7FEFF 		bl	Cy_SysLib_AssertFailed
 922              	.L51:
 372:Generated_Source\PSoC6\pdl\drivers\peripheral\prot/cy_prot.c ****     
 373:Generated_Source\PSoC6\pdl\drivers\peripheral\prot/cy_prot.c ****     if(((uint32_t)config->pcMask & CY_PROT_SMPU_PC_LIMIT_MASK) != 0UL) 
 923              		.loc 1 373 0 is_stmt 1
 924 0076 3B68     		ldr	r3, [r7]
 925 0078 5B89     		ldrh	r3, [r3, #10]
 926 007a 1A00     		movs	r2, r3
 927 007c 7F23     		movs	r3, #127
 928 007e 9A43     		bics	r2, r3
ARM GAS  C:\Users\JC\AppData\Local\Temp\ccU1E72d.s 			page 24


 929 0080 131E     		subs	r3, r2, #0
 930 0082 02D0     		beq	.L52
 374:Generated_Source\PSoC6\pdl\drivers\peripheral\prot/cy_prot.c ****     {
 375:Generated_Source\PSoC6\pdl\drivers\peripheral\prot/cy_prot.c ****         /* PC mask out of range - not supported in device */
 376:Generated_Source\PSoC6\pdl\drivers\peripheral\prot/cy_prot.c ****         status = CY_PROT_BAD_PARAM;
 931              		.loc 1 376 0
 932 0084 214B     		ldr	r3, .L58+4
 933 0086 FB60     		str	r3, [r7, #12]
 934 0088 38E0     		b	.L53
 935              	.L52:
 377:Generated_Source\PSoC6\pdl\drivers\peripheral\prot/cy_prot.c ****     }
 378:Generated_Source\PSoC6\pdl\drivers\peripheral\prot/cy_prot.c ****     else
 379:Generated_Source\PSoC6\pdl\drivers\peripheral\prot/cy_prot.c ****     {
 380:Generated_Source\PSoC6\pdl\drivers\peripheral\prot/cy_prot.c ****         /* ADDR1 is read only. Only configure ATT1 */
 381:Generated_Source\PSoC6\pdl\drivers\peripheral\prot/cy_prot.c ****         attReg = ((uint32_t)config->userPermission & CY_PROT_ATT_PERMISSION_MASK)
 936              		.loc 1 381 0
 937 008a 3B68     		ldr	r3, [r7]
 938 008c 9B79     		ldrb	r3, [r3, #6]
 939 008e 1A00     		movs	r2, r3
 940 0090 0723     		movs	r3, #7
 941 0092 1A40     		ands	r2, r3
 382:Generated_Source\PSoC6\pdl\drivers\peripheral\prot/cy_prot.c ****                     | (uint32_t)(((uint32_t)config->privPermission & CY_PROT_ATT_PERMISSION_MASK) <
 942              		.loc 1 382 0
 943 0094 3B68     		ldr	r3, [r7]
 944 0096 DB79     		ldrb	r3, [r3, #7]
 945 0098 DB00     		lsls	r3, r3, #3
 946 009a 3821     		movs	r1, #56
 947 009c 0B40     		ands	r3, r1
 948 009e 1A43     		orrs	r2, r3
 383:Generated_Source\PSoC6\pdl\drivers\peripheral\prot/cy_prot.c ****                     | _VAL2FLD(PROT_SMPU_SMPU_STRUCT_ATT1_NS, !(config->secure))
 949              		.loc 1 383 0
 950 00a0 3B68     		ldr	r3, [r7]
 951 00a2 1B7A     		ldrb	r3, [r3, #8]
 952 00a4 0121     		movs	r1, #1
 953 00a6 4B40     		eors	r3, r1
 954 00a8 DBB2     		uxtb	r3, r3
 955 00aa 9B01     		lsls	r3, r3, #6
 956 00ac 4021     		movs	r1, #64
 957 00ae 0B40     		ands	r3, r1
 958 00b0 1A43     		orrs	r2, r3
 384:Generated_Source\PSoC6\pdl\drivers\peripheral\prot/cy_prot.c ****                     | _VAL2FLD(PROT_SMPU_SMPU_STRUCT_ATT1_PC_MASK_15_TO_1, config->pcMask)
 959              		.loc 1 384 0
 960 00b2 3B68     		ldr	r3, [r7]
 961 00b4 5B89     		ldrh	r3, [r3, #10]
 962 00b6 5B02     		lsls	r3, r3, #9
 963 00b8 1549     		ldr	r1, .L58+8
 964 00ba 0B40     		ands	r3, r1
 965 00bc 1A43     		orrs	r2, r3
 385:Generated_Source\PSoC6\pdl\drivers\peripheral\prot/cy_prot.c ****                     /* No region size - read only for master structs */
 386:Generated_Source\PSoC6\pdl\drivers\peripheral\prot/cy_prot.c ****                     | _VAL2FLD(PROT_SMPU_SMPU_STRUCT_ATT1_PC_MATCH, config->pcMatch);
 966              		.loc 1 386 0
 967 00be 3B68     		ldr	r3, [r7]
 968 00c0 5B7A     		ldrb	r3, [r3, #9]
 969 00c2 9907     		lsls	r1, r3, #30
 970 00c4 8023     		movs	r3, #128
 971 00c6 DB05     		lsls	r3, r3, #23
 972 00c8 0B40     		ands	r3, r1
ARM GAS  C:\Users\JC\AppData\Local\Temp\ccU1E72d.s 			page 25


 381:Generated_Source\PSoC6\pdl\drivers\peripheral\prot/cy_prot.c ****                     | (uint32_t)(((uint32_t)config->privPermission & CY_PROT_ATT_PERMISSION_MASK) <
 973              		.loc 1 381 0
 974 00ca 1343     		orrs	r3, r2
 975 00cc BB60     		str	r3, [r7, #8]
 387:Generated_Source\PSoC6\pdl\drivers\peripheral\prot/cy_prot.c ****         if ((attReg & CY_PROT_SMPU_ATT1_MASK) != attReg)
 976              		.loc 1 387 0
 977 00ce BB68     		ldr	r3, [r7, #8]
 978 00d0 104A     		ldr	r2, .L58+12
 979 00d2 1A40     		ands	r2, r3
 980 00d4 BB68     		ldr	r3, [r7, #8]
 981 00d6 9A42     		cmp	r2, r3
 982 00d8 02D0     		beq	.L54
 388:Generated_Source\PSoC6\pdl\drivers\peripheral\prot/cy_prot.c ****         {
 389:Generated_Source\PSoC6\pdl\drivers\peripheral\prot/cy_prot.c ****             /* Invalid parameter was passed */
 390:Generated_Source\PSoC6\pdl\drivers\peripheral\prot/cy_prot.c ****             status = CY_PROT_BAD_PARAM;
 983              		.loc 1 390 0
 984 00da 0C4B     		ldr	r3, .L58+4
 985 00dc FB60     		str	r3, [r7, #12]
 986 00de 0DE0     		b	.L53
 987              	.L54:
 391:Generated_Source\PSoC6\pdl\drivers\peripheral\prot/cy_prot.c ****         }
 392:Generated_Source\PSoC6\pdl\drivers\peripheral\prot/cy_prot.c ****         else
 393:Generated_Source\PSoC6\pdl\drivers\peripheral\prot/cy_prot.c ****         {
 394:Generated_Source\PSoC6\pdl\drivers\peripheral\prot/cy_prot.c ****             PROT_SMPU_SMPU_STRUCT_ATT1(base) = attReg;
 988              		.loc 1 394 0
 989 00e0 7B68     		ldr	r3, [r7, #4]
 990 00e2 BA68     		ldr	r2, [r7, #8]
 991 00e4 5A62     		str	r2, [r3, #36]
 395:Generated_Source\PSoC6\pdl\drivers\peripheral\prot/cy_prot.c ****             status = ((PROT_SMPU_SMPU_STRUCT_ATT1(base) & CY_PROT_SMPU_ATT1_MASK) != attReg) ? CY_P
 992              		.loc 1 395 0
 993 00e6 7B68     		ldr	r3, [r7, #4]
 994 00e8 5B6A     		ldr	r3, [r3, #36]
 995 00ea 0A4A     		ldr	r2, .L58+12
 996 00ec 1A40     		ands	r2, r3
 997 00ee BB68     		ldr	r3, [r7, #8]
 998 00f0 9A42     		cmp	r2, r3
 999 00f2 01D0     		beq	.L55
 1000              		.loc 1 395 0 is_stmt 0 discriminator 1
 1001 00f4 084B     		ldr	r3, .L58+16
 1002 00f6 00E0     		b	.L56
 1003              	.L55:
 1004              		.loc 1 395 0 discriminator 2
 1005 00f8 0023     		movs	r3, #0
 1006              	.L56:
 1007              		.loc 1 395 0 discriminator 4
 1008 00fa FB60     		str	r3, [r7, #12]
 1009              	.L53:
 396:Generated_Source\PSoC6\pdl\drivers\peripheral\prot/cy_prot.c ****         }
 397:Generated_Source\PSoC6\pdl\drivers\peripheral\prot/cy_prot.c ****     }
 398:Generated_Source\PSoC6\pdl\drivers\peripheral\prot/cy_prot.c ****     
 399:Generated_Source\PSoC6\pdl\drivers\peripheral\prot/cy_prot.c ****     return status;
 1010              		.loc 1 399 0 is_stmt 1
 1011 00fc FB68     		ldr	r3, [r7, #12]
 400:Generated_Source\PSoC6\pdl\drivers\peripheral\prot/cy_prot.c **** }
 1012              		.loc 1 400 0
 1013 00fe 1800     		movs	r0, r3
 1014 0100 BD46     		mov	sp, r7
ARM GAS  C:\Users\JC\AppData\Local\Temp\ccU1E72d.s 			page 26


 1015 0102 04B0     		add	sp, sp, #16
 1016              		@ sp needed
 1017 0104 80BD     		pop	{r7, pc}
 1018              	.L59:
 1019 0106 C046     		.align	2
 1020              	.L58:
 1021 0108 00000000 		.word	.LC1
 1022 010c 0100C200 		.word	12713985
 1023 0110 00FEFF00 		.word	16776704
 1024 0114 DBFEFFE0 		.word	-520093989
 1025 0118 0300C200 		.word	12713987
 1026              		.cfi_endproc
 1027              	.LFE53:
 1028              		.size	Cy_Prot_ConfigSmpuMasterStruct, .-Cy_Prot_ConfigSmpuMasterStruct
 1029              		.section	.text.Cy_Prot_ConfigSmpuSlaveStruct,"ax",%progbits
 1030              		.align	2
 1031              		.global	Cy_Prot_ConfigSmpuSlaveStruct
 1032              		.code	16
 1033              		.thumb_func
 1034              		.type	Cy_Prot_ConfigSmpuSlaveStruct, %function
 1035              	Cy_Prot_ConfigSmpuSlaveStruct:
 1036              	.LFB54:
 401:Generated_Source\PSoC6\pdl\drivers\peripheral\prot/cy_prot.c **** 
 402:Generated_Source\PSoC6\pdl\drivers\peripheral\prot/cy_prot.c **** 
 403:Generated_Source\PSoC6\pdl\drivers\peripheral\prot/cy_prot.c **** /*******************************************************************************
 404:Generated_Source\PSoC6\pdl\drivers\peripheral\prot/cy_prot.c **** * Function Name: Cy_Prot_ConfigSmpuSlaveStruct
 405:Generated_Source\PSoC6\pdl\drivers\peripheral\prot/cy_prot.c **** ****************************************************************************//**
 406:Generated_Source\PSoC6\pdl\drivers\peripheral\prot/cy_prot.c **** *
 407:Generated_Source\PSoC6\pdl\drivers\peripheral\prot/cy_prot.c **** * Configures a Shared Memory Protection Unit (SMPU) slave protection 
 408:Generated_Source\PSoC6\pdl\drivers\peripheral\prot/cy_prot.c **** * struct with its protection attributes. 
 409:Generated_Source\PSoC6\pdl\drivers\peripheral\prot/cy_prot.c **** * 
 410:Generated_Source\PSoC6\pdl\drivers\peripheral\prot/cy_prot.c **** * This function configures the slave struct of an SMPU pair, which can protect
 411:Generated_Source\PSoC6\pdl\drivers\peripheral\prot/cy_prot.c **** * any memory region in a device from invalid bus master accesses.
 412:Generated_Source\PSoC6\pdl\drivers\peripheral\prot/cy_prot.c **** *
 413:Generated_Source\PSoC6\pdl\drivers\peripheral\prot/cy_prot.c **** * \note This function is applicable for both CPUSS ver_1 and ver_2.
 414:Generated_Source\PSoC6\pdl\drivers\peripheral\prot/cy_prot.c **** *
 415:Generated_Source\PSoC6\pdl\drivers\peripheral\prot/cy_prot.c **** * \param base
 416:Generated_Source\PSoC6\pdl\drivers\peripheral\prot/cy_prot.c **** * The register base address of the protection structure being configured.
 417:Generated_Source\PSoC6\pdl\drivers\peripheral\prot/cy_prot.c **** * 
 418:Generated_Source\PSoC6\pdl\drivers\peripheral\prot/cy_prot.c **** * \param config
 419:Generated_Source\PSoC6\pdl\drivers\peripheral\prot/cy_prot.c **** * Initialization structure with all the protection attributes.
 420:Generated_Source\PSoC6\pdl\drivers\peripheral\prot/cy_prot.c **** * 
 421:Generated_Source\PSoC6\pdl\drivers\peripheral\prot/cy_prot.c **** * \return
 422:Generated_Source\PSoC6\pdl\drivers\peripheral\prot/cy_prot.c **** * Status of the function call.
 423:Generated_Source\PSoC6\pdl\drivers\peripheral\prot/cy_prot.c **** *
 424:Generated_Source\PSoC6\pdl\drivers\peripheral\prot/cy_prot.c **** *   Status               | Description
 425:Generated_Source\PSoC6\pdl\drivers\peripheral\prot/cy_prot.c **** *   ------------         | -----------
 426:Generated_Source\PSoC6\pdl\drivers\peripheral\prot/cy_prot.c **** *   CY_PROT_SUCCESS      | SMPU slave struct was successfully configured.
 427:Generated_Source\PSoC6\pdl\drivers\peripheral\prot/cy_prot.c **** *   CY_PROT_FAILURE      | The resource is locked.
 428:Generated_Source\PSoC6\pdl\drivers\peripheral\prot/cy_prot.c **** *   CY_PROT_BAD_PARAM    | An incorrect/invalid parameter was passed.
 429:Generated_Source\PSoC6\pdl\drivers\peripheral\prot/cy_prot.c **** *
 430:Generated_Source\PSoC6\pdl\drivers\peripheral\prot/cy_prot.c **** * \funcusage
 431:Generated_Source\PSoC6\pdl\drivers\peripheral\prot/cy_prot.c **** * \snippet prot/1.20/snippet/main.c snippet_Cy_Prot_ConfigSmpuSlaveStruct
 432:Generated_Source\PSoC6\pdl\drivers\peripheral\prot/cy_prot.c **** *
 433:Generated_Source\PSoC6\pdl\drivers\peripheral\prot/cy_prot.c **** *******************************************************************************/
 434:Generated_Source\PSoC6\pdl\drivers\peripheral\prot/cy_prot.c **** cy_en_prot_status_t Cy_Prot_ConfigSmpuSlaveStruct(PROT_SMPU_SMPU_STRUCT_Type* base, const cy_stc_sm
 435:Generated_Source\PSoC6\pdl\drivers\peripheral\prot/cy_prot.c **** {
ARM GAS  C:\Users\JC\AppData\Local\Temp\ccU1E72d.s 			page 27


 1037              		.loc 1 435 0
 1038              		.cfi_startproc
 1039              		@ args = 0, pretend = 0, frame = 24
 1040              		@ frame_needed = 1, uses_anonymous_args = 0
 1041 0000 80B5     		push	{r7, lr}
 1042              		.cfi_def_cfa_offset 8
 1043              		.cfi_offset 7, -8
 1044              		.cfi_offset 14, -4
 1045 0002 86B0     		sub	sp, sp, #24
 1046              		.cfi_def_cfa_offset 32
 1047 0004 00AF     		add	r7, sp, #0
 1048              		.cfi_def_cfa_register 7
 1049 0006 7860     		str	r0, [r7, #4]
 1050 0008 3960     		str	r1, [r7]
 436:Generated_Source\PSoC6\pdl\drivers\peripheral\prot/cy_prot.c ****     cy_en_prot_status_t status = CY_PROT_SUCCESS;
 1051              		.loc 1 436 0
 1052 000a 0023     		movs	r3, #0
 1053 000c 7B61     		str	r3, [r7, #20]
 437:Generated_Source\PSoC6\pdl\drivers\peripheral\prot/cy_prot.c ****     uint32_t addrReg;
 438:Generated_Source\PSoC6\pdl\drivers\peripheral\prot/cy_prot.c ****     uint32_t attReg;
 439:Generated_Source\PSoC6\pdl\drivers\peripheral\prot/cy_prot.c ****     
 440:Generated_Source\PSoC6\pdl\drivers\peripheral\prot/cy_prot.c ****     CY_ASSERT_L1(NULL != base);
 1054              		.loc 1 440 0
 1055 000e 7B68     		ldr	r3, [r7, #4]
 1056 0010 002B     		cmp	r3, #0
 1057 0012 06D1     		bne	.L61
 1058              		.loc 1 440 0 is_stmt 0 discriminator 1
 1059 0014 DC23     		movs	r3, #220
 1060 0016 5A00     		lsls	r2, r3, #1
 1061 0018 944B     		ldr	r3, .L72
 1062 001a 1100     		movs	r1, r2
 1063 001c 1800     		movs	r0, r3
 1064 001e FFF7FEFF 		bl	Cy_SysLib_AssertFailed
 1065              	.L61:
 441:Generated_Source\PSoC6\pdl\drivers\peripheral\prot/cy_prot.c ****     CY_ASSERT_L2(CY_PROT_IS_PC_MASK_VALID(config->pcMask));
 1066              		.loc 1 441 0 is_stmt 1
 1067 0022 3B68     		ldr	r3, [r7]
 1068 0024 5B89     		ldrh	r3, [r3, #10]
 1069 0026 DB0B     		lsrs	r3, r3, #15
 1070 0028 DB03     		lsls	r3, r3, #15
 1071 002a 07D0     		beq	.L62
 1072              		.loc 1 441 0 is_stmt 0 discriminator 1
 1073 002c BA23     		movs	r3, #186
 1074 002e FF33     		adds	r3, r3, #255
 1075 0030 1A00     		movs	r2, r3
 1076 0032 8E4B     		ldr	r3, .L72
 1077 0034 1100     		movs	r1, r2
 1078 0036 1800     		movs	r0, r3
 1079 0038 FFF7FEFF 		bl	Cy_SysLib_AssertFailed
 1080              	.L62:
 442:Generated_Source\PSoC6\pdl\drivers\peripheral\prot/cy_prot.c ****     CY_ASSERT_L3(CY_PROT_IS_SMPU_SL_PERM_VALID(config->userPermission));
 1081              		.loc 1 442 0 is_stmt 1
 1082 003c 3B68     		ldr	r3, [r7]
 1083 003e 9B79     		ldrb	r3, [r3, #6]
 1084 0040 002B     		cmp	r3, #0
 1085 0042 22D0     		beq	.L63
 1086              		.loc 1 442 0 is_stmt 0 discriminator 1
ARM GAS  C:\Users\JC\AppData\Local\Temp\ccU1E72d.s 			page 28


 1087 0044 3B68     		ldr	r3, [r7]
 1088 0046 9B79     		ldrb	r3, [r3, #6]
 1089 0048 012B     		cmp	r3, #1
 1090 004a 1ED0     		beq	.L63
 1091              		.loc 1 442 0 discriminator 2
 1092 004c 3B68     		ldr	r3, [r7]
 1093 004e 9B79     		ldrb	r3, [r3, #6]
 1094 0050 022B     		cmp	r3, #2
 1095 0052 1AD0     		beq	.L63
 1096              		.loc 1 442 0 discriminator 3
 1097 0054 3B68     		ldr	r3, [r7]
 1098 0056 9B79     		ldrb	r3, [r3, #6]
 1099 0058 032B     		cmp	r3, #3
 1100 005a 16D0     		beq	.L63
 1101              		.loc 1 442 0 discriminator 4
 1102 005c 3B68     		ldr	r3, [r7]
 1103 005e 9B79     		ldrb	r3, [r3, #6]
 1104 0060 042B     		cmp	r3, #4
 1105 0062 12D0     		beq	.L63
 1106              		.loc 1 442 0 discriminator 5
 1107 0064 3B68     		ldr	r3, [r7]
 1108 0066 9B79     		ldrb	r3, [r3, #6]
 1109 0068 052B     		cmp	r3, #5
 1110 006a 0ED0     		beq	.L63
 1111              		.loc 1 442 0 discriminator 6
 1112 006c 3B68     		ldr	r3, [r7]
 1113 006e 9B79     		ldrb	r3, [r3, #6]
 1114 0070 062B     		cmp	r3, #6
 1115 0072 0AD0     		beq	.L63
 1116              		.loc 1 442 0 discriminator 7
 1117 0074 3B68     		ldr	r3, [r7]
 1118 0076 9B79     		ldrb	r3, [r3, #6]
 1119 0078 072B     		cmp	r3, #7
 1120 007a 06D0     		beq	.L63
 1121              		.loc 1 442 0 discriminator 8
 1122 007c DD23     		movs	r3, #221
 1123 007e 5A00     		lsls	r2, r3, #1
 1124 0080 7A4B     		ldr	r3, .L72
 1125 0082 1100     		movs	r1, r2
 1126 0084 1800     		movs	r0, r3
 1127 0086 FFF7FEFF 		bl	Cy_SysLib_AssertFailed
 1128              	.L63:
 443:Generated_Source\PSoC6\pdl\drivers\peripheral\prot/cy_prot.c ****     CY_ASSERT_L3(CY_PROT_IS_SMPU_SL_PERM_VALID(config->privPermission));
 1129              		.loc 1 443 0 is_stmt 1
 1130 008a 3B68     		ldr	r3, [r7]
 1131 008c DB79     		ldrb	r3, [r3, #7]
 1132 008e 002B     		cmp	r3, #0
 1133 0090 23D0     		beq	.L64
 1134              		.loc 1 443 0 is_stmt 0 discriminator 1
 1135 0092 3B68     		ldr	r3, [r7]
 1136 0094 DB79     		ldrb	r3, [r3, #7]
 1137 0096 012B     		cmp	r3, #1
 1138 0098 1FD0     		beq	.L64
 1139              		.loc 1 443 0 discriminator 2
 1140 009a 3B68     		ldr	r3, [r7]
 1141 009c DB79     		ldrb	r3, [r3, #7]
 1142 009e 022B     		cmp	r3, #2
ARM GAS  C:\Users\JC\AppData\Local\Temp\ccU1E72d.s 			page 29


 1143 00a0 1BD0     		beq	.L64
 1144              		.loc 1 443 0 discriminator 3
 1145 00a2 3B68     		ldr	r3, [r7]
 1146 00a4 DB79     		ldrb	r3, [r3, #7]
 1147 00a6 032B     		cmp	r3, #3
 1148 00a8 17D0     		beq	.L64
 1149              		.loc 1 443 0 discriminator 4
 1150 00aa 3B68     		ldr	r3, [r7]
 1151 00ac DB79     		ldrb	r3, [r3, #7]
 1152 00ae 042B     		cmp	r3, #4
 1153 00b0 13D0     		beq	.L64
 1154              		.loc 1 443 0 discriminator 5
 1155 00b2 3B68     		ldr	r3, [r7]
 1156 00b4 DB79     		ldrb	r3, [r3, #7]
 1157 00b6 052B     		cmp	r3, #5
 1158 00b8 0FD0     		beq	.L64
 1159              		.loc 1 443 0 discriminator 6
 1160 00ba 3B68     		ldr	r3, [r7]
 1161 00bc DB79     		ldrb	r3, [r3, #7]
 1162 00be 062B     		cmp	r3, #6
 1163 00c0 0BD0     		beq	.L64
 1164              		.loc 1 443 0 discriminator 7
 1165 00c2 3B68     		ldr	r3, [r7]
 1166 00c4 DB79     		ldrb	r3, [r3, #7]
 1167 00c6 072B     		cmp	r3, #7
 1168 00c8 07D0     		beq	.L64
 1169              		.loc 1 443 0 discriminator 8
 1170 00ca BC23     		movs	r3, #188
 1171 00cc FF33     		adds	r3, r3, #255
 1172 00ce 1A00     		movs	r2, r3
 1173 00d0 664B     		ldr	r3, .L72
 1174 00d2 1100     		movs	r1, r2
 1175 00d4 1800     		movs	r0, r3
 1176 00d6 FFF7FEFF 		bl	Cy_SysLib_AssertFailed
 1177              	.L64:
 444:Generated_Source\PSoC6\pdl\drivers\peripheral\prot/cy_prot.c ****     CY_ASSERT_L3(CY_PROT_IS_REGION_SIZE_VALID(config->regionSize));
 1178              		.loc 1 444 0 is_stmt 1
 1179 00da 3B68     		ldr	r3, [r7]
 1180 00dc 1B79     		ldrb	r3, [r3, #4]
 1181 00de 072B     		cmp	r3, #7
 1182 00e0 00D1     		bne	.LCB1007
 1183 00e2 69E0     		b	.L65	@long jump
 1184              	.LCB1007:
 1185              		.loc 1 444 0 is_stmt 0 discriminator 1
 1186 00e4 3B68     		ldr	r3, [r7]
 1187 00e6 1B79     		ldrb	r3, [r3, #4]
 1188 00e8 082B     		cmp	r3, #8
 1189 00ea 00D1     		bne	.LCB1011
 1190 00ec 64E0     		b	.L65	@long jump
 1191              	.LCB1011:
 1192              		.loc 1 444 0 discriminator 2
 1193 00ee 3B68     		ldr	r3, [r7]
 1194 00f0 1B79     		ldrb	r3, [r3, #4]
 1195 00f2 092B     		cmp	r3, #9
 1196 00f4 00D1     		bne	.LCB1015
 1197 00f6 5FE0     		b	.L65	@long jump
 1198              	.LCB1015:
ARM GAS  C:\Users\JC\AppData\Local\Temp\ccU1E72d.s 			page 30


 1199              		.loc 1 444 0 discriminator 3
 1200 00f8 3B68     		ldr	r3, [r7]
 1201 00fa 1B79     		ldrb	r3, [r3, #4]
 1202 00fc 0A2B     		cmp	r3, #10
 1203 00fe 00D1     		bne	.LCB1019
 1204 0100 5AE0     		b	.L65	@long jump
 1205              	.LCB1019:
 1206              		.loc 1 444 0 discriminator 4
 1207 0102 3B68     		ldr	r3, [r7]
 1208 0104 1B79     		ldrb	r3, [r3, #4]
 1209 0106 0B2B     		cmp	r3, #11
 1210 0108 56D0     		beq	.L65
 1211              		.loc 1 444 0 discriminator 5
 1212 010a 3B68     		ldr	r3, [r7]
 1213 010c 1B79     		ldrb	r3, [r3, #4]
 1214 010e 0C2B     		cmp	r3, #12
 1215 0110 52D0     		beq	.L65
 1216              		.loc 1 444 0 discriminator 6
 1217 0112 3B68     		ldr	r3, [r7]
 1218 0114 1B79     		ldrb	r3, [r3, #4]
 1219 0116 0D2B     		cmp	r3, #13
 1220 0118 4ED0     		beq	.L65
 1221              		.loc 1 444 0 discriminator 7
 1222 011a 3B68     		ldr	r3, [r7]
 1223 011c 1B79     		ldrb	r3, [r3, #4]
 1224 011e 0E2B     		cmp	r3, #14
 1225 0120 4AD0     		beq	.L65
 1226              		.loc 1 444 0 discriminator 8
 1227 0122 3B68     		ldr	r3, [r7]
 1228 0124 1B79     		ldrb	r3, [r3, #4]
 1229 0126 0F2B     		cmp	r3, #15
 1230 0128 46D0     		beq	.L65
 1231              		.loc 1 444 0 discriminator 9
 1232 012a 3B68     		ldr	r3, [r7]
 1233 012c 1B79     		ldrb	r3, [r3, #4]
 1234 012e 102B     		cmp	r3, #16
 1235 0130 42D0     		beq	.L65
 1236              		.loc 1 444 0 discriminator 10
 1237 0132 3B68     		ldr	r3, [r7]
 1238 0134 1B79     		ldrb	r3, [r3, #4]
 1239 0136 112B     		cmp	r3, #17
 1240 0138 3ED0     		beq	.L65
 1241              		.loc 1 444 0 discriminator 11
 1242 013a 3B68     		ldr	r3, [r7]
 1243 013c 1B79     		ldrb	r3, [r3, #4]
 1244 013e 122B     		cmp	r3, #18
 1245 0140 3AD0     		beq	.L65
 1246              		.loc 1 444 0 discriminator 12
 1247 0142 3B68     		ldr	r3, [r7]
 1248 0144 1B79     		ldrb	r3, [r3, #4]
 1249 0146 132B     		cmp	r3, #19
 1250 0148 36D0     		beq	.L65
 1251              		.loc 1 444 0 discriminator 13
 1252 014a 3B68     		ldr	r3, [r7]
 1253 014c 1B79     		ldrb	r3, [r3, #4]
 1254 014e 142B     		cmp	r3, #20
 1255 0150 32D0     		beq	.L65
ARM GAS  C:\Users\JC\AppData\Local\Temp\ccU1E72d.s 			page 31


 1256              		.loc 1 444 0 discriminator 14
 1257 0152 3B68     		ldr	r3, [r7]
 1258 0154 1B79     		ldrb	r3, [r3, #4]
 1259 0156 152B     		cmp	r3, #21
 1260 0158 2ED0     		beq	.L65
 1261              		.loc 1 444 0 discriminator 15
 1262 015a 3B68     		ldr	r3, [r7]
 1263 015c 1B79     		ldrb	r3, [r3, #4]
 1264 015e 162B     		cmp	r3, #22
 1265 0160 2AD0     		beq	.L65
 1266              		.loc 1 444 0 discriminator 16
 1267 0162 3B68     		ldr	r3, [r7]
 1268 0164 1B79     		ldrb	r3, [r3, #4]
 1269 0166 172B     		cmp	r3, #23
 1270 0168 26D0     		beq	.L65
 1271              		.loc 1 444 0 discriminator 17
 1272 016a 3B68     		ldr	r3, [r7]
 1273 016c 1B79     		ldrb	r3, [r3, #4]
 1274 016e 182B     		cmp	r3, #24
 1275 0170 22D0     		beq	.L65
 1276              		.loc 1 444 0 discriminator 18
 1277 0172 3B68     		ldr	r3, [r7]
 1278 0174 1B79     		ldrb	r3, [r3, #4]
 1279 0176 192B     		cmp	r3, #25
 1280 0178 1ED0     		beq	.L65
 1281              		.loc 1 444 0 discriminator 19
 1282 017a 3B68     		ldr	r3, [r7]
 1283 017c 1B79     		ldrb	r3, [r3, #4]
 1284 017e 1A2B     		cmp	r3, #26
 1285 0180 1AD0     		beq	.L65
 1286              		.loc 1 444 0 discriminator 20
 1287 0182 3B68     		ldr	r3, [r7]
 1288 0184 1B79     		ldrb	r3, [r3, #4]
 1289 0186 1B2B     		cmp	r3, #27
 1290 0188 16D0     		beq	.L65
 1291              		.loc 1 444 0 discriminator 21
 1292 018a 3B68     		ldr	r3, [r7]
 1293 018c 1B79     		ldrb	r3, [r3, #4]
 1294 018e 1C2B     		cmp	r3, #28
 1295 0190 12D0     		beq	.L65
 1296              		.loc 1 444 0 discriminator 22
 1297 0192 3B68     		ldr	r3, [r7]
 1298 0194 1B79     		ldrb	r3, [r3, #4]
 1299 0196 1D2B     		cmp	r3, #29
 1300 0198 0ED0     		beq	.L65
 1301              		.loc 1 444 0 discriminator 23
 1302 019a 3B68     		ldr	r3, [r7]
 1303 019c 1B79     		ldrb	r3, [r3, #4]
 1304 019e 1E2B     		cmp	r3, #30
 1305 01a0 0AD0     		beq	.L65
 1306              		.loc 1 444 0 discriminator 24
 1307 01a2 3B68     		ldr	r3, [r7]
 1308 01a4 1B79     		ldrb	r3, [r3, #4]
 1309 01a6 1F2B     		cmp	r3, #31
 1310 01a8 06D0     		beq	.L65
 1311              		.loc 1 444 0 discriminator 25
 1312 01aa DE23     		movs	r3, #222
ARM GAS  C:\Users\JC\AppData\Local\Temp\ccU1E72d.s 			page 32


 1313 01ac 5A00     		lsls	r2, r3, #1
 1314 01ae 2F4B     		ldr	r3, .L72
 1315 01b0 1100     		movs	r1, r2
 1316 01b2 1800     		movs	r0, r3
 1317 01b4 FFF7FEFF 		bl	Cy_SysLib_AssertFailed
 1318              	.L65:
 445:Generated_Source\PSoC6\pdl\drivers\peripheral\prot/cy_prot.c **** 
 446:Generated_Source\PSoC6\pdl\drivers\peripheral\prot/cy_prot.c ****     if(((uint32_t)config->pcMask & CY_PROT_SMPU_PC_LIMIT_MASK) != 0UL) 
 1319              		.loc 1 446 0 is_stmt 1
 1320 01b8 3B68     		ldr	r3, [r7]
 1321 01ba 5B89     		ldrh	r3, [r3, #10]
 1322 01bc 1A00     		movs	r2, r3
 1323 01be 7F23     		movs	r3, #127
 1324 01c0 9A43     		bics	r2, r3
 1325 01c2 131E     		subs	r3, r2, #0
 1326 01c4 02D0     		beq	.L66
 447:Generated_Source\PSoC6\pdl\drivers\peripheral\prot/cy_prot.c ****     {
 448:Generated_Source\PSoC6\pdl\drivers\peripheral\prot/cy_prot.c ****         /* PC mask out of range - not supported in device */
 449:Generated_Source\PSoC6\pdl\drivers\peripheral\prot/cy_prot.c ****         status = CY_PROT_BAD_PARAM;
 1327              		.loc 1 449 0
 1328 01c6 2A4B     		ldr	r3, .L72+4
 1329 01c8 7B61     		str	r3, [r7, #20]
 1330 01ca 49E0     		b	.L67
 1331              	.L66:
 450:Generated_Source\PSoC6\pdl\drivers\peripheral\prot/cy_prot.c ****     }
 451:Generated_Source\PSoC6\pdl\drivers\peripheral\prot/cy_prot.c ****     else
 452:Generated_Source\PSoC6\pdl\drivers\peripheral\prot/cy_prot.c ****     {
 453:Generated_Source\PSoC6\pdl\drivers\peripheral\prot/cy_prot.c ****         addrReg= _VAL2FLD(PROT_SMPU_SMPU_STRUCT_ADDR0_SUBREGION_DISABLE, config->subregions)
 1332              		.loc 1 453 0
 1333 01cc 3B68     		ldr	r3, [r7]
 1334 01ce 5B79     		ldrb	r3, [r3, #5]
 1335 01d0 1A00     		movs	r2, r3
 454:Generated_Source\PSoC6\pdl\drivers\peripheral\prot/cy_prot.c ****                     | _VAL2FLD(PROT_SMPU_SMPU_STRUCT_ADDR0_ADDR24, (uint32_t)((uint32_t)config->add
 1336              		.loc 1 454 0
 1337 01d2 3B68     		ldr	r3, [r7]
 1338 01d4 1B68     		ldr	r3, [r3]
 1339 01d6 1900     		movs	r1, r3
 1340 01d8 FF23     		movs	r3, #255
 1341 01da 9943     		bics	r1, r3
 1342 01dc 0B00     		movs	r3, r1
 453:Generated_Source\PSoC6\pdl\drivers\peripheral\prot/cy_prot.c ****                     | _VAL2FLD(PROT_SMPU_SMPU_STRUCT_ADDR0_ADDR24, (uint32_t)((uint32_t)config->add
 1343              		.loc 1 453 0
 1344 01de 1343     		orrs	r3, r2
 1345 01e0 3B61     		str	r3, [r7, #16]
 455:Generated_Source\PSoC6\pdl\drivers\peripheral\prot/cy_prot.c ****         attReg= ((uint32_t)config->userPermission & CY_PROT_ATT_PERMISSION_MASK)
 1346              		.loc 1 455 0
 1347 01e2 3B68     		ldr	r3, [r7]
 1348 01e4 9B79     		ldrb	r3, [r3, #6]
 1349 01e6 1A00     		movs	r2, r3
 1350 01e8 0723     		movs	r3, #7
 1351 01ea 1A40     		ands	r2, r3
 456:Generated_Source\PSoC6\pdl\drivers\peripheral\prot/cy_prot.c ****                     | (uint32_t)(((uint32_t)config->privPermission & CY_PROT_ATT_PERMISSION_MASK) <
 1352              		.loc 1 456 0
 1353 01ec 3B68     		ldr	r3, [r7]
 1354 01ee DB79     		ldrb	r3, [r3, #7]
 1355 01f0 DB00     		lsls	r3, r3, #3
 1356 01f2 3821     		movs	r1, #56
ARM GAS  C:\Users\JC\AppData\Local\Temp\ccU1E72d.s 			page 33


 1357 01f4 0B40     		ands	r3, r1
 1358 01f6 1A43     		orrs	r2, r3
 457:Generated_Source\PSoC6\pdl\drivers\peripheral\prot/cy_prot.c ****                     | _VAL2FLD(PROT_SMPU_SMPU_STRUCT_ATT0_NS, !(config->secure))
 1359              		.loc 1 457 0
 1360 01f8 3B68     		ldr	r3, [r7]
 1361 01fa 1B7A     		ldrb	r3, [r3, #8]
 1362 01fc 0121     		movs	r1, #1
 1363 01fe 4B40     		eors	r3, r1
 1364 0200 DBB2     		uxtb	r3, r3
 1365 0202 9B01     		lsls	r3, r3, #6
 1366 0204 4021     		movs	r1, #64
 1367 0206 0B40     		ands	r3, r1
 1368 0208 1A43     		orrs	r2, r3
 458:Generated_Source\PSoC6\pdl\drivers\peripheral\prot/cy_prot.c ****                     | _VAL2FLD(PROT_SMPU_SMPU_STRUCT_ATT0_PC_MASK_15_TO_1, config->pcMask)
 1369              		.loc 1 458 0
 1370 020a 3B68     		ldr	r3, [r7]
 1371 020c 5B89     		ldrh	r3, [r3, #10]
 1372 020e 5B02     		lsls	r3, r3, #9
 1373 0210 1849     		ldr	r1, .L72+8
 1374 0212 0B40     		ands	r3, r1
 1375 0214 1A43     		orrs	r2, r3
 459:Generated_Source\PSoC6\pdl\drivers\peripheral\prot/cy_prot.c ****                     | _VAL2FLD(PROT_SMPU_SMPU_STRUCT_ATT0_REGION_SIZE, config->regionSize)
 1376              		.loc 1 459 0
 1377 0216 3B68     		ldr	r3, [r7]
 1378 0218 1B79     		ldrb	r3, [r3, #4]
 1379 021a 1906     		lsls	r1, r3, #24
 1380 021c F823     		movs	r3, #248
 1381 021e 5B05     		lsls	r3, r3, #21
 1382 0220 0B40     		ands	r3, r1
 1383 0222 1A43     		orrs	r2, r3
 460:Generated_Source\PSoC6\pdl\drivers\peripheral\prot/cy_prot.c ****                     | _VAL2FLD(PROT_SMPU_SMPU_STRUCT_ATT0_PC_MATCH, config->pcMatch);
 1384              		.loc 1 460 0
 1385 0224 3B68     		ldr	r3, [r7]
 1386 0226 5B7A     		ldrb	r3, [r3, #9]
 1387 0228 9907     		lsls	r1, r3, #30
 1388 022a 8023     		movs	r3, #128
 1389 022c DB05     		lsls	r3, r3, #23
 1390 022e 0B40     		ands	r3, r1
 455:Generated_Source\PSoC6\pdl\drivers\peripheral\prot/cy_prot.c ****                     | (uint32_t)(((uint32_t)config->privPermission & CY_PROT_ATT_PERMISSION_MASK) <
 1391              		.loc 1 455 0
 1392 0230 1343     		orrs	r3, r2
 1393 0232 FB60     		str	r3, [r7, #12]
 461:Generated_Source\PSoC6\pdl\drivers\peripheral\prot/cy_prot.c ****         PROT_SMPU_SMPU_STRUCT_ATT0(base) = attReg;
 1394              		.loc 1 461 0
 1395 0234 7B68     		ldr	r3, [r7, #4]
 1396 0236 FA68     		ldr	r2, [r7, #12]
 1397 0238 5A60     		str	r2, [r3, #4]
 462:Generated_Source\PSoC6\pdl\drivers\peripheral\prot/cy_prot.c ****         PROT_SMPU_SMPU_STRUCT_ADDR0(base) = addrReg;
 1398              		.loc 1 462 0
 1399 023a 7B68     		ldr	r3, [r7, #4]
 1400 023c 3A69     		ldr	r2, [r7, #16]
 1401 023e 1A60     		str	r2, [r3]
 463:Generated_Source\PSoC6\pdl\drivers\peripheral\prot/cy_prot.c ****         status = ((PROT_SMPU_SMPU_STRUCT_ADDR0(base) != addrReg) || ((PROT_SMPU_SMPU_STRUCT_ATT0(ba
 1402              		.loc 1 463 0
 1403 0240 7B68     		ldr	r3, [r7, #4]
 1404 0242 1A68     		ldr	r2, [r3]
 1405 0244 3B69     		ldr	r3, [r7, #16]
ARM GAS  C:\Users\JC\AppData\Local\Temp\ccU1E72d.s 			page 34


 1406 0246 9A42     		cmp	r2, r3
 1407 0248 06D1     		bne	.L68
 1408              		.loc 1 463 0 is_stmt 0 discriminator 2
 1409 024a 7B68     		ldr	r3, [r7, #4]
 1410 024c 5B68     		ldr	r3, [r3, #4]
 1411 024e 0A4A     		ldr	r2, .L72+12
 1412 0250 1A40     		ands	r2, r3
 1413 0252 FB68     		ldr	r3, [r7, #12]
 1414 0254 9A42     		cmp	r2, r3
 1415 0256 01D0     		beq	.L69
 1416              	.L68:
 1417              		.loc 1 463 0 discriminator 3
 1418 0258 084B     		ldr	r3, .L72+16
 1419 025a 00E0     		b	.L70
 1420              	.L69:
 1421              		.loc 1 463 0 discriminator 4
 1422 025c 0023     		movs	r3, #0
 1423              	.L70:
 1424              		.loc 1 463 0 discriminator 6
 1425 025e 7B61     		str	r3, [r7, #20]
 1426              	.L67:
 464:Generated_Source\PSoC6\pdl\drivers\peripheral\prot/cy_prot.c ****             ? CY_PROT_FAILURE : CY_PROT_SUCCESS;
 465:Generated_Source\PSoC6\pdl\drivers\peripheral\prot/cy_prot.c ****     }
 466:Generated_Source\PSoC6\pdl\drivers\peripheral\prot/cy_prot.c ****     
 467:Generated_Source\PSoC6\pdl\drivers\peripheral\prot/cy_prot.c ****     return status;
 1427              		.loc 1 467 0 is_stmt 1
 1428 0260 7B69     		ldr	r3, [r7, #20]
 468:Generated_Source\PSoC6\pdl\drivers\peripheral\prot/cy_prot.c **** }
 1429              		.loc 1 468 0
 1430 0262 1800     		movs	r0, r3
 1431 0264 BD46     		mov	sp, r7
 1432 0266 06B0     		add	sp, sp, #24
 1433              		@ sp needed
 1434 0268 80BD     		pop	{r7, pc}
 1435              	.L73:
 1436 026a C046     		.align	2
 1437              	.L72:
 1438 026c 00000000 		.word	.LC1
 1439 0270 0100C200 		.word	12713985
 1440 0274 00FEFF00 		.word	16776704
 1441 0278 FFFEFFFF 		.word	-257
 1442 027c 0300C200 		.word	12713987
 1443              		.cfi_endproc
 1444              	.LFE54:
 1445              		.size	Cy_Prot_ConfigSmpuSlaveStruct, .-Cy_Prot_ConfigSmpuSlaveStruct
 1446              		.section	.text.Cy_Prot_EnableSmpuMasterStruct,"ax",%progbits
 1447              		.align	2
 1448              		.global	Cy_Prot_EnableSmpuMasterStruct
 1449              		.code	16
 1450              		.thumb_func
 1451              		.type	Cy_Prot_EnableSmpuMasterStruct, %function
 1452              	Cy_Prot_EnableSmpuMasterStruct:
 1453              	.LFB55:
 469:Generated_Source\PSoC6\pdl\drivers\peripheral\prot/cy_prot.c **** 
 470:Generated_Source\PSoC6\pdl\drivers\peripheral\prot/cy_prot.c **** 
 471:Generated_Source\PSoC6\pdl\drivers\peripheral\prot/cy_prot.c **** /*******************************************************************************
 472:Generated_Source\PSoC6\pdl\drivers\peripheral\prot/cy_prot.c **** * Function Name: Cy_Prot_EnableSmpuMasterStruct
ARM GAS  C:\Users\JC\AppData\Local\Temp\ccU1E72d.s 			page 35


 473:Generated_Source\PSoC6\pdl\drivers\peripheral\prot/cy_prot.c **** ****************************************************************************//**
 474:Generated_Source\PSoC6\pdl\drivers\peripheral\prot/cy_prot.c **** *
 475:Generated_Source\PSoC6\pdl\drivers\peripheral\prot/cy_prot.c **** * Enables the Master SMPU structure.
 476:Generated_Source\PSoC6\pdl\drivers\peripheral\prot/cy_prot.c **** *
 477:Generated_Source\PSoC6\pdl\drivers\peripheral\prot/cy_prot.c **** * This is an SMPU master struct enable function. The SMPU protection settings
 478:Generated_Source\PSoC6\pdl\drivers\peripheral\prot/cy_prot.c **** * will take effect after successful completion of this function call.
 479:Generated_Source\PSoC6\pdl\drivers\peripheral\prot/cy_prot.c **** *
 480:Generated_Source\PSoC6\pdl\drivers\peripheral\prot/cy_prot.c **** * \note This function is applicable for both CPUSS ver_1 and ver_2.
 481:Generated_Source\PSoC6\pdl\drivers\peripheral\prot/cy_prot.c **** *
 482:Generated_Source\PSoC6\pdl\drivers\peripheral\prot/cy_prot.c **** * \param base
 483:Generated_Source\PSoC6\pdl\drivers\peripheral\prot/cy_prot.c **** * The base address for the protection unit structure being configured. 
 484:Generated_Source\PSoC6\pdl\drivers\peripheral\prot/cy_prot.c **** *
 485:Generated_Source\PSoC6\pdl\drivers\peripheral\prot/cy_prot.c **** * \return
 486:Generated_Source\PSoC6\pdl\drivers\peripheral\prot/cy_prot.c **** * Status of the function call.
 487:Generated_Source\PSoC6\pdl\drivers\peripheral\prot/cy_prot.c **** *
 488:Generated_Source\PSoC6\pdl\drivers\peripheral\prot/cy_prot.c **** *   Status               | Description
 489:Generated_Source\PSoC6\pdl\drivers\peripheral\prot/cy_prot.c **** *   ------------         | -----------
 490:Generated_Source\PSoC6\pdl\drivers\peripheral\prot/cy_prot.c **** *   CY_PROT_SUCCESS      | The Master PU struct was enabled.
 491:Generated_Source\PSoC6\pdl\drivers\peripheral\prot/cy_prot.c **** *   CY_PROT_FAILURE      | The Master PU struct is disabled and possibly locked.
 492:Generated_Source\PSoC6\pdl\drivers\peripheral\prot/cy_prot.c **** *
 493:Generated_Source\PSoC6\pdl\drivers\peripheral\prot/cy_prot.c **** * \funcusage
 494:Generated_Source\PSoC6\pdl\drivers\peripheral\prot/cy_prot.c **** * \snippet prot/1.20/snippet/main.c snippet_Cy_Prot_EnableSmpuMasterStruct
 495:Generated_Source\PSoC6\pdl\drivers\peripheral\prot/cy_prot.c **** *
 496:Generated_Source\PSoC6\pdl\drivers\peripheral\prot/cy_prot.c **** *******************************************************************************/
 497:Generated_Source\PSoC6\pdl\drivers\peripheral\prot/cy_prot.c **** cy_en_prot_status_t Cy_Prot_EnableSmpuMasterStruct(PROT_SMPU_SMPU_STRUCT_Type* base)
 498:Generated_Source\PSoC6\pdl\drivers\peripheral\prot/cy_prot.c **** {
 1454              		.loc 1 498 0
 1455              		.cfi_startproc
 1456              		@ args = 0, pretend = 0, frame = 16
 1457              		@ frame_needed = 1, uses_anonymous_args = 0
 1458 0000 80B5     		push	{r7, lr}
 1459              		.cfi_def_cfa_offset 8
 1460              		.cfi_offset 7, -8
 1461              		.cfi_offset 14, -4
 1462 0002 84B0     		sub	sp, sp, #16
 1463              		.cfi_def_cfa_offset 24
 1464 0004 00AF     		add	r7, sp, #0
 1465              		.cfi_def_cfa_register 7
 1466 0006 7860     		str	r0, [r7, #4]
 499:Generated_Source\PSoC6\pdl\drivers\peripheral\prot/cy_prot.c ****     cy_en_prot_status_t status;
 500:Generated_Source\PSoC6\pdl\drivers\peripheral\prot/cy_prot.c ****     
 501:Generated_Source\PSoC6\pdl\drivers\peripheral\prot/cy_prot.c ****     CY_ASSERT_L1(NULL != base);
 1467              		.loc 1 501 0
 1468 0008 7B68     		ldr	r3, [r7, #4]
 1469 000a 002B     		cmp	r3, #0
 1470 000c 07D1     		bne	.L75
 1471              		.loc 1 501 0 is_stmt 0 discriminator 1
 1472 000e F623     		movs	r3, #246
 1473 0010 FF33     		adds	r3, r3, #255
 1474 0012 1A00     		movs	r2, r3
 1475 0014 0D4B     		ldr	r3, .L79
 1476 0016 1100     		movs	r1, r2
 1477 0018 1800     		movs	r0, r3
 1478 001a FFF7FEFF 		bl	Cy_SysLib_AssertFailed
 1479              	.L75:
 502:Generated_Source\PSoC6\pdl\drivers\peripheral\prot/cy_prot.c ****     
 503:Generated_Source\PSoC6\pdl\drivers\peripheral\prot/cy_prot.c ****     PROT_SMPU_SMPU_STRUCT_ATT1(base) |= _VAL2FLD(PROT_SMPU_SMPU_STRUCT_ATT1_ENABLED, CY_PROT_STRUCT
ARM GAS  C:\Users\JC\AppData\Local\Temp\ccU1E72d.s 			page 36


 1480              		.loc 1 503 0 is_stmt 1
 1481 001e 7B68     		ldr	r3, [r7, #4]
 1482 0020 5B6A     		ldr	r3, [r3, #36]
 1483 0022 8022     		movs	r2, #128
 1484 0024 1206     		lsls	r2, r2, #24
 1485 0026 1A43     		orrs	r2, r3
 1486 0028 7B68     		ldr	r3, [r7, #4]
 1487 002a 5A62     		str	r2, [r3, #36]
 504:Generated_Source\PSoC6\pdl\drivers\peripheral\prot/cy_prot.c ****     status = (_FLD2VAL(PROT_SMPU_SMPU_STRUCT_ATT1_ENABLED, PROT_SMPU_SMPU_STRUCT_ATT1(base)) != CY_
 1488              		.loc 1 504 0
 1489 002c 7B68     		ldr	r3, [r7, #4]
 1490 002e 5B6A     		ldr	r3, [r3, #36]
 1491 0030 DB0F     		lsrs	r3, r3, #31
 1492 0032 DB07     		lsls	r3, r3, #31
 1493 0034 DB0F     		lsrs	r3, r3, #31
 1494 0036 012B     		cmp	r3, #1
 1495 0038 01D0     		beq	.L76
 1496              		.loc 1 504 0 is_stmt 0 discriminator 1
 1497 003a 054B     		ldr	r3, .L79+4
 1498 003c 00E0     		b	.L77
 1499              	.L76:
 1500              		.loc 1 504 0 discriminator 2
 1501 003e 0023     		movs	r3, #0
 1502              	.L77:
 1503              		.loc 1 504 0 discriminator 4
 1504 0040 FB60     		str	r3, [r7, #12]
 505:Generated_Source\PSoC6\pdl\drivers\peripheral\prot/cy_prot.c ****                 CY_PROT_FAILURE : CY_PROT_SUCCESS;
 506:Generated_Source\PSoC6\pdl\drivers\peripheral\prot/cy_prot.c ****     
 507:Generated_Source\PSoC6\pdl\drivers\peripheral\prot/cy_prot.c ****     return status;
 1505              		.loc 1 507 0 is_stmt 1 discriminator 4
 1506 0042 FB68     		ldr	r3, [r7, #12]
 508:Generated_Source\PSoC6\pdl\drivers\peripheral\prot/cy_prot.c **** }
 1507              		.loc 1 508 0 discriminator 4
 1508 0044 1800     		movs	r0, r3
 1509 0046 BD46     		mov	sp, r7
 1510 0048 04B0     		add	sp, sp, #16
 1511              		@ sp needed
 1512 004a 80BD     		pop	{r7, pc}
 1513              	.L80:
 1514              		.align	2
 1515              	.L79:
 1516 004c 00000000 		.word	.LC1
 1517 0050 0300C200 		.word	12713987
 1518              		.cfi_endproc
 1519              	.LFE55:
 1520              		.size	Cy_Prot_EnableSmpuMasterStruct, .-Cy_Prot_EnableSmpuMasterStruct
 1521              		.section	.text.Cy_Prot_DisableSmpuMasterStruct,"ax",%progbits
 1522              		.align	2
 1523              		.global	Cy_Prot_DisableSmpuMasterStruct
 1524              		.code	16
 1525              		.thumb_func
 1526              		.type	Cy_Prot_DisableSmpuMasterStruct, %function
 1527              	Cy_Prot_DisableSmpuMasterStruct:
 1528              	.LFB56:
 509:Generated_Source\PSoC6\pdl\drivers\peripheral\prot/cy_prot.c **** 
 510:Generated_Source\PSoC6\pdl\drivers\peripheral\prot/cy_prot.c **** 
 511:Generated_Source\PSoC6\pdl\drivers\peripheral\prot/cy_prot.c **** /*******************************************************************************
ARM GAS  C:\Users\JC\AppData\Local\Temp\ccU1E72d.s 			page 37


 512:Generated_Source\PSoC6\pdl\drivers\peripheral\prot/cy_prot.c **** * Function Name: Cy_Prot_DisableSmpuMasterStruct
 513:Generated_Source\PSoC6\pdl\drivers\peripheral\prot/cy_prot.c **** ****************************************************************************//**
 514:Generated_Source\PSoC6\pdl\drivers\peripheral\prot/cy_prot.c **** *
 515:Generated_Source\PSoC6\pdl\drivers\peripheral\prot/cy_prot.c **** * Disables the Master SMPU structure.
 516:Generated_Source\PSoC6\pdl\drivers\peripheral\prot/cy_prot.c **** *
 517:Generated_Source\PSoC6\pdl\drivers\peripheral\prot/cy_prot.c **** * This is an SMPU master struct disable function. The SMPU protection settings
 518:Generated_Source\PSoC6\pdl\drivers\peripheral\prot/cy_prot.c **** * will seize to take effect after successful completion of this function call.
 519:Generated_Source\PSoC6\pdl\drivers\peripheral\prot/cy_prot.c **** *
 520:Generated_Source\PSoC6\pdl\drivers\peripheral\prot/cy_prot.c **** * \note This function is applicable for both CPUSS ver_1 and ver_2.
 521:Generated_Source\PSoC6\pdl\drivers\peripheral\prot/cy_prot.c **** *
 522:Generated_Source\PSoC6\pdl\drivers\peripheral\prot/cy_prot.c **** * \param base
 523:Generated_Source\PSoC6\pdl\drivers\peripheral\prot/cy_prot.c **** * The base address for the protection unit structure being configured. 
 524:Generated_Source\PSoC6\pdl\drivers\peripheral\prot/cy_prot.c **** *
 525:Generated_Source\PSoC6\pdl\drivers\peripheral\prot/cy_prot.c **** * \return
 526:Generated_Source\PSoC6\pdl\drivers\peripheral\prot/cy_prot.c **** * Status of the function call.
 527:Generated_Source\PSoC6\pdl\drivers\peripheral\prot/cy_prot.c **** *
 528:Generated_Source\PSoC6\pdl\drivers\peripheral\prot/cy_prot.c **** *   Status               | Description
 529:Generated_Source\PSoC6\pdl\drivers\peripheral\prot/cy_prot.c **** *   ------------         | -----------
 530:Generated_Source\PSoC6\pdl\drivers\peripheral\prot/cy_prot.c **** *   CY_PROT_SUCCESS      | The Master PU struct was disabled.
 531:Generated_Source\PSoC6\pdl\drivers\peripheral\prot/cy_prot.c **** *   CY_PROT_FAILURE      | The Master PU struct is enabled and possibly locked.
 532:Generated_Source\PSoC6\pdl\drivers\peripheral\prot/cy_prot.c **** *
 533:Generated_Source\PSoC6\pdl\drivers\peripheral\prot/cy_prot.c **** * \funcusage
 534:Generated_Source\PSoC6\pdl\drivers\peripheral\prot/cy_prot.c **** * \snippet prot/1.20/snippet/main.c snippet_Cy_Prot_DisableSmpuMasterStruct
 535:Generated_Source\PSoC6\pdl\drivers\peripheral\prot/cy_prot.c **** *
 536:Generated_Source\PSoC6\pdl\drivers\peripheral\prot/cy_prot.c **** *******************************************************************************/
 537:Generated_Source\PSoC6\pdl\drivers\peripheral\prot/cy_prot.c **** cy_en_prot_status_t Cy_Prot_DisableSmpuMasterStruct(PROT_SMPU_SMPU_STRUCT_Type* base)
 538:Generated_Source\PSoC6\pdl\drivers\peripheral\prot/cy_prot.c **** {
 1529              		.loc 1 538 0
 1530              		.cfi_startproc
 1531              		@ args = 0, pretend = 0, frame = 16
 1532              		@ frame_needed = 1, uses_anonymous_args = 0
 1533 0000 80B5     		push	{r7, lr}
 1534              		.cfi_def_cfa_offset 8
 1535              		.cfi_offset 7, -8
 1536              		.cfi_offset 14, -4
 1537 0002 84B0     		sub	sp, sp, #16
 1538              		.cfi_def_cfa_offset 24
 1539 0004 00AF     		add	r7, sp, #0
 1540              		.cfi_def_cfa_register 7
 1541 0006 7860     		str	r0, [r7, #4]
 539:Generated_Source\PSoC6\pdl\drivers\peripheral\prot/cy_prot.c ****     cy_en_prot_status_t status;
 540:Generated_Source\PSoC6\pdl\drivers\peripheral\prot/cy_prot.c ****     
 541:Generated_Source\PSoC6\pdl\drivers\peripheral\prot/cy_prot.c ****     CY_ASSERT_L1(NULL != base);
 1542              		.loc 1 541 0
 1543 0008 7B68     		ldr	r3, [r7, #4]
 1544 000a 002B     		cmp	r3, #0
 1545 000c 05D1     		bne	.L82
 1546              		.loc 1 541 0 is_stmt 0 discriminator 1
 1547 000e 0E4A     		ldr	r2, .L86
 1548 0010 0E4B     		ldr	r3, .L86+4
 1549 0012 1100     		movs	r1, r2
 1550 0014 1800     		movs	r0, r3
 1551 0016 FFF7FEFF 		bl	Cy_SysLib_AssertFailed
 1552              	.L82:
 542:Generated_Source\PSoC6\pdl\drivers\peripheral\prot/cy_prot.c ****     
 543:Generated_Source\PSoC6\pdl\drivers\peripheral\prot/cy_prot.c ****     PROT_SMPU_SMPU_STRUCT_ATT1(base) &= ~_VAL2FLD(PROT_SMPU_SMPU_STRUCT_ATT1_ENABLED, CY_PROT_STRUC
 1553              		.loc 1 543 0 is_stmt 1
ARM GAS  C:\Users\JC\AppData\Local\Temp\ccU1E72d.s 			page 38


 1554 001a 7B68     		ldr	r3, [r7, #4]
 1555 001c 5B6A     		ldr	r3, [r3, #36]
 1556 001e 5B00     		lsls	r3, r3, #1
 1557 0020 5A08     		lsrs	r2, r3, #1
 1558 0022 7B68     		ldr	r3, [r7, #4]
 1559 0024 5A62     		str	r2, [r3, #36]
 544:Generated_Source\PSoC6\pdl\drivers\peripheral\prot/cy_prot.c ****     status = (_FLD2VAL(PROT_SMPU_SMPU_STRUCT_ATT1_ENABLED, PROT_SMPU_SMPU_STRUCT_ATT1(base)) == CY_
 1560              		.loc 1 544 0
 1561 0026 7B68     		ldr	r3, [r7, #4]
 1562 0028 5B6A     		ldr	r3, [r3, #36]
 1563 002a DB0F     		lsrs	r3, r3, #31
 1564 002c DB07     		lsls	r3, r3, #31
 1565 002e DB0F     		lsrs	r3, r3, #31
 1566 0030 012B     		cmp	r3, #1
 1567 0032 01D1     		bne	.L83
 1568              		.loc 1 544 0 is_stmt 0 discriminator 1
 1569 0034 064B     		ldr	r3, .L86+8
 1570 0036 00E0     		b	.L84
 1571              	.L83:
 1572              		.loc 1 544 0 discriminator 2
 1573 0038 0023     		movs	r3, #0
 1574              	.L84:
 1575              		.loc 1 544 0 discriminator 4
 1576 003a FB60     		str	r3, [r7, #12]
 545:Generated_Source\PSoC6\pdl\drivers\peripheral\prot/cy_prot.c ****                 CY_PROT_FAILURE : CY_PROT_SUCCESS;
 546:Generated_Source\PSoC6\pdl\drivers\peripheral\prot/cy_prot.c ****     
 547:Generated_Source\PSoC6\pdl\drivers\peripheral\prot/cy_prot.c ****     return status;
 1577              		.loc 1 547 0 is_stmt 1 discriminator 4
 1578 003c FB68     		ldr	r3, [r7, #12]
 548:Generated_Source\PSoC6\pdl\drivers\peripheral\prot/cy_prot.c **** }
 1579              		.loc 1 548 0 discriminator 4
 1580 003e 1800     		movs	r0, r3
 1581 0040 BD46     		mov	sp, r7
 1582 0042 04B0     		add	sp, sp, #16
 1583              		@ sp needed
 1584 0044 80BD     		pop	{r7, pc}
 1585              	.L87:
 1586 0046 C046     		.align	2
 1587              	.L86:
 1588 0048 1D020000 		.word	541
 1589 004c 00000000 		.word	.LC1
 1590 0050 0300C200 		.word	12713987
 1591              		.cfi_endproc
 1592              	.LFE56:
 1593              		.size	Cy_Prot_DisableSmpuMasterStruct, .-Cy_Prot_DisableSmpuMasterStruct
 1594              		.section	.text.Cy_Prot_EnableSmpuSlaveStruct,"ax",%progbits
 1595              		.align	2
 1596              		.global	Cy_Prot_EnableSmpuSlaveStruct
 1597              		.code	16
 1598              		.thumb_func
 1599              		.type	Cy_Prot_EnableSmpuSlaveStruct, %function
 1600              	Cy_Prot_EnableSmpuSlaveStruct:
 1601              	.LFB57:
 549:Generated_Source\PSoC6\pdl\drivers\peripheral\prot/cy_prot.c **** 
 550:Generated_Source\PSoC6\pdl\drivers\peripheral\prot/cy_prot.c **** 
 551:Generated_Source\PSoC6\pdl\drivers\peripheral\prot/cy_prot.c **** /*******************************************************************************
 552:Generated_Source\PSoC6\pdl\drivers\peripheral\prot/cy_prot.c **** * Function Name: Cy_Prot_EnableSmpuSlaveStruct
ARM GAS  C:\Users\JC\AppData\Local\Temp\ccU1E72d.s 			page 39


 553:Generated_Source\PSoC6\pdl\drivers\peripheral\prot/cy_prot.c **** ****************************************************************************//**
 554:Generated_Source\PSoC6\pdl\drivers\peripheral\prot/cy_prot.c **** *
 555:Generated_Source\PSoC6\pdl\drivers\peripheral\prot/cy_prot.c **** * Enables the Slave SMPU structure.
 556:Generated_Source\PSoC6\pdl\drivers\peripheral\prot/cy_prot.c **** *
 557:Generated_Source\PSoC6\pdl\drivers\peripheral\prot/cy_prot.c **** * This is an SMPU slave struct enable function. The SMPU protection settings
 558:Generated_Source\PSoC6\pdl\drivers\peripheral\prot/cy_prot.c **** * will take effect after successful completion of this function call.
 559:Generated_Source\PSoC6\pdl\drivers\peripheral\prot/cy_prot.c **** *
 560:Generated_Source\PSoC6\pdl\drivers\peripheral\prot/cy_prot.c **** * \note This function is applicable for both CPUSS ver_1 and ver_2.
 561:Generated_Source\PSoC6\pdl\drivers\peripheral\prot/cy_prot.c **** *
 562:Generated_Source\PSoC6\pdl\drivers\peripheral\prot/cy_prot.c **** * \param base
 563:Generated_Source\PSoC6\pdl\drivers\peripheral\prot/cy_prot.c **** * The base address for the protection unit structure being configured. 
 564:Generated_Source\PSoC6\pdl\drivers\peripheral\prot/cy_prot.c **** *
 565:Generated_Source\PSoC6\pdl\drivers\peripheral\prot/cy_prot.c **** * \return
 566:Generated_Source\PSoC6\pdl\drivers\peripheral\prot/cy_prot.c **** * Status of the function call.
 567:Generated_Source\PSoC6\pdl\drivers\peripheral\prot/cy_prot.c **** *
 568:Generated_Source\PSoC6\pdl\drivers\peripheral\prot/cy_prot.c **** *   Status               | Description
 569:Generated_Source\PSoC6\pdl\drivers\peripheral\prot/cy_prot.c **** *   ------------         | -----------
 570:Generated_Source\PSoC6\pdl\drivers\peripheral\prot/cy_prot.c **** *   CY_PROT_SUCCESS      | The Slave PU struct was enabled.
 571:Generated_Source\PSoC6\pdl\drivers\peripheral\prot/cy_prot.c **** *   CY_PROT_FAILURE      | The Slave PU struct is disabled and possibly locked.
 572:Generated_Source\PSoC6\pdl\drivers\peripheral\prot/cy_prot.c **** *
 573:Generated_Source\PSoC6\pdl\drivers\peripheral\prot/cy_prot.c **** * \funcusage
 574:Generated_Source\PSoC6\pdl\drivers\peripheral\prot/cy_prot.c **** * \snippet prot/1.20/snippet/main.c snippet_Cy_Prot_EnableSmpuSlaveStruct
 575:Generated_Source\PSoC6\pdl\drivers\peripheral\prot/cy_prot.c **** *
 576:Generated_Source\PSoC6\pdl\drivers\peripheral\prot/cy_prot.c **** *******************************************************************************/
 577:Generated_Source\PSoC6\pdl\drivers\peripheral\prot/cy_prot.c **** cy_en_prot_status_t Cy_Prot_EnableSmpuSlaveStruct(PROT_SMPU_SMPU_STRUCT_Type* base)
 578:Generated_Source\PSoC6\pdl\drivers\peripheral\prot/cy_prot.c **** {
 1602              		.loc 1 578 0
 1603              		.cfi_startproc
 1604              		@ args = 0, pretend = 0, frame = 16
 1605              		@ frame_needed = 1, uses_anonymous_args = 0
 1606 0000 80B5     		push	{r7, lr}
 1607              		.cfi_def_cfa_offset 8
 1608              		.cfi_offset 7, -8
 1609              		.cfi_offset 14, -4
 1610 0002 84B0     		sub	sp, sp, #16
 1611              		.cfi_def_cfa_offset 24
 1612 0004 00AF     		add	r7, sp, #0
 1613              		.cfi_def_cfa_register 7
 1614 0006 7860     		str	r0, [r7, #4]
 579:Generated_Source\PSoC6\pdl\drivers\peripheral\prot/cy_prot.c ****     cy_en_prot_status_t status;
 580:Generated_Source\PSoC6\pdl\drivers\peripheral\prot/cy_prot.c ****     
 581:Generated_Source\PSoC6\pdl\drivers\peripheral\prot/cy_prot.c ****     CY_ASSERT_L1(NULL != base);
 1615              		.loc 1 581 0
 1616 0008 7B68     		ldr	r3, [r7, #4]
 1617 000a 002B     		cmp	r3, #0
 1618 000c 05D1     		bne	.L89
 1619              		.loc 1 581 0 is_stmt 0 discriminator 1
 1620 000e 0E4A     		ldr	r2, .L93
 1621 0010 0E4B     		ldr	r3, .L93+4
 1622 0012 1100     		movs	r1, r2
 1623 0014 1800     		movs	r0, r3
 1624 0016 FFF7FEFF 		bl	Cy_SysLib_AssertFailed
 1625              	.L89:
 582:Generated_Source\PSoC6\pdl\drivers\peripheral\prot/cy_prot.c ****     
 583:Generated_Source\PSoC6\pdl\drivers\peripheral\prot/cy_prot.c ****     PROT_SMPU_SMPU_STRUCT_ATT0(base) |= _VAL2FLD(PROT_SMPU_SMPU_STRUCT_ATT0_ENABLED, CY_PROT_STRUCT
 1626              		.loc 1 583 0 is_stmt 1
 1627 001a 7B68     		ldr	r3, [r7, #4]
ARM GAS  C:\Users\JC\AppData\Local\Temp\ccU1E72d.s 			page 40


 1628 001c 5B68     		ldr	r3, [r3, #4]
 1629 001e 8022     		movs	r2, #128
 1630 0020 1206     		lsls	r2, r2, #24
 1631 0022 1A43     		orrs	r2, r3
 1632 0024 7B68     		ldr	r3, [r7, #4]
 1633 0026 5A60     		str	r2, [r3, #4]
 584:Generated_Source\PSoC6\pdl\drivers\peripheral\prot/cy_prot.c ****     status = (_FLD2VAL(PROT_SMPU_SMPU_STRUCT_ATT0_ENABLED, PROT_SMPU_SMPU_STRUCT_ATT0(base)) != CY_
 1634              		.loc 1 584 0
 1635 0028 7B68     		ldr	r3, [r7, #4]
 1636 002a 5B68     		ldr	r3, [r3, #4]
 1637 002c DB0F     		lsrs	r3, r3, #31
 1638 002e DB07     		lsls	r3, r3, #31
 1639 0030 DB0F     		lsrs	r3, r3, #31
 1640 0032 012B     		cmp	r3, #1
 1641 0034 01D0     		beq	.L90
 1642              		.loc 1 584 0 is_stmt 0 discriminator 1
 1643 0036 064B     		ldr	r3, .L93+8
 1644 0038 00E0     		b	.L91
 1645              	.L90:
 1646              		.loc 1 584 0 discriminator 2
 1647 003a 0023     		movs	r3, #0
 1648              	.L91:
 1649              		.loc 1 584 0 discriminator 4
 1650 003c FB60     		str	r3, [r7, #12]
 585:Generated_Source\PSoC6\pdl\drivers\peripheral\prot/cy_prot.c ****                 CY_PROT_FAILURE : CY_PROT_SUCCESS;
 586:Generated_Source\PSoC6\pdl\drivers\peripheral\prot/cy_prot.c ****     
 587:Generated_Source\PSoC6\pdl\drivers\peripheral\prot/cy_prot.c ****     return status;
 1651              		.loc 1 587 0 is_stmt 1 discriminator 4
 1652 003e FB68     		ldr	r3, [r7, #12]
 588:Generated_Source\PSoC6\pdl\drivers\peripheral\prot/cy_prot.c **** }
 1653              		.loc 1 588 0 discriminator 4
 1654 0040 1800     		movs	r0, r3
 1655 0042 BD46     		mov	sp, r7
 1656 0044 04B0     		add	sp, sp, #16
 1657              		@ sp needed
 1658 0046 80BD     		pop	{r7, pc}
 1659              	.L94:
 1660              		.align	2
 1661              	.L93:
 1662 0048 45020000 		.word	581
 1663 004c 00000000 		.word	.LC1
 1664 0050 0300C200 		.word	12713987
 1665              		.cfi_endproc
 1666              	.LFE57:
 1667              		.size	Cy_Prot_EnableSmpuSlaveStruct, .-Cy_Prot_EnableSmpuSlaveStruct
 1668              		.section	.text.Cy_Prot_DisableSmpuSlaveStruct,"ax",%progbits
 1669              		.align	2
 1670              		.global	Cy_Prot_DisableSmpuSlaveStruct
 1671              		.code	16
 1672              		.thumb_func
 1673              		.type	Cy_Prot_DisableSmpuSlaveStruct, %function
 1674              	Cy_Prot_DisableSmpuSlaveStruct:
 1675              	.LFB58:
 589:Generated_Source\PSoC6\pdl\drivers\peripheral\prot/cy_prot.c **** 
 590:Generated_Source\PSoC6\pdl\drivers\peripheral\prot/cy_prot.c **** 
 591:Generated_Source\PSoC6\pdl\drivers\peripheral\prot/cy_prot.c **** /*******************************************************************************
 592:Generated_Source\PSoC6\pdl\drivers\peripheral\prot/cy_prot.c **** * Function Name: Cy_Prot_DisableSmpuSlaveStruct
ARM GAS  C:\Users\JC\AppData\Local\Temp\ccU1E72d.s 			page 41


 593:Generated_Source\PSoC6\pdl\drivers\peripheral\prot/cy_prot.c **** ****************************************************************************//**
 594:Generated_Source\PSoC6\pdl\drivers\peripheral\prot/cy_prot.c **** *
 595:Generated_Source\PSoC6\pdl\drivers\peripheral\prot/cy_prot.c **** * Disables the Slave SMPU structure.
 596:Generated_Source\PSoC6\pdl\drivers\peripheral\prot/cy_prot.c **** *
 597:Generated_Source\PSoC6\pdl\drivers\peripheral\prot/cy_prot.c **** * This is an SMPU slave struct disable function. The SMPU protection settings
 598:Generated_Source\PSoC6\pdl\drivers\peripheral\prot/cy_prot.c **** * will seize to take effect after successful completion of this function call.
 599:Generated_Source\PSoC6\pdl\drivers\peripheral\prot/cy_prot.c **** *
 600:Generated_Source\PSoC6\pdl\drivers\peripheral\prot/cy_prot.c **** * \note This function is applicable for both CPUSS ver_1 and ver_2.
 601:Generated_Source\PSoC6\pdl\drivers\peripheral\prot/cy_prot.c **** *
 602:Generated_Source\PSoC6\pdl\drivers\peripheral\prot/cy_prot.c **** * \param base
 603:Generated_Source\PSoC6\pdl\drivers\peripheral\prot/cy_prot.c **** * The base address for the protection unit structure being configured. 
 604:Generated_Source\PSoC6\pdl\drivers\peripheral\prot/cy_prot.c **** *
 605:Generated_Source\PSoC6\pdl\drivers\peripheral\prot/cy_prot.c **** * \return
 606:Generated_Source\PSoC6\pdl\drivers\peripheral\prot/cy_prot.c **** * Status of the function call.
 607:Generated_Source\PSoC6\pdl\drivers\peripheral\prot/cy_prot.c **** *
 608:Generated_Source\PSoC6\pdl\drivers\peripheral\prot/cy_prot.c **** *   Status               | Description
 609:Generated_Source\PSoC6\pdl\drivers\peripheral\prot/cy_prot.c **** *   ------------         | -----------
 610:Generated_Source\PSoC6\pdl\drivers\peripheral\prot/cy_prot.c **** *   CY_PROT_SUCCESS      | The Slave PU struct was disabled.
 611:Generated_Source\PSoC6\pdl\drivers\peripheral\prot/cy_prot.c **** *   CY_PROT_FAILURE      | The Slave PU struct is enabled and possibly locked.
 612:Generated_Source\PSoC6\pdl\drivers\peripheral\prot/cy_prot.c **** *
 613:Generated_Source\PSoC6\pdl\drivers\peripheral\prot/cy_prot.c **** * \funcusage
 614:Generated_Source\PSoC6\pdl\drivers\peripheral\prot/cy_prot.c **** * \snippet prot/1.20/snippet/main.c snippet_Cy_Prot_DisableSmpuSlaveStruct
 615:Generated_Source\PSoC6\pdl\drivers\peripheral\prot/cy_prot.c **** *
 616:Generated_Source\PSoC6\pdl\drivers\peripheral\prot/cy_prot.c **** *******************************************************************************/
 617:Generated_Source\PSoC6\pdl\drivers\peripheral\prot/cy_prot.c **** cy_en_prot_status_t Cy_Prot_DisableSmpuSlaveStruct(PROT_SMPU_SMPU_STRUCT_Type* base)
 618:Generated_Source\PSoC6\pdl\drivers\peripheral\prot/cy_prot.c **** {
 1676              		.loc 1 618 0
 1677              		.cfi_startproc
 1678              		@ args = 0, pretend = 0, frame = 16
 1679              		@ frame_needed = 1, uses_anonymous_args = 0
 1680 0000 80B5     		push	{r7, lr}
 1681              		.cfi_def_cfa_offset 8
 1682              		.cfi_offset 7, -8
 1683              		.cfi_offset 14, -4
 1684 0002 84B0     		sub	sp, sp, #16
 1685              		.cfi_def_cfa_offset 24
 1686 0004 00AF     		add	r7, sp, #0
 1687              		.cfi_def_cfa_register 7
 1688 0006 7860     		str	r0, [r7, #4]
 619:Generated_Source\PSoC6\pdl\drivers\peripheral\prot/cy_prot.c ****     cy_en_prot_status_t status;
 620:Generated_Source\PSoC6\pdl\drivers\peripheral\prot/cy_prot.c ****     
 621:Generated_Source\PSoC6\pdl\drivers\peripheral\prot/cy_prot.c ****     CY_ASSERT_L1(NULL != base);
 1689              		.loc 1 621 0
 1690 0008 7B68     		ldr	r3, [r7, #4]
 1691 000a 002B     		cmp	r3, #0
 1692 000c 05D1     		bne	.L96
 1693              		.loc 1 621 0 is_stmt 0 discriminator 1
 1694 000e 0E4A     		ldr	r2, .L100
 1695 0010 0E4B     		ldr	r3, .L100+4
 1696 0012 1100     		movs	r1, r2
 1697 0014 1800     		movs	r0, r3
 1698 0016 FFF7FEFF 		bl	Cy_SysLib_AssertFailed
 1699              	.L96:
 622:Generated_Source\PSoC6\pdl\drivers\peripheral\prot/cy_prot.c ****     
 623:Generated_Source\PSoC6\pdl\drivers\peripheral\prot/cy_prot.c ****     PROT_SMPU_SMPU_STRUCT_ATT0(base) &= ~_VAL2FLD(PROT_SMPU_SMPU_STRUCT_ATT0_ENABLED, CY_PROT_STRUC
 1700              		.loc 1 623 0 is_stmt 1
 1701 001a 7B68     		ldr	r3, [r7, #4]
ARM GAS  C:\Users\JC\AppData\Local\Temp\ccU1E72d.s 			page 42


 1702 001c 5B68     		ldr	r3, [r3, #4]
 1703 001e 5B00     		lsls	r3, r3, #1
 1704 0020 5A08     		lsrs	r2, r3, #1
 1705 0022 7B68     		ldr	r3, [r7, #4]
 1706 0024 5A60     		str	r2, [r3, #4]
 624:Generated_Source\PSoC6\pdl\drivers\peripheral\prot/cy_prot.c ****     status = (_FLD2VAL(PROT_SMPU_SMPU_STRUCT_ATT0_ENABLED, PROT_SMPU_SMPU_STRUCT_ATT0(base)) == CY_
 1707              		.loc 1 624 0
 1708 0026 7B68     		ldr	r3, [r7, #4]
 1709 0028 5B68     		ldr	r3, [r3, #4]
 1710 002a DB0F     		lsrs	r3, r3, #31
 1711 002c DB07     		lsls	r3, r3, #31
 1712 002e DB0F     		lsrs	r3, r3, #31
 1713 0030 012B     		cmp	r3, #1
 1714 0032 01D1     		bne	.L97
 1715              		.loc 1 624 0 is_stmt 0 discriminator 1
 1716 0034 064B     		ldr	r3, .L100+8
 1717 0036 00E0     		b	.L98
 1718              	.L97:
 1719              		.loc 1 624 0 discriminator 2
 1720 0038 0023     		movs	r3, #0
 1721              	.L98:
 1722              		.loc 1 624 0 discriminator 4
 1723 003a FB60     		str	r3, [r7, #12]
 625:Generated_Source\PSoC6\pdl\drivers\peripheral\prot/cy_prot.c ****                 CY_PROT_FAILURE : CY_PROT_SUCCESS;
 626:Generated_Source\PSoC6\pdl\drivers\peripheral\prot/cy_prot.c ****     
 627:Generated_Source\PSoC6\pdl\drivers\peripheral\prot/cy_prot.c ****     return status;
 1724              		.loc 1 627 0 is_stmt 1 discriminator 4
 1725 003c FB68     		ldr	r3, [r7, #12]
 628:Generated_Source\PSoC6\pdl\drivers\peripheral\prot/cy_prot.c **** }
 1726              		.loc 1 628 0 discriminator 4
 1727 003e 1800     		movs	r0, r3
 1728 0040 BD46     		mov	sp, r7
 1729 0042 04B0     		add	sp, sp, #16
 1730              		@ sp needed
 1731 0044 80BD     		pop	{r7, pc}
 1732              	.L101:
 1733 0046 C046     		.align	2
 1734              	.L100:
 1735 0048 6D020000 		.word	621
 1736 004c 00000000 		.word	.LC1
 1737 0050 0300C200 		.word	12713987
 1738              		.cfi_endproc
 1739              	.LFE58:
 1740              		.size	Cy_Prot_DisableSmpuSlaveStruct, .-Cy_Prot_DisableSmpuSlaveStruct
 1741              		.section	.text.Cy_Prot_GetSmpuStruct,"ax",%progbits
 1742              		.align	2
 1743              		.global	Cy_Prot_GetSmpuStruct
 1744              		.code	16
 1745              		.thumb_func
 1746              		.type	Cy_Prot_GetSmpuStruct, %function
 1747              	Cy_Prot_GetSmpuStruct:
 1748              	.LFB59:
 629:Generated_Source\PSoC6\pdl\drivers\peripheral\prot/cy_prot.c **** 
 630:Generated_Source\PSoC6\pdl\drivers\peripheral\prot/cy_prot.c **** 
 631:Generated_Source\PSoC6\pdl\drivers\peripheral\prot/cy_prot.c **** /*******************************************************************************
 632:Generated_Source\PSoC6\pdl\drivers\peripheral\prot/cy_prot.c **** * Function Name: Cy_Prot_GetSmpuStruct
 633:Generated_Source\PSoC6\pdl\drivers\peripheral\prot/cy_prot.c **** ****************************************************************************//**
ARM GAS  C:\Users\JC\AppData\Local\Temp\ccU1E72d.s 			page 43


 634:Generated_Source\PSoC6\pdl\drivers\peripheral\prot/cy_prot.c **** *
 635:Generated_Source\PSoC6\pdl\drivers\peripheral\prot/cy_prot.c **** * Functions returns a pointer of the requested unused SMPU structure. It 
 636:Generated_Source\PSoC6\pdl\drivers\peripheral\prot/cy_prot.c **** * searches the SMPU structures until it finds one that both the slave and master
 637:Generated_Source\PSoC6\pdl\drivers\peripheral\prot/cy_prot.c **** * sections are disabled. After an available structure is located, function 
 638:Generated_Source\PSoC6\pdl\drivers\peripheral\prot/cy_prot.c **** * enables the slave structure and set the ATT0[7:0] bits to 0xFF, to make sure 
 639:Generated_Source\PSoC6\pdl\drivers\peripheral\prot/cy_prot.c **** * that a subsequent call will not see this as an available (unused) SMPU. 
 640:Generated_Source\PSoC6\pdl\drivers\peripheral\prot/cy_prot.c **** *
 641:Generated_Source\PSoC6\pdl\drivers\peripheral\prot/cy_prot.c **** * It is up to the user to implement, if needed, a system in which a semaphore 
 642:Generated_Source\PSoC6\pdl\drivers\peripheral\prot/cy_prot.c **** * will lock-out all but one CPU from calling this function at once.
 643:Generated_Source\PSoC6\pdl\drivers\peripheral\prot/cy_prot.c **** *
 644:Generated_Source\PSoC6\pdl\drivers\peripheral\prot/cy_prot.c **** * \note This function is applicable for both CPUSS ver_1 and ver_2.
 645:Generated_Source\PSoC6\pdl\drivers\peripheral\prot/cy_prot.c **** *
 646:Generated_Source\PSoC6\pdl\drivers\peripheral\prot/cy_prot.c **** * \param base
 647:Generated_Source\PSoC6\pdl\drivers\peripheral\prot/cy_prot.c **** * The base address for the SMPU structure returned if an unused structure was 
 648:Generated_Source\PSoC6\pdl\drivers\peripheral\prot/cy_prot.c **** * found. If an empty structure was not found, the returned pointer is NULL.
 649:Generated_Source\PSoC6\pdl\drivers\peripheral\prot/cy_prot.c **** *
 650:Generated_Source\PSoC6\pdl\drivers\peripheral\prot/cy_prot.c **** * \param reqMode
 651:Generated_Source\PSoC6\pdl\drivers\peripheral\prot/cy_prot.c **** * This parameter (request mode) selects how the user wants to select a SMPU 
 652:Generated_Source\PSoC6\pdl\drivers\peripheral\prot/cy_prot.c **** * structure.
 653:Generated_Source\PSoC6\pdl\drivers\peripheral\prot/cy_prot.c **** *
 654:Generated_Source\PSoC6\pdl\drivers\peripheral\prot/cy_prot.c **** *   reqMode                 | Description
 655:Generated_Source\PSoC6\pdl\drivers\peripheral\prot/cy_prot.c **** * --------------------------| -----------------------------
 656:Generated_Source\PSoC6\pdl\drivers\peripheral\prot/cy_prot.c **** * CY_PROT_REQMODE_HIGHPRIOR | Return the SMPU structure with the highest priority.
 657:Generated_Source\PSoC6\pdl\drivers\peripheral\prot/cy_prot.c **** * CY_PROT_REQMODE_LOWPRIOR  | Return the SMPU structure with the lowest priority.
 658:Generated_Source\PSoC6\pdl\drivers\peripheral\prot/cy_prot.c **** * CY_PROT_REQMODE_INDEX     | Return the SMPU structure with the specific index.
 659:Generated_Source\PSoC6\pdl\drivers\peripheral\prot/cy_prot.c **** *
 660:Generated_Source\PSoC6\pdl\drivers\peripheral\prot/cy_prot.c **** * \param smpuIndex
 661:Generated_Source\PSoC6\pdl\drivers\peripheral\prot/cy_prot.c **** * This is the index of the requested SMPU structure. It is only used if the 
 662:Generated_Source\PSoC6\pdl\drivers\peripheral\prot/cy_prot.c **** * request mode is reqMode = CY_PROT_REQMODE_INDEX.
 663:Generated_Source\PSoC6\pdl\drivers\peripheral\prot/cy_prot.c **** *
 664:Generated_Source\PSoC6\pdl\drivers\peripheral\prot/cy_prot.c **** * \return
 665:Generated_Source\PSoC6\pdl\drivers\peripheral\prot/cy_prot.c **** * Status of the function call.
 666:Generated_Source\PSoC6\pdl\drivers\peripheral\prot/cy_prot.c **** *
 667:Generated_Source\PSoC6\pdl\drivers\peripheral\prot/cy_prot.c **** *   Status              | Description
 668:Generated_Source\PSoC6\pdl\drivers\peripheral\prot/cy_prot.c **** * ----------------------| ---------------------------------------
 669:Generated_Source\PSoC6\pdl\drivers\peripheral\prot/cy_prot.c **** * CY_PROT_SUCCESS       | The Slave PU struct was disabled.
 670:Generated_Source\PSoC6\pdl\drivers\peripheral\prot/cy_prot.c **** * CY_PROT_FAILURE       | The Master or Slave SMPU struct is disabled and possibly locked.
 671:Generated_Source\PSoC6\pdl\drivers\peripheral\prot/cy_prot.c **** * CY_PROT_UNAVAILABLE   | The requested structure in use or there were no unused structures.
 672:Generated_Source\PSoC6\pdl\drivers\peripheral\prot/cy_prot.c **** *
 673:Generated_Source\PSoC6\pdl\drivers\peripheral\prot/cy_prot.c **** * \funcusage
 674:Generated_Source\PSoC6\pdl\drivers\peripheral\prot/cy_prot.c **** * \snippet prot/1.20/snippet/main.c snippet_Cy_Prot_GetSmpuStruct
 675:Generated_Source\PSoC6\pdl\drivers\peripheral\prot/cy_prot.c **** *
 676:Generated_Source\PSoC6\pdl\drivers\peripheral\prot/cy_prot.c **** *******************************************************************************/
 677:Generated_Source\PSoC6\pdl\drivers\peripheral\prot/cy_prot.c **** cy_en_prot_status_t Cy_Prot_GetSmpuStruct(PROT_SMPU_SMPU_STRUCT_Type** base, 
 678:Generated_Source\PSoC6\pdl\drivers\peripheral\prot/cy_prot.c ****                                           cy_en_prot_req_mode_t reqMode, uint32_t smpuIndex)
 679:Generated_Source\PSoC6\pdl\drivers\peripheral\prot/cy_prot.c **** {
 1749              		.loc 1 679 0
 1750              		.cfi_startproc
 1751              		@ args = 0, pretend = 0, frame = 24
 1752              		@ frame_needed = 1, uses_anonymous_args = 0
 1753 0000 80B5     		push	{r7, lr}
 1754              		.cfi_def_cfa_offset 8
 1755              		.cfi_offset 7, -8
 1756              		.cfi_offset 14, -4
 1757 0002 86B0     		sub	sp, sp, #24
 1758              		.cfi_def_cfa_offset 32
 1759 0004 00AF     		add	r7, sp, #0
ARM GAS  C:\Users\JC\AppData\Local\Temp\ccU1E72d.s 			page 44


 1760              		.cfi_def_cfa_register 7
 1761 0006 F860     		str	r0, [r7, #12]
 1762 0008 7A60     		str	r2, [r7, #4]
 1763 000a 0B23     		movs	r3, #11
 1764 000c FB18     		adds	r3, r7, r3
 1765 000e 0A1C     		adds	r2, r1, #0
 1766 0010 1A70     		strb	r2, [r3]
 680:Generated_Source\PSoC6\pdl\drivers\peripheral\prot/cy_prot.c ****     CY_ASSERT_L3(CY_PROT_IS_SMPU_REQ_MODE_VALID(reqMode));
 1767              		.loc 1 680 0
 1768 0012 0B23     		movs	r3, #11
 1769 0014 FB18     		adds	r3, r7, r3
 1770 0016 1B78     		ldrb	r3, [r3]
 1771 0018 002B     		cmp	r3, #0
 1772 001a 10D0     		beq	.L103
 1773              		.loc 1 680 0 is_stmt 0 discriminator 1
 1774 001c 0B23     		movs	r3, #11
 1775 001e FB18     		adds	r3, r7, r3
 1776 0020 1B78     		ldrb	r3, [r3]
 1777 0022 012B     		cmp	r3, #1
 1778 0024 0BD0     		beq	.L103
 1779              		.loc 1 680 0 discriminator 2
 1780 0026 0B23     		movs	r3, #11
 1781 0028 FB18     		adds	r3, r7, r3
 1782 002a 1B78     		ldrb	r3, [r3]
 1783 002c 022B     		cmp	r3, #2
 1784 002e 06D0     		beq	.L103
 1785              		.loc 1 680 0 discriminator 3
 1786 0030 AA23     		movs	r3, #170
 1787 0032 9A00     		lsls	r2, r3, #2
 1788 0034 554B     		ldr	r3, .L126
 1789 0036 1100     		movs	r1, r2
 1790 0038 1800     		movs	r0, r3
 1791 003a FFF7FEFF 		bl	Cy_SysLib_AssertFailed
 1792              	.L103:
 681:Generated_Source\PSoC6\pdl\drivers\peripheral\prot/cy_prot.c ****     CY_ASSERT_L2(CY_PROT_IS_SMPU_IDX_VALID(smpuIndex));
 1793              		.loc 1 681 0 is_stmt 1
 1794 003e 7B68     		ldr	r3, [r7, #4]
 1795 0040 0F2B     		cmp	r3, #15
 1796 0042 05D9     		bls	.L104
 1797              		.loc 1 681 0 is_stmt 0 discriminator 1
 1798 0044 524A     		ldr	r2, .L126+4
 1799 0046 514B     		ldr	r3, .L126
 1800 0048 1100     		movs	r1, r2
 1801 004a 1800     		movs	r0, r3
 1802 004c FFF7FEFF 		bl	Cy_SysLib_AssertFailed
 1803              	.L104:
 682:Generated_Source\PSoC6\pdl\drivers\peripheral\prot/cy_prot.c **** 
 683:Generated_Source\PSoC6\pdl\drivers\peripheral\prot/cy_prot.c ****     cy_en_prot_status_t status = CY_PROT_UNAVAILABLE;
 1804              		.loc 1 683 0 is_stmt 1
 1805 0050 504B     		ldr	r3, .L126+8
 1806 0052 7B61     		str	r3, [r7, #20]
 684:Generated_Source\PSoC6\pdl\drivers\peripheral\prot/cy_prot.c ****     int32_t stcIdx = (int32_t)smpuIndex;
 1807              		.loc 1 684 0
 1808 0054 7B68     		ldr	r3, [r7, #4]
 1809 0056 3B61     		str	r3, [r7, #16]
 685:Generated_Source\PSoC6\pdl\drivers\peripheral\prot/cy_prot.c **** 
 686:Generated_Source\PSoC6\pdl\drivers\peripheral\prot/cy_prot.c ****     *base = NULL;
ARM GAS  C:\Users\JC\AppData\Local\Temp\ccU1E72d.s 			page 45


 1810              		.loc 1 686 0
 1811 0058 FB68     		ldr	r3, [r7, #12]
 1812 005a 0022     		movs	r2, #0
 1813 005c 1A60     		str	r2, [r3]
 687:Generated_Source\PSoC6\pdl\drivers\peripheral\prot/cy_prot.c **** 
 688:Generated_Source\PSoC6\pdl\drivers\peripheral\prot/cy_prot.c ****     switch (reqMode)
 1814              		.loc 1 688 0
 1815 005e 0B23     		movs	r3, #11
 1816 0060 FB18     		adds	r3, r7, r3
 1817 0062 1B78     		ldrb	r3, [r3]
 1818 0064 012B     		cmp	r3, #1
 1819 0066 19D0     		beq	.L106
 1820 0068 022B     		cmp	r3, #2
 1821 006a 2CD0     		beq	.L107
 1822 006c 002B     		cmp	r3, #0
 1823 006e 00D0     		beq	.L108
 689:Generated_Source\PSoC6\pdl\drivers\peripheral\prot/cy_prot.c ****     {
 690:Generated_Source\PSoC6\pdl\drivers\peripheral\prot/cy_prot.c ****         /* The SMPU priority goes from PROT_SMPU_STRUCT_HIGHEST_PR 
 691:Generated_Source\PSoC6\pdl\drivers\peripheral\prot/cy_prot.c ****         *  (highest priority) to 0 (lowest priority)
 692:Generated_Source\PSoC6\pdl\drivers\peripheral\prot/cy_prot.c ****         */
 693:Generated_Source\PSoC6\pdl\drivers\peripheral\prot/cy_prot.c ****         case CY_PROT_REQMODE_HIGHPRIOR:
 694:Generated_Source\PSoC6\pdl\drivers\peripheral\prot/cy_prot.c **** 
 695:Generated_Source\PSoC6\pdl\drivers\peripheral\prot/cy_prot.c ****             stcIdx = PROT_SMPU_STRUCT_WTH_HIGHEST_PR;
 696:Generated_Source\PSoC6\pdl\drivers\peripheral\prot/cy_prot.c ****             do
 697:Generated_Source\PSoC6\pdl\drivers\peripheral\prot/cy_prot.c ****             {
 698:Generated_Source\PSoC6\pdl\drivers\peripheral\prot/cy_prot.c ****                 if (Prot_IsSmpuStructDisabled((uint32_t)stcIdx))
 699:Generated_Source\PSoC6\pdl\drivers\peripheral\prot/cy_prot.c ****                 {
 700:Generated_Source\PSoC6\pdl\drivers\peripheral\prot/cy_prot.c ****                     status = CY_PROT_SUCCESS;
 701:Generated_Source\PSoC6\pdl\drivers\peripheral\prot/cy_prot.c ****                 }
 702:Generated_Source\PSoC6\pdl\drivers\peripheral\prot/cy_prot.c ****                 else
 703:Generated_Source\PSoC6\pdl\drivers\peripheral\prot/cy_prot.c ****                 {
 704:Generated_Source\PSoC6\pdl\drivers\peripheral\prot/cy_prot.c ****                     --stcIdx;
 705:Generated_Source\PSoC6\pdl\drivers\peripheral\prot/cy_prot.c ****                 }
 706:Generated_Source\PSoC6\pdl\drivers\peripheral\prot/cy_prot.c ****             } while ((stcIdx >= 0) && (CY_PROT_SUCCESS != status));
 707:Generated_Source\PSoC6\pdl\drivers\peripheral\prot/cy_prot.c ****             break;
 708:Generated_Source\PSoC6\pdl\drivers\peripheral\prot/cy_prot.c ****         
 709:Generated_Source\PSoC6\pdl\drivers\peripheral\prot/cy_prot.c ****         case CY_PROT_REQMODE_LOWPRIOR:
 710:Generated_Source\PSoC6\pdl\drivers\peripheral\prot/cy_prot.c ****             stcIdx = 0;
 711:Generated_Source\PSoC6\pdl\drivers\peripheral\prot/cy_prot.c ****             do
 712:Generated_Source\PSoC6\pdl\drivers\peripheral\prot/cy_prot.c ****             {
 713:Generated_Source\PSoC6\pdl\drivers\peripheral\prot/cy_prot.c ****                 if (Prot_IsSmpuStructDisabled((uint32_t)stcIdx))
 714:Generated_Source\PSoC6\pdl\drivers\peripheral\prot/cy_prot.c ****                 {
 715:Generated_Source\PSoC6\pdl\drivers\peripheral\prot/cy_prot.c ****                     status = CY_PROT_SUCCESS;
 716:Generated_Source\PSoC6\pdl\drivers\peripheral\prot/cy_prot.c ****                 }
 717:Generated_Source\PSoC6\pdl\drivers\peripheral\prot/cy_prot.c ****                 else
 718:Generated_Source\PSoC6\pdl\drivers\peripheral\prot/cy_prot.c ****                 {
 719:Generated_Source\PSoC6\pdl\drivers\peripheral\prot/cy_prot.c ****                     ++stcIdx;
 720:Generated_Source\PSoC6\pdl\drivers\peripheral\prot/cy_prot.c ****                 }
 721:Generated_Source\PSoC6\pdl\drivers\peripheral\prot/cy_prot.c ****             } while ((stcIdx <= PROT_SMPU_STRUCT_WTH_HIGHEST_PR) && (CY_PROT_SUCCESS != status));
 722:Generated_Source\PSoC6\pdl\drivers\peripheral\prot/cy_prot.c ****             break;
 723:Generated_Source\PSoC6\pdl\drivers\peripheral\prot/cy_prot.c ****         
 724:Generated_Source\PSoC6\pdl\drivers\peripheral\prot/cy_prot.c ****         case CY_PROT_REQMODE_INDEX:
 725:Generated_Source\PSoC6\pdl\drivers\peripheral\prot/cy_prot.c ****             if (Prot_IsSmpuStructDisabled((uint32_t)stcIdx))
 726:Generated_Source\PSoC6\pdl\drivers\peripheral\prot/cy_prot.c ****             {
 727:Generated_Source\PSoC6\pdl\drivers\peripheral\prot/cy_prot.c ****                 status = CY_PROT_SUCCESS;
 728:Generated_Source\PSoC6\pdl\drivers\peripheral\prot/cy_prot.c ****             }
 729:Generated_Source\PSoC6\pdl\drivers\peripheral\prot/cy_prot.c ****             break;
ARM GAS  C:\Users\JC\AppData\Local\Temp\ccU1E72d.s 			page 46


 730:Generated_Source\PSoC6\pdl\drivers\peripheral\prot/cy_prot.c **** 
 731:Generated_Source\PSoC6\pdl\drivers\peripheral\prot/cy_prot.c ****         default:
 732:Generated_Source\PSoC6\pdl\drivers\peripheral\prot/cy_prot.c ****             break;
 1824              		.loc 1 732 0
 1825 0070 37E0     		b	.L113
 1826              	.L108:
 695:Generated_Source\PSoC6\pdl\drivers\peripheral\prot/cy_prot.c ****             do
 1827              		.loc 1 695 0
 1828 0072 0F23     		movs	r3, #15
 1829 0074 3B61     		str	r3, [r7, #16]
 1830              	.L112:
 698:Generated_Source\PSoC6\pdl\drivers\peripheral\prot/cy_prot.c ****                 {
 1831              		.loc 1 698 0
 1832 0076 3B69     		ldr	r3, [r7, #16]
 1833 0078 1800     		movs	r0, r3
 1834 007a FFF7FEFF 		bl	Prot_IsSmpuStructDisabled
 1835 007e 031E     		subs	r3, r0, #0
 1836 0080 02D0     		beq	.L109
 700:Generated_Source\PSoC6\pdl\drivers\peripheral\prot/cy_prot.c ****                 }
 1837              		.loc 1 700 0
 1838 0082 0023     		movs	r3, #0
 1839 0084 7B61     		str	r3, [r7, #20]
 1840 0086 02E0     		b	.L110
 1841              	.L109:
 704:Generated_Source\PSoC6\pdl\drivers\peripheral\prot/cy_prot.c ****                 }
 1842              		.loc 1 704 0
 1843 0088 3B69     		ldr	r3, [r7, #16]
 1844 008a 013B     		subs	r3, r3, #1
 1845 008c 3B61     		str	r3, [r7, #16]
 1846              	.L110:
 706:Generated_Source\PSoC6\pdl\drivers\peripheral\prot/cy_prot.c ****             break;
 1847              		.loc 1 706 0
 1848 008e 3B69     		ldr	r3, [r7, #16]
 1849 0090 002B     		cmp	r3, #0
 1850 0092 21DB     		blt	.L123
 706:Generated_Source\PSoC6\pdl\drivers\peripheral\prot/cy_prot.c ****             break;
 1851              		.loc 1 706 0 is_stmt 0 discriminator 1
 1852 0094 7B69     		ldr	r3, [r7, #20]
 1853 0096 002B     		cmp	r3, #0
 1854 0098 EDD1     		bne	.L112
 707:Generated_Source\PSoC6\pdl\drivers\peripheral\prot/cy_prot.c ****         
 1855              		.loc 1 707 0 is_stmt 1
 1856 009a 1DE0     		b	.L123
 1857              	.L106:
 710:Generated_Source\PSoC6\pdl\drivers\peripheral\prot/cy_prot.c ****             do
 1858              		.loc 1 710 0
 1859 009c 0023     		movs	r3, #0
 1860 009e 3B61     		str	r3, [r7, #16]
 1861              	.L117:
 713:Generated_Source\PSoC6\pdl\drivers\peripheral\prot/cy_prot.c ****                 {
 1862              		.loc 1 713 0
 1863 00a0 3B69     		ldr	r3, [r7, #16]
 1864 00a2 1800     		movs	r0, r3
 1865 00a4 FFF7FEFF 		bl	Prot_IsSmpuStructDisabled
 1866 00a8 031E     		subs	r3, r0, #0
 1867 00aa 02D0     		beq	.L114
 715:Generated_Source\PSoC6\pdl\drivers\peripheral\prot/cy_prot.c ****                 }
ARM GAS  C:\Users\JC\AppData\Local\Temp\ccU1E72d.s 			page 47


 1868              		.loc 1 715 0
 1869 00ac 0023     		movs	r3, #0
 1870 00ae 7B61     		str	r3, [r7, #20]
 1871 00b0 02E0     		b	.L115
 1872              	.L114:
 719:Generated_Source\PSoC6\pdl\drivers\peripheral\prot/cy_prot.c ****                 }
 1873              		.loc 1 719 0
 1874 00b2 3B69     		ldr	r3, [r7, #16]
 1875 00b4 0133     		adds	r3, r3, #1
 1876 00b6 3B61     		str	r3, [r7, #16]
 1877              	.L115:
 721:Generated_Source\PSoC6\pdl\drivers\peripheral\prot/cy_prot.c ****             break;
 1878              		.loc 1 721 0
 1879 00b8 3B69     		ldr	r3, [r7, #16]
 1880 00ba 0F2B     		cmp	r3, #15
 1881 00bc 0EDC     		bgt	.L124
 721:Generated_Source\PSoC6\pdl\drivers\peripheral\prot/cy_prot.c ****             break;
 1882              		.loc 1 721 0 is_stmt 0 discriminator 1
 1883 00be 7B69     		ldr	r3, [r7, #20]
 1884 00c0 002B     		cmp	r3, #0
 1885 00c2 EDD1     		bne	.L117
 722:Generated_Source\PSoC6\pdl\drivers\peripheral\prot/cy_prot.c ****         
 1886              		.loc 1 722 0 is_stmt 1
 1887 00c4 0AE0     		b	.L124
 1888              	.L107:
 725:Generated_Source\PSoC6\pdl\drivers\peripheral\prot/cy_prot.c ****             {
 1889              		.loc 1 725 0
 1890 00c6 3B69     		ldr	r3, [r7, #16]
 1891 00c8 1800     		movs	r0, r3
 1892 00ca FFF7FEFF 		bl	Prot_IsSmpuStructDisabled
 1893 00ce 031E     		subs	r3, r0, #0
 1894 00d0 06D0     		beq	.L125
 727:Generated_Source\PSoC6\pdl\drivers\peripheral\prot/cy_prot.c ****             }
 1895              		.loc 1 727 0
 1896 00d2 0023     		movs	r3, #0
 1897 00d4 7B61     		str	r3, [r7, #20]
 729:Generated_Source\PSoC6\pdl\drivers\peripheral\prot/cy_prot.c **** 
 1898              		.loc 1 729 0
 1899 00d6 03E0     		b	.L125
 1900              	.L123:
 707:Generated_Source\PSoC6\pdl\drivers\peripheral\prot/cy_prot.c ****         
 1901              		.loc 1 707 0
 1902 00d8 C046     		nop
 1903 00da 02E0     		b	.L113
 1904              	.L124:
 722:Generated_Source\PSoC6\pdl\drivers\peripheral\prot/cy_prot.c ****         
 1905              		.loc 1 722 0
 1906 00dc C046     		nop
 1907 00de 00E0     		b	.L113
 1908              	.L125:
 729:Generated_Source\PSoC6\pdl\drivers\peripheral\prot/cy_prot.c **** 
 1909              		.loc 1 729 0
 1910 00e0 C046     		nop
 1911              	.L113:
 733:Generated_Source\PSoC6\pdl\drivers\peripheral\prot/cy_prot.c ****     }
 734:Generated_Source\PSoC6\pdl\drivers\peripheral\prot/cy_prot.c **** 
 735:Generated_Source\PSoC6\pdl\drivers\peripheral\prot/cy_prot.c ****     /* Proceed if required structure is found */
ARM GAS  C:\Users\JC\AppData\Local\Temp\ccU1E72d.s 			page 48


 736:Generated_Source\PSoC6\pdl\drivers\peripheral\prot/cy_prot.c ****     if (CY_PROT_SUCCESS == status)
 1912              		.loc 1 736 0
 1913 00e2 7B69     		ldr	r3, [r7, #20]
 1914 00e4 002B     		cmp	r3, #0
 1915 00e6 4CD1     		bne	.L119
 737:Generated_Source\PSoC6\pdl\drivers\peripheral\prot/cy_prot.c ****     {
 738:Generated_Source\PSoC6\pdl\drivers\peripheral\prot/cy_prot.c ****         /* Enable Slave SMPU struct */
 739:Generated_Source\PSoC6\pdl\drivers\peripheral\prot/cy_prot.c ****         PROT_SMPU_SMPU_STRUCT_IDX_ATT0(stcIdx) |= _VAL2FLD(PROT_SMPU_SMPU_STRUCT_ATT0_ENABLED, CY_P
 1916              		.loc 1 739 0
 1917 00e8 2B4B     		ldr	r3, .L126+12
 1918 00ea 1B68     		ldr	r3, [r3]
 1919 00ec 1B69     		ldr	r3, [r3, #16]
 1920 00ee 1900     		movs	r1, r3
 1921 00f0 294B     		ldr	r3, .L126+12
 1922 00f2 1B68     		ldr	r3, [r3]
 1923 00f4 1B69     		ldr	r3, [r3, #16]
 1924 00f6 1A00     		movs	r2, r3
 1925 00f8 3B69     		ldr	r3, [r7, #16]
 1926 00fa 8033     		adds	r3, r3, #128
 1927 00fc 9B01     		lsls	r3, r3, #6
 1928 00fe D318     		adds	r3, r2, r3
 1929 0100 0433     		adds	r3, r3, #4
 1930 0102 1B68     		ldr	r3, [r3]
 1931 0104 8022     		movs	r2, #128
 1932 0106 1206     		lsls	r2, r2, #24
 1933 0108 1A43     		orrs	r2, r3
 1934 010a 3B69     		ldr	r3, [r7, #16]
 1935 010c 8033     		adds	r3, r3, #128
 1936 010e 9B01     		lsls	r3, r3, #6
 1937 0110 CB18     		adds	r3, r1, r3
 1938 0112 0433     		adds	r3, r3, #4
 1939 0114 1A60     		str	r2, [r3]
 740:Generated_Source\PSoC6\pdl\drivers\peripheral\prot/cy_prot.c ****         
 741:Generated_Source\PSoC6\pdl\drivers\peripheral\prot/cy_prot.c ****         status = 
 742:Generated_Source\PSoC6\pdl\drivers\peripheral\prot/cy_prot.c ****         (_FLD2VAL(PROT_SMPU_SMPU_STRUCT_ATT0_ENABLED, PROT_SMPU_SMPU_STRUCT_IDX_ATT0(stcIdx)) != CY
 1940              		.loc 1 742 0
 1941 0116 204B     		ldr	r3, .L126+12
 1942 0118 1B68     		ldr	r3, [r3]
 1943 011a 1B69     		ldr	r3, [r3, #16]
 1944 011c 1A00     		movs	r2, r3
 1945 011e 3B69     		ldr	r3, [r7, #16]
 1946 0120 8033     		adds	r3, r3, #128
 1947 0122 9B01     		lsls	r3, r3, #6
 1948 0124 D318     		adds	r3, r2, r3
 1949 0126 0433     		adds	r3, r3, #4
 1950 0128 1B68     		ldr	r3, [r3]
 1951 012a DB0F     		lsrs	r3, r3, #31
 1952 012c DB07     		lsls	r3, r3, #31
 1953 012e DB0F     		lsrs	r3, r3, #31
 741:Generated_Source\PSoC6\pdl\drivers\peripheral\prot/cy_prot.c ****         (_FLD2VAL(PROT_SMPU_SMPU_STRUCT_ATT0_ENABLED, PROT_SMPU_SMPU_STRUCT_IDX_ATT0(stcIdx)) != CY
 1954              		.loc 1 741 0
 1955 0130 012B     		cmp	r3, #1
 1956 0132 01D0     		beq	.L120
 741:Generated_Source\PSoC6\pdl\drivers\peripheral\prot/cy_prot.c ****         (_FLD2VAL(PROT_SMPU_SMPU_STRUCT_ATT0_ENABLED, PROT_SMPU_SMPU_STRUCT_IDX_ATT0(stcIdx)) != CY
 1957              		.loc 1 741 0 is_stmt 0 discriminator 1
 1958 0134 194B     		ldr	r3, .L126+16
 1959 0136 00E0     		b	.L121
ARM GAS  C:\Users\JC\AppData\Local\Temp\ccU1E72d.s 			page 49


 1960              	.L120:
 741:Generated_Source\PSoC6\pdl\drivers\peripheral\prot/cy_prot.c ****         (_FLD2VAL(PROT_SMPU_SMPU_STRUCT_ATT0_ENABLED, PROT_SMPU_SMPU_STRUCT_IDX_ATT0(stcIdx)) != CY
 1961              		.loc 1 741 0 discriminator 2
 1962 0138 0023     		movs	r3, #0
 1963              	.L121:
 741:Generated_Source\PSoC6\pdl\drivers\peripheral\prot/cy_prot.c ****         (_FLD2VAL(PROT_SMPU_SMPU_STRUCT_ATT0_ENABLED, PROT_SMPU_SMPU_STRUCT_IDX_ATT0(stcIdx)) != CY
 1964              		.loc 1 741 0 discriminator 4
 1965 013a 7B61     		str	r3, [r7, #20]
 743:Generated_Source\PSoC6\pdl\drivers\peripheral\prot/cy_prot.c ****         CY_PROT_FAILURE : CY_PROT_SUCCESS;
 744:Generated_Source\PSoC6\pdl\drivers\peripheral\prot/cy_prot.c **** 
 745:Generated_Source\PSoC6\pdl\drivers\peripheral\prot/cy_prot.c ****         /* Enable all attributes only if Slave struct was enabled */
 746:Generated_Source\PSoC6\pdl\drivers\peripheral\prot/cy_prot.c ****         if (CY_PROT_SUCCESS == status)
 1966              		.loc 1 746 0 is_stmt 1 discriminator 4
 1967 013c 7B69     		ldr	r3, [r7, #20]
 1968 013e 002B     		cmp	r3, #0
 1969 0140 1FD1     		bne	.L119
 747:Generated_Source\PSoC6\pdl\drivers\peripheral\prot/cy_prot.c ****         {
 748:Generated_Source\PSoC6\pdl\drivers\peripheral\prot/cy_prot.c ****             *base = (PROT_SMPU_SMPU_STRUCT_Type* ) PROT_SMPU_SMPU_STRUCT_IDX(stcIdx);
 1970              		.loc 1 748 0
 1971 0142 154B     		ldr	r3, .L126+12
 1972 0144 1B68     		ldr	r3, [r3]
 1973 0146 1B69     		ldr	r3, [r3, #16]
 1974 0148 1A00     		movs	r2, r3
 1975 014a 3B69     		ldr	r3, [r7, #16]
 1976 014c 8033     		adds	r3, r3, #128
 1977 014e 9B01     		lsls	r3, r3, #6
 1978 0150 D218     		adds	r2, r2, r3
 1979 0152 FB68     		ldr	r3, [r7, #12]
 1980 0154 1A60     		str	r2, [r3]
 749:Generated_Source\PSoC6\pdl\drivers\peripheral\prot/cy_prot.c ****             PROT_SMPU_SMPU_STRUCT_IDX_ATT0(stcIdx) |= PROT_SMPU_STRUCT_ATT0_ENABLE_ALL_MASK;
 1981              		.loc 1 749 0
 1982 0156 104B     		ldr	r3, .L126+12
 1983 0158 1B68     		ldr	r3, [r3]
 1984 015a 1B69     		ldr	r3, [r3, #16]
 1985 015c 1900     		movs	r1, r3
 1986 015e 0E4B     		ldr	r3, .L126+12
 1987 0160 1B68     		ldr	r3, [r3]
 1988 0162 1B69     		ldr	r3, [r3, #16]
 1989 0164 1A00     		movs	r2, r3
 1990 0166 3B69     		ldr	r3, [r7, #16]
 1991 0168 8033     		adds	r3, r3, #128
 1992 016a 9B01     		lsls	r3, r3, #6
 1993 016c D318     		adds	r3, r2, r3
 1994 016e 0433     		adds	r3, r3, #4
 1995 0170 1B68     		ldr	r3, [r3]
 1996 0172 7F22     		movs	r2, #127
 1997 0174 1A43     		orrs	r2, r3
 1998 0176 3B69     		ldr	r3, [r7, #16]
 1999 0178 8033     		adds	r3, r3, #128
 2000 017a 9B01     		lsls	r3, r3, #6
 2001 017c CB18     		adds	r3, r1, r3
 2002 017e 0433     		adds	r3, r3, #4
 2003 0180 1A60     		str	r2, [r3]
 2004              	.L119:
 750:Generated_Source\PSoC6\pdl\drivers\peripheral\prot/cy_prot.c ****         }
 751:Generated_Source\PSoC6\pdl\drivers\peripheral\prot/cy_prot.c ****     }
 752:Generated_Source\PSoC6\pdl\drivers\peripheral\prot/cy_prot.c ****     return status;
ARM GAS  C:\Users\JC\AppData\Local\Temp\ccU1E72d.s 			page 50


 2005              		.loc 1 752 0
 2006 0182 7B69     		ldr	r3, [r7, #20]
 753:Generated_Source\PSoC6\pdl\drivers\peripheral\prot/cy_prot.c **** }
 2007              		.loc 1 753 0
 2008 0184 1800     		movs	r0, r3
 2009 0186 BD46     		mov	sp, r7
 2010 0188 06B0     		add	sp, sp, #24
 2011              		@ sp needed
 2012 018a 80BD     		pop	{r7, pc}
 2013              	.L127:
 2014              		.align	2
 2015              	.L126:
 2016 018c 00000000 		.word	.LC1
 2017 0190 A9020000 		.word	681
 2018 0194 0400C200 		.word	12713988
 2019 0198 00000000 		.word	cy_device
 2020 019c 0300C200 		.word	12713987
 2021              		.cfi_endproc
 2022              	.LFE59:
 2023              		.size	Cy_Prot_GetSmpuStruct, .-Cy_Prot_GetSmpuStruct
 2024              		.section	.text.Prot_ConfigPpuAtt,"ax",%progbits
 2025              		.align	2
 2026              		.code	16
 2027              		.thumb_func
 2028              		.type	Prot_ConfigPpuAtt, %function
 2029              	Prot_ConfigPpuAtt:
 2030              	.LFB60:
 754:Generated_Source\PSoC6\pdl\drivers\peripheral\prot/cy_prot.c **** 
 755:Generated_Source\PSoC6\pdl\drivers\peripheral\prot/cy_prot.c **** 
 756:Generated_Source\PSoC6\pdl\drivers\peripheral\prot/cy_prot.c **** /*******************************************************************************
 757:Generated_Source\PSoC6\pdl\drivers\peripheral\prot/cy_prot.c **** * Function Name: Prot_ConfigPpuAtt
 758:Generated_Source\PSoC6\pdl\drivers\peripheral\prot/cy_prot.c **** ********************************************************************************
 759:Generated_Source\PSoC6\pdl\drivers\peripheral\prot/cy_prot.c **** *
 760:Generated_Source\PSoC6\pdl\drivers\peripheral\prot/cy_prot.c **** * An internal function to hold the common code for 
 761:Generated_Source\PSoC6\pdl\drivers\peripheral\prot/cy_prot.c **** * Cy_Prot_ConfigPpu[Prog/Fixed][Master/Slave]Att API functions
 762:Generated_Source\PSoC6\pdl\drivers\peripheral\prot/cy_prot.c **** *
 763:Generated_Source\PSoC6\pdl\drivers\peripheral\prot/cy_prot.c **** * \note This function is applicable for CPUSS ver_2 only.
 764:Generated_Source\PSoC6\pdl\drivers\peripheral\prot/cy_prot.c **** *
 765:Generated_Source\PSoC6\pdl\drivers\peripheral\prot/cy_prot.c **** * \param reg
 766:Generated_Source\PSoC6\pdl\drivers\peripheral\prot/cy_prot.c **** * The register to update attributes in.
 767:Generated_Source\PSoC6\pdl\drivers\peripheral\prot/cy_prot.c **** *
 768:Generated_Source\PSoC6\pdl\drivers\peripheral\prot/cy_prot.c **** * \param pcMask
 769:Generated_Source\PSoC6\pdl\drivers\peripheral\prot/cy_prot.c **** * The protection context mask. This is a 16-bit value of the allowed contexts. 
 770:Generated_Source\PSoC6\pdl\drivers\peripheral\prot/cy_prot.c **** * It is an OR'ed (|) field of the * provided defines in cy_prot.h. 
 771:Generated_Source\PSoC6\pdl\drivers\peripheral\prot/cy_prot.c **** * For example: (CY_PROT_PCMASK1 | CY_PROT_PCMASK3 | CY_PROT_PCMASK4).
 772:Generated_Source\PSoC6\pdl\drivers\peripheral\prot/cy_prot.c **** * \note The function accepts pcMask values from CY_PROT_PCMASK1 to CY_PROT_PCMASK5. 
 773:Generated_Source\PSoC6\pdl\drivers\peripheral\prot/cy_prot.c **** * But each device has its own number of available protection contexts. 
 774:Generated_Source\PSoC6\pdl\drivers\peripheral\prot/cy_prot.c **** * That number is defined by PERI_PC_NR in the config file.
 775:Generated_Source\PSoC6\pdl\drivers\peripheral\prot/cy_prot.c **** *
 776:Generated_Source\PSoC6\pdl\drivers\peripheral\prot/cy_prot.c **** * \param userPermission
 777:Generated_Source\PSoC6\pdl\drivers\peripheral\prot/cy_prot.c **** * The user permissions for the region.
 778:Generated_Source\PSoC6\pdl\drivers\peripheral\prot/cy_prot.c **** *
 779:Generated_Source\PSoC6\pdl\drivers\peripheral\prot/cy_prot.c **** * \param privPermission
 780:Generated_Source\PSoC6\pdl\drivers\peripheral\prot/cy_prot.c **** * The privileged permissions for the region.
 781:Generated_Source\PSoC6\pdl\drivers\peripheral\prot/cy_prot.c **** *
 782:Generated_Source\PSoC6\pdl\drivers\peripheral\prot/cy_prot.c **** * \param secure 
 783:Generated_Source\PSoC6\pdl\drivers\peripheral\prot/cy_prot.c **** * Non Secure = false, Secure = true
ARM GAS  C:\Users\JC\AppData\Local\Temp\ccU1E72d.s 			page 51


 784:Generated_Source\PSoC6\pdl\drivers\peripheral\prot/cy_prot.c **** *
 785:Generated_Source\PSoC6\pdl\drivers\peripheral\prot/cy_prot.c **** * \return
 786:Generated_Source\PSoC6\pdl\drivers\peripheral\prot/cy_prot.c **** * The status of the function call.
 787:Generated_Source\PSoC6\pdl\drivers\peripheral\prot/cy_prot.c **** *
 788:Generated_Source\PSoC6\pdl\drivers\peripheral\prot/cy_prot.c **** *   Status              | Description
 789:Generated_Source\PSoC6\pdl\drivers\peripheral\prot/cy_prot.c **** * ----------------------| ---------------------------------------
 790:Generated_Source\PSoC6\pdl\drivers\peripheral\prot/cy_prot.c **** * CY_PROT_SUCCESS       | The attributes were set up.
 791:Generated_Source\PSoC6\pdl\drivers\peripheral\prot/cy_prot.c **** * CY_PROT_FAILURE       | The attributes were not set up because the structure is possibly locked.
 792:Generated_Source\PSoC6\pdl\drivers\peripheral\prot/cy_prot.c **** * CY_PROT_INVALID_STATE | The function was called on the device with an unsupported PERI HW version
 793:Generated_Source\PSoC6\pdl\drivers\peripheral\prot/cy_prot.c **** *
 794:Generated_Source\PSoC6\pdl\drivers\peripheral\prot/cy_prot.c **** *******************************************************************************/
 795:Generated_Source\PSoC6\pdl\drivers\peripheral\prot/cy_prot.c **** static cy_en_prot_status_t Prot_ConfigPpuAtt(volatile uint32_t * reg, uint16_t pcMask, 
 796:Generated_Source\PSoC6\pdl\drivers\peripheral\prot/cy_prot.c ****                                        cy_en_prot_perm_t userPermission, cy_en_prot_perm_t privPerm
 797:Generated_Source\PSoC6\pdl\drivers\peripheral\prot/cy_prot.c **** {
 2031              		.loc 1 797 0
 2032              		.cfi_startproc
 2033              		@ args = 4, pretend = 0, frame = 32
 2034              		@ frame_needed = 1, uses_anonymous_args = 0
 2035 0000 90B5     		push	{r4, r7, lr}
 2036              		.cfi_def_cfa_offset 12
 2037              		.cfi_offset 4, -12
 2038              		.cfi_offset 7, -8
 2039              		.cfi_offset 14, -4
 2040 0002 89B0     		sub	sp, sp, #36
 2041              		.cfi_def_cfa_offset 48
 2042 0004 00AF     		add	r7, sp, #0
 2043              		.cfi_def_cfa_register 7
 2044 0006 7860     		str	r0, [r7, #4]
 2045 0008 0C00     		movs	r4, r1
 2046 000a 1000     		movs	r0, r2
 2047 000c 1900     		movs	r1, r3
 2048 000e BB1C     		adds	r3, r7, #2
 2049 0010 221C     		adds	r2, r4, #0
 2050 0012 1A80     		strh	r2, [r3]
 2051 0014 7B1C     		adds	r3, r7, #1
 2052 0016 021C     		adds	r2, r0, #0
 2053 0018 1A70     		strb	r2, [r3]
 2054 001a 3B00     		movs	r3, r7
 2055 001c 0A1C     		adds	r2, r1, #0
 2056 001e 1A70     		strb	r2, [r3]
 798:Generated_Source\PSoC6\pdl\drivers\peripheral\prot/cy_prot.c ****     cy_en_prot_status_t status = CY_PROT_INVALID_STATE;
 2057              		.loc 1 798 0
 2058 0020 3E4B     		ldr	r3, .L142
 2059 0022 FB61     		str	r3, [r7, #28]
 799:Generated_Source\PSoC6\pdl\drivers\peripheral\prot/cy_prot.c **** 
 800:Generated_Source\PSoC6\pdl\drivers\peripheral\prot/cy_prot.c ****     if (!CY_PERI_V1)
 2060              		.loc 1 800 0
 2061 0024 3E4B     		ldr	r3, .L142+4
 2062 0026 1B68     		ldr	r3, [r3]
 2063 0028 2F22     		movs	r2, #47
 2064 002a 9B5C     		ldrb	r3, [r3, r2]
 2065 002c 012B     		cmp	r3, #1
 2066 002e 00D1     		bne	.LCB1793
 2067 0030 6FE0     		b	.L129	@long jump
 2068              	.LCB1793:
 2069              	.LBB2:
 801:Generated_Source\PSoC6\pdl\drivers\peripheral\prot/cy_prot.c ****     {
ARM GAS  C:\Users\JC\AppData\Local\Temp\ccU1E72d.s 			page 52


 802:Generated_Source\PSoC6\pdl\drivers\peripheral\prot/cy_prot.c ****         uint32_t tmpMask = (uint32_t)pcMask << CY_PROT_PCMASK_CHECK;
 2070              		.loc 1 802 0
 2071 0032 BB1C     		adds	r3, r7, #2
 2072 0034 1B88     		ldrh	r3, [r3]
 2073 0036 5B00     		lsls	r3, r3, #1
 2074 0038 BB61     		str	r3, [r7, #24]
 803:Generated_Source\PSoC6\pdl\drivers\peripheral\prot/cy_prot.c ****         uint32_t attReg;
 804:Generated_Source\PSoC6\pdl\drivers\peripheral\prot/cy_prot.c ****         uint32_t regIdx;
 805:Generated_Source\PSoC6\pdl\drivers\peripheral\prot/cy_prot.c ****         uint32_t fldIdx;
 806:Generated_Source\PSoC6\pdl\drivers\peripheral\prot/cy_prot.c ****         
 807:Generated_Source\PSoC6\pdl\drivers\peripheral\prot/cy_prot.c ****         status = CY_PROT_SUCCESS;
 2075              		.loc 1 807 0
 2076 003a 0023     		movs	r3, #0
 2077 003c FB61     		str	r3, [r7, #28]
 808:Generated_Source\PSoC6\pdl\drivers\peripheral\prot/cy_prot.c ****         
 809:Generated_Source\PSoC6\pdl\drivers\peripheral\prot/cy_prot.c ****         /* Populate the ATT values */
 810:Generated_Source\PSoC6\pdl\drivers\peripheral\prot/cy_prot.c ****         for(regIdx = 0U; regIdx < CY_PROT_ATT_REGS_MAX; regIdx++)
 2078              		.loc 1 810 0
 2079 003e 0023     		movs	r3, #0
 2080 0040 3B61     		str	r3, [r7, #16]
 2081 0042 61E0     		b	.L130
 2082              	.L139:
 811:Generated_Source\PSoC6\pdl\drivers\peripheral\prot/cy_prot.c ****         {
 812:Generated_Source\PSoC6\pdl\drivers\peripheral\prot/cy_prot.c ****             if (0UL == tmpMask)
 2083              		.loc 1 812 0
 2084 0044 BB69     		ldr	r3, [r7, #24]
 2085 0046 002B     		cmp	r3, #0
 2086 0048 62D0     		beq	.L141
 813:Generated_Source\PSoC6\pdl\drivers\peripheral\prot/cy_prot.c ****             {
 814:Generated_Source\PSoC6\pdl\drivers\peripheral\prot/cy_prot.c ****                 break;
 815:Generated_Source\PSoC6\pdl\drivers\peripheral\prot/cy_prot.c ****             }
 816:Generated_Source\PSoC6\pdl\drivers\peripheral\prot/cy_prot.c ****             
 817:Generated_Source\PSoC6\pdl\drivers\peripheral\prot/cy_prot.c ****             /* Get the attributes register value */
 818:Generated_Source\PSoC6\pdl\drivers\peripheral\prot/cy_prot.c ****             attReg = reg[regIdx];
 2087              		.loc 1 818 0
 2088 004a 3B69     		ldr	r3, [r7, #16]
 2089 004c 9B00     		lsls	r3, r3, #2
 2090 004e 7A68     		ldr	r2, [r7, #4]
 2091 0050 D318     		adds	r3, r2, r3
 2092 0052 1B68     		ldr	r3, [r3]
 2093 0054 7B61     		str	r3, [r7, #20]
 819:Generated_Source\PSoC6\pdl\drivers\peripheral\prot/cy_prot.c **** 
 820:Generated_Source\PSoC6\pdl\drivers\peripheral\prot/cy_prot.c ****             for(fldIdx = 0UL; fldIdx < CY_PROT_ATT_PC_MAX; fldIdx++)
 2094              		.loc 1 820 0
 2095 0056 0023     		movs	r3, #0
 2096 0058 FB60     		str	r3, [r7, #12]
 2097 005a 2FE0     		b	.L132
 2098              	.L136:
 821:Generated_Source\PSoC6\pdl\drivers\peripheral\prot/cy_prot.c ****             {
 822:Generated_Source\PSoC6\pdl\drivers\peripheral\prot/cy_prot.c ****                 if((tmpMask & CY_PROT_PCMASK_CHECK) == CY_PROT_STRUCT_ENABLE)
 2099              		.loc 1 822 0
 2100 005c BB69     		ldr	r3, [r7, #24]
 2101 005e 0122     		movs	r2, #1
 2102 0060 1340     		ands	r3, r2
 2103 0062 25D0     		beq	.L133
 823:Generated_Source\PSoC6\pdl\drivers\peripheral\prot/cy_prot.c ****                 {
 824:Generated_Source\PSoC6\pdl\drivers\peripheral\prot/cy_prot.c ****                     /* Reset the bitfield for the PCx attributes */
ARM GAS  C:\Users\JC\AppData\Local\Temp\ccU1E72d.s 			page 53


 825:Generated_Source\PSoC6\pdl\drivers\peripheral\prot/cy_prot.c ****                     attReg &= ~((_VAL2FLD(CY_PROT_ATT_PERI_USER_PERM, CY_PROT_PERM_RW) |
 826:Generated_Source\PSoC6\pdl\drivers\peripheral\prot/cy_prot.c ****                                  _VAL2FLD(CY_PROT_ATT_PERI_PRIV_PERM, CY_PROT_PERM_RW) |
 827:Generated_Source\PSoC6\pdl\drivers\peripheral\prot/cy_prot.c ****                                  _BOOL2FLD(PERI_MS_PPU_PR_V2_MS_ATT0_PC0_NS, true)) <<
 828:Generated_Source\PSoC6\pdl\drivers\peripheral\prot/cy_prot.c ****                                 (PERI_MS_PPU_PR_V2_MS_ATT0_PC1_UR_Pos * fldIdx)); 
 2104              		.loc 1 828 0
 2105 0064 FB68     		ldr	r3, [r7, #12]
 2106 0066 DB00     		lsls	r3, r3, #3
 827:Generated_Source\PSoC6\pdl\drivers\peripheral\prot/cy_prot.c ****                                 (PERI_MS_PPU_PR_V2_MS_ATT0_PC1_UR_Pos * fldIdx)); 
 2107              		.loc 1 827 0
 2108 0068 1F22     		movs	r2, #31
 2109 006a 9A40     		lsls	r2, r2, r3
 2110 006c 1300     		movs	r3, r2
 825:Generated_Source\PSoC6\pdl\drivers\peripheral\prot/cy_prot.c ****                                  _VAL2FLD(CY_PROT_ATT_PERI_PRIV_PERM, CY_PROT_PERM_RW) |
 2111              		.loc 1 825 0
 2112 006e DA43     		mvns	r2, r3
 2113 0070 7B69     		ldr	r3, [r7, #20]
 2114 0072 1340     		ands	r3, r2
 2115 0074 7B61     		str	r3, [r7, #20]
 829:Generated_Source\PSoC6\pdl\drivers\peripheral\prot/cy_prot.c ****                     
 830:Generated_Source\PSoC6\pdl\drivers\peripheral\prot/cy_prot.c ****                     /* Set the bitfield for the PCx attributes */
 831:Generated_Source\PSoC6\pdl\drivers\peripheral\prot/cy_prot.c ****                     attReg |= (_VAL2FLD(CY_PROT_ATT_PERI_USER_PERM, userPermission) |
 2116              		.loc 1 831 0
 2117 0076 7B1C     		adds	r3, r7, #1
 2118 0078 1B78     		ldrb	r3, [r3]
 2119 007a 0322     		movs	r2, #3
 2120 007c 1A40     		ands	r2, r3
 832:Generated_Source\PSoC6\pdl\drivers\peripheral\prot/cy_prot.c ****                                _VAL2FLD(CY_PROT_ATT_PERI_PRIV_PERM, privPermission) |
 2121              		.loc 1 832 0
 2122 007e 3B00     		movs	r3, r7
 2123 0080 1B78     		ldrb	r3, [r3]
 2124 0082 9B00     		lsls	r3, r3, #2
 2125 0084 0C21     		movs	r1, #12
 2126 0086 0B40     		ands	r3, r1
 831:Generated_Source\PSoC6\pdl\drivers\peripheral\prot/cy_prot.c ****                                _VAL2FLD(CY_PROT_ATT_PERI_PRIV_PERM, privPermission) |
 2127              		.loc 1 831 0
 2128 0088 1A43     		orrs	r2, r3
 833:Generated_Source\PSoC6\pdl\drivers\peripheral\prot/cy_prot.c ****                               _BOOL2FLD(PERI_MS_PPU_PR_V2_MS_ATT0_PC0_NS, !secure)) <<
 2129              		.loc 1 833 0
 2130 008a 3023     		movs	r3, #48
 2131 008c FB18     		adds	r3, r7, r3
 2132 008e 1B78     		ldrb	r3, [r3]
 2133 0090 0121     		movs	r1, #1
 2134 0092 4B40     		eors	r3, r1
 2135 0094 DBB2     		uxtb	r3, r3
 2136 0096 002B     		cmp	r3, #0
 2137 0098 01D0     		beq	.L134
 2138              		.loc 1 833 0 is_stmt 0 discriminator 1
 2139 009a 1023     		movs	r3, #16
 2140 009c 00E0     		b	.L135
 2141              	.L134:
 2142              		.loc 1 833 0 discriminator 2
 2143 009e 0023     		movs	r3, #0
 2144              	.L135:
 832:Generated_Source\PSoC6\pdl\drivers\peripheral\prot/cy_prot.c ****                                _VAL2FLD(CY_PROT_ATT_PERI_PRIV_PERM, privPermission) |
 2145              		.loc 1 832 0 is_stmt 1
 2146 00a0 1A43     		orrs	r2, r3
 834:Generated_Source\PSoC6\pdl\drivers\peripheral\prot/cy_prot.c ****                                (PERI_MS_PPU_PR_V2_MS_ATT0_PC1_UR_Pos * fldIdx);
ARM GAS  C:\Users\JC\AppData\Local\Temp\ccU1E72d.s 			page 54


 2147              		.loc 1 834 0
 2148 00a2 FB68     		ldr	r3, [r7, #12]
 2149 00a4 DB00     		lsls	r3, r3, #3
 833:Generated_Source\PSoC6\pdl\drivers\peripheral\prot/cy_prot.c ****                               _BOOL2FLD(PERI_MS_PPU_PR_V2_MS_ATT0_PC0_NS, !secure)) <<
 2150              		.loc 1 833 0
 2151 00a6 9A40     		lsls	r2, r2, r3
 2152 00a8 1300     		movs	r3, r2
 831:Generated_Source\PSoC6\pdl\drivers\peripheral\prot/cy_prot.c ****                                _VAL2FLD(CY_PROT_ATT_PERI_PRIV_PERM, privPermission) |
 2153              		.loc 1 831 0
 2154 00aa 7A69     		ldr	r2, [r7, #20]
 2155 00ac 1343     		orrs	r3, r2
 2156 00ae 7B61     		str	r3, [r7, #20]
 2157              	.L133:
 835:Generated_Source\PSoC6\pdl\drivers\peripheral\prot/cy_prot.c ****                 }
 836:Generated_Source\PSoC6\pdl\drivers\peripheral\prot/cy_prot.c ****                 tmpMask = tmpMask >> CY_PROT_PCMASK_CHECK;
 2158              		.loc 1 836 0 discriminator 2
 2159 00b0 BB69     		ldr	r3, [r7, #24]
 2160 00b2 5B08     		lsrs	r3, r3, #1
 2161 00b4 BB61     		str	r3, [r7, #24]
 820:Generated_Source\PSoC6\pdl\drivers\peripheral\prot/cy_prot.c ****             {
 2162              		.loc 1 820 0 discriminator 2
 2163 00b6 FB68     		ldr	r3, [r7, #12]
 2164 00b8 0133     		adds	r3, r3, #1
 2165 00ba FB60     		str	r3, [r7, #12]
 2166              	.L132:
 820:Generated_Source\PSoC6\pdl\drivers\peripheral\prot/cy_prot.c ****             {
 2167              		.loc 1 820 0 is_stmt 0 discriminator 1
 2168 00bc FB68     		ldr	r3, [r7, #12]
 2169 00be 032B     		cmp	r3, #3
 2170 00c0 CCD9     		bls	.L136
 837:Generated_Source\PSoC6\pdl\drivers\peripheral\prot/cy_prot.c ****             }
 838:Generated_Source\PSoC6\pdl\drivers\peripheral\prot/cy_prot.c ****             
 839:Generated_Source\PSoC6\pdl\drivers\peripheral\prot/cy_prot.c ****             /* Update the attributes register */
 840:Generated_Source\PSoC6\pdl\drivers\peripheral\prot/cy_prot.c ****             reg[regIdx] = attReg;
 2171              		.loc 1 840 0 is_stmt 1
 2172 00c2 3B69     		ldr	r3, [r7, #16]
 2173 00c4 9B00     		lsls	r3, r3, #2
 2174 00c6 7A68     		ldr	r2, [r7, #4]
 2175 00c8 D318     		adds	r3, r2, r3
 2176 00ca 7A69     		ldr	r2, [r7, #20]
 2177 00cc 1A60     		str	r2, [r3]
 841:Generated_Source\PSoC6\pdl\drivers\peripheral\prot/cy_prot.c **** 
 842:Generated_Source\PSoC6\pdl\drivers\peripheral\prot/cy_prot.c ****             /* Check the result */
 843:Generated_Source\PSoC6\pdl\drivers\peripheral\prot/cy_prot.c ****             if ((0UL == regIdx) && 
 2178              		.loc 1 843 0
 2179 00ce 3B69     		ldr	r3, [r7, #16]
 2180 00d0 002B     		cmp	r3, #0
 2181 00d2 0CD1     		bne	.L137
 844:Generated_Source\PSoC6\pdl\drivers\peripheral\prot/cy_prot.c ****                 ((reg[regIdx] & PROT_PERI_PPU_PROG_PC1_PC3_MASK) != (attReg & PROT_PERI_PPU_PROG_PC
 2182              		.loc 1 844 0 discriminator 1
 2183 00d4 3B69     		ldr	r3, [r7, #16]
 2184 00d6 9B00     		lsls	r3, r3, #2
 2185 00d8 7A68     		ldr	r2, [r7, #4]
 2186 00da D318     		adds	r3, r2, r3
 2187 00dc 1A68     		ldr	r2, [r3]
 2188 00de 7B69     		ldr	r3, [r7, #20]
 2189 00e0 5340     		eors	r3, r2
ARM GAS  C:\Users\JC\AppData\Local\Temp\ccU1E72d.s 			page 55


 2190 00e2 1F22     		movs	r2, #31
 2191 00e4 9343     		bics	r3, r2
 843:Generated_Source\PSoC6\pdl\drivers\peripheral\prot/cy_prot.c ****                 ((reg[regIdx] & PROT_PERI_PPU_PROG_PC1_PC3_MASK) != (attReg & PROT_PERI_PPU_PROG_PC
 2192              		.loc 1 843 0 discriminator 1
 2193 00e6 02D0     		beq	.L137
 845:Generated_Source\PSoC6\pdl\drivers\peripheral\prot/cy_prot.c ****             {
 846:Generated_Source\PSoC6\pdl\drivers\peripheral\prot/cy_prot.c ****                 status = CY_PROT_FAILURE;
 2194              		.loc 1 846 0
 2195 00e8 0E4B     		ldr	r3, .L142+8
 2196 00ea FB61     		str	r3, [r7, #28]
 2197 00ec 09E0     		b	.L138
 2198              	.L137:
 847:Generated_Source\PSoC6\pdl\drivers\peripheral\prot/cy_prot.c ****             }
 848:Generated_Source\PSoC6\pdl\drivers\peripheral\prot/cy_prot.c ****             else if (reg[regIdx] != attReg)
 2199              		.loc 1 848 0
 2200 00ee 3B69     		ldr	r3, [r7, #16]
 2201 00f0 9B00     		lsls	r3, r3, #2
 2202 00f2 7A68     		ldr	r2, [r7, #4]
 2203 00f4 D318     		adds	r3, r2, r3
 2204 00f6 1A68     		ldr	r2, [r3]
 2205 00f8 7B69     		ldr	r3, [r7, #20]
 2206 00fa 9A42     		cmp	r2, r3
 2207 00fc 01D0     		beq	.L138
 849:Generated_Source\PSoC6\pdl\drivers\peripheral\prot/cy_prot.c ****             {
 850:Generated_Source\PSoC6\pdl\drivers\peripheral\prot/cy_prot.c ****                 status = CY_PROT_FAILURE;
 2208              		.loc 1 850 0
 2209 00fe 094B     		ldr	r3, .L142+8
 2210 0100 FB61     		str	r3, [r7, #28]
 2211              	.L138:
 810:Generated_Source\PSoC6\pdl\drivers\peripheral\prot/cy_prot.c ****         {
 2212              		.loc 1 810 0 discriminator 2
 2213 0102 3B69     		ldr	r3, [r7, #16]
 2214 0104 0133     		adds	r3, r3, #1
 2215 0106 3B61     		str	r3, [r7, #16]
 2216              	.L130:
 810:Generated_Source\PSoC6\pdl\drivers\peripheral\prot/cy_prot.c ****         {
 2217              		.loc 1 810 0 is_stmt 0 discriminator 1
 2218 0108 3B69     		ldr	r3, [r7, #16]
 2219 010a 032B     		cmp	r3, #3
 2220 010c 9AD9     		bls	.L139
 2221 010e 00E0     		b	.L129
 2222              	.L141:
 814:Generated_Source\PSoC6\pdl\drivers\peripheral\prot/cy_prot.c ****             }
 2223              		.loc 1 814 0 is_stmt 1
 2224 0110 C046     		nop
 2225              	.L129:
 2226              	.LBE2:
 851:Generated_Source\PSoC6\pdl\drivers\peripheral\prot/cy_prot.c ****             }
 852:Generated_Source\PSoC6\pdl\drivers\peripheral\prot/cy_prot.c ****             else
 853:Generated_Source\PSoC6\pdl\drivers\peripheral\prot/cy_prot.c ****             {
 854:Generated_Source\PSoC6\pdl\drivers\peripheral\prot/cy_prot.c ****                 /* CY_PROT_SUCCESS */
 855:Generated_Source\PSoC6\pdl\drivers\peripheral\prot/cy_prot.c ****             }
 856:Generated_Source\PSoC6\pdl\drivers\peripheral\prot/cy_prot.c ****         }
 857:Generated_Source\PSoC6\pdl\drivers\peripheral\prot/cy_prot.c ****     }
 858:Generated_Source\PSoC6\pdl\drivers\peripheral\prot/cy_prot.c **** 
 859:Generated_Source\PSoC6\pdl\drivers\peripheral\prot/cy_prot.c ****     return status;
 2227              		.loc 1 859 0
ARM GAS  C:\Users\JC\AppData\Local\Temp\ccU1E72d.s 			page 56


 2228 0112 FB69     		ldr	r3, [r7, #28]
 860:Generated_Source\PSoC6\pdl\drivers\peripheral\prot/cy_prot.c **** }
 2229              		.loc 1 860 0
 2230 0114 1800     		movs	r0, r3
 2231 0116 BD46     		mov	sp, r7
 2232 0118 09B0     		add	sp, sp, #36
 2233              		@ sp needed
 2234 011a 90BD     		pop	{r4, r7, pc}
 2235              	.L143:
 2236              		.align	2
 2237              	.L142:
 2238 011c 0200C200 		.word	12713986
 2239 0120 00000000 		.word	cy_device
 2240 0124 0300C200 		.word	12713987
 2241              		.cfi_endproc
 2242              	.LFE60:
 2243              		.size	Prot_ConfigPpuAtt, .-Prot_ConfigPpuAtt
 2244              		.section	.text.Cy_Prot_ConfigPpuProgMasterAtt,"ax",%progbits
 2245              		.align	2
 2246              		.global	Cy_Prot_ConfigPpuProgMasterAtt
 2247              		.code	16
 2248              		.thumb_func
 2249              		.type	Cy_Prot_ConfigPpuProgMasterAtt, %function
 2250              	Cy_Prot_ConfigPpuProgMasterAtt:
 2251              	.LFB61:
 861:Generated_Source\PSoC6\pdl\drivers\peripheral\prot/cy_prot.c **** 
 862:Generated_Source\PSoC6\pdl\drivers\peripheral\prot/cy_prot.c **** 
 863:Generated_Source\PSoC6\pdl\drivers\peripheral\prot/cy_prot.c **** /*******************************************************************************
 864:Generated_Source\PSoC6\pdl\drivers\peripheral\prot/cy_prot.c **** * Function Name: Cy_Prot_ConfigPpuProgMasterAtt
 865:Generated_Source\PSoC6\pdl\drivers\peripheral\prot/cy_prot.c **** ****************************************************************************//**
 866:Generated_Source\PSoC6\pdl\drivers\peripheral\prot/cy_prot.c **** *
 867:Generated_Source\PSoC6\pdl\drivers\peripheral\prot/cy_prot.c **** * Configures the protection-structure attributes of the 
 868:Generated_Source\PSoC6\pdl\drivers\peripheral\prot/cy_prot.c **** * Programmable Peripheral Protection Unit (PPU PROG) master. 
 869:Generated_Source\PSoC6\pdl\drivers\peripheral\prot/cy_prot.c **** *
 870:Generated_Source\PSoC6\pdl\drivers\peripheral\prot/cy_prot.c **** * This function configures the master structure governing the corresponding slave
 871:Generated_Source\PSoC6\pdl\drivers\peripheral\prot/cy_prot.c **** * structure pair. It is a mechanism to protect the slave PPU PROG structure.
 872:Generated_Source\PSoC6\pdl\drivers\peripheral\prot/cy_prot.c **** * The memory location of the slave structure is known, so the address, regionSize, and
 873:Generated_Source\PSoC6\pdl\drivers\peripheral\prot/cy_prot.c **** * sub-regions of the configuration structure are not applicable.
 874:Generated_Source\PSoC6\pdl\drivers\peripheral\prot/cy_prot.c **** *
 875:Generated_Source\PSoC6\pdl\drivers\peripheral\prot/cy_prot.c **** * \note This function is applicable for CPUSS ver_2 only.
 876:Generated_Source\PSoC6\pdl\drivers\peripheral\prot/cy_prot.c **** *
 877:Generated_Source\PSoC6\pdl\drivers\peripheral\prot/cy_prot.c **** * \param base
 878:Generated_Source\PSoC6\pdl\drivers\peripheral\prot/cy_prot.c **** * The register base address of the protection structure is being configured.
 879:Generated_Source\PSoC6\pdl\drivers\peripheral\prot/cy_prot.c **** *
 880:Generated_Source\PSoC6\pdl\drivers\peripheral\prot/cy_prot.c **** * \param pcMask
 881:Generated_Source\PSoC6\pdl\drivers\peripheral\prot/cy_prot.c **** * The protection context mask. This is a 16-bit value of the allowed contexts, 
 882:Generated_Source\PSoC6\pdl\drivers\peripheral\prot/cy_prot.c **** * it is an OR'ed (|) field of the * provided defines in cy_prot.h. 
 883:Generated_Source\PSoC6\pdl\drivers\peripheral\prot/cy_prot.c **** * For example: (CY_PROT_PCMASK1 | CY_PROT_PCMASK3 | CY_PROT_PCMASK4).
 884:Generated_Source\PSoC6\pdl\drivers\peripheral\prot/cy_prot.c **** * \note The function accepts pcMask values from CY_PROT_PCMASK1 to CY_PROT_PCMASK15. 
 885:Generated_Source\PSoC6\pdl\drivers\peripheral\prot/cy_prot.c **** * But each device has its own number of available protection contexts. 
 886:Generated_Source\PSoC6\pdl\drivers\peripheral\prot/cy_prot.c **** * That number is defined by PERI_PC_NR in the config file.
 887:Generated_Source\PSoC6\pdl\drivers\peripheral\prot/cy_prot.c **** *
 888:Generated_Source\PSoC6\pdl\drivers\peripheral\prot/cy_prot.c **** * \param userPermission
 889:Generated_Source\PSoC6\pdl\drivers\peripheral\prot/cy_prot.c **** * The user permission setting. The CY_PROT_PERM_R or CY_PROT_PERM_RW values 
 890:Generated_Source\PSoC6\pdl\drivers\peripheral\prot/cy_prot.c **** * are valid for the master.
 891:Generated_Source\PSoC6\pdl\drivers\peripheral\prot/cy_prot.c **** *
 892:Generated_Source\PSoC6\pdl\drivers\peripheral\prot/cy_prot.c **** * \param privPermission
ARM GAS  C:\Users\JC\AppData\Local\Temp\ccU1E72d.s 			page 57


 893:Generated_Source\PSoC6\pdl\drivers\peripheral\prot/cy_prot.c **** * The privileged permission setting. CY_PROT_PERM_R or CY_PROT_PERM_RW values 
 894:Generated_Source\PSoC6\pdl\drivers\peripheral\prot/cy_prot.c **** * are valid for the master.
 895:Generated_Source\PSoC6\pdl\drivers\peripheral\prot/cy_prot.c **** *
 896:Generated_Source\PSoC6\pdl\drivers\peripheral\prot/cy_prot.c **** * \param secure
 897:Generated_Source\PSoC6\pdl\drivers\peripheral\prot/cy_prot.c **** * The secure flag.
 898:Generated_Source\PSoC6\pdl\drivers\peripheral\prot/cy_prot.c **** * 
 899:Generated_Source\PSoC6\pdl\drivers\peripheral\prot/cy_prot.c **** * \return
 900:Generated_Source\PSoC6\pdl\drivers\peripheral\prot/cy_prot.c **** * The status of the function call.
 901:Generated_Source\PSoC6\pdl\drivers\peripheral\prot/cy_prot.c **** *
 902:Generated_Source\PSoC6\pdl\drivers\peripheral\prot/cy_prot.c **** *   Status              | Description
 903:Generated_Source\PSoC6\pdl\drivers\peripheral\prot/cy_prot.c **** * ----------------------| ---------------------------------------
 904:Generated_Source\PSoC6\pdl\drivers\peripheral\prot/cy_prot.c **** * CY_PROT_SUCCESS       | The attributes were set up.
 905:Generated_Source\PSoC6\pdl\drivers\peripheral\prot/cy_prot.c **** * CY_PROT_FAILURE       | The attributes were not set up because the structure is possibly locked.
 906:Generated_Source\PSoC6\pdl\drivers\peripheral\prot/cy_prot.c **** * CY_PROT_INVALID_STATE | The function was called on the device with an unsupported PERI HW version
 907:Generated_Source\PSoC6\pdl\drivers\peripheral\prot/cy_prot.c **** *
 908:Generated_Source\PSoC6\pdl\drivers\peripheral\prot/cy_prot.c **** * \note Only the user's/privileged Write permissions are configurable. The 
 909:Generated_Source\PSoC6\pdl\drivers\peripheral\prot/cy_prot.c **** * Read permissions are read-only and cannot be configured.
 910:Generated_Source\PSoC6\pdl\drivers\peripheral\prot/cy_prot.c **** *
 911:Generated_Source\PSoC6\pdl\drivers\peripheral\prot/cy_prot.c **** * \note PC0 accesses are read-only and are always enabled. 
 912:Generated_Source\PSoC6\pdl\drivers\peripheral\prot/cy_prot.c **** *
 913:Generated_Source\PSoC6\pdl\drivers\peripheral\prot/cy_prot.c **** * \funcusage
 914:Generated_Source\PSoC6\pdl\drivers\peripheral\prot/cy_prot.c **** * \snippet prot/1.20/snippet/main.c snippet_Cy_Prot_ConfigPpuProgMasterAtt
 915:Generated_Source\PSoC6\pdl\drivers\peripheral\prot/cy_prot.c **** *
 916:Generated_Source\PSoC6\pdl\drivers\peripheral\prot/cy_prot.c **** *******************************************************************************/
 917:Generated_Source\PSoC6\pdl\drivers\peripheral\prot/cy_prot.c **** cy_en_prot_status_t Cy_Prot_ConfigPpuProgMasterAtt(PERI_MS_PPU_PR_Type* base, uint16_t pcMask, 
 918:Generated_Source\PSoC6\pdl\drivers\peripheral\prot/cy_prot.c ****                                        cy_en_prot_perm_t userPermission, cy_en_prot_perm_t privPerm
 919:Generated_Source\PSoC6\pdl\drivers\peripheral\prot/cy_prot.c **** {   
 2252              		.loc 1 919 0
 2253              		.cfi_startproc
 2254              		@ args = 4, pretend = 0, frame = 8
 2255              		@ frame_needed = 1, uses_anonymous_args = 0
 2256 0000 90B5     		push	{r4, r7, lr}
 2257              		.cfi_def_cfa_offset 12
 2258              		.cfi_offset 4, -12
 2259              		.cfi_offset 7, -8
 2260              		.cfi_offset 14, -4
 2261 0002 85B0     		sub	sp, sp, #20
 2262              		.cfi_def_cfa_offset 32
 2263 0004 02AF     		add	r7, sp, #8
 2264              		.cfi_def_cfa 7, 24
 2265 0006 7860     		str	r0, [r7, #4]
 2266 0008 0C00     		movs	r4, r1
 2267 000a 1000     		movs	r0, r2
 2268 000c 1900     		movs	r1, r3
 2269 000e BB1C     		adds	r3, r7, #2
 2270 0010 221C     		adds	r2, r4, #0
 2271 0012 1A80     		strh	r2, [r3]
 2272 0014 7B1C     		adds	r3, r7, #1
 2273 0016 021C     		adds	r2, r0, #0
 2274 0018 1A70     		strb	r2, [r3]
 2275 001a 3B00     		movs	r3, r7
 2276 001c 0A1C     		adds	r2, r1, #0
 2277 001e 1A70     		strb	r2, [r3]
 920:Generated_Source\PSoC6\pdl\drivers\peripheral\prot/cy_prot.c ****     /* The parameter checks */
 921:Generated_Source\PSoC6\pdl\drivers\peripheral\prot/cy_prot.c ****     CY_ASSERT_L1(NULL != base);
 2278              		.loc 1 921 0
 2279 0020 7B68     		ldr	r3, [r7, #4]
ARM GAS  C:\Users\JC\AppData\Local\Temp\ccU1E72d.s 			page 58


 2280 0022 002B     		cmp	r3, #0
 2281 0024 05D1     		bne	.L145
 2282              		.loc 1 921 0 is_stmt 0 discriminator 1
 2283 0026 1B4A     		ldr	r2, .L149
 2284 0028 1B4B     		ldr	r3, .L149+4
 2285 002a 1100     		movs	r1, r2
 2286 002c 1800     		movs	r0, r3
 2287 002e FFF7FEFF 		bl	Cy_SysLib_AssertFailed
 2288              	.L145:
 922:Generated_Source\PSoC6\pdl\drivers\peripheral\prot/cy_prot.c ****     CY_ASSERT_L3(CY_PROT_IS_PROG_MS_PERM_VALID(userPermission));
 2289              		.loc 1 922 0 is_stmt 1
 2290 0032 7B1C     		adds	r3, r7, #1
 2291 0034 1B78     		ldrb	r3, [r3]
 2292 0036 012B     		cmp	r3, #1
 2293 0038 09D0     		beq	.L146
 2294              		.loc 1 922 0 is_stmt 0 discriminator 1
 2295 003a 7B1C     		adds	r3, r7, #1
 2296 003c 1B78     		ldrb	r3, [r3]
 2297 003e 032B     		cmp	r3, #3
 2298 0040 05D0     		beq	.L146
 2299              		.loc 1 922 0 discriminator 2
 2300 0042 164A     		ldr	r2, .L149+8
 2301 0044 144B     		ldr	r3, .L149+4
 2302 0046 1100     		movs	r1, r2
 2303 0048 1800     		movs	r0, r3
 2304 004a FFF7FEFF 		bl	Cy_SysLib_AssertFailed
 2305              	.L146:
 923:Generated_Source\PSoC6\pdl\drivers\peripheral\prot/cy_prot.c ****     CY_ASSERT_L3(CY_PROT_IS_PROG_MS_PERM_VALID(privPermission));
 2306              		.loc 1 923 0 is_stmt 1
 2307 004e 3B00     		movs	r3, r7
 2308 0050 1B78     		ldrb	r3, [r3]
 2309 0052 012B     		cmp	r3, #1
 2310 0054 09D0     		beq	.L147
 2311              		.loc 1 923 0 is_stmt 0 discriminator 1
 2312 0056 3B00     		movs	r3, r7
 2313 0058 1B78     		ldrb	r3, [r3]
 2314 005a 032B     		cmp	r3, #3
 2315 005c 05D0     		beq	.L147
 2316              		.loc 1 923 0 discriminator 2
 2317 005e 104A     		ldr	r2, .L149+12
 2318 0060 0D4B     		ldr	r3, .L149+4
 2319 0062 1100     		movs	r1, r2
 2320 0064 1800     		movs	r0, r3
 2321 0066 FFF7FEFF 		bl	Cy_SysLib_AssertFailed
 2322              	.L147:
 924:Generated_Source\PSoC6\pdl\drivers\peripheral\prot/cy_prot.c ****     
 925:Generated_Source\PSoC6\pdl\drivers\peripheral\prot/cy_prot.c ****     return (Prot_ConfigPpuAtt(PERI_MS_PPU_PR_MS_ATT(base), pcMask, userPermission, privPermission, 
 2323              		.loc 1 925 0 is_stmt 1
 2324 006a 7B68     		ldr	r3, [r7, #4]
 2325 006c 3033     		adds	r3, r3, #48
 2326 006e 1800     		movs	r0, r3
 2327 0070 3B00     		movs	r3, r7
 2328 0072 1C78     		ldrb	r4, [r3]
 2329 0074 7B1C     		adds	r3, r7, #1
 2330 0076 1A78     		ldrb	r2, [r3]
 2331 0078 BB1C     		adds	r3, r7, #2
 2332 007a 1988     		ldrh	r1, [r3]
ARM GAS  C:\Users\JC\AppData\Local\Temp\ccU1E72d.s 			page 59


 2333 007c 1823     		movs	r3, #24
 2334 007e FB18     		adds	r3, r7, r3
 2335 0080 1B78     		ldrb	r3, [r3]
 2336 0082 0093     		str	r3, [sp]
 2337 0084 2300     		movs	r3, r4
 2338 0086 FFF7FEFF 		bl	Prot_ConfigPpuAtt
 2339 008a 0300     		movs	r3, r0
 926:Generated_Source\PSoC6\pdl\drivers\peripheral\prot/cy_prot.c **** }
 2340              		.loc 1 926 0
 2341 008c 1800     		movs	r0, r3
 2342 008e BD46     		mov	sp, r7
 2343 0090 03B0     		add	sp, sp, #12
 2344              		@ sp needed
 2345 0092 90BD     		pop	{r4, r7, pc}
 2346              	.L150:
 2347              		.align	2
 2348              	.L149:
 2349 0094 99030000 		.word	921
 2350 0098 00000000 		.word	.LC1
 2351 009c 9A030000 		.word	922
 2352 00a0 9B030000 		.word	923
 2353              		.cfi_endproc
 2354              	.LFE61:
 2355              		.size	Cy_Prot_ConfigPpuProgMasterAtt, .-Cy_Prot_ConfigPpuProgMasterAtt
 2356              		.section	.text.Cy_Prot_ConfigPpuProgSlaveAddr,"ax",%progbits
 2357              		.align	2
 2358              		.global	Cy_Prot_ConfigPpuProgSlaveAddr
 2359              		.code	16
 2360              		.thumb_func
 2361              		.type	Cy_Prot_ConfigPpuProgSlaveAddr, %function
 2362              	Cy_Prot_ConfigPpuProgSlaveAddr:
 2363              	.LFB62:
 927:Generated_Source\PSoC6\pdl\drivers\peripheral\prot/cy_prot.c **** 
 928:Generated_Source\PSoC6\pdl\drivers\peripheral\prot/cy_prot.c **** 
 929:Generated_Source\PSoC6\pdl\drivers\peripheral\prot/cy_prot.c **** /*******************************************************************************
 930:Generated_Source\PSoC6\pdl\drivers\peripheral\prot/cy_prot.c **** * Function Name: Cy_Prot_ConfigPpuProgSlaveAddr
 931:Generated_Source\PSoC6\pdl\drivers\peripheral\prot/cy_prot.c **** ****************************************************************************//**
 932:Generated_Source\PSoC6\pdl\drivers\peripheral\prot/cy_prot.c **** *
 933:Generated_Source\PSoC6\pdl\drivers\peripheral\prot/cy_prot.c **** * Configures the protection-structure address settings  of the 
 934:Generated_Source\PSoC6\pdl\drivers\peripheral\prot/cy_prot.c **** * Programmable Peripheral Protection Unit (PPU PROG) slave. 
 935:Generated_Source\PSoC6\pdl\drivers\peripheral\prot/cy_prot.c **** * 
 936:Generated_Source\PSoC6\pdl\drivers\peripheral\prot/cy_prot.c **** * This function configures the slave structure of the PPU PROG pair, which can 
 937:Generated_Source\PSoC6\pdl\drivers\peripheral\prot/cy_prot.c **** * protect any peripheral memory region in a device from an invalid bus-master 
 938:Generated_Source\PSoC6\pdl\drivers\peripheral\prot/cy_prot.c **** * access.
 939:Generated_Source\PSoC6\pdl\drivers\peripheral\prot/cy_prot.c **** *
 940:Generated_Source\PSoC6\pdl\drivers\peripheral\prot/cy_prot.c **** * \note This function is applicable for CPUSS ver_2 only.
 941:Generated_Source\PSoC6\pdl\drivers\peripheral\prot/cy_prot.c **** *
 942:Generated_Source\PSoC6\pdl\drivers\peripheral\prot/cy_prot.c **** * \param base
 943:Generated_Source\PSoC6\pdl\drivers\peripheral\prot/cy_prot.c **** * The register base address of the protection structure is being configured.
 944:Generated_Source\PSoC6\pdl\drivers\peripheral\prot/cy_prot.c **** * 
 945:Generated_Source\PSoC6\pdl\drivers\peripheral\prot/cy_prot.c **** * \param address
 946:Generated_Source\PSoC6\pdl\drivers\peripheral\prot/cy_prot.c **** * The address.
 947:Generated_Source\PSoC6\pdl\drivers\peripheral\prot/cy_prot.c **** * 
 948:Generated_Source\PSoC6\pdl\drivers\peripheral\prot/cy_prot.c **** * \param regionSize
 949:Generated_Source\PSoC6\pdl\drivers\peripheral\prot/cy_prot.c **** * The region size.
 950:Generated_Source\PSoC6\pdl\drivers\peripheral\prot/cy_prot.c **** * 
 951:Generated_Source\PSoC6\pdl\drivers\peripheral\prot/cy_prot.c **** * \return
ARM GAS  C:\Users\JC\AppData\Local\Temp\ccU1E72d.s 			page 60


 952:Generated_Source\PSoC6\pdl\drivers\peripheral\prot/cy_prot.c **** * The status of the function call.
 953:Generated_Source\PSoC6\pdl\drivers\peripheral\prot/cy_prot.c **** *
 954:Generated_Source\PSoC6\pdl\drivers\peripheral\prot/cy_prot.c **** *   Status              | Description
 955:Generated_Source\PSoC6\pdl\drivers\peripheral\prot/cy_prot.c **** * ----------------------| ---------------------------------------
 956:Generated_Source\PSoC6\pdl\drivers\peripheral\prot/cy_prot.c **** * CY_PROT_SUCCESS       | The address settings were set up.
 957:Generated_Source\PSoC6\pdl\drivers\peripheral\prot/cy_prot.c **** * CY_PROT_FAILURE       | The address settings were not set up because the structure is possibly lo
 958:Generated_Source\PSoC6\pdl\drivers\peripheral\prot/cy_prot.c **** * CY_PROT_INVALID_STATE | The function was called on the device with an unsupported PERI HW version
 959:Generated_Source\PSoC6\pdl\drivers\peripheral\prot/cy_prot.c **** *
 960:Generated_Source\PSoC6\pdl\drivers\peripheral\prot/cy_prot.c **** * \note PC0 accesses are Read-only and are always enabled. 
 961:Generated_Source\PSoC6\pdl\drivers\peripheral\prot/cy_prot.c **** *
 962:Generated_Source\PSoC6\pdl\drivers\peripheral\prot/cy_prot.c **** * \funcusage
 963:Generated_Source\PSoC6\pdl\drivers\peripheral\prot/cy_prot.c **** * \ref Cy_Prot_ConfigPpuProgSlaveAtt
 964:Generated_Source\PSoC6\pdl\drivers\peripheral\prot/cy_prot.c **** *
 965:Generated_Source\PSoC6\pdl\drivers\peripheral\prot/cy_prot.c **** *******************************************************************************/
 966:Generated_Source\PSoC6\pdl\drivers\peripheral\prot/cy_prot.c **** cy_en_prot_status_t Cy_Prot_ConfigPpuProgSlaveAddr(PERI_MS_PPU_PR_Type* base, uint32_t address, 
 967:Generated_Source\PSoC6\pdl\drivers\peripheral\prot/cy_prot.c ****                                                                    cy_en_prot_size_t regionSize)
 968:Generated_Source\PSoC6\pdl\drivers\peripheral\prot/cy_prot.c **** {
 2364              		.loc 1 968 0
 2365              		.cfi_startproc
 2366              		@ args = 0, pretend = 0, frame = 24
 2367              		@ frame_needed = 1, uses_anonymous_args = 0
 2368 0000 80B5     		push	{r7, lr}
 2369              		.cfi_def_cfa_offset 8
 2370              		.cfi_offset 7, -8
 2371              		.cfi_offset 14, -4
 2372 0002 86B0     		sub	sp, sp, #24
 2373              		.cfi_def_cfa_offset 32
 2374 0004 00AF     		add	r7, sp, #0
 2375              		.cfi_def_cfa_register 7
 2376 0006 F860     		str	r0, [r7, #12]
 2377 0008 B960     		str	r1, [r7, #8]
 2378 000a FB1D     		adds	r3, r7, #7
 2379 000c 1A70     		strb	r2, [r3]
 969:Generated_Source\PSoC6\pdl\drivers\peripheral\prot/cy_prot.c ****     cy_en_prot_status_t status = CY_PROT_INVALID_STATE;
 2380              		.loc 1 969 0
 2381 000e 654B     		ldr	r3, .L159
 2382 0010 7B61     		str	r3, [r7, #20]
 970:Generated_Source\PSoC6\pdl\drivers\peripheral\prot/cy_prot.c ****     
 971:Generated_Source\PSoC6\pdl\drivers\peripheral\prot/cy_prot.c ****     /* The parameter checks */
 972:Generated_Source\PSoC6\pdl\drivers\peripheral\prot/cy_prot.c ****     CY_ASSERT_L1(NULL != base);
 2383              		.loc 1 972 0
 2384 0012 FB68     		ldr	r3, [r7, #12]
 2385 0014 002B     		cmp	r3, #0
 2386 0016 06D1     		bne	.L152
 2387              		.loc 1 972 0 is_stmt 0 discriminator 1
 2388 0018 F323     		movs	r3, #243
 2389 001a 9A00     		lsls	r2, r3, #2
 2390 001c 624B     		ldr	r3, .L159+4
 2391 001e 1100     		movs	r1, r2
 2392 0020 1800     		movs	r0, r3
 2393 0022 FFF7FEFF 		bl	Cy_SysLib_AssertFailed
 2394              	.L152:
 973:Generated_Source\PSoC6\pdl\drivers\peripheral\prot/cy_prot.c ****     CY_ASSERT_L3(CY_PROT_IS_PPU_V2_SIZE_VALID(regionSize));
 2395              		.loc 1 973 0 is_stmt 1
 2396 0026 FB1D     		adds	r3, r7, #7
 2397 0028 1B78     		ldrb	r3, [r3]
 2398 002a 012B     		cmp	r3, #1
ARM GAS  C:\Users\JC\AppData\Local\Temp\ccU1E72d.s 			page 61


 2399 002c 00D1     		bne	.LCB2094
 2400 002e 86E0     		b	.L153	@long jump
 2401              	.LCB2094:
 2402              		.loc 1 973 0 is_stmt 0 discriminator 1
 2403 0030 FB1D     		adds	r3, r7, #7
 2404 0032 1B78     		ldrb	r3, [r3]
 2405 0034 022B     		cmp	r3, #2
 2406 0036 00D1     		bne	.LCB2098
 2407 0038 81E0     		b	.L153	@long jump
 2408              	.LCB2098:
 2409              		.loc 1 973 0 discriminator 2
 2410 003a FB1D     		adds	r3, r7, #7
 2411 003c 1B78     		ldrb	r3, [r3]
 2412 003e 032B     		cmp	r3, #3
 2413 0040 00D1     		bne	.LCB2102
 2414 0042 7CE0     		b	.L153	@long jump
 2415              	.LCB2102:
 2416              		.loc 1 973 0 discriminator 3
 2417 0044 FB1D     		adds	r3, r7, #7
 2418 0046 1B78     		ldrb	r3, [r3]
 2419 0048 042B     		cmp	r3, #4
 2420 004a 00D1     		bne	.LCB2106
 2421 004c 77E0     		b	.L153	@long jump
 2422              	.LCB2106:
 2423              		.loc 1 973 0 discriminator 4
 2424 004e FB1D     		adds	r3, r7, #7
 2425 0050 1B78     		ldrb	r3, [r3]
 2426 0052 052B     		cmp	r3, #5
 2427 0054 00D1     		bne	.LCB2110
 2428 0056 72E0     		b	.L153	@long jump
 2429              	.LCB2110:
 2430              		.loc 1 973 0 discriminator 5
 2431 0058 FB1D     		adds	r3, r7, #7
 2432 005a 1B78     		ldrb	r3, [r3]
 2433 005c 062B     		cmp	r3, #6
 2434 005e 00D1     		bne	.LCB2114
 2435 0060 6DE0     		b	.L153	@long jump
 2436              	.LCB2114:
 2437              		.loc 1 973 0 discriminator 6
 2438 0062 FB1D     		adds	r3, r7, #7
 2439 0064 1B78     		ldrb	r3, [r3]
 2440 0066 072B     		cmp	r3, #7
 2441 0068 00D1     		bne	.LCB2118
 2442 006a 68E0     		b	.L153	@long jump
 2443              	.LCB2118:
 2444              		.loc 1 973 0 discriminator 7
 2445 006c FB1D     		adds	r3, r7, #7
 2446 006e 1B78     		ldrb	r3, [r3]
 2447 0070 082B     		cmp	r3, #8
 2448 0072 00D1     		bne	.LCB2122
 2449 0074 63E0     		b	.L153	@long jump
 2450              	.LCB2122:
 2451              		.loc 1 973 0 discriminator 8
 2452 0076 FB1D     		adds	r3, r7, #7
 2453 0078 1B78     		ldrb	r3, [r3]
 2454 007a 092B     		cmp	r3, #9
 2455 007c 00D1     		bne	.LCB2126
ARM GAS  C:\Users\JC\AppData\Local\Temp\ccU1E72d.s 			page 62


 2456 007e 5EE0     		b	.L153	@long jump
 2457              	.LCB2126:
 2458              		.loc 1 973 0 discriminator 9
 2459 0080 FB1D     		adds	r3, r7, #7
 2460 0082 1B78     		ldrb	r3, [r3]
 2461 0084 0A2B     		cmp	r3, #10
 2462 0086 00D1     		bne	.LCB2130
 2463 0088 59E0     		b	.L153	@long jump
 2464              	.LCB2130:
 2465              		.loc 1 973 0 discriminator 10
 2466 008a FB1D     		adds	r3, r7, #7
 2467 008c 1B78     		ldrb	r3, [r3]
 2468 008e 0B2B     		cmp	r3, #11
 2469 0090 55D0     		beq	.L153
 2470              		.loc 1 973 0 discriminator 11
 2471 0092 FB1D     		adds	r3, r7, #7
 2472 0094 1B78     		ldrb	r3, [r3]
 2473 0096 0C2B     		cmp	r3, #12
 2474 0098 51D0     		beq	.L153
 2475              		.loc 1 973 0 discriminator 12
 2476 009a FB1D     		adds	r3, r7, #7
 2477 009c 1B78     		ldrb	r3, [r3]
 2478 009e 0D2B     		cmp	r3, #13
 2479 00a0 4DD0     		beq	.L153
 2480              		.loc 1 973 0 discriminator 13
 2481 00a2 FB1D     		adds	r3, r7, #7
 2482 00a4 1B78     		ldrb	r3, [r3]
 2483 00a6 0E2B     		cmp	r3, #14
 2484 00a8 49D0     		beq	.L153
 2485              		.loc 1 973 0 discriminator 14
 2486 00aa FB1D     		adds	r3, r7, #7
 2487 00ac 1B78     		ldrb	r3, [r3]
 2488 00ae 0F2B     		cmp	r3, #15
 2489 00b0 45D0     		beq	.L153
 2490              		.loc 1 973 0 discriminator 15
 2491 00b2 FB1D     		adds	r3, r7, #7
 2492 00b4 1B78     		ldrb	r3, [r3]
 2493 00b6 102B     		cmp	r3, #16
 2494 00b8 41D0     		beq	.L153
 2495              		.loc 1 973 0 discriminator 16
 2496 00ba FB1D     		adds	r3, r7, #7
 2497 00bc 1B78     		ldrb	r3, [r3]
 2498 00be 112B     		cmp	r3, #17
 2499 00c0 3DD0     		beq	.L153
 2500              		.loc 1 973 0 discriminator 17
 2501 00c2 FB1D     		adds	r3, r7, #7
 2502 00c4 1B78     		ldrb	r3, [r3]
 2503 00c6 122B     		cmp	r3, #18
 2504 00c8 39D0     		beq	.L153
 2505              		.loc 1 973 0 discriminator 18
 2506 00ca FB1D     		adds	r3, r7, #7
 2507 00cc 1B78     		ldrb	r3, [r3]
 2508 00ce 132B     		cmp	r3, #19
 2509 00d0 35D0     		beq	.L153
 2510              		.loc 1 973 0 discriminator 19
 2511 00d2 FB1D     		adds	r3, r7, #7
 2512 00d4 1B78     		ldrb	r3, [r3]
ARM GAS  C:\Users\JC\AppData\Local\Temp\ccU1E72d.s 			page 63


 2513 00d6 142B     		cmp	r3, #20
 2514 00d8 31D0     		beq	.L153
 2515              		.loc 1 973 0 discriminator 20
 2516 00da FB1D     		adds	r3, r7, #7
 2517 00dc 1B78     		ldrb	r3, [r3]
 2518 00de 152B     		cmp	r3, #21
 2519 00e0 2DD0     		beq	.L153
 2520              		.loc 1 973 0 discriminator 21
 2521 00e2 FB1D     		adds	r3, r7, #7
 2522 00e4 1B78     		ldrb	r3, [r3]
 2523 00e6 162B     		cmp	r3, #22
 2524 00e8 29D0     		beq	.L153
 2525              		.loc 1 973 0 discriminator 22
 2526 00ea FB1D     		adds	r3, r7, #7
 2527 00ec 1B78     		ldrb	r3, [r3]
 2528 00ee 172B     		cmp	r3, #23
 2529 00f0 25D0     		beq	.L153
 2530              		.loc 1 973 0 discriminator 23
 2531 00f2 FB1D     		adds	r3, r7, #7
 2532 00f4 1B78     		ldrb	r3, [r3]
 2533 00f6 182B     		cmp	r3, #24
 2534 00f8 21D0     		beq	.L153
 2535              		.loc 1 973 0 discriminator 24
 2536 00fa FB1D     		adds	r3, r7, #7
 2537 00fc 1B78     		ldrb	r3, [r3]
 2538 00fe 192B     		cmp	r3, #25
 2539 0100 1DD0     		beq	.L153
 2540              		.loc 1 973 0 discriminator 25
 2541 0102 FB1D     		adds	r3, r7, #7
 2542 0104 1B78     		ldrb	r3, [r3]
 2543 0106 1A2B     		cmp	r3, #26
 2544 0108 19D0     		beq	.L153
 2545              		.loc 1 973 0 discriminator 26
 2546 010a FB1D     		adds	r3, r7, #7
 2547 010c 1B78     		ldrb	r3, [r3]
 2548 010e 1B2B     		cmp	r3, #27
 2549 0110 15D0     		beq	.L153
 2550              		.loc 1 973 0 discriminator 27
 2551 0112 FB1D     		adds	r3, r7, #7
 2552 0114 1B78     		ldrb	r3, [r3]
 2553 0116 1C2B     		cmp	r3, #28
 2554 0118 11D0     		beq	.L153
 2555              		.loc 1 973 0 discriminator 28
 2556 011a FB1D     		adds	r3, r7, #7
 2557 011c 1B78     		ldrb	r3, [r3]
 2558 011e 1D2B     		cmp	r3, #29
 2559 0120 0DD0     		beq	.L153
 2560              		.loc 1 973 0 discriminator 29
 2561 0122 FB1D     		adds	r3, r7, #7
 2562 0124 1B78     		ldrb	r3, [r3]
 2563 0126 1E2B     		cmp	r3, #30
 2564 0128 09D0     		beq	.L153
 2565              		.loc 1 973 0 discriminator 30
 2566 012a FB1D     		adds	r3, r7, #7
 2567 012c 1B78     		ldrb	r3, [r3]
 2568 012e 1F2B     		cmp	r3, #31
 2569 0130 05D0     		beq	.L153
ARM GAS  C:\Users\JC\AppData\Local\Temp\ccU1E72d.s 			page 64


 2570              		.loc 1 973 0 discriminator 31
 2571 0132 1E4A     		ldr	r2, .L159+8
 2572 0134 1C4B     		ldr	r3, .L159+4
 2573 0136 1100     		movs	r1, r2
 2574 0138 1800     		movs	r0, r3
 2575 013a FFF7FEFF 		bl	Cy_SysLib_AssertFailed
 2576              	.L153:
 974:Generated_Source\PSoC6\pdl\drivers\peripheral\prot/cy_prot.c ****     
 975:Generated_Source\PSoC6\pdl\drivers\peripheral\prot/cy_prot.c ****     if (!CY_PERI_V1)
 2577              		.loc 1 975 0 is_stmt 1
 2578 013e 1C4B     		ldr	r3, .L159+12
 2579 0140 1B68     		ldr	r3, [r3]
 2580 0142 2F22     		movs	r2, #47
 2581 0144 9B5C     		ldrb	r3, [r3, r2]
 2582 0146 012B     		cmp	r3, #1
 2583 0148 27D0     		beq	.L154
 976:Generated_Source\PSoC6\pdl\drivers\peripheral\prot/cy_prot.c ****     {
 977:Generated_Source\PSoC6\pdl\drivers\peripheral\prot/cy_prot.c ****         PERI_MS_PPU_PR_SL_ADDR(base) = address & PERI_MS_PPU_PR_V2_SL_ADDR_ADDR30_Msk;
 2584              		.loc 1 977 0
 2585 014a BB68     		ldr	r3, [r7, #8]
 2586 014c 0322     		movs	r2, #3
 2587 014e 9343     		bics	r3, r2
 2588 0150 1A00     		movs	r2, r3
 2589 0152 FB68     		ldr	r3, [r7, #12]
 2590 0154 1A60     		str	r2, [r3]
 978:Generated_Source\PSoC6\pdl\drivers\peripheral\prot/cy_prot.c ****         PERI_MS_PPU_PR_SL_SIZE(base) = _CLR_SET_FLD32U((PERI_MS_PPU_PR_SL_SIZE(base)), PERI_MS_PPU_
 2591              		.loc 1 978 0
 2592 0156 FB68     		ldr	r3, [r7, #12]
 2593 0158 5B68     		ldr	r3, [r3, #4]
 2594 015a 164A     		ldr	r2, .L159+16
 2595 015c 1A40     		ands	r2, r3
 2596 015e FB1D     		adds	r3, r7, #7
 2597 0160 1B78     		ldrb	r3, [r3]
 2598 0162 1906     		lsls	r1, r3, #24
 2599 0164 F823     		movs	r3, #248
 2600 0166 5B05     		lsls	r3, r3, #21
 2601 0168 0B40     		ands	r3, r1
 2602 016a 1A43     		orrs	r2, r3
 2603 016c FB68     		ldr	r3, [r7, #12]
 2604 016e 5A60     		str	r2, [r3, #4]
 979:Generated_Source\PSoC6\pdl\drivers\peripheral\prot/cy_prot.c ****         
 980:Generated_Source\PSoC6\pdl\drivers\peripheral\prot/cy_prot.c ****         status = ((PERI_MS_PPU_PR_SL_ADDR(base) != (address & PERI_MS_PPU_PR_V2_SL_ADDR_ADDR30_Msk)
 2605              		.loc 1 980 0
 2606 0170 FB68     		ldr	r3, [r7, #12]
 2607 0172 1A68     		ldr	r2, [r3]
 2608 0174 BB68     		ldr	r3, [r7, #8]
 2609 0176 0321     		movs	r1, #3
 2610 0178 8B43     		bics	r3, r1
 2611 017a 9A42     		cmp	r2, r3
 2612 017c 09D1     		bne	.L155
 981:Generated_Source\PSoC6\pdl\drivers\peripheral\prot/cy_prot.c ****                   (_FLD2VAL(PERI_MS_PPU_PR_V2_SL_SIZE_REGION_SIZE, PERI_MS_PPU_PR_SL_SIZE(base)) !=
 2613              		.loc 1 981 0 discriminator 2
 2614 017e FB68     		ldr	r3, [r7, #12]
 2615 0180 5A68     		ldr	r2, [r3, #4]
 2616 0182 F823     		movs	r3, #248
 2617 0184 5B05     		lsls	r3, r3, #21
 2618 0186 1340     		ands	r3, r2
ARM GAS  C:\Users\JC\AppData\Local\Temp\ccU1E72d.s 			page 65


 2619 0188 1A0E     		lsrs	r2, r3, #24
 2620 018a FB1D     		adds	r3, r7, #7
 2621 018c 1B78     		ldrb	r3, [r3]
 980:Generated_Source\PSoC6\pdl\drivers\peripheral\prot/cy_prot.c ****                   (_FLD2VAL(PERI_MS_PPU_PR_V2_SL_SIZE_REGION_SIZE, PERI_MS_PPU_PR_SL_SIZE(base)) !=
 2622              		.loc 1 980 0 discriminator 2
 2623 018e 9A42     		cmp	r2, r3
 2624 0190 01D0     		beq	.L156
 2625              	.L155:
 980:Generated_Source\PSoC6\pdl\drivers\peripheral\prot/cy_prot.c ****                   (_FLD2VAL(PERI_MS_PPU_PR_V2_SL_SIZE_REGION_SIZE, PERI_MS_PPU_PR_SL_SIZE(base)) !=
 2626              		.loc 1 980 0 is_stmt 0 discriminator 3
 2627 0192 094B     		ldr	r3, .L159+20
 2628 0194 00E0     		b	.L157
 2629              	.L156:
 980:Generated_Source\PSoC6\pdl\drivers\peripheral\prot/cy_prot.c ****                   (_FLD2VAL(PERI_MS_PPU_PR_V2_SL_SIZE_REGION_SIZE, PERI_MS_PPU_PR_SL_SIZE(base)) !=
 2630              		.loc 1 980 0 discriminator 4
 2631 0196 0023     		movs	r3, #0
 2632              	.L157:
 980:Generated_Source\PSoC6\pdl\drivers\peripheral\prot/cy_prot.c ****                   (_FLD2VAL(PERI_MS_PPU_PR_V2_SL_SIZE_REGION_SIZE, PERI_MS_PPU_PR_SL_SIZE(base)) !=
 2633              		.loc 1 980 0 discriminator 6
 2634 0198 7B61     		str	r3, [r7, #20]
 2635              	.L154:
 982:Generated_Source\PSoC6\pdl\drivers\peripheral\prot/cy_prot.c ****                    CY_PROT_FAILURE : CY_PROT_SUCCESS;
 983:Generated_Source\PSoC6\pdl\drivers\peripheral\prot/cy_prot.c ****     }
 984:Generated_Source\PSoC6\pdl\drivers\peripheral\prot/cy_prot.c ****     
 985:Generated_Source\PSoC6\pdl\drivers\peripheral\prot/cy_prot.c ****     return status;
 2636              		.loc 1 985 0 is_stmt 1
 2637 019a 7B69     		ldr	r3, [r7, #20]
 986:Generated_Source\PSoC6\pdl\drivers\peripheral\prot/cy_prot.c **** }
 2638              		.loc 1 986 0
 2639 019c 1800     		movs	r0, r3
 2640 019e BD46     		mov	sp, r7
 2641 01a0 06B0     		add	sp, sp, #24
 2642              		@ sp needed
 2643 01a2 80BD     		pop	{r7, pc}
 2644              	.L160:
 2645              		.align	2
 2646              	.L159:
 2647 01a4 0200C200 		.word	12713986
 2648 01a8 00000000 		.word	.LC1
 2649 01ac CD030000 		.word	973
 2650 01b0 00000000 		.word	cy_device
 2651 01b4 FFFFFFE0 		.word	-520093697
 2652 01b8 0300C200 		.word	12713987
 2653              		.cfi_endproc
 2654              	.LFE62:
 2655              		.size	Cy_Prot_ConfigPpuProgSlaveAddr, .-Cy_Prot_ConfigPpuProgSlaveAddr
 2656              		.section	.text.Cy_Prot_ConfigPpuProgSlaveAtt,"ax",%progbits
 2657              		.align	2
 2658              		.global	Cy_Prot_ConfigPpuProgSlaveAtt
 2659              		.code	16
 2660              		.thumb_func
 2661              		.type	Cy_Prot_ConfigPpuProgSlaveAtt, %function
 2662              	Cy_Prot_ConfigPpuProgSlaveAtt:
 2663              	.LFB63:
 987:Generated_Source\PSoC6\pdl\drivers\peripheral\prot/cy_prot.c **** 
 988:Generated_Source\PSoC6\pdl\drivers\peripheral\prot/cy_prot.c **** 
 989:Generated_Source\PSoC6\pdl\drivers\peripheral\prot/cy_prot.c **** /*******************************************************************************
ARM GAS  C:\Users\JC\AppData\Local\Temp\ccU1E72d.s 			page 66


 990:Generated_Source\PSoC6\pdl\drivers\peripheral\prot/cy_prot.c **** * Function Name: Cy_Prot_ConfigPpuProgSlaveAtt
 991:Generated_Source\PSoC6\pdl\drivers\peripheral\prot/cy_prot.c **** ****************************************************************************//**
 992:Generated_Source\PSoC6\pdl\drivers\peripheral\prot/cy_prot.c **** *
 993:Generated_Source\PSoC6\pdl\drivers\peripheral\prot/cy_prot.c **** * Configures the protection structure with its protection attributes of the 
 994:Generated_Source\PSoC6\pdl\drivers\peripheral\prot/cy_prot.c **** * Programmable Peripheral Protection Unit (PPU PROG) slave. 
 995:Generated_Source\PSoC6\pdl\drivers\peripheral\prot/cy_prot.c **** * 
 996:Generated_Source\PSoC6\pdl\drivers\peripheral\prot/cy_prot.c **** * This function configures the slave structure of the PPU PROG pair, which can 
 997:Generated_Source\PSoC6\pdl\drivers\peripheral\prot/cy_prot.c **** * protect any peripheral memory region in a device from invalid bus-master 
 998:Generated_Source\PSoC6\pdl\drivers\peripheral\prot/cy_prot.c **** * access.
 999:Generated_Source\PSoC6\pdl\drivers\peripheral\prot/cy_prot.c **** *
1000:Generated_Source\PSoC6\pdl\drivers\peripheral\prot/cy_prot.c **** * \note This function is applicable for CPUSS ver_2 only.
1001:Generated_Source\PSoC6\pdl\drivers\peripheral\prot/cy_prot.c **** *
1002:Generated_Source\PSoC6\pdl\drivers\peripheral\prot/cy_prot.c **** * \param base
1003:Generated_Source\PSoC6\pdl\drivers\peripheral\prot/cy_prot.c **** * The register base address of the protection structure is being configured.
1004:Generated_Source\PSoC6\pdl\drivers\peripheral\prot/cy_prot.c **** *
1005:Generated_Source\PSoC6\pdl\drivers\peripheral\prot/cy_prot.c **** * \param pcMask
1006:Generated_Source\PSoC6\pdl\drivers\peripheral\prot/cy_prot.c **** * The protection context mask. This is a 16-bit value of the allowed contexts, 
1007:Generated_Source\PSoC6\pdl\drivers\peripheral\prot/cy_prot.c **** * it is an OR'ed (|) field of the * provided defines in cy_prot.h. 
1008:Generated_Source\PSoC6\pdl\drivers\peripheral\prot/cy_prot.c **** * For example: (CY_PROT_PCMASK1 | CY_PROT_PCMASK3 | CY_PROT_PCMASK4).
1009:Generated_Source\PSoC6\pdl\drivers\peripheral\prot/cy_prot.c **** * \note The function accepts pcMask values from CY_PROT_PCMASK1 to CY_PROT_PCMASK15. 
1010:Generated_Source\PSoC6\pdl\drivers\peripheral\prot/cy_prot.c **** * But each device has its own number of available protection contexts. 
1011:Generated_Source\PSoC6\pdl\drivers\peripheral\prot/cy_prot.c **** * That number is defined by PERI_PC_NR in the config file.
1012:Generated_Source\PSoC6\pdl\drivers\peripheral\prot/cy_prot.c **** *
1013:Generated_Source\PSoC6\pdl\drivers\peripheral\prot/cy_prot.c **** * \param userPermission
1014:Generated_Source\PSoC6\pdl\drivers\peripheral\prot/cy_prot.c **** * The user permission setting.
1015:Generated_Source\PSoC6\pdl\drivers\peripheral\prot/cy_prot.c **** *
1016:Generated_Source\PSoC6\pdl\drivers\peripheral\prot/cy_prot.c **** * \param privPermission
1017:Generated_Source\PSoC6\pdl\drivers\peripheral\prot/cy_prot.c **** * The privileged permission setting.
1018:Generated_Source\PSoC6\pdl\drivers\peripheral\prot/cy_prot.c **** *
1019:Generated_Source\PSoC6\pdl\drivers\peripheral\prot/cy_prot.c **** * \param secure
1020:Generated_Source\PSoC6\pdl\drivers\peripheral\prot/cy_prot.c **** * The secure flag.
1021:Generated_Source\PSoC6\pdl\drivers\peripheral\prot/cy_prot.c **** * 
1022:Generated_Source\PSoC6\pdl\drivers\peripheral\prot/cy_prot.c **** * \return
1023:Generated_Source\PSoC6\pdl\drivers\peripheral\prot/cy_prot.c **** * The status of the function call.
1024:Generated_Source\PSoC6\pdl\drivers\peripheral\prot/cy_prot.c **** *
1025:Generated_Source\PSoC6\pdl\drivers\peripheral\prot/cy_prot.c **** *   Status              | Description
1026:Generated_Source\PSoC6\pdl\drivers\peripheral\prot/cy_prot.c **** * ----------------------| ---------------------------------------
1027:Generated_Source\PSoC6\pdl\drivers\peripheral\prot/cy_prot.c **** * CY_PROT_SUCCESS       | The attributes were set up.
1028:Generated_Source\PSoC6\pdl\drivers\peripheral\prot/cy_prot.c **** * CY_PROT_FAILURE       | The attributes were not set up because the structure is possibly locked.
1029:Generated_Source\PSoC6\pdl\drivers\peripheral\prot/cy_prot.c **** * CY_PROT_INVALID_STATE | The function was called on the device with an unsupported PERI HW version
1030:Generated_Source\PSoC6\pdl\drivers\peripheral\prot/cy_prot.c **** *
1031:Generated_Source\PSoC6\pdl\drivers\peripheral\prot/cy_prot.c **** * \note PC0 accesses are read-only and are always enabled. 
1032:Generated_Source\PSoC6\pdl\drivers\peripheral\prot/cy_prot.c **** *
1033:Generated_Source\PSoC6\pdl\drivers\peripheral\prot/cy_prot.c **** * \funcusage
1034:Generated_Source\PSoC6\pdl\drivers\peripheral\prot/cy_prot.c **** * \snippet prot/1.20/snippet/main.c snippet_Cy_Prot_ConfigPpuProgSlaveAtt
1035:Generated_Source\PSoC6\pdl\drivers\peripheral\prot/cy_prot.c **** *
1036:Generated_Source\PSoC6\pdl\drivers\peripheral\prot/cy_prot.c **** *******************************************************************************/
1037:Generated_Source\PSoC6\pdl\drivers\peripheral\prot/cy_prot.c **** cy_en_prot_status_t Cy_Prot_ConfigPpuProgSlaveAtt(PERI_MS_PPU_PR_Type* base, uint16_t pcMask, 
1038:Generated_Source\PSoC6\pdl\drivers\peripheral\prot/cy_prot.c ****                                        cy_en_prot_perm_t userPermission, cy_en_prot_perm_t privPerm
1039:Generated_Source\PSoC6\pdl\drivers\peripheral\prot/cy_prot.c **** {
 2664              		.loc 1 1039 0
 2665              		.cfi_startproc
 2666              		@ args = 4, pretend = 0, frame = 8
 2667              		@ frame_needed = 1, uses_anonymous_args = 0
 2668 0000 90B5     		push	{r4, r7, lr}
 2669              		.cfi_def_cfa_offset 12
 2670              		.cfi_offset 4, -12
ARM GAS  C:\Users\JC\AppData\Local\Temp\ccU1E72d.s 			page 67


 2671              		.cfi_offset 7, -8
 2672              		.cfi_offset 14, -4
 2673 0002 85B0     		sub	sp, sp, #20
 2674              		.cfi_def_cfa_offset 32
 2675 0004 02AF     		add	r7, sp, #8
 2676              		.cfi_def_cfa 7, 24
 2677 0006 7860     		str	r0, [r7, #4]
 2678 0008 0C00     		movs	r4, r1
 2679 000a 1000     		movs	r0, r2
 2680 000c 1900     		movs	r1, r3
 2681 000e BB1C     		adds	r3, r7, #2
 2682 0010 221C     		adds	r2, r4, #0
 2683 0012 1A80     		strh	r2, [r3]
 2684 0014 7B1C     		adds	r3, r7, #1
 2685 0016 021C     		adds	r2, r0, #0
 2686 0018 1A70     		strb	r2, [r3]
 2687 001a 3B00     		movs	r3, r7
 2688 001c 0A1C     		adds	r2, r1, #0
 2689 001e 1A70     		strb	r2, [r3]
1040:Generated_Source\PSoC6\pdl\drivers\peripheral\prot/cy_prot.c ****     /* The parameter checks */
1041:Generated_Source\PSoC6\pdl\drivers\peripheral\prot/cy_prot.c ****     CY_ASSERT_L1(NULL != base);
 2690              		.loc 1 1041 0
 2691 0020 7B68     		ldr	r3, [r7, #4]
 2692 0022 002B     		cmp	r3, #0
 2693 0024 05D1     		bne	.L162
 2694              		.loc 1 1041 0 is_stmt 0 discriminator 1
 2695 0026 234A     		ldr	r2, .L166
 2696 0028 234B     		ldr	r3, .L166+4
 2697 002a 1100     		movs	r1, r2
 2698 002c 1800     		movs	r0, r3
 2699 002e FFF7FEFF 		bl	Cy_SysLib_AssertFailed
 2700              	.L162:
1042:Generated_Source\PSoC6\pdl\drivers\peripheral\prot/cy_prot.c ****     CY_ASSERT_L3(CY_PROT_IS_PROG_SL_PERM_VALID(userPermission));
 2701              		.loc 1 1042 0 is_stmt 1
 2702 0032 7B1C     		adds	r3, r7, #1
 2703 0034 1B78     		ldrb	r3, [r3]
 2704 0036 002B     		cmp	r3, #0
 2705 0038 11D0     		beq	.L163
 2706              		.loc 1 1042 0 is_stmt 0 discriminator 1
 2707 003a 7B1C     		adds	r3, r7, #1
 2708 003c 1B78     		ldrb	r3, [r3]
 2709 003e 012B     		cmp	r3, #1
 2710 0040 0DD0     		beq	.L163
 2711              		.loc 1 1042 0 discriminator 2
 2712 0042 7B1C     		adds	r3, r7, #1
 2713 0044 1B78     		ldrb	r3, [r3]
 2714 0046 022B     		cmp	r3, #2
 2715 0048 09D0     		beq	.L163
 2716              		.loc 1 1042 0 discriminator 3
 2717 004a 7B1C     		adds	r3, r7, #1
 2718 004c 1B78     		ldrb	r3, [r3]
 2719 004e 032B     		cmp	r3, #3
 2720 0050 05D0     		beq	.L163
 2721              		.loc 1 1042 0 discriminator 4
 2722 0052 1A4A     		ldr	r2, .L166+8
 2723 0054 184B     		ldr	r3, .L166+4
 2724 0056 1100     		movs	r1, r2
ARM GAS  C:\Users\JC\AppData\Local\Temp\ccU1E72d.s 			page 68


 2725 0058 1800     		movs	r0, r3
 2726 005a FFF7FEFF 		bl	Cy_SysLib_AssertFailed
 2727              	.L163:
1043:Generated_Source\PSoC6\pdl\drivers\peripheral\prot/cy_prot.c ****     CY_ASSERT_L3(CY_PROT_IS_PROG_SL_PERM_VALID(privPermission));
 2728              		.loc 1 1043 0 is_stmt 1
 2729 005e 3B00     		movs	r3, r7
 2730 0060 1B78     		ldrb	r3, [r3]
 2731 0062 002B     		cmp	r3, #0
 2732 0064 11D0     		beq	.L164
 2733              		.loc 1 1043 0 is_stmt 0 discriminator 1
 2734 0066 3B00     		movs	r3, r7
 2735 0068 1B78     		ldrb	r3, [r3]
 2736 006a 012B     		cmp	r3, #1
 2737 006c 0DD0     		beq	.L164
 2738              		.loc 1 1043 0 discriminator 2
 2739 006e 3B00     		movs	r3, r7
 2740 0070 1B78     		ldrb	r3, [r3]
 2741 0072 022B     		cmp	r3, #2
 2742 0074 09D0     		beq	.L164
 2743              		.loc 1 1043 0 discriminator 3
 2744 0076 3B00     		movs	r3, r7
 2745 0078 1B78     		ldrb	r3, [r3]
 2746 007a 032B     		cmp	r3, #3
 2747 007c 05D0     		beq	.L164
 2748              		.loc 1 1043 0 discriminator 4
 2749 007e 104A     		ldr	r2, .L166+12
 2750 0080 0D4B     		ldr	r3, .L166+4
 2751 0082 1100     		movs	r1, r2
 2752 0084 1800     		movs	r0, r3
 2753 0086 FFF7FEFF 		bl	Cy_SysLib_AssertFailed
 2754              	.L164:
1044:Generated_Source\PSoC6\pdl\drivers\peripheral\prot/cy_prot.c **** 
1045:Generated_Source\PSoC6\pdl\drivers\peripheral\prot/cy_prot.c ****     return (Prot_ConfigPpuAtt(PERI_MS_PPU_PR_SL_ATT(base), pcMask, userPermission, privPermission, 
 2755              		.loc 1 1045 0 is_stmt 1
 2756 008a 7B68     		ldr	r3, [r7, #4]
 2757 008c 1033     		adds	r3, r3, #16
 2758 008e 1800     		movs	r0, r3
 2759 0090 3B00     		movs	r3, r7
 2760 0092 1C78     		ldrb	r4, [r3]
 2761 0094 7B1C     		adds	r3, r7, #1
 2762 0096 1A78     		ldrb	r2, [r3]
 2763 0098 BB1C     		adds	r3, r7, #2
 2764 009a 1988     		ldrh	r1, [r3]
 2765 009c 1823     		movs	r3, #24
 2766 009e FB18     		adds	r3, r7, r3
 2767 00a0 1B78     		ldrb	r3, [r3]
 2768 00a2 0093     		str	r3, [sp]
 2769 00a4 2300     		movs	r3, r4
 2770 00a6 FFF7FEFF 		bl	Prot_ConfigPpuAtt
 2771 00aa 0300     		movs	r3, r0
1046:Generated_Source\PSoC6\pdl\drivers\peripheral\prot/cy_prot.c **** }
 2772              		.loc 1 1046 0
 2773 00ac 1800     		movs	r0, r3
 2774 00ae BD46     		mov	sp, r7
 2775 00b0 03B0     		add	sp, sp, #12
 2776              		@ sp needed
 2777 00b2 90BD     		pop	{r4, r7, pc}
ARM GAS  C:\Users\JC\AppData\Local\Temp\ccU1E72d.s 			page 69


 2778              	.L167:
 2779              		.align	2
 2780              	.L166:
 2781 00b4 11040000 		.word	1041
 2782 00b8 00000000 		.word	.LC1
 2783 00bc 12040000 		.word	1042
 2784 00c0 13040000 		.word	1043
 2785              		.cfi_endproc
 2786              	.LFE63:
 2787              		.size	Cy_Prot_ConfigPpuProgSlaveAtt, .-Cy_Prot_ConfigPpuProgSlaveAtt
 2788              		.section	.text.Cy_Prot_EnablePpuProgSlaveRegion,"ax",%progbits
 2789              		.align	2
 2790              		.global	Cy_Prot_EnablePpuProgSlaveRegion
 2791              		.code	16
 2792              		.thumb_func
 2793              		.type	Cy_Prot_EnablePpuProgSlaveRegion, %function
 2794              	Cy_Prot_EnablePpuProgSlaveRegion:
 2795              	.LFB64:
1047:Generated_Source\PSoC6\pdl\drivers\peripheral\prot/cy_prot.c **** 
1048:Generated_Source\PSoC6\pdl\drivers\peripheral\prot/cy_prot.c **** 
1049:Generated_Source\PSoC6\pdl\drivers\peripheral\prot/cy_prot.c **** /*******************************************************************************
1050:Generated_Source\PSoC6\pdl\drivers\peripheral\prot/cy_prot.c **** * Function Name: Cy_Prot_EnablePpuProgSlaveRegion
1051:Generated_Source\PSoC6\pdl\drivers\peripheral\prot/cy_prot.c **** ****************************************************************************//**
1052:Generated_Source\PSoC6\pdl\drivers\peripheral\prot/cy_prot.c **** *
1053:Generated_Source\PSoC6\pdl\drivers\peripheral\prot/cy_prot.c **** * Enables the Slave PPU PROG structure.
1054:Generated_Source\PSoC6\pdl\drivers\peripheral\prot/cy_prot.c **** *
1055:Generated_Source\PSoC6\pdl\drivers\peripheral\prot/cy_prot.c **** * This is the PPU PROG slave-structure enable function. The PPU PROG protection 
1056:Generated_Source\PSoC6\pdl\drivers\peripheral\prot/cy_prot.c **** * settings will take effect after a successful completion of this function call.
1057:Generated_Source\PSoC6\pdl\drivers\peripheral\prot/cy_prot.c **** *
1058:Generated_Source\PSoC6\pdl\drivers\peripheral\prot/cy_prot.c **** * \note This function is applicable for CPUSS ver_2 only.
1059:Generated_Source\PSoC6\pdl\drivers\peripheral\prot/cy_prot.c **** *
1060:Generated_Source\PSoC6\pdl\drivers\peripheral\prot/cy_prot.c **** * \param base
1061:Generated_Source\PSoC6\pdl\drivers\peripheral\prot/cy_prot.c **** * The base address for the protection unit structure is being configured. 
1062:Generated_Source\PSoC6\pdl\drivers\peripheral\prot/cy_prot.c **** *
1063:Generated_Source\PSoC6\pdl\drivers\peripheral\prot/cy_prot.c **** * \return
1064:Generated_Source\PSoC6\pdl\drivers\peripheral\prot/cy_prot.c **** * The status of the function call.
1065:Generated_Source\PSoC6\pdl\drivers\peripheral\prot/cy_prot.c **** *
1066:Generated_Source\PSoC6\pdl\drivers\peripheral\prot/cy_prot.c **** *   Status              | Description
1067:Generated_Source\PSoC6\pdl\drivers\peripheral\prot/cy_prot.c **** * ----------------------| ---------------------------------------
1068:Generated_Source\PSoC6\pdl\drivers\peripheral\prot/cy_prot.c **** * CY_PROT_SUCCESS       | The structure was enabled.
1069:Generated_Source\PSoC6\pdl\drivers\peripheral\prot/cy_prot.c **** * CY_PROT_FAILURE       | The structure is disabled and possibly locked.
1070:Generated_Source\PSoC6\pdl\drivers\peripheral\prot/cy_prot.c **** * CY_PROT_INVALID_STATE | The function was called on the device with an unsupported PERI HW version
1071:Generated_Source\PSoC6\pdl\drivers\peripheral\prot/cy_prot.c **** *
1072:Generated_Source\PSoC6\pdl\drivers\peripheral\prot/cy_prot.c **** * \funcusage
1073:Generated_Source\PSoC6\pdl\drivers\peripheral\prot/cy_prot.c **** * \ref Cy_Prot_ConfigPpuProgSlaveAtt
1074:Generated_Source\PSoC6\pdl\drivers\peripheral\prot/cy_prot.c **** *
1075:Generated_Source\PSoC6\pdl\drivers\peripheral\prot/cy_prot.c **** *******************************************************************************/
1076:Generated_Source\PSoC6\pdl\drivers\peripheral\prot/cy_prot.c **** cy_en_prot_status_t Cy_Prot_EnablePpuProgSlaveRegion(PERI_MS_PPU_PR_Type* base)
1077:Generated_Source\PSoC6\pdl\drivers\peripheral\prot/cy_prot.c **** {   
 2796              		.loc 1 1077 0
 2797              		.cfi_startproc
 2798              		@ args = 0, pretend = 0, frame = 16
 2799              		@ frame_needed = 1, uses_anonymous_args = 0
 2800 0000 80B5     		push	{r7, lr}
 2801              		.cfi_def_cfa_offset 8
 2802              		.cfi_offset 7, -8
 2803              		.cfi_offset 14, -4
ARM GAS  C:\Users\JC\AppData\Local\Temp\ccU1E72d.s 			page 70


 2804 0002 84B0     		sub	sp, sp, #16
 2805              		.cfi_def_cfa_offset 24
 2806 0004 00AF     		add	r7, sp, #0
 2807              		.cfi_def_cfa_register 7
 2808 0006 7860     		str	r0, [r7, #4]
1078:Generated_Source\PSoC6\pdl\drivers\peripheral\prot/cy_prot.c ****     cy_en_prot_status_t status = CY_PROT_INVALID_STATE;
 2809              		.loc 1 1078 0
 2810 0008 144B     		ldr	r3, .L174
 2811 000a FB60     		str	r3, [r7, #12]
1079:Generated_Source\PSoC6\pdl\drivers\peripheral\prot/cy_prot.c ****     
1080:Generated_Source\PSoC6\pdl\drivers\peripheral\prot/cy_prot.c ****     CY_ASSERT_L1(NULL != base);
 2812              		.loc 1 1080 0
 2813 000c 7B68     		ldr	r3, [r7, #4]
 2814 000e 002B     		cmp	r3, #0
 2815 0010 06D1     		bne	.L169
 2816              		.loc 1 1080 0 is_stmt 0 discriminator 1
 2817 0012 8723     		movs	r3, #135
 2818 0014 DA00     		lsls	r2, r3, #3
 2819 0016 124B     		ldr	r3, .L174+4
 2820 0018 1100     		movs	r1, r2
 2821 001a 1800     		movs	r0, r3
 2822 001c FFF7FEFF 		bl	Cy_SysLib_AssertFailed
 2823              	.L169:
1081:Generated_Source\PSoC6\pdl\drivers\peripheral\prot/cy_prot.c ****     
1082:Generated_Source\PSoC6\pdl\drivers\peripheral\prot/cy_prot.c ****     if (!CY_PERI_V1)
 2824              		.loc 1 1082 0 is_stmt 1
 2825 0020 104B     		ldr	r3, .L174+8
 2826 0022 1B68     		ldr	r3, [r3]
 2827 0024 2F22     		movs	r2, #47
 2828 0026 9B5C     		ldrb	r3, [r3, r2]
 2829 0028 012B     		cmp	r3, #1
 2830 002a 11D0     		beq	.L170
1083:Generated_Source\PSoC6\pdl\drivers\peripheral\prot/cy_prot.c ****     {
1084:Generated_Source\PSoC6\pdl\drivers\peripheral\prot/cy_prot.c ****         PERI_MS_PPU_PR_SL_SIZE(base) = 
1085:Generated_Source\PSoC6\pdl\drivers\peripheral\prot/cy_prot.c ****         _CLR_SET_FLD32U((PERI_MS_PPU_PR_SL_SIZE(base)), PERI_MS_PPU_PR_V2_SL_SIZE_VALID, CY_PROT_ST
 2831              		.loc 1 1085 0
 2832 002c 7B68     		ldr	r3, [r7, #4]
 2833 002e 5B68     		ldr	r3, [r3, #4]
 2834 0030 8022     		movs	r2, #128
 2835 0032 1206     		lsls	r2, r2, #24
 2836 0034 1A43     		orrs	r2, r3
1084:Generated_Source\PSoC6\pdl\drivers\peripheral\prot/cy_prot.c ****         _CLR_SET_FLD32U((PERI_MS_PPU_PR_SL_SIZE(base)), PERI_MS_PPU_PR_V2_SL_SIZE_VALID, CY_PROT_ST
 2837              		.loc 1 1084 0
 2838 0036 7B68     		ldr	r3, [r7, #4]
 2839 0038 5A60     		str	r2, [r3, #4]
1086:Generated_Source\PSoC6\pdl\drivers\peripheral\prot/cy_prot.c ****         
1087:Generated_Source\PSoC6\pdl\drivers\peripheral\prot/cy_prot.c ****         status = (_FLD2VAL(PERI_MS_PPU_PR_V2_SL_SIZE_VALID, PERI_MS_PPU_PR_SL_SIZE(base)) != CY_PRO
 2840              		.loc 1 1087 0
 2841 003a 7B68     		ldr	r3, [r7, #4]
 2842 003c 5B68     		ldr	r3, [r3, #4]
 2843 003e DB0F     		lsrs	r3, r3, #31
 2844 0040 DB07     		lsls	r3, r3, #31
 2845 0042 DB0F     		lsrs	r3, r3, #31
 2846 0044 012B     		cmp	r3, #1
 2847 0046 01D0     		beq	.L171
 2848              		.loc 1 1087 0 is_stmt 0 discriminator 1
 2849 0048 074B     		ldr	r3, .L174+12
ARM GAS  C:\Users\JC\AppData\Local\Temp\ccU1E72d.s 			page 71


 2850 004a 00E0     		b	.L172
 2851              	.L171:
 2852              		.loc 1 1087 0 discriminator 2
 2853 004c 0023     		movs	r3, #0
 2854              	.L172:
 2855              		.loc 1 1087 0 discriminator 4
 2856 004e FB60     		str	r3, [r7, #12]
 2857              	.L170:
1088:Generated_Source\PSoC6\pdl\drivers\peripheral\prot/cy_prot.c ****         CY_PROT_FAILURE : CY_PROT_SUCCESS;
1089:Generated_Source\PSoC6\pdl\drivers\peripheral\prot/cy_prot.c ****     }
1090:Generated_Source\PSoC6\pdl\drivers\peripheral\prot/cy_prot.c ****     
1091:Generated_Source\PSoC6\pdl\drivers\peripheral\prot/cy_prot.c ****     return status;
 2858              		.loc 1 1091 0 is_stmt 1
 2859 0050 FB68     		ldr	r3, [r7, #12]
1092:Generated_Source\PSoC6\pdl\drivers\peripheral\prot/cy_prot.c **** }
 2860              		.loc 1 1092 0
 2861 0052 1800     		movs	r0, r3
 2862 0054 BD46     		mov	sp, r7
 2863 0056 04B0     		add	sp, sp, #16
 2864              		@ sp needed
 2865 0058 80BD     		pop	{r7, pc}
 2866              	.L175:
 2867 005a C046     		.align	2
 2868              	.L174:
 2869 005c 0200C200 		.word	12713986
 2870 0060 00000000 		.word	.LC1
 2871 0064 00000000 		.word	cy_device
 2872 0068 0300C200 		.word	12713987
 2873              		.cfi_endproc
 2874              	.LFE64:
 2875              		.size	Cy_Prot_EnablePpuProgSlaveRegion, .-Cy_Prot_EnablePpuProgSlaveRegion
 2876              		.section	.text.Cy_Prot_DisablePpuProgSlaveRegion,"ax",%progbits
 2877              		.align	2
 2878              		.global	Cy_Prot_DisablePpuProgSlaveRegion
 2879              		.code	16
 2880              		.thumb_func
 2881              		.type	Cy_Prot_DisablePpuProgSlaveRegion, %function
 2882              	Cy_Prot_DisablePpuProgSlaveRegion:
 2883              	.LFB65:
1093:Generated_Source\PSoC6\pdl\drivers\peripheral\prot/cy_prot.c **** 
1094:Generated_Source\PSoC6\pdl\drivers\peripheral\prot/cy_prot.c **** 
1095:Generated_Source\PSoC6\pdl\drivers\peripheral\prot/cy_prot.c **** /*******************************************************************************
1096:Generated_Source\PSoC6\pdl\drivers\peripheral\prot/cy_prot.c **** * Function Name: Cy_Prot_DisablePpuProgSlaveRegion
1097:Generated_Source\PSoC6\pdl\drivers\peripheral\prot/cy_prot.c **** ****************************************************************************//**
1098:Generated_Source\PSoC6\pdl\drivers\peripheral\prot/cy_prot.c **** *
1099:Generated_Source\PSoC6\pdl\drivers\peripheral\prot/cy_prot.c **** * Disables the Slave PPU PROG structure.
1100:Generated_Source\PSoC6\pdl\drivers\peripheral\prot/cy_prot.c **** *
1101:Generated_Source\PSoC6\pdl\drivers\peripheral\prot/cy_prot.c **** * This is the PPU PROG slave-structure disable function. The PPU PROG protection 
1102:Generated_Source\PSoC6\pdl\drivers\peripheral\prot/cy_prot.c **** * settings will seize to take effect after successful completion of this 
1103:Generated_Source\PSoC6\pdl\drivers\peripheral\prot/cy_prot.c **** * function call.
1104:Generated_Source\PSoC6\pdl\drivers\peripheral\prot/cy_prot.c **** *
1105:Generated_Source\PSoC6\pdl\drivers\peripheral\prot/cy_prot.c **** * \note This function is applicable for CPUSS ver_2 only.
1106:Generated_Source\PSoC6\pdl\drivers\peripheral\prot/cy_prot.c **** *
1107:Generated_Source\PSoC6\pdl\drivers\peripheral\prot/cy_prot.c **** * \param base
1108:Generated_Source\PSoC6\pdl\drivers\peripheral\prot/cy_prot.c **** * The base address for the protection unit structure is being configured. 
1109:Generated_Source\PSoC6\pdl\drivers\peripheral\prot/cy_prot.c **** *
1110:Generated_Source\PSoC6\pdl\drivers\peripheral\prot/cy_prot.c **** * \return
ARM GAS  C:\Users\JC\AppData\Local\Temp\ccU1E72d.s 			page 72


1111:Generated_Source\PSoC6\pdl\drivers\peripheral\prot/cy_prot.c **** * The status of the function call.
1112:Generated_Source\PSoC6\pdl\drivers\peripheral\prot/cy_prot.c **** *
1113:Generated_Source\PSoC6\pdl\drivers\peripheral\prot/cy_prot.c **** *   Status              | Description
1114:Generated_Source\PSoC6\pdl\drivers\peripheral\prot/cy_prot.c **** * ----------------------| ---------------------------------------
1115:Generated_Source\PSoC6\pdl\drivers\peripheral\prot/cy_prot.c **** * CY_PROT_SUCCESS       | The slave PPU PROG structure was disabled.
1116:Generated_Source\PSoC6\pdl\drivers\peripheral\prot/cy_prot.c **** * CY_PROT_FAILURE       | The structure is enabled and possibly locked.
1117:Generated_Source\PSoC6\pdl\drivers\peripheral\prot/cy_prot.c **** * CY_PROT_INVALID_STATE | The function was called on the device with an unsupported PERI HW version
1118:Generated_Source\PSoC6\pdl\drivers\peripheral\prot/cy_prot.c **** *
1119:Generated_Source\PSoC6\pdl\drivers\peripheral\prot/cy_prot.c **** * \funcusage
1120:Generated_Source\PSoC6\pdl\drivers\peripheral\prot/cy_prot.c **** * \snippet prot/1.20/snippet/main.c snippet_Cy_Prot_DisablePpuProgSlaveRegion
1121:Generated_Source\PSoC6\pdl\drivers\peripheral\prot/cy_prot.c **** *
1122:Generated_Source\PSoC6\pdl\drivers\peripheral\prot/cy_prot.c **** *******************************************************************************/
1123:Generated_Source\PSoC6\pdl\drivers\peripheral\prot/cy_prot.c **** cy_en_prot_status_t Cy_Prot_DisablePpuProgSlaveRegion(PERI_MS_PPU_PR_Type* base)
1124:Generated_Source\PSoC6\pdl\drivers\peripheral\prot/cy_prot.c **** {
 2884              		.loc 1 1124 0
 2885              		.cfi_startproc
 2886              		@ args = 0, pretend = 0, frame = 16
 2887              		@ frame_needed = 1, uses_anonymous_args = 0
 2888 0000 80B5     		push	{r7, lr}
 2889              		.cfi_def_cfa_offset 8
 2890              		.cfi_offset 7, -8
 2891              		.cfi_offset 14, -4
 2892 0002 84B0     		sub	sp, sp, #16
 2893              		.cfi_def_cfa_offset 24
 2894 0004 00AF     		add	r7, sp, #0
 2895              		.cfi_def_cfa_register 7
 2896 0006 7860     		str	r0, [r7, #4]
1125:Generated_Source\PSoC6\pdl\drivers\peripheral\prot/cy_prot.c ****     cy_en_prot_status_t status = CY_PROT_INVALID_STATE;
 2897              		.loc 1 1125 0
 2898 0008 124B     		ldr	r3, .L182
 2899 000a FB60     		str	r3, [r7, #12]
1126:Generated_Source\PSoC6\pdl\drivers\peripheral\prot/cy_prot.c ****     
1127:Generated_Source\PSoC6\pdl\drivers\peripheral\prot/cy_prot.c ****     CY_ASSERT_L1(NULL != base);
 2900              		.loc 1 1127 0
 2901 000c 7B68     		ldr	r3, [r7, #4]
 2902 000e 002B     		cmp	r3, #0
 2903 0010 05D1     		bne	.L177
 2904              		.loc 1 1127 0 is_stmt 0 discriminator 1
 2905 0012 114A     		ldr	r2, .L182+4
 2906 0014 114B     		ldr	r3, .L182+8
 2907 0016 1100     		movs	r1, r2
 2908 0018 1800     		movs	r0, r3
 2909 001a FFF7FEFF 		bl	Cy_SysLib_AssertFailed
 2910              	.L177:
1128:Generated_Source\PSoC6\pdl\drivers\peripheral\prot/cy_prot.c ****     
1129:Generated_Source\PSoC6\pdl\drivers\peripheral\prot/cy_prot.c ****     if (!CY_PERI_V1)
 2911              		.loc 1 1129 0 is_stmt 1
 2912 001e 104B     		ldr	r3, .L182+12
 2913 0020 1B68     		ldr	r3, [r3]
 2914 0022 2F22     		movs	r2, #47
 2915 0024 9B5C     		ldrb	r3, [r3, r2]
 2916 0026 012B     		cmp	r3, #1
 2917 0028 0ED0     		beq	.L178
1130:Generated_Source\PSoC6\pdl\drivers\peripheral\prot/cy_prot.c ****     {
1131:Generated_Source\PSoC6\pdl\drivers\peripheral\prot/cy_prot.c ****         PERI_MS_PPU_PR_SL_SIZE(base) = 
1132:Generated_Source\PSoC6\pdl\drivers\peripheral\prot/cy_prot.c ****         _CLR_SET_FLD32U((PERI_MS_PPU_PR_SL_SIZE(base)), PERI_MS_PPU_PR_V2_SL_SIZE_VALID, CY_PROT_ST
 2918              		.loc 1 1132 0
ARM GAS  C:\Users\JC\AppData\Local\Temp\ccU1E72d.s 			page 73


 2919 002a 7B68     		ldr	r3, [r7, #4]
 2920 002c 5B68     		ldr	r3, [r3, #4]
 2921 002e 5B00     		lsls	r3, r3, #1
 2922 0030 5A08     		lsrs	r2, r3, #1
1131:Generated_Source\PSoC6\pdl\drivers\peripheral\prot/cy_prot.c ****         _CLR_SET_FLD32U((PERI_MS_PPU_PR_SL_SIZE(base)), PERI_MS_PPU_PR_V2_SL_SIZE_VALID, CY_PROT_ST
 2923              		.loc 1 1131 0
 2924 0032 7B68     		ldr	r3, [r7, #4]
 2925 0034 5A60     		str	r2, [r3, #4]
1133:Generated_Source\PSoC6\pdl\drivers\peripheral\prot/cy_prot.c **** 
1134:Generated_Source\PSoC6\pdl\drivers\peripheral\prot/cy_prot.c ****         status = (_FLD2VAL(PERI_MS_PPU_PR_V2_SL_SIZE_VALID, PERI_MS_PPU_PR_SL_SIZE(base)) != CY_PRO
 2926              		.loc 1 1134 0
 2927 0036 7B68     		ldr	r3, [r7, #4]
 2928 0038 5B68     		ldr	r3, [r3, #4]
 2929 003a DB0F     		lsrs	r3, r3, #31
 2930 003c DB07     		lsls	r3, r3, #31
 2931 003e 01D5     		bpl	.L179
 2932              		.loc 1 1134 0 is_stmt 0 discriminator 1
 2933 0040 084B     		ldr	r3, .L182+16
 2934 0042 00E0     		b	.L180
 2935              	.L179:
 2936              		.loc 1 1134 0 discriminator 2
 2937 0044 0023     		movs	r3, #0
 2938              	.L180:
 2939              		.loc 1 1134 0 discriminator 4
 2940 0046 FB60     		str	r3, [r7, #12]
 2941              	.L178:
1135:Generated_Source\PSoC6\pdl\drivers\peripheral\prot/cy_prot.c ****         CY_PROT_FAILURE : CY_PROT_SUCCESS;
1136:Generated_Source\PSoC6\pdl\drivers\peripheral\prot/cy_prot.c ****     }
1137:Generated_Source\PSoC6\pdl\drivers\peripheral\prot/cy_prot.c ****     
1138:Generated_Source\PSoC6\pdl\drivers\peripheral\prot/cy_prot.c ****     return status;
 2942              		.loc 1 1138 0 is_stmt 1
 2943 0048 FB68     		ldr	r3, [r7, #12]
1139:Generated_Source\PSoC6\pdl\drivers\peripheral\prot/cy_prot.c **** }
 2944              		.loc 1 1139 0
 2945 004a 1800     		movs	r0, r3
 2946 004c BD46     		mov	sp, r7
 2947 004e 04B0     		add	sp, sp, #16
 2948              		@ sp needed
 2949 0050 80BD     		pop	{r7, pc}
 2950              	.L183:
 2951 0052 C046     		.align	2
 2952              	.L182:
 2953 0054 0200C200 		.word	12713986
 2954 0058 67040000 		.word	1127
 2955 005c 00000000 		.word	.LC1
 2956 0060 00000000 		.word	cy_device
 2957 0064 0300C200 		.word	12713987
 2958              		.cfi_endproc
 2959              	.LFE65:
 2960              		.size	Cy_Prot_DisablePpuProgSlaveRegion, .-Cy_Prot_DisablePpuProgSlaveRegion
 2961              		.section	.text.Cy_Prot_ConfigPpuFixedMasterAtt,"ax",%progbits
 2962              		.align	2
 2963              		.global	Cy_Prot_ConfigPpuFixedMasterAtt
 2964              		.code	16
 2965              		.thumb_func
 2966              		.type	Cy_Prot_ConfigPpuFixedMasterAtt, %function
 2967              	Cy_Prot_ConfigPpuFixedMasterAtt:
ARM GAS  C:\Users\JC\AppData\Local\Temp\ccU1E72d.s 			page 74


 2968              	.LFB66:
1140:Generated_Source\PSoC6\pdl\drivers\peripheral\prot/cy_prot.c **** 
1141:Generated_Source\PSoC6\pdl\drivers\peripheral\prot/cy_prot.c **** 
1142:Generated_Source\PSoC6\pdl\drivers\peripheral\prot/cy_prot.c **** /*******************************************************************************
1143:Generated_Source\PSoC6\pdl\drivers\peripheral\prot/cy_prot.c **** * Function Name: Cy_Prot_ConfigPpuFixedMasterAtt
1144:Generated_Source\PSoC6\pdl\drivers\peripheral\prot/cy_prot.c **** ****************************************************************************//**
1145:Generated_Source\PSoC6\pdl\drivers\peripheral\prot/cy_prot.c **** *
1146:Generated_Source\PSoC6\pdl\drivers\peripheral\prot/cy_prot.c **** * Configures the protection structure with its protection attributes of the
1147:Generated_Source\PSoC6\pdl\drivers\peripheral\prot/cy_prot.c **** * Fixed Peripheral Protection Unit (PPU FIXED) master. 
1148:Generated_Source\PSoC6\pdl\drivers\peripheral\prot/cy_prot.c **** *
1149:Generated_Source\PSoC6\pdl\drivers\peripheral\prot/cy_prot.c **** * This function configures the master structure governing the corresponding slave
1150:Generated_Source\PSoC6\pdl\drivers\peripheral\prot/cy_prot.c **** * structure pair. It is a mechanism to protect the slave PPU FIXED structure.
1151:Generated_Source\PSoC6\pdl\drivers\peripheral\prot/cy_prot.c **** * The memory location of the slave structure is known, so the address, region size
1152:Generated_Source\PSoC6\pdl\drivers\peripheral\prot/cy_prot.c **** * and sub-regions of the configuration structure are not applicable.
1153:Generated_Source\PSoC6\pdl\drivers\peripheral\prot/cy_prot.c **** *
1154:Generated_Source\PSoC6\pdl\drivers\peripheral\prot/cy_prot.c **** * \note This function is applicable for CPUSS ver_2 only.
1155:Generated_Source\PSoC6\pdl\drivers\peripheral\prot/cy_prot.c **** *
1156:Generated_Source\PSoC6\pdl\drivers\peripheral\prot/cy_prot.c **** * \param base
1157:Generated_Source\PSoC6\pdl\drivers\peripheral\prot/cy_prot.c **** * The register base address of the protection structure is being configured.
1158:Generated_Source\PSoC6\pdl\drivers\peripheral\prot/cy_prot.c **** *
1159:Generated_Source\PSoC6\pdl\drivers\peripheral\prot/cy_prot.c **** * \param pcMask
1160:Generated_Source\PSoC6\pdl\drivers\peripheral\prot/cy_prot.c **** * The protection context mask. This is a 16-bit value of the allowed contexts, 
1161:Generated_Source\PSoC6\pdl\drivers\peripheral\prot/cy_prot.c **** * it is an OR'ed (|) field of the * provided defines in cy_prot.h. 
1162:Generated_Source\PSoC6\pdl\drivers\peripheral\prot/cy_prot.c **** * For example: (CY_PROT_PCMASK1 | CY_PROT_PCMASK3 | CY_PROT_PCMASK4).
1163:Generated_Source\PSoC6\pdl\drivers\peripheral\prot/cy_prot.c **** * \note The function accepts pcMask values from CY_PROT_PCMASK1 to CY_PROT_PCMASK15. 
1164:Generated_Source\PSoC6\pdl\drivers\peripheral\prot/cy_prot.c **** * But each device has its own number of available protection contexts. 
1165:Generated_Source\PSoC6\pdl\drivers\peripheral\prot/cy_prot.c **** * That number is defined by PERI_PC_NR in the config file.
1166:Generated_Source\PSoC6\pdl\drivers\peripheral\prot/cy_prot.c **** *
1167:Generated_Source\PSoC6\pdl\drivers\peripheral\prot/cy_prot.c **** * \param userPermission
1168:Generated_Source\PSoC6\pdl\drivers\peripheral\prot/cy_prot.c **** * The user permission setting. The CY_PROT_PERM_R or CY_PROT_PERM_RW values 
1169:Generated_Source\PSoC6\pdl\drivers\peripheral\prot/cy_prot.c **** * are valid for the master.
1170:Generated_Source\PSoC6\pdl\drivers\peripheral\prot/cy_prot.c **** *
1171:Generated_Source\PSoC6\pdl\drivers\peripheral\prot/cy_prot.c **** * \param privPermission
1172:Generated_Source\PSoC6\pdl\drivers\peripheral\prot/cy_prot.c **** * The privileged permission setting. The CY_PROT_PERM_R or CY_PROT_PERM_RW values 
1173:Generated_Source\PSoC6\pdl\drivers\peripheral\prot/cy_prot.c **** * are valid for the master.
1174:Generated_Source\PSoC6\pdl\drivers\peripheral\prot/cy_prot.c **** *
1175:Generated_Source\PSoC6\pdl\drivers\peripheral\prot/cy_prot.c **** * \param secure
1176:Generated_Source\PSoC6\pdl\drivers\peripheral\prot/cy_prot.c **** * The secure flag.
1177:Generated_Source\PSoC6\pdl\drivers\peripheral\prot/cy_prot.c **** * 
1178:Generated_Source\PSoC6\pdl\drivers\peripheral\prot/cy_prot.c **** * \return
1179:Generated_Source\PSoC6\pdl\drivers\peripheral\prot/cy_prot.c **** * The status of the function call.
1180:Generated_Source\PSoC6\pdl\drivers\peripheral\prot/cy_prot.c **** *
1181:Generated_Source\PSoC6\pdl\drivers\peripheral\prot/cy_prot.c **** *   Status              | Description
1182:Generated_Source\PSoC6\pdl\drivers\peripheral\prot/cy_prot.c **** * ----------------------| ---------------------------------------
1183:Generated_Source\PSoC6\pdl\drivers\peripheral\prot/cy_prot.c **** * CY_PROT_SUCCESS       | The attributes were set up.
1184:Generated_Source\PSoC6\pdl\drivers\peripheral\prot/cy_prot.c **** * CY_PROT_FAILURE       | The attributes were not setup and the structure is possibly locked.
1185:Generated_Source\PSoC6\pdl\drivers\peripheral\prot/cy_prot.c **** * CY_PROT_INVALID_STATE | The function was called on the device with an unsupported PERI HW version
1186:Generated_Source\PSoC6\pdl\drivers\peripheral\prot/cy_prot.c **** *
1187:Generated_Source\PSoC6\pdl\drivers\peripheral\prot/cy_prot.c **** * \note Only the user/privileged write permissions are configurable. The 
1188:Generated_Source\PSoC6\pdl\drivers\peripheral\prot/cy_prot.c **** * read permissions are read-only and cannot be configured.
1189:Generated_Source\PSoC6\pdl\drivers\peripheral\prot/cy_prot.c **** *
1190:Generated_Source\PSoC6\pdl\drivers\peripheral\prot/cy_prot.c **** * \note PC0 accesses are read-only and are always enabled. 
1191:Generated_Source\PSoC6\pdl\drivers\peripheral\prot/cy_prot.c **** *
1192:Generated_Source\PSoC6\pdl\drivers\peripheral\prot/cy_prot.c **** * \funcusage
1193:Generated_Source\PSoC6\pdl\drivers\peripheral\prot/cy_prot.c **** * \snippet prot/1.20/snippet/main.c snippet_Cy_Prot_ConfigPpuFixedMasterAtt
1194:Generated_Source\PSoC6\pdl\drivers\peripheral\prot/cy_prot.c **** *
1195:Generated_Source\PSoC6\pdl\drivers\peripheral\prot/cy_prot.c **** *******************************************************************************/
ARM GAS  C:\Users\JC\AppData\Local\Temp\ccU1E72d.s 			page 75


1196:Generated_Source\PSoC6\pdl\drivers\peripheral\prot/cy_prot.c **** cy_en_prot_status_t Cy_Prot_ConfigPpuFixedMasterAtt(PERI_MS_PPU_FX_Type* base, uint16_t pcMask,
1197:Generated_Source\PSoC6\pdl\drivers\peripheral\prot/cy_prot.c ****                                       cy_en_prot_perm_t userPermission, cy_en_prot_perm_t privPermi
1198:Generated_Source\PSoC6\pdl\drivers\peripheral\prot/cy_prot.c **** {
 2969              		.loc 1 1198 0
 2970              		.cfi_startproc
 2971              		@ args = 4, pretend = 0, frame = 8
 2972              		@ frame_needed = 1, uses_anonymous_args = 0
 2973 0000 90B5     		push	{r4, r7, lr}
 2974              		.cfi_def_cfa_offset 12
 2975              		.cfi_offset 4, -12
 2976              		.cfi_offset 7, -8
 2977              		.cfi_offset 14, -4
 2978 0002 85B0     		sub	sp, sp, #20
 2979              		.cfi_def_cfa_offset 32
 2980 0004 02AF     		add	r7, sp, #8
 2981              		.cfi_def_cfa 7, 24
 2982 0006 7860     		str	r0, [r7, #4]
 2983 0008 0C00     		movs	r4, r1
 2984 000a 1000     		movs	r0, r2
 2985 000c 1900     		movs	r1, r3
 2986 000e BB1C     		adds	r3, r7, #2
 2987 0010 221C     		adds	r2, r4, #0
 2988 0012 1A80     		strh	r2, [r3]
 2989 0014 7B1C     		adds	r3, r7, #1
 2990 0016 021C     		adds	r2, r0, #0
 2991 0018 1A70     		strb	r2, [r3]
 2992 001a 3B00     		movs	r3, r7
 2993 001c 0A1C     		adds	r2, r1, #0
 2994 001e 1A70     		strb	r2, [r3]
1199:Generated_Source\PSoC6\pdl\drivers\peripheral\prot/cy_prot.c ****     /* The parameter checks */
1200:Generated_Source\PSoC6\pdl\drivers\peripheral\prot/cy_prot.c ****     CY_ASSERT_L1(NULL != base);
 2995              		.loc 1 1200 0
 2996 0020 7B68     		ldr	r3, [r7, #4]
 2997 0022 002B     		cmp	r3, #0
 2998 0024 06D1     		bne	.L185
 2999              		.loc 1 1200 0 is_stmt 0 discriminator 1
 3000 0026 9623     		movs	r3, #150
 3001 0028 DA00     		lsls	r2, r3, #3
 3002 002a 1B4B     		ldr	r3, .L189
 3003 002c 1100     		movs	r1, r2
 3004 002e 1800     		movs	r0, r3
 3005 0030 FFF7FEFF 		bl	Cy_SysLib_AssertFailed
 3006              	.L185:
1201:Generated_Source\PSoC6\pdl\drivers\peripheral\prot/cy_prot.c ****     CY_ASSERT_L3(CY_PROT_IS_FIXED_MS_MS_PERM_VALID(userPermission));
 3007              		.loc 1 1201 0 is_stmt 1
 3008 0034 7B1C     		adds	r3, r7, #1
 3009 0036 1B78     		ldrb	r3, [r3]
 3010 0038 012B     		cmp	r3, #1
 3011 003a 09D0     		beq	.L186
 3012              		.loc 1 1201 0 is_stmt 0 discriminator 1
 3013 003c 7B1C     		adds	r3, r7, #1
 3014 003e 1B78     		ldrb	r3, [r3]
 3015 0040 032B     		cmp	r3, #3
 3016 0042 05D0     		beq	.L186
 3017              		.loc 1 1201 0 discriminator 2
 3018 0044 154A     		ldr	r2, .L189+4
 3019 0046 144B     		ldr	r3, .L189
ARM GAS  C:\Users\JC\AppData\Local\Temp\ccU1E72d.s 			page 76


 3020 0048 1100     		movs	r1, r2
 3021 004a 1800     		movs	r0, r3
 3022 004c FFF7FEFF 		bl	Cy_SysLib_AssertFailed
 3023              	.L186:
1202:Generated_Source\PSoC6\pdl\drivers\peripheral\prot/cy_prot.c ****     CY_ASSERT_L3(CY_PROT_IS_FIXED_MS_MS_PERM_VALID(privPermission));
 3024              		.loc 1 1202 0 is_stmt 1
 3025 0050 3B00     		movs	r3, r7
 3026 0052 1B78     		ldrb	r3, [r3]
 3027 0054 012B     		cmp	r3, #1
 3028 0056 09D0     		beq	.L187
 3029              		.loc 1 1202 0 is_stmt 0 discriminator 1
 3030 0058 3B00     		movs	r3, r7
 3031 005a 1B78     		ldrb	r3, [r3]
 3032 005c 032B     		cmp	r3, #3
 3033 005e 05D0     		beq	.L187
 3034              		.loc 1 1202 0 discriminator 2
 3035 0060 0F4A     		ldr	r2, .L189+8
 3036 0062 0D4B     		ldr	r3, .L189
 3037 0064 1100     		movs	r1, r2
 3038 0066 1800     		movs	r0, r3
 3039 0068 FFF7FEFF 		bl	Cy_SysLib_AssertFailed
 3040              	.L187:
1203:Generated_Source\PSoC6\pdl\drivers\peripheral\prot/cy_prot.c **** 
1204:Generated_Source\PSoC6\pdl\drivers\peripheral\prot/cy_prot.c ****     return (Prot_ConfigPpuAtt(PERI_MS_PPU_FX_MS_ATT(base), pcMask, userPermission, privPermission, 
 3041              		.loc 1 1204 0 is_stmt 1
 3042 006c 7B68     		ldr	r3, [r7, #4]
 3043 006e 3033     		adds	r3, r3, #48
 3044 0070 1800     		movs	r0, r3
 3045 0072 3B00     		movs	r3, r7
 3046 0074 1C78     		ldrb	r4, [r3]
 3047 0076 7B1C     		adds	r3, r7, #1
 3048 0078 1A78     		ldrb	r2, [r3]
 3049 007a BB1C     		adds	r3, r7, #2
 3050 007c 1988     		ldrh	r1, [r3]
 3051 007e 1823     		movs	r3, #24
 3052 0080 FB18     		adds	r3, r7, r3
 3053 0082 1B78     		ldrb	r3, [r3]
 3054 0084 0093     		str	r3, [sp]
 3055 0086 2300     		movs	r3, r4
 3056 0088 FFF7FEFF 		bl	Prot_ConfigPpuAtt
 3057 008c 0300     		movs	r3, r0
1205:Generated_Source\PSoC6\pdl\drivers\peripheral\prot/cy_prot.c **** }
 3058              		.loc 1 1205 0
 3059 008e 1800     		movs	r0, r3
 3060 0090 BD46     		mov	sp, r7
 3061 0092 03B0     		add	sp, sp, #12
 3062              		@ sp needed
 3063 0094 90BD     		pop	{r4, r7, pc}
 3064              	.L190:
 3065 0096 C046     		.align	2
 3066              	.L189:
 3067 0098 00000000 		.word	.LC1
 3068 009c B1040000 		.word	1201
 3069 00a0 B2040000 		.word	1202
 3070              		.cfi_endproc
 3071              	.LFE66:
 3072              		.size	Cy_Prot_ConfigPpuFixedMasterAtt, .-Cy_Prot_ConfigPpuFixedMasterAtt
ARM GAS  C:\Users\JC\AppData\Local\Temp\ccU1E72d.s 			page 77


 3073              		.section	.text.Cy_Prot_ConfigPpuFixedSlaveAtt,"ax",%progbits
 3074              		.align	2
 3075              		.global	Cy_Prot_ConfigPpuFixedSlaveAtt
 3076              		.code	16
 3077              		.thumb_func
 3078              		.type	Cy_Prot_ConfigPpuFixedSlaveAtt, %function
 3079              	Cy_Prot_ConfigPpuFixedSlaveAtt:
 3080              	.LFB67:
1206:Generated_Source\PSoC6\pdl\drivers\peripheral\prot/cy_prot.c **** 
1207:Generated_Source\PSoC6\pdl\drivers\peripheral\prot/cy_prot.c **** 
1208:Generated_Source\PSoC6\pdl\drivers\peripheral\prot/cy_prot.c **** /*******************************************************************************
1209:Generated_Source\PSoC6\pdl\drivers\peripheral\prot/cy_prot.c **** * Function Name: Cy_Prot_ConfigPpuFixedSlaveAtt
1210:Generated_Source\PSoC6\pdl\drivers\peripheral\prot/cy_prot.c **** ****************************************************************************//**
1211:Generated_Source\PSoC6\pdl\drivers\peripheral\prot/cy_prot.c **** *
1212:Generated_Source\PSoC6\pdl\drivers\peripheral\prot/cy_prot.c **** * Configures the protection structure with its protection attributes of
1213:Generated_Source\PSoC6\pdl\drivers\peripheral\prot/cy_prot.c **** * the Fixed Peripheral Protection Unit (PPU FIXED) slave. 
1214:Generated_Source\PSoC6\pdl\drivers\peripheral\prot/cy_prot.c **** * 
1215:Generated_Source\PSoC6\pdl\drivers\peripheral\prot/cy_prot.c **** * This function configures the slave structure of the PPU FIXED pair, which can 
1216:Generated_Source\PSoC6\pdl\drivers\peripheral\prot/cy_prot.c **** * protect any peripheral memory region in a device from invalid bus-master 
1217:Generated_Source\PSoC6\pdl\drivers\peripheral\prot/cy_prot.c **** * access.
1218:Generated_Source\PSoC6\pdl\drivers\peripheral\prot/cy_prot.c **** *
1219:Generated_Source\PSoC6\pdl\drivers\peripheral\prot/cy_prot.c **** * \note This function is applicable for CPUSS ver_2 only.
1220:Generated_Source\PSoC6\pdl\drivers\peripheral\prot/cy_prot.c **** *
1221:Generated_Source\PSoC6\pdl\drivers\peripheral\prot/cy_prot.c **** * \param base
1222:Generated_Source\PSoC6\pdl\drivers\peripheral\prot/cy_prot.c **** * The register base address of the protection structure is being configured.
1223:Generated_Source\PSoC6\pdl\drivers\peripheral\prot/cy_prot.c **** *
1224:Generated_Source\PSoC6\pdl\drivers\peripheral\prot/cy_prot.c **** * \param pcMask
1225:Generated_Source\PSoC6\pdl\drivers\peripheral\prot/cy_prot.c **** * The protection context mask. This is a 16-bit value of the allowed contexts, 
1226:Generated_Source\PSoC6\pdl\drivers\peripheral\prot/cy_prot.c **** * it is an OR'ed (|) field of the * provided defines in cy_prot.h. 
1227:Generated_Source\PSoC6\pdl\drivers\peripheral\prot/cy_prot.c **** * For example: (CY_PROT_PCMASK1 | CY_PROT_PCMASK3 | CY_PROT_PCMASK4).
1228:Generated_Source\PSoC6\pdl\drivers\peripheral\prot/cy_prot.c **** * \note The function accepts pcMask values from CY_PROT_PCMASK1 to CY_PROT_PCMASK15. 
1229:Generated_Source\PSoC6\pdl\drivers\peripheral\prot/cy_prot.c **** * But each device has its own number of available protection contexts. 
1230:Generated_Source\PSoC6\pdl\drivers\peripheral\prot/cy_prot.c **** * That number is defined by PERI_PC_NR in the config file.
1231:Generated_Source\PSoC6\pdl\drivers\peripheral\prot/cy_prot.c **** *
1232:Generated_Source\PSoC6\pdl\drivers\peripheral\prot/cy_prot.c **** * \param userPermission
1233:Generated_Source\PSoC6\pdl\drivers\peripheral\prot/cy_prot.c **** * The user permission setting.
1234:Generated_Source\PSoC6\pdl\drivers\peripheral\prot/cy_prot.c **** *
1235:Generated_Source\PSoC6\pdl\drivers\peripheral\prot/cy_prot.c **** * \param privPermission
1236:Generated_Source\PSoC6\pdl\drivers\peripheral\prot/cy_prot.c **** * The privileged permission setting.
1237:Generated_Source\PSoC6\pdl\drivers\peripheral\prot/cy_prot.c **** *
1238:Generated_Source\PSoC6\pdl\drivers\peripheral\prot/cy_prot.c **** * \param secure
1239:Generated_Source\PSoC6\pdl\drivers\peripheral\prot/cy_prot.c **** * The secure flag.
1240:Generated_Source\PSoC6\pdl\drivers\peripheral\prot/cy_prot.c **** * 
1241:Generated_Source\PSoC6\pdl\drivers\peripheral\prot/cy_prot.c **** * \return
1242:Generated_Source\PSoC6\pdl\drivers\peripheral\prot/cy_prot.c **** * The status of the function call.
1243:Generated_Source\PSoC6\pdl\drivers\peripheral\prot/cy_prot.c **** *
1244:Generated_Source\PSoC6\pdl\drivers\peripheral\prot/cy_prot.c **** *   Status              | Description
1245:Generated_Source\PSoC6\pdl\drivers\peripheral\prot/cy_prot.c **** * ----------------------| ---------------------------------------
1246:Generated_Source\PSoC6\pdl\drivers\peripheral\prot/cy_prot.c **** * CY_PROT_SUCCESS       | The attributes were set up.
1247:Generated_Source\PSoC6\pdl\drivers\peripheral\prot/cy_prot.c **** * CY_PROT_FAILURE       | The attributes were not setup and the structure is possibly locked.
1248:Generated_Source\PSoC6\pdl\drivers\peripheral\prot/cy_prot.c **** * CY_PROT_INVALID_STATE | The function was called on the device with an unsupported PERI HW version
1249:Generated_Source\PSoC6\pdl\drivers\peripheral\prot/cy_prot.c **** *
1250:Generated_Source\PSoC6\pdl\drivers\peripheral\prot/cy_prot.c **** * \note PC0 accesses are read-only and are always enabled. 
1251:Generated_Source\PSoC6\pdl\drivers\peripheral\prot/cy_prot.c **** *
1252:Generated_Source\PSoC6\pdl\drivers\peripheral\prot/cy_prot.c **** * \funcusage
1253:Generated_Source\PSoC6\pdl\drivers\peripheral\prot/cy_prot.c **** * \snippet prot/1.20/snippet/main.c snippet_Cy_Prot_ConfigPpuFixedSlaveAtt
1254:Generated_Source\PSoC6\pdl\drivers\peripheral\prot/cy_prot.c **** *
ARM GAS  C:\Users\JC\AppData\Local\Temp\ccU1E72d.s 			page 78


1255:Generated_Source\PSoC6\pdl\drivers\peripheral\prot/cy_prot.c **** *******************************************************************************/
1256:Generated_Source\PSoC6\pdl\drivers\peripheral\prot/cy_prot.c **** cy_en_prot_status_t Cy_Prot_ConfigPpuFixedSlaveAtt(PERI_MS_PPU_FX_Type* base, uint16_t pcMask, 
1257:Generated_Source\PSoC6\pdl\drivers\peripheral\prot/cy_prot.c ****                            cy_en_prot_perm_t userPermission, cy_en_prot_perm_t privPermission, bool
1258:Generated_Source\PSoC6\pdl\drivers\peripheral\prot/cy_prot.c **** {
 3081              		.loc 1 1258 0
 3082              		.cfi_startproc
 3083              		@ args = 4, pretend = 0, frame = 8
 3084              		@ frame_needed = 1, uses_anonymous_args = 0
 3085 0000 90B5     		push	{r4, r7, lr}
 3086              		.cfi_def_cfa_offset 12
 3087              		.cfi_offset 4, -12
 3088              		.cfi_offset 7, -8
 3089              		.cfi_offset 14, -4
 3090 0002 85B0     		sub	sp, sp, #20
 3091              		.cfi_def_cfa_offset 32
 3092 0004 02AF     		add	r7, sp, #8
 3093              		.cfi_def_cfa 7, 24
 3094 0006 7860     		str	r0, [r7, #4]
 3095 0008 0C00     		movs	r4, r1
 3096 000a 1000     		movs	r0, r2
 3097 000c 1900     		movs	r1, r3
 3098 000e BB1C     		adds	r3, r7, #2
 3099 0010 221C     		adds	r2, r4, #0
 3100 0012 1A80     		strh	r2, [r3]
 3101 0014 7B1C     		adds	r3, r7, #1
 3102 0016 021C     		adds	r2, r0, #0
 3103 0018 1A70     		strb	r2, [r3]
 3104 001a 3B00     		movs	r3, r7
 3105 001c 0A1C     		adds	r2, r1, #0
 3106 001e 1A70     		strb	r2, [r3]
1259:Generated_Source\PSoC6\pdl\drivers\peripheral\prot/cy_prot.c ****     /* The parameter checks */
1260:Generated_Source\PSoC6\pdl\drivers\peripheral\prot/cy_prot.c ****     CY_ASSERT_L1(NULL != base);
 3107              		.loc 1 1260 0
 3108 0020 7B68     		ldr	r3, [r7, #4]
 3109 0022 002B     		cmp	r3, #0
 3110 0024 05D1     		bne	.L192
 3111              		.loc 1 1260 0 is_stmt 0 discriminator 1
 3112 0026 234A     		ldr	r2, .L196
 3113 0028 234B     		ldr	r3, .L196+4
 3114 002a 1100     		movs	r1, r2
 3115 002c 1800     		movs	r0, r3
 3116 002e FFF7FEFF 		bl	Cy_SysLib_AssertFailed
 3117              	.L192:
1261:Generated_Source\PSoC6\pdl\drivers\peripheral\prot/cy_prot.c ****     CY_ASSERT_L3(CY_PROT_IS_FIXED_MS_PERM_VALID(userPermission));
 3118              		.loc 1 1261 0 is_stmt 1
 3119 0032 7B1C     		adds	r3, r7, #1
 3120 0034 1B78     		ldrb	r3, [r3]
 3121 0036 002B     		cmp	r3, #0
 3122 0038 11D0     		beq	.L193
 3123              		.loc 1 1261 0 is_stmt 0 discriminator 1
 3124 003a 7B1C     		adds	r3, r7, #1
 3125 003c 1B78     		ldrb	r3, [r3]
 3126 003e 012B     		cmp	r3, #1
 3127 0040 0DD0     		beq	.L193
 3128              		.loc 1 1261 0 discriminator 2
 3129 0042 7B1C     		adds	r3, r7, #1
 3130 0044 1B78     		ldrb	r3, [r3]
ARM GAS  C:\Users\JC\AppData\Local\Temp\ccU1E72d.s 			page 79


 3131 0046 022B     		cmp	r3, #2
 3132 0048 09D0     		beq	.L193
 3133              		.loc 1 1261 0 discriminator 3
 3134 004a 7B1C     		adds	r3, r7, #1
 3135 004c 1B78     		ldrb	r3, [r3]
 3136 004e 032B     		cmp	r3, #3
 3137 0050 05D0     		beq	.L193
 3138              		.loc 1 1261 0 discriminator 4
 3139 0052 1A4A     		ldr	r2, .L196+8
 3140 0054 184B     		ldr	r3, .L196+4
 3141 0056 1100     		movs	r1, r2
 3142 0058 1800     		movs	r0, r3
 3143 005a FFF7FEFF 		bl	Cy_SysLib_AssertFailed
 3144              	.L193:
1262:Generated_Source\PSoC6\pdl\drivers\peripheral\prot/cy_prot.c ****     CY_ASSERT_L3(CY_PROT_IS_FIXED_MS_PERM_VALID(privPermission));
 3145              		.loc 1 1262 0 is_stmt 1
 3146 005e 3B00     		movs	r3, r7
 3147 0060 1B78     		ldrb	r3, [r3]
 3148 0062 002B     		cmp	r3, #0
 3149 0064 11D0     		beq	.L194
 3150              		.loc 1 1262 0 is_stmt 0 discriminator 1
 3151 0066 3B00     		movs	r3, r7
 3152 0068 1B78     		ldrb	r3, [r3]
 3153 006a 012B     		cmp	r3, #1
 3154 006c 0DD0     		beq	.L194
 3155              		.loc 1 1262 0 discriminator 2
 3156 006e 3B00     		movs	r3, r7
 3157 0070 1B78     		ldrb	r3, [r3]
 3158 0072 022B     		cmp	r3, #2
 3159 0074 09D0     		beq	.L194
 3160              		.loc 1 1262 0 discriminator 3
 3161 0076 3B00     		movs	r3, r7
 3162 0078 1B78     		ldrb	r3, [r3]
 3163 007a 032B     		cmp	r3, #3
 3164 007c 05D0     		beq	.L194
 3165              		.loc 1 1262 0 discriminator 4
 3166 007e 104A     		ldr	r2, .L196+12
 3167 0080 0D4B     		ldr	r3, .L196+4
 3168 0082 1100     		movs	r1, r2
 3169 0084 1800     		movs	r0, r3
 3170 0086 FFF7FEFF 		bl	Cy_SysLib_AssertFailed
 3171              	.L194:
1263:Generated_Source\PSoC6\pdl\drivers\peripheral\prot/cy_prot.c **** 
1264:Generated_Source\PSoC6\pdl\drivers\peripheral\prot/cy_prot.c ****     return (Prot_ConfigPpuAtt(PERI_MS_PPU_FX_SL_ATT(base), pcMask, userPermission, privPermission, 
 3172              		.loc 1 1264 0 is_stmt 1
 3173 008a 7B68     		ldr	r3, [r7, #4]
 3174 008c 1033     		adds	r3, r3, #16
 3175 008e 1800     		movs	r0, r3
 3176 0090 3B00     		movs	r3, r7
 3177 0092 1C78     		ldrb	r4, [r3]
 3178 0094 7B1C     		adds	r3, r7, #1
 3179 0096 1A78     		ldrb	r2, [r3]
 3180 0098 BB1C     		adds	r3, r7, #2
 3181 009a 1988     		ldrh	r1, [r3]
 3182 009c 1823     		movs	r3, #24
 3183 009e FB18     		adds	r3, r7, r3
 3184 00a0 1B78     		ldrb	r3, [r3]
ARM GAS  C:\Users\JC\AppData\Local\Temp\ccU1E72d.s 			page 80


 3185 00a2 0093     		str	r3, [sp]
 3186 00a4 2300     		movs	r3, r4
 3187 00a6 FFF7FEFF 		bl	Prot_ConfigPpuAtt
 3188 00aa 0300     		movs	r3, r0
1265:Generated_Source\PSoC6\pdl\drivers\peripheral\prot/cy_prot.c **** }
 3189              		.loc 1 1265 0
 3190 00ac 1800     		movs	r0, r3
 3191 00ae BD46     		mov	sp, r7
 3192 00b0 03B0     		add	sp, sp, #12
 3193              		@ sp needed
 3194 00b2 90BD     		pop	{r4, r7, pc}
 3195              	.L197:
 3196              		.align	2
 3197              	.L196:
 3198 00b4 EC040000 		.word	1260
 3199 00b8 00000000 		.word	.LC1
 3200 00bc ED040000 		.word	1261
 3201 00c0 EE040000 		.word	1262
 3202              		.cfi_endproc
 3203              	.LFE67:
 3204              		.size	Cy_Prot_ConfigPpuFixedSlaveAtt, .-Cy_Prot_ConfigPpuFixedSlaveAtt
 3205              		.section	.text.Cy_Prot_ConfigPpuProgMasterStruct,"ax",%progbits
 3206              		.align	2
 3207              		.global	Cy_Prot_ConfigPpuProgMasterStruct
 3208              		.code	16
 3209              		.thumb_func
 3210              		.type	Cy_Prot_ConfigPpuProgMasterStruct, %function
 3211              	Cy_Prot_ConfigPpuProgMasterStruct:
 3212              	.LFB68:
1266:Generated_Source\PSoC6\pdl\drivers\peripheral\prot/cy_prot.c **** 
1267:Generated_Source\PSoC6\pdl\drivers\peripheral\prot/cy_prot.c **** 
1268:Generated_Source\PSoC6\pdl\drivers\peripheral\prot/cy_prot.c **** /*******************************************************************************
1269:Generated_Source\PSoC6\pdl\drivers\peripheral\prot/cy_prot.c **** * Function Name: Cy_Prot_ConfigPpuProgMasterStruct
1270:Generated_Source\PSoC6\pdl\drivers\peripheral\prot/cy_prot.c **** ****************************************************************************//**
1271:Generated_Source\PSoC6\pdl\drivers\peripheral\prot/cy_prot.c **** *
1272:Generated_Source\PSoC6\pdl\drivers\peripheral\prot/cy_prot.c **** * Configures a Programmable Peripheral Protection Unit (PPU PROG) master 
1273:Generated_Source\PSoC6\pdl\drivers\peripheral\prot/cy_prot.c **** * protection struct with its protection attributes. 
1274:Generated_Source\PSoC6\pdl\drivers\peripheral\prot/cy_prot.c **** *
1275:Generated_Source\PSoC6\pdl\drivers\peripheral\prot/cy_prot.c **** * This function configures the master struct governing the corresponding slave
1276:Generated_Source\PSoC6\pdl\drivers\peripheral\prot/cy_prot.c **** * struct pair. It is a mechanism to protect the slave PPU PROG struct. Since
1277:Generated_Source\PSoC6\pdl\drivers\peripheral\prot/cy_prot.c **** * the memory location of the slave struct is known, the address, regionSize and
1278:Generated_Source\PSoC6\pdl\drivers\peripheral\prot/cy_prot.c **** * subregions of the configuration struct are not applicable.
1279:Generated_Source\PSoC6\pdl\drivers\peripheral\prot/cy_prot.c **** *
1280:Generated_Source\PSoC6\pdl\drivers\peripheral\prot/cy_prot.c **** * Note that only the user/privileged write permissions are configurable. The 
1281:Generated_Source\PSoC6\pdl\drivers\peripheral\prot/cy_prot.c **** * read and execute permissions are read-only and cannot be configured.
1282:Generated_Source\PSoC6\pdl\drivers\peripheral\prot/cy_prot.c **** *
1283:Generated_Source\PSoC6\pdl\drivers\peripheral\prot/cy_prot.c **** * \note This function is applicable for CPUSS ver_1 only.
1284:Generated_Source\PSoC6\pdl\drivers\peripheral\prot/cy_prot.c **** *
1285:Generated_Source\PSoC6\pdl\drivers\peripheral\prot/cy_prot.c **** * \param base
1286:Generated_Source\PSoC6\pdl\drivers\peripheral\prot/cy_prot.c **** * The register base address of the protection struct being configured.
1287:Generated_Source\PSoC6\pdl\drivers\peripheral\prot/cy_prot.c **** * 
1288:Generated_Source\PSoC6\pdl\drivers\peripheral\prot/cy_prot.c **** * \param config
1289:Generated_Source\PSoC6\pdl\drivers\peripheral\prot/cy_prot.c **** * Initialization structure with all the protection attributes.
1290:Generated_Source\PSoC6\pdl\drivers\peripheral\prot/cy_prot.c **** * 
1291:Generated_Source\PSoC6\pdl\drivers\peripheral\prot/cy_prot.c **** * \return
1292:Generated_Source\PSoC6\pdl\drivers\peripheral\prot/cy_prot.c **** * Status of the function call.
1293:Generated_Source\PSoC6\pdl\drivers\peripheral\prot/cy_prot.c **** *
ARM GAS  C:\Users\JC\AppData\Local\Temp\ccU1E72d.s 			page 81


1294:Generated_Source\PSoC6\pdl\drivers\peripheral\prot/cy_prot.c **** *  Status                | Description
1295:Generated_Source\PSoC6\pdl\drivers\peripheral\prot/cy_prot.c **** *  ------------          | -----------
1296:Generated_Source\PSoC6\pdl\drivers\peripheral\prot/cy_prot.c **** *  CY_PROT_SUCCESS       | PPU PROG master struct was successfully configured.
1297:Generated_Source\PSoC6\pdl\drivers\peripheral\prot/cy_prot.c **** *  CY_PROT_FAILURE       | The resource is locked.
1298:Generated_Source\PSoC6\pdl\drivers\peripheral\prot/cy_prot.c **** *  CY_PROT_BAD_PARAM     | An incorrect/invalid parameter was passed.
1299:Generated_Source\PSoC6\pdl\drivers\peripheral\prot/cy_prot.c **** *  CY_PROT_INVALID_STATE | The function was called on the device with an unsupported PERI HW versio
1300:Generated_Source\PSoC6\pdl\drivers\peripheral\prot/cy_prot.c **** *
1301:Generated_Source\PSoC6\pdl\drivers\peripheral\prot/cy_prot.c **** * \funcusage
1302:Generated_Source\PSoC6\pdl\drivers\peripheral\prot/cy_prot.c **** * \snippet prot/1.20/snippet/main.c snippet_Cy_Prot_ConfigPpuProgMasterStruct
1303:Generated_Source\PSoC6\pdl\drivers\peripheral\prot/cy_prot.c **** *
1304:Generated_Source\PSoC6\pdl\drivers\peripheral\prot/cy_prot.c **** *******************************************************************************/
1305:Generated_Source\PSoC6\pdl\drivers\peripheral\prot/cy_prot.c **** cy_en_prot_status_t Cy_Prot_ConfigPpuProgMasterStruct(PERI_PPU_PR_Type* base, const cy_stc_ppu_prog
1306:Generated_Source\PSoC6\pdl\drivers\peripheral\prot/cy_prot.c **** {
 3213              		.loc 1 1306 0
 3214              		.cfi_startproc
 3215              		@ args = 0, pretend = 0, frame = 16
 3216              		@ frame_needed = 1, uses_anonymous_args = 0
 3217 0000 80B5     		push	{r7, lr}
 3218              		.cfi_def_cfa_offset 8
 3219              		.cfi_offset 7, -8
 3220              		.cfi_offset 14, -4
 3221 0002 84B0     		sub	sp, sp, #16
 3222              		.cfi_def_cfa_offset 24
 3223 0004 00AF     		add	r7, sp, #0
 3224              		.cfi_def_cfa_register 7
 3225 0006 7860     		str	r0, [r7, #4]
 3226 0008 3960     		str	r1, [r7]
1307:Generated_Source\PSoC6\pdl\drivers\peripheral\prot/cy_prot.c ****     cy_en_prot_status_t status = CY_PROT_INVALID_STATE;
 3227              		.loc 1 1307 0
 3228 000a 3B4B     		ldr	r3, .L208
 3229 000c FB60     		str	r3, [r7, #12]
1308:Generated_Source\PSoC6\pdl\drivers\peripheral\prot/cy_prot.c ****     uint32_t attReg;
1309:Generated_Source\PSoC6\pdl\drivers\peripheral\prot/cy_prot.c ****     
1310:Generated_Source\PSoC6\pdl\drivers\peripheral\prot/cy_prot.c ****     CY_ASSERT_L1(NULL != base);
 3230              		.loc 1 1310 0
 3231 000e 7B68     		ldr	r3, [r7, #4]
 3232 0010 002B     		cmp	r3, #0
 3233 0012 05D1     		bne	.L199
 3234              		.loc 1 1310 0 is_stmt 0 discriminator 1
 3235 0014 394A     		ldr	r2, .L208+4
 3236 0016 3A4B     		ldr	r3, .L208+8
 3237 0018 1100     		movs	r1, r2
 3238 001a 1800     		movs	r0, r3
 3239 001c FFF7FEFF 		bl	Cy_SysLib_AssertFailed
 3240              	.L199:
1311:Generated_Source\PSoC6\pdl\drivers\peripheral\prot/cy_prot.c ****     CY_ASSERT_L3(CY_PROT_IS_PROG_MS_PERM_VALID(config->userPermission));
 3241              		.loc 1 1311 0 is_stmt 1
 3242 0020 3B68     		ldr	r3, [r7]
 3243 0022 9B79     		ldrb	r3, [r3, #6]
 3244 0024 012B     		cmp	r3, #1
 3245 0026 09D0     		beq	.L200
 3246              		.loc 1 1311 0 is_stmt 0 discriminator 1
 3247 0028 3B68     		ldr	r3, [r7]
 3248 002a 9B79     		ldrb	r3, [r3, #6]
 3249 002c 032B     		cmp	r3, #3
 3250 002e 05D0     		beq	.L200
 3251              		.loc 1 1311 0 discriminator 2
ARM GAS  C:\Users\JC\AppData\Local\Temp\ccU1E72d.s 			page 82


 3252 0030 344A     		ldr	r2, .L208+12
 3253 0032 334B     		ldr	r3, .L208+8
 3254 0034 1100     		movs	r1, r2
 3255 0036 1800     		movs	r0, r3
 3256 0038 FFF7FEFF 		bl	Cy_SysLib_AssertFailed
 3257              	.L200:
1312:Generated_Source\PSoC6\pdl\drivers\peripheral\prot/cy_prot.c ****     CY_ASSERT_L3(CY_PROT_IS_PROG_MS_PERM_VALID(config->privPermission));
 3258              		.loc 1 1312 0 is_stmt 1
 3259 003c 3B68     		ldr	r3, [r7]
 3260 003e DB79     		ldrb	r3, [r3, #7]
 3261 0040 012B     		cmp	r3, #1
 3262 0042 0AD0     		beq	.L201
 3263              		.loc 1 1312 0 is_stmt 0 discriminator 1
 3264 0044 3B68     		ldr	r3, [r7]
 3265 0046 DB79     		ldrb	r3, [r3, #7]
 3266 0048 032B     		cmp	r3, #3
 3267 004a 06D0     		beq	.L201
 3268              		.loc 1 1312 0 discriminator 2
 3269 004c A423     		movs	r3, #164
 3270 004e DA00     		lsls	r2, r3, #3
 3271 0050 2B4B     		ldr	r3, .L208+8
 3272 0052 1100     		movs	r1, r2
 3273 0054 1800     		movs	r0, r3
 3274 0056 FFF7FEFF 		bl	Cy_SysLib_AssertFailed
 3275              	.L201:
1313:Generated_Source\PSoC6\pdl\drivers\peripheral\prot/cy_prot.c ****     
1314:Generated_Source\PSoC6\pdl\drivers\peripheral\prot/cy_prot.c ****     if (CY_PERI_V1)
 3276              		.loc 1 1314 0 is_stmt 1
 3277 005a 2B4B     		ldr	r3, .L208+16
 3278 005c 1B68     		ldr	r3, [r3]
 3279 005e 2F22     		movs	r2, #47
 3280 0060 9B5C     		ldrb	r3, [r3, r2]
 3281 0062 012B     		cmp	r3, #1
 3282 0064 42D1     		bne	.L202
1315:Generated_Source\PSoC6\pdl\drivers\peripheral\prot/cy_prot.c ****     {
1316:Generated_Source\PSoC6\pdl\drivers\peripheral\prot/cy_prot.c ****         if(((uint32_t)config->pcMask & CY_PROT_PPU_PROG_PC_LIMIT_MASK) != 0UL) 
 3283              		.loc 1 1316 0
 3284 0066 3B68     		ldr	r3, [r7]
 3285 0068 5B89     		ldrh	r3, [r3, #10]
 3286 006a 1A00     		movs	r2, r3
 3287 006c 7F23     		movs	r3, #127
 3288 006e 9A43     		bics	r2, r3
 3289 0070 131E     		subs	r3, r2, #0
 3290 0072 02D0     		beq	.L203
1317:Generated_Source\PSoC6\pdl\drivers\peripheral\prot/cy_prot.c ****         {
1318:Generated_Source\PSoC6\pdl\drivers\peripheral\prot/cy_prot.c ****             /* PC mask out of range - not supported in device */
1319:Generated_Source\PSoC6\pdl\drivers\peripheral\prot/cy_prot.c ****             status = CY_PROT_BAD_PARAM;
 3291              		.loc 1 1319 0
 3292 0074 254B     		ldr	r3, .L208+20
 3293 0076 FB60     		str	r3, [r7, #12]
 3294 0078 38E0     		b	.L202
 3295              	.L203:
1320:Generated_Source\PSoC6\pdl\drivers\peripheral\prot/cy_prot.c ****         }
1321:Generated_Source\PSoC6\pdl\drivers\peripheral\prot/cy_prot.c ****         else
1322:Generated_Source\PSoC6\pdl\drivers\peripheral\prot/cy_prot.c ****         {
1323:Generated_Source\PSoC6\pdl\drivers\peripheral\prot/cy_prot.c ****             /* ADDR1 is read only. Only configure ATT1 */
1324:Generated_Source\PSoC6\pdl\drivers\peripheral\prot/cy_prot.c ****             attReg = ((uint32_t)config->userPermission & CY_PROT_ATT_PERMISSION_MASK)
ARM GAS  C:\Users\JC\AppData\Local\Temp\ccU1E72d.s 			page 83


 3296              		.loc 1 1324 0
 3297 007a 3B68     		ldr	r3, [r7]
 3298 007c 9B79     		ldrb	r3, [r3, #6]
 3299 007e 1A00     		movs	r2, r3
 3300 0080 0723     		movs	r3, #7
 3301 0082 1A40     		ands	r2, r3
1325:Generated_Source\PSoC6\pdl\drivers\peripheral\prot/cy_prot.c ****                         | (uint32_t)(((uint32_t)config->privPermission & CY_PROT_ATT_PERMISSION_MAS
 3302              		.loc 1 1325 0
 3303 0084 3B68     		ldr	r3, [r7]
 3304 0086 DB79     		ldrb	r3, [r3, #7]
 3305 0088 DB00     		lsls	r3, r3, #3
 3306 008a 3821     		movs	r1, #56
 3307 008c 0B40     		ands	r3, r1
 3308 008e 1A43     		orrs	r2, r3
1326:Generated_Source\PSoC6\pdl\drivers\peripheral\prot/cy_prot.c ****                         | _VAL2FLD(PERI_PPU_PR_ATT1_NS, !(config->secure))
 3309              		.loc 1 1326 0
 3310 0090 3B68     		ldr	r3, [r7]
 3311 0092 1B7A     		ldrb	r3, [r3, #8]
 3312 0094 0121     		movs	r1, #1
 3313 0096 4B40     		eors	r3, r1
 3314 0098 DBB2     		uxtb	r3, r3
 3315 009a 9B01     		lsls	r3, r3, #6
 3316 009c 4021     		movs	r1, #64
 3317 009e 0B40     		ands	r3, r1
 3318 00a0 1A43     		orrs	r2, r3
1327:Generated_Source\PSoC6\pdl\drivers\peripheral\prot/cy_prot.c ****                         | _VAL2FLD(PERI_PPU_PR_ATT1_PC_MASK_15_TO_1, config->pcMask)
 3319              		.loc 1 1327 0
 3320 00a2 3B68     		ldr	r3, [r7]
 3321 00a4 5B89     		ldrh	r3, [r3, #10]
 3322 00a6 5B02     		lsls	r3, r3, #9
 3323 00a8 1949     		ldr	r1, .L208+24
 3324 00aa 0B40     		ands	r3, r1
 3325 00ac 1A43     		orrs	r2, r3
1328:Generated_Source\PSoC6\pdl\drivers\peripheral\prot/cy_prot.c ****                         /* No region size - read only for master structs */
1329:Generated_Source\PSoC6\pdl\drivers\peripheral\prot/cy_prot.c ****                         | _VAL2FLD(PERI_PPU_PR_ATT1_PC_MATCH, config->pcMatch);
 3326              		.loc 1 1329 0
 3327 00ae 3B68     		ldr	r3, [r7]
 3328 00b0 5B7A     		ldrb	r3, [r3, #9]
 3329 00b2 9907     		lsls	r1, r3, #30
 3330 00b4 8023     		movs	r3, #128
 3331 00b6 DB05     		lsls	r3, r3, #23
 3332 00b8 0B40     		ands	r3, r1
1324:Generated_Source\PSoC6\pdl\drivers\peripheral\prot/cy_prot.c ****                         | (uint32_t)(((uint32_t)config->privPermission & CY_PROT_ATT_PERMISSION_MAS
 3333              		.loc 1 1324 0
 3334 00ba 1343     		orrs	r3, r2
 3335 00bc BB60     		str	r3, [r7, #8]
1330:Generated_Source\PSoC6\pdl\drivers\peripheral\prot/cy_prot.c ****             if ((attReg & CY_PROT_PPU_PROG_ATT1_MASK) != attReg)
 3336              		.loc 1 1330 0
 3337 00be BB68     		ldr	r3, [r7, #8]
 3338 00c0 144A     		ldr	r2, .L208+28
 3339 00c2 1A40     		ands	r2, r3
 3340 00c4 BB68     		ldr	r3, [r7, #8]
 3341 00c6 9A42     		cmp	r2, r3
 3342 00c8 02D0     		beq	.L204
1331:Generated_Source\PSoC6\pdl\drivers\peripheral\prot/cy_prot.c ****             {
1332:Generated_Source\PSoC6\pdl\drivers\peripheral\prot/cy_prot.c ****                 /* Invalid parameter was passed */
1333:Generated_Source\PSoC6\pdl\drivers\peripheral\prot/cy_prot.c ****                 status = CY_PROT_BAD_PARAM;
ARM GAS  C:\Users\JC\AppData\Local\Temp\ccU1E72d.s 			page 84


 3343              		.loc 1 1333 0
 3344 00ca 104B     		ldr	r3, .L208+20
 3345 00cc FB60     		str	r3, [r7, #12]
 3346 00ce 0DE0     		b	.L202
 3347              	.L204:
1334:Generated_Source\PSoC6\pdl\drivers\peripheral\prot/cy_prot.c ****             }
1335:Generated_Source\PSoC6\pdl\drivers\peripheral\prot/cy_prot.c ****             else
1336:Generated_Source\PSoC6\pdl\drivers\peripheral\prot/cy_prot.c ****             {
1337:Generated_Source\PSoC6\pdl\drivers\peripheral\prot/cy_prot.c ****                 PERI_PPU_PR_ATT1(base) = attReg;
 3348              		.loc 1 1337 0
 3349 00d0 7B68     		ldr	r3, [r7, #4]
 3350 00d2 BA68     		ldr	r2, [r7, #8]
 3351 00d4 5A62     		str	r2, [r3, #36]
1338:Generated_Source\PSoC6\pdl\drivers\peripheral\prot/cy_prot.c ****                 status = ((PERI_PPU_PR_ATT1(base) & CY_PROT_PPU_PROG_ATT1_MASK) != attReg) ? CY_PRO
 3352              		.loc 1 1338 0
 3353 00d6 7B68     		ldr	r3, [r7, #4]
 3354 00d8 5B6A     		ldr	r3, [r3, #36]
 3355 00da 0E4A     		ldr	r2, .L208+28
 3356 00dc 1A40     		ands	r2, r3
 3357 00de BB68     		ldr	r3, [r7, #8]
 3358 00e0 9A42     		cmp	r2, r3
 3359 00e2 01D0     		beq	.L205
 3360              		.loc 1 1338 0 is_stmt 0 discriminator 1
 3361 00e4 0C4B     		ldr	r3, .L208+32
 3362 00e6 00E0     		b	.L206
 3363              	.L205:
 3364              		.loc 1 1338 0 discriminator 2
 3365 00e8 0023     		movs	r3, #0
 3366              	.L206:
 3367              		.loc 1 1338 0 discriminator 4
 3368 00ea FB60     		str	r3, [r7, #12]
 3369              	.L202:
1339:Generated_Source\PSoC6\pdl\drivers\peripheral\prot/cy_prot.c ****             }
1340:Generated_Source\PSoC6\pdl\drivers\peripheral\prot/cy_prot.c ****         }
1341:Generated_Source\PSoC6\pdl\drivers\peripheral\prot/cy_prot.c ****     }
1342:Generated_Source\PSoC6\pdl\drivers\peripheral\prot/cy_prot.c **** 
1343:Generated_Source\PSoC6\pdl\drivers\peripheral\prot/cy_prot.c ****     return status;
 3370              		.loc 1 1343 0 is_stmt 1
 3371 00ec FB68     		ldr	r3, [r7, #12]
1344:Generated_Source\PSoC6\pdl\drivers\peripheral\prot/cy_prot.c **** }
 3372              		.loc 1 1344 0
 3373 00ee 1800     		movs	r0, r3
 3374 00f0 BD46     		mov	sp, r7
 3375 00f2 04B0     		add	sp, sp, #16
 3376              		@ sp needed
 3377 00f4 80BD     		pop	{r7, pc}
 3378              	.L209:
 3379 00f6 C046     		.align	2
 3380              	.L208:
 3381 00f8 0200C200 		.word	12713986
 3382 00fc 1E050000 		.word	1310
 3383 0100 00000000 		.word	.LC1
 3384 0104 1F050000 		.word	1311
 3385 0108 00000000 		.word	cy_device
 3386 010c 0100C200 		.word	12713985
 3387 0110 00FEFF00 		.word	16776704
 3388 0114 DBFEFFE0 		.word	-520093989
ARM GAS  C:\Users\JC\AppData\Local\Temp\ccU1E72d.s 			page 85


 3389 0118 0300C200 		.word	12713987
 3390              		.cfi_endproc
 3391              	.LFE68:
 3392              		.size	Cy_Prot_ConfigPpuProgMasterStruct, .-Cy_Prot_ConfigPpuProgMasterStruct
 3393              		.section	.text.Cy_Prot_ConfigPpuProgSlaveStruct,"ax",%progbits
 3394              		.align	2
 3395              		.global	Cy_Prot_ConfigPpuProgSlaveStruct
 3396              		.code	16
 3397              		.thumb_func
 3398              		.type	Cy_Prot_ConfigPpuProgSlaveStruct, %function
 3399              	Cy_Prot_ConfigPpuProgSlaveStruct:
 3400              	.LFB69:
1345:Generated_Source\PSoC6\pdl\drivers\peripheral\prot/cy_prot.c **** 
1346:Generated_Source\PSoC6\pdl\drivers\peripheral\prot/cy_prot.c **** /*******************************************************************************
1347:Generated_Source\PSoC6\pdl\drivers\peripheral\prot/cy_prot.c **** * Function Name: Cy_Prot_ConfigPpuProgSlaveStruct
1348:Generated_Source\PSoC6\pdl\drivers\peripheral\prot/cy_prot.c **** ****************************************************************************//**
1349:Generated_Source\PSoC6\pdl\drivers\peripheral\prot/cy_prot.c **** *
1350:Generated_Source\PSoC6\pdl\drivers\peripheral\prot/cy_prot.c **** * Configures a Programmable Peripheral Protection Unit (PPU PROG) slave
1351:Generated_Source\PSoC6\pdl\drivers\peripheral\prot/cy_prot.c **** * protection struct with its protection attributes. 
1352:Generated_Source\PSoC6\pdl\drivers\peripheral\prot/cy_prot.c **** * 
1353:Generated_Source\PSoC6\pdl\drivers\peripheral\prot/cy_prot.c **** * This function configures the slave struct of a PPU PROG pair, which can 
1354:Generated_Source\PSoC6\pdl\drivers\peripheral\prot/cy_prot.c **** * protect any peripheral memory region in a device from invalid bus master 
1355:Generated_Source\PSoC6\pdl\drivers\peripheral\prot/cy_prot.c **** * accesses.
1356:Generated_Source\PSoC6\pdl\drivers\peripheral\prot/cy_prot.c **** *
1357:Generated_Source\PSoC6\pdl\drivers\peripheral\prot/cy_prot.c **** * Note that the user/privileged execute accesses are read-only and are always 
1358:Generated_Source\PSoC6\pdl\drivers\peripheral\prot/cy_prot.c **** * enabled. 
1359:Generated_Source\PSoC6\pdl\drivers\peripheral\prot/cy_prot.c **** *
1360:Generated_Source\PSoC6\pdl\drivers\peripheral\prot/cy_prot.c **** * \note This function is applicable for CPUSS ver_1 only.
1361:Generated_Source\PSoC6\pdl\drivers\peripheral\prot/cy_prot.c **** *
1362:Generated_Source\PSoC6\pdl\drivers\peripheral\prot/cy_prot.c **** * \param base
1363:Generated_Source\PSoC6\pdl\drivers\peripheral\prot/cy_prot.c **** * The register base address of the protection structure being configured.
1364:Generated_Source\PSoC6\pdl\drivers\peripheral\prot/cy_prot.c **** * 
1365:Generated_Source\PSoC6\pdl\drivers\peripheral\prot/cy_prot.c **** * \param config
1366:Generated_Source\PSoC6\pdl\drivers\peripheral\prot/cy_prot.c **** * Initialization structure with all the protection attributes.
1367:Generated_Source\PSoC6\pdl\drivers\peripheral\prot/cy_prot.c **** * 
1368:Generated_Source\PSoC6\pdl\drivers\peripheral\prot/cy_prot.c **** * \return
1369:Generated_Source\PSoC6\pdl\drivers\peripheral\prot/cy_prot.c **** * Status of the function call.
1370:Generated_Source\PSoC6\pdl\drivers\peripheral\prot/cy_prot.c **** *
1371:Generated_Source\PSoC6\pdl\drivers\peripheral\prot/cy_prot.c **** *   Status               | Description
1372:Generated_Source\PSoC6\pdl\drivers\peripheral\prot/cy_prot.c **** *   ------------         | -----------
1373:Generated_Source\PSoC6\pdl\drivers\peripheral\prot/cy_prot.c **** *  CY_PROT_SUCCESS       | PPU PROG slave struct was successfully configured.
1374:Generated_Source\PSoC6\pdl\drivers\peripheral\prot/cy_prot.c **** *  CY_PROT_FAILURE       | The resource is locked.
1375:Generated_Source\PSoC6\pdl\drivers\peripheral\prot/cy_prot.c **** *  CY_PROT_BAD_PARAM     | An incorrect/invalid parameter was passed.
1376:Generated_Source\PSoC6\pdl\drivers\peripheral\prot/cy_prot.c **** *  CY_PROT_INVALID_STATE | The function was called on the device with an unsupported PERI HW versio
1377:Generated_Source\PSoC6\pdl\drivers\peripheral\prot/cy_prot.c **** *
1378:Generated_Source\PSoC6\pdl\drivers\peripheral\prot/cy_prot.c **** * \funcusage
1379:Generated_Source\PSoC6\pdl\drivers\peripheral\prot/cy_prot.c **** * \snippet prot/1.20/snippet/main.c snippet_Cy_Prot_ConfigPpuProgSlaveStruct
1380:Generated_Source\PSoC6\pdl\drivers\peripheral\prot/cy_prot.c **** *
1381:Generated_Source\PSoC6\pdl\drivers\peripheral\prot/cy_prot.c **** *******************************************************************************/
1382:Generated_Source\PSoC6\pdl\drivers\peripheral\prot/cy_prot.c **** cy_en_prot_status_t Cy_Prot_ConfigPpuProgSlaveStruct(PERI_PPU_PR_Type* base, const cy_stc_ppu_prog_
1383:Generated_Source\PSoC6\pdl\drivers\peripheral\prot/cy_prot.c **** {
 3401              		.loc 1 1383 0
 3402              		.cfi_startproc
 3403              		@ args = 0, pretend = 0, frame = 24
 3404              		@ frame_needed = 1, uses_anonymous_args = 0
 3405 0000 80B5     		push	{r7, lr}
 3406              		.cfi_def_cfa_offset 8
ARM GAS  C:\Users\JC\AppData\Local\Temp\ccU1E72d.s 			page 86


 3407              		.cfi_offset 7, -8
 3408              		.cfi_offset 14, -4
 3409 0002 86B0     		sub	sp, sp, #24
 3410              		.cfi_def_cfa_offset 32
 3411 0004 00AF     		add	r7, sp, #0
 3412              		.cfi_def_cfa_register 7
 3413 0006 7860     		str	r0, [r7, #4]
 3414 0008 3960     		str	r1, [r7]
1384:Generated_Source\PSoC6\pdl\drivers\peripheral\prot/cy_prot.c ****     cy_en_prot_status_t status = CY_PROT_INVALID_STATE;
 3415              		.loc 1 1384 0
 3416 000a 864B     		ldr	r3, .L222
 3417 000c 7B61     		str	r3, [r7, #20]
1385:Generated_Source\PSoC6\pdl\drivers\peripheral\prot/cy_prot.c ****     uint32_t addrReg;
1386:Generated_Source\PSoC6\pdl\drivers\peripheral\prot/cy_prot.c ****     uint32_t attReg;
1387:Generated_Source\PSoC6\pdl\drivers\peripheral\prot/cy_prot.c ****     
1388:Generated_Source\PSoC6\pdl\drivers\peripheral\prot/cy_prot.c ****     CY_ASSERT_L1(NULL != base);
 3418              		.loc 1 1388 0
 3419 000e 7B68     		ldr	r3, [r7, #4]
 3420 0010 002B     		cmp	r3, #0
 3421 0012 05D1     		bne	.L211
 3422              		.loc 1 1388 0 is_stmt 0 discriminator 1
 3423 0014 844A     		ldr	r2, .L222+4
 3424 0016 854B     		ldr	r3, .L222+8
 3425 0018 1100     		movs	r1, r2
 3426 001a 1800     		movs	r0, r3
 3427 001c FFF7FEFF 		bl	Cy_SysLib_AssertFailed
 3428              	.L211:
1389:Generated_Source\PSoC6\pdl\drivers\peripheral\prot/cy_prot.c ****     CY_ASSERT_L3(CY_PROT_IS_PROG_SL_PERM_VALID(config->userPermission));
 3429              		.loc 1 1389 0 is_stmt 1
 3430 0020 3B68     		ldr	r3, [r7]
 3431 0022 9B79     		ldrb	r3, [r3, #6]
 3432 0024 002B     		cmp	r3, #0
 3433 0026 11D0     		beq	.L212
 3434              		.loc 1 1389 0 is_stmt 0 discriminator 1
 3435 0028 3B68     		ldr	r3, [r7]
 3436 002a 9B79     		ldrb	r3, [r3, #6]
 3437 002c 012B     		cmp	r3, #1
 3438 002e 0DD0     		beq	.L212
 3439              		.loc 1 1389 0 discriminator 2
 3440 0030 3B68     		ldr	r3, [r7]
 3441 0032 9B79     		ldrb	r3, [r3, #6]
 3442 0034 022B     		cmp	r3, #2
 3443 0036 09D0     		beq	.L212
 3444              		.loc 1 1389 0 discriminator 3
 3445 0038 3B68     		ldr	r3, [r7]
 3446 003a 9B79     		ldrb	r3, [r3, #6]
 3447 003c 032B     		cmp	r3, #3
 3448 003e 05D0     		beq	.L212
 3449              		.loc 1 1389 0 discriminator 4
 3450 0040 7B4A     		ldr	r2, .L222+12
 3451 0042 7A4B     		ldr	r3, .L222+8
 3452 0044 1100     		movs	r1, r2
 3453 0046 1800     		movs	r0, r3
 3454 0048 FFF7FEFF 		bl	Cy_SysLib_AssertFailed
 3455              	.L212:
1390:Generated_Source\PSoC6\pdl\drivers\peripheral\prot/cy_prot.c ****     CY_ASSERT_L3(CY_PROT_IS_PROG_SL_PERM_VALID(config->privPermission));
 3456              		.loc 1 1390 0 is_stmt 1
ARM GAS  C:\Users\JC\AppData\Local\Temp\ccU1E72d.s 			page 87


 3457 004c 3B68     		ldr	r3, [r7]
 3458 004e DB79     		ldrb	r3, [r3, #7]
 3459 0050 002B     		cmp	r3, #0
 3460 0052 11D0     		beq	.L213
 3461              		.loc 1 1390 0 is_stmt 0 discriminator 1
 3462 0054 3B68     		ldr	r3, [r7]
 3463 0056 DB79     		ldrb	r3, [r3, #7]
 3464 0058 012B     		cmp	r3, #1
 3465 005a 0DD0     		beq	.L213
 3466              		.loc 1 1390 0 discriminator 2
 3467 005c 3B68     		ldr	r3, [r7]
 3468 005e DB79     		ldrb	r3, [r3, #7]
 3469 0060 022B     		cmp	r3, #2
 3470 0062 09D0     		beq	.L213
 3471              		.loc 1 1390 0 discriminator 3
 3472 0064 3B68     		ldr	r3, [r7]
 3473 0066 DB79     		ldrb	r3, [r3, #7]
 3474 0068 032B     		cmp	r3, #3
 3475 006a 05D0     		beq	.L213
 3476              		.loc 1 1390 0 discriminator 4
 3477 006c 714A     		ldr	r2, .L222+16
 3478 006e 6F4B     		ldr	r3, .L222+8
 3479 0070 1100     		movs	r1, r2
 3480 0072 1800     		movs	r0, r3
 3481 0074 FFF7FEFF 		bl	Cy_SysLib_AssertFailed
 3482              	.L213:
1391:Generated_Source\PSoC6\pdl\drivers\peripheral\prot/cy_prot.c ****     CY_ASSERT_L3(CY_PROT_IS_REGION_SIZE_VALID(config->regionSize));
 3483              		.loc 1 1391 0 is_stmt 1
 3484 0078 3B68     		ldr	r3, [r7]
 3485 007a 1B79     		ldrb	r3, [r3, #4]
 3486 007c 072B     		cmp	r3, #7
 3487 007e 00D1     		bne	.LCB3039
 3488 0080 68E0     		b	.L214	@long jump
 3489              	.LCB3039:
 3490              		.loc 1 1391 0 is_stmt 0 discriminator 1
 3491 0082 3B68     		ldr	r3, [r7]
 3492 0084 1B79     		ldrb	r3, [r3, #4]
 3493 0086 082B     		cmp	r3, #8
 3494 0088 00D1     		bne	.LCB3043
 3495 008a 63E0     		b	.L214	@long jump
 3496              	.LCB3043:
 3497              		.loc 1 1391 0 discriminator 2
 3498 008c 3B68     		ldr	r3, [r7]
 3499 008e 1B79     		ldrb	r3, [r3, #4]
 3500 0090 092B     		cmp	r3, #9
 3501 0092 00D1     		bne	.LCB3047
 3502 0094 5EE0     		b	.L214	@long jump
 3503              	.LCB3047:
 3504              		.loc 1 1391 0 discriminator 3
 3505 0096 3B68     		ldr	r3, [r7]
 3506 0098 1B79     		ldrb	r3, [r3, #4]
 3507 009a 0A2B     		cmp	r3, #10
 3508 009c 00D1     		bne	.LCB3051
 3509 009e 59E0     		b	.L214	@long jump
 3510              	.LCB3051:
 3511              		.loc 1 1391 0 discriminator 4
 3512 00a0 3B68     		ldr	r3, [r7]
ARM GAS  C:\Users\JC\AppData\Local\Temp\ccU1E72d.s 			page 88


 3513 00a2 1B79     		ldrb	r3, [r3, #4]
 3514 00a4 0B2B     		cmp	r3, #11
 3515 00a6 55D0     		beq	.L214
 3516              		.loc 1 1391 0 discriminator 5
 3517 00a8 3B68     		ldr	r3, [r7]
 3518 00aa 1B79     		ldrb	r3, [r3, #4]
 3519 00ac 0C2B     		cmp	r3, #12
 3520 00ae 51D0     		beq	.L214
 3521              		.loc 1 1391 0 discriminator 6
 3522 00b0 3B68     		ldr	r3, [r7]
 3523 00b2 1B79     		ldrb	r3, [r3, #4]
 3524 00b4 0D2B     		cmp	r3, #13
 3525 00b6 4DD0     		beq	.L214
 3526              		.loc 1 1391 0 discriminator 7
 3527 00b8 3B68     		ldr	r3, [r7]
 3528 00ba 1B79     		ldrb	r3, [r3, #4]
 3529 00bc 0E2B     		cmp	r3, #14
 3530 00be 49D0     		beq	.L214
 3531              		.loc 1 1391 0 discriminator 8
 3532 00c0 3B68     		ldr	r3, [r7]
 3533 00c2 1B79     		ldrb	r3, [r3, #4]
 3534 00c4 0F2B     		cmp	r3, #15
 3535 00c6 45D0     		beq	.L214
 3536              		.loc 1 1391 0 discriminator 9
 3537 00c8 3B68     		ldr	r3, [r7]
 3538 00ca 1B79     		ldrb	r3, [r3, #4]
 3539 00cc 102B     		cmp	r3, #16
 3540 00ce 41D0     		beq	.L214
 3541              		.loc 1 1391 0 discriminator 10
 3542 00d0 3B68     		ldr	r3, [r7]
 3543 00d2 1B79     		ldrb	r3, [r3, #4]
 3544 00d4 112B     		cmp	r3, #17
 3545 00d6 3DD0     		beq	.L214
 3546              		.loc 1 1391 0 discriminator 11
 3547 00d8 3B68     		ldr	r3, [r7]
 3548 00da 1B79     		ldrb	r3, [r3, #4]
 3549 00dc 122B     		cmp	r3, #18
 3550 00de 39D0     		beq	.L214
 3551              		.loc 1 1391 0 discriminator 12
 3552 00e0 3B68     		ldr	r3, [r7]
 3553 00e2 1B79     		ldrb	r3, [r3, #4]
 3554 00e4 132B     		cmp	r3, #19
 3555 00e6 35D0     		beq	.L214
 3556              		.loc 1 1391 0 discriminator 13
 3557 00e8 3B68     		ldr	r3, [r7]
 3558 00ea 1B79     		ldrb	r3, [r3, #4]
 3559 00ec 142B     		cmp	r3, #20
 3560 00ee 31D0     		beq	.L214
 3561              		.loc 1 1391 0 discriminator 14
 3562 00f0 3B68     		ldr	r3, [r7]
 3563 00f2 1B79     		ldrb	r3, [r3, #4]
 3564 00f4 152B     		cmp	r3, #21
 3565 00f6 2DD0     		beq	.L214
 3566              		.loc 1 1391 0 discriminator 15
 3567 00f8 3B68     		ldr	r3, [r7]
 3568 00fa 1B79     		ldrb	r3, [r3, #4]
 3569 00fc 162B     		cmp	r3, #22
ARM GAS  C:\Users\JC\AppData\Local\Temp\ccU1E72d.s 			page 89


 3570 00fe 29D0     		beq	.L214
 3571              		.loc 1 1391 0 discriminator 16
 3572 0100 3B68     		ldr	r3, [r7]
 3573 0102 1B79     		ldrb	r3, [r3, #4]
 3574 0104 172B     		cmp	r3, #23
 3575 0106 25D0     		beq	.L214
 3576              		.loc 1 1391 0 discriminator 17
 3577 0108 3B68     		ldr	r3, [r7]
 3578 010a 1B79     		ldrb	r3, [r3, #4]
 3579 010c 182B     		cmp	r3, #24
 3580 010e 21D0     		beq	.L214
 3581              		.loc 1 1391 0 discriminator 18
 3582 0110 3B68     		ldr	r3, [r7]
 3583 0112 1B79     		ldrb	r3, [r3, #4]
 3584 0114 192B     		cmp	r3, #25
 3585 0116 1DD0     		beq	.L214
 3586              		.loc 1 1391 0 discriminator 19
 3587 0118 3B68     		ldr	r3, [r7]
 3588 011a 1B79     		ldrb	r3, [r3, #4]
 3589 011c 1A2B     		cmp	r3, #26
 3590 011e 19D0     		beq	.L214
 3591              		.loc 1 1391 0 discriminator 20
 3592 0120 3B68     		ldr	r3, [r7]
 3593 0122 1B79     		ldrb	r3, [r3, #4]
 3594 0124 1B2B     		cmp	r3, #27
 3595 0126 15D0     		beq	.L214
 3596              		.loc 1 1391 0 discriminator 21
 3597 0128 3B68     		ldr	r3, [r7]
 3598 012a 1B79     		ldrb	r3, [r3, #4]
 3599 012c 1C2B     		cmp	r3, #28
 3600 012e 11D0     		beq	.L214
 3601              		.loc 1 1391 0 discriminator 22
 3602 0130 3B68     		ldr	r3, [r7]
 3603 0132 1B79     		ldrb	r3, [r3, #4]
 3604 0134 1D2B     		cmp	r3, #29
 3605 0136 0DD0     		beq	.L214
 3606              		.loc 1 1391 0 discriminator 23
 3607 0138 3B68     		ldr	r3, [r7]
 3608 013a 1B79     		ldrb	r3, [r3, #4]
 3609 013c 1E2B     		cmp	r3, #30
 3610 013e 09D0     		beq	.L214
 3611              		.loc 1 1391 0 discriminator 24
 3612 0140 3B68     		ldr	r3, [r7]
 3613 0142 1B79     		ldrb	r3, [r3, #4]
 3614 0144 1F2B     		cmp	r3, #31
 3615 0146 05D0     		beq	.L214
 3616              		.loc 1 1391 0 discriminator 25
 3617 0148 3B4A     		ldr	r2, .L222+20
 3618 014a 384B     		ldr	r3, .L222+8
 3619 014c 1100     		movs	r1, r2
 3620 014e 1800     		movs	r0, r3
 3621 0150 FFF7FEFF 		bl	Cy_SysLib_AssertFailed
 3622              	.L214:
1392:Generated_Source\PSoC6\pdl\drivers\peripheral\prot/cy_prot.c **** 
1393:Generated_Source\PSoC6\pdl\drivers\peripheral\prot/cy_prot.c ****     if (CY_PERI_V1)
 3623              		.loc 1 1393 0 is_stmt 1
 3624 0154 394B     		ldr	r3, .L222+24
ARM GAS  C:\Users\JC\AppData\Local\Temp\ccU1E72d.s 			page 90


 3625 0156 1B68     		ldr	r3, [r3]
 3626 0158 2F22     		movs	r2, #47
 3627 015a 9B5C     		ldrb	r3, [r3, r2]
 3628 015c 012B     		cmp	r3, #1
 3629 015e 5CD1     		bne	.L215
1394:Generated_Source\PSoC6\pdl\drivers\peripheral\prot/cy_prot.c ****     {
1395:Generated_Source\PSoC6\pdl\drivers\peripheral\prot/cy_prot.c ****         if(((uint32_t)config->pcMask & CY_PROT_PPU_PROG_PC_LIMIT_MASK) != 0UL) 
 3630              		.loc 1 1395 0
 3631 0160 3B68     		ldr	r3, [r7]
 3632 0162 5B89     		ldrh	r3, [r3, #10]
 3633 0164 1A00     		movs	r2, r3
 3634 0166 7F23     		movs	r3, #127
 3635 0168 9A43     		bics	r2, r3
 3636 016a 131E     		subs	r3, r2, #0
 3637 016c 02D0     		beq	.L216
1396:Generated_Source\PSoC6\pdl\drivers\peripheral\prot/cy_prot.c ****         {
1397:Generated_Source\PSoC6\pdl\drivers\peripheral\prot/cy_prot.c ****             /* PC mask out of range - not supported in device */
1398:Generated_Source\PSoC6\pdl\drivers\peripheral\prot/cy_prot.c ****             status = CY_PROT_BAD_PARAM;
 3638              		.loc 1 1398 0
 3639 016e 344B     		ldr	r3, .L222+28
 3640 0170 7B61     		str	r3, [r7, #20]
 3641 0172 52E0     		b	.L215
 3642              	.L216:
1399:Generated_Source\PSoC6\pdl\drivers\peripheral\prot/cy_prot.c ****         }
1400:Generated_Source\PSoC6\pdl\drivers\peripheral\prot/cy_prot.c ****         else
1401:Generated_Source\PSoC6\pdl\drivers\peripheral\prot/cy_prot.c ****         {
1402:Generated_Source\PSoC6\pdl\drivers\peripheral\prot/cy_prot.c ****             addrReg= _VAL2FLD(PERI_PPU_PR_ADDR0_SUBREGION_DISABLE, config->subregions)
 3643              		.loc 1 1402 0
 3644 0174 3B68     		ldr	r3, [r7]
 3645 0176 5B79     		ldrb	r3, [r3, #5]
 3646 0178 1A00     		movs	r2, r3
1403:Generated_Source\PSoC6\pdl\drivers\peripheral\prot/cy_prot.c ****                         | _VAL2FLD(PERI_PPU_PR_ADDR0_ADDR24, (uint32_t)((uint32_t)config->address >
 3647              		.loc 1 1403 0
 3648 017a 3B68     		ldr	r3, [r7]
 3649 017c 1B68     		ldr	r3, [r3]
 3650 017e 1900     		movs	r1, r3
 3651 0180 FF23     		movs	r3, #255
 3652 0182 9943     		bics	r1, r3
 3653 0184 0B00     		movs	r3, r1
1402:Generated_Source\PSoC6\pdl\drivers\peripheral\prot/cy_prot.c ****                         | _VAL2FLD(PERI_PPU_PR_ADDR0_ADDR24, (uint32_t)((uint32_t)config->address >
 3654              		.loc 1 1402 0
 3655 0186 1343     		orrs	r3, r2
 3656 0188 3B61     		str	r3, [r7, #16]
1404:Generated_Source\PSoC6\pdl\drivers\peripheral\prot/cy_prot.c ****             attReg= ((uint32_t)config->userPermission & CY_PROT_ATT_PERMISSION_MASK)
 3657              		.loc 1 1404 0
 3658 018a 3B68     		ldr	r3, [r7]
 3659 018c 9B79     		ldrb	r3, [r3, #6]
 3660 018e 1A00     		movs	r2, r3
 3661 0190 0723     		movs	r3, #7
 3662 0192 1A40     		ands	r2, r3
1405:Generated_Source\PSoC6\pdl\drivers\peripheral\prot/cy_prot.c ****                         | (uint32_t)(((uint32_t)config->privPermission & CY_PROT_ATT_PERMISSION_MAS
 3663              		.loc 1 1405 0
 3664 0194 3B68     		ldr	r3, [r7]
 3665 0196 DB79     		ldrb	r3, [r3, #7]
 3666 0198 DB00     		lsls	r3, r3, #3
 3667 019a 3821     		movs	r1, #56
 3668 019c 0B40     		ands	r3, r1
ARM GAS  C:\Users\JC\AppData\Local\Temp\ccU1E72d.s 			page 91


 3669 019e 1A43     		orrs	r2, r3
1406:Generated_Source\PSoC6\pdl\drivers\peripheral\prot/cy_prot.c ****                         | _VAL2FLD(PERI_PPU_PR_ATT0_NS, !(config->secure))
 3670              		.loc 1 1406 0
 3671 01a0 3B68     		ldr	r3, [r7]
 3672 01a2 1B7A     		ldrb	r3, [r3, #8]
 3673 01a4 0121     		movs	r1, #1
 3674 01a6 4B40     		eors	r3, r1
 3675 01a8 DBB2     		uxtb	r3, r3
 3676 01aa 9B01     		lsls	r3, r3, #6
 3677 01ac 4021     		movs	r1, #64
 3678 01ae 0B40     		ands	r3, r1
 3679 01b0 1A43     		orrs	r2, r3
1407:Generated_Source\PSoC6\pdl\drivers\peripheral\prot/cy_prot.c ****                         | _VAL2FLD(PERI_PPU_PR_ATT0_PC_MASK_15_TO_1, config->pcMask)
 3680              		.loc 1 1407 0
 3681 01b2 3B68     		ldr	r3, [r7]
 3682 01b4 5B89     		ldrh	r3, [r3, #10]
 3683 01b6 5B02     		lsls	r3, r3, #9
 3684 01b8 2249     		ldr	r1, .L222+32
 3685 01ba 0B40     		ands	r3, r1
 3686 01bc 1A43     		orrs	r2, r3
1408:Generated_Source\PSoC6\pdl\drivers\peripheral\prot/cy_prot.c ****                         | _VAL2FLD(PERI_PPU_PR_ATT0_REGION_SIZE, config->regionSize)
 3687              		.loc 1 1408 0
 3688 01be 3B68     		ldr	r3, [r7]
 3689 01c0 1B79     		ldrb	r3, [r3, #4]
 3690 01c2 1906     		lsls	r1, r3, #24
 3691 01c4 F823     		movs	r3, #248
 3692 01c6 5B05     		lsls	r3, r3, #21
 3693 01c8 0B40     		ands	r3, r1
 3694 01ca 1A43     		orrs	r2, r3
1409:Generated_Source\PSoC6\pdl\drivers\peripheral\prot/cy_prot.c ****                         | _VAL2FLD(PERI_PPU_PR_ATT0_PC_MATCH, config->pcMatch);
 3695              		.loc 1 1409 0
 3696 01cc 3B68     		ldr	r3, [r7]
 3697 01ce 5B7A     		ldrb	r3, [r3, #9]
 3698 01d0 9907     		lsls	r1, r3, #30
 3699 01d2 8023     		movs	r3, #128
 3700 01d4 DB05     		lsls	r3, r3, #23
 3701 01d6 0B40     		ands	r3, r1
1404:Generated_Source\PSoC6\pdl\drivers\peripheral\prot/cy_prot.c ****                         | (uint32_t)(((uint32_t)config->privPermission & CY_PROT_ATT_PERMISSION_MAS
 3702              		.loc 1 1404 0
 3703 01d8 1343     		orrs	r3, r2
 3704 01da FB60     		str	r3, [r7, #12]
1410:Generated_Source\PSoC6\pdl\drivers\peripheral\prot/cy_prot.c ****             if ((attReg & CY_PROT_PPU_PROG_ATT0_MASK) != attReg)
 3705              		.loc 1 1410 0
 3706 01dc FB68     		ldr	r3, [r7, #12]
 3707 01de 1A4A     		ldr	r2, .L222+36
 3708 01e0 1A40     		ands	r2, r3
 3709 01e2 FB68     		ldr	r3, [r7, #12]
 3710 01e4 9A42     		cmp	r2, r3
 3711 01e6 02D0     		beq	.L217
1411:Generated_Source\PSoC6\pdl\drivers\peripheral\prot/cy_prot.c ****             {
1412:Generated_Source\PSoC6\pdl\drivers\peripheral\prot/cy_prot.c ****                 /* Invalid parameter was passed */
1413:Generated_Source\PSoC6\pdl\drivers\peripheral\prot/cy_prot.c ****                 status = CY_PROT_BAD_PARAM;
 3712              		.loc 1 1413 0
 3713 01e8 154B     		ldr	r3, .L222+28
 3714 01ea 7B61     		str	r3, [r7, #20]
 3715 01ec 15E0     		b	.L215
 3716              	.L217:
ARM GAS  C:\Users\JC\AppData\Local\Temp\ccU1E72d.s 			page 92


1414:Generated_Source\PSoC6\pdl\drivers\peripheral\prot/cy_prot.c ****             }
1415:Generated_Source\PSoC6\pdl\drivers\peripheral\prot/cy_prot.c ****             else
1416:Generated_Source\PSoC6\pdl\drivers\peripheral\prot/cy_prot.c ****             {
1417:Generated_Source\PSoC6\pdl\drivers\peripheral\prot/cy_prot.c ****                 PERI_PPU_PR_ATT0(base) = attReg;
 3717              		.loc 1 1417 0
 3718 01ee 7B68     		ldr	r3, [r7, #4]
 3719 01f0 FA68     		ldr	r2, [r7, #12]
 3720 01f2 5A60     		str	r2, [r3, #4]
1418:Generated_Source\PSoC6\pdl\drivers\peripheral\prot/cy_prot.c ****                 PERI_PPU_PR_ADDR0(base) = addrReg;
 3721              		.loc 1 1418 0
 3722 01f4 7B68     		ldr	r3, [r7, #4]
 3723 01f6 3A69     		ldr	r2, [r7, #16]
 3724 01f8 1A60     		str	r2, [r3]
1419:Generated_Source\PSoC6\pdl\drivers\peripheral\prot/cy_prot.c ****                 status = ((PERI_PPU_PR_ADDR0(base) != addrReg) || ((PERI_PPU_PR_ATT0(base) & CY_PRO
 3725              		.loc 1 1419 0
 3726 01fa 7B68     		ldr	r3, [r7, #4]
 3727 01fc 1A68     		ldr	r2, [r3]
 3728 01fe 3B69     		ldr	r3, [r7, #16]
 3729 0200 9A42     		cmp	r2, r3
 3730 0202 06D1     		bne	.L218
 3731              		.loc 1 1419 0 is_stmt 0 discriminator 2
 3732 0204 7B68     		ldr	r3, [r7, #4]
 3733 0206 5B68     		ldr	r3, [r3, #4]
 3734 0208 0F4A     		ldr	r2, .L222+36
 3735 020a 1A40     		ands	r2, r3
 3736 020c FB68     		ldr	r3, [r7, #12]
 3737 020e 9A42     		cmp	r2, r3
 3738 0210 01D0     		beq	.L219
 3739              	.L218:
 3740              		.loc 1 1419 0 discriminator 3
 3741 0212 0E4B     		ldr	r3, .L222+40
 3742 0214 00E0     		b	.L220
 3743              	.L219:
 3744              		.loc 1 1419 0 discriminator 4
 3745 0216 0023     		movs	r3, #0
 3746              	.L220:
 3747              		.loc 1 1419 0 discriminator 6
 3748 0218 7B61     		str	r3, [r7, #20]
 3749              	.L215:
1420:Generated_Source\PSoC6\pdl\drivers\peripheral\prot/cy_prot.c ****                             ? CY_PROT_FAILURE : CY_PROT_SUCCESS;
1421:Generated_Source\PSoC6\pdl\drivers\peripheral\prot/cy_prot.c ****             }
1422:Generated_Source\PSoC6\pdl\drivers\peripheral\prot/cy_prot.c ****         }
1423:Generated_Source\PSoC6\pdl\drivers\peripheral\prot/cy_prot.c ****     }
1424:Generated_Source\PSoC6\pdl\drivers\peripheral\prot/cy_prot.c ****     
1425:Generated_Source\PSoC6\pdl\drivers\peripheral\prot/cy_prot.c ****     return status;
 3750              		.loc 1 1425 0 is_stmt 1
 3751 021a 7B69     		ldr	r3, [r7, #20]
1426:Generated_Source\PSoC6\pdl\drivers\peripheral\prot/cy_prot.c **** }
 3752              		.loc 1 1426 0
 3753 021c 1800     		movs	r0, r3
 3754 021e BD46     		mov	sp, r7
 3755 0220 06B0     		add	sp, sp, #24
 3756              		@ sp needed
 3757 0222 80BD     		pop	{r7, pc}
 3758              	.L223:
 3759              		.align	2
 3760              	.L222:
ARM GAS  C:\Users\JC\AppData\Local\Temp\ccU1E72d.s 			page 93


 3761 0224 0200C200 		.word	12713986
 3762 0228 6C050000 		.word	1388
 3763 022c 00000000 		.word	.LC1
 3764 0230 6D050000 		.word	1389
 3765 0234 6E050000 		.word	1390
 3766 0238 6F050000 		.word	1391
 3767 023c 00000000 		.word	cy_device
 3768 0240 0100C200 		.word	12713985
 3769 0244 00FEFF00 		.word	16776704
 3770 0248 DBFEFFFF 		.word	-293
 3771 024c 0300C200 		.word	12713987
 3772              		.cfi_endproc
 3773              	.LFE69:
 3774              		.size	Cy_Prot_ConfigPpuProgSlaveStruct, .-Cy_Prot_ConfigPpuProgSlaveStruct
 3775              		.section	.text.Cy_Prot_EnablePpuProgMasterStruct,"ax",%progbits
 3776              		.align	2
 3777              		.global	Cy_Prot_EnablePpuProgMasterStruct
 3778              		.code	16
 3779              		.thumb_func
 3780              		.type	Cy_Prot_EnablePpuProgMasterStruct, %function
 3781              	Cy_Prot_EnablePpuProgMasterStruct:
 3782              	.LFB70:
1427:Generated_Source\PSoC6\pdl\drivers\peripheral\prot/cy_prot.c **** 
1428:Generated_Source\PSoC6\pdl\drivers\peripheral\prot/cy_prot.c **** 
1429:Generated_Source\PSoC6\pdl\drivers\peripheral\prot/cy_prot.c **** /*******************************************************************************
1430:Generated_Source\PSoC6\pdl\drivers\peripheral\prot/cy_prot.c **** * Function Name: Cy_Prot_EnablePpuProgMasterStruct
1431:Generated_Source\PSoC6\pdl\drivers\peripheral\prot/cy_prot.c **** ****************************************************************************//**
1432:Generated_Source\PSoC6\pdl\drivers\peripheral\prot/cy_prot.c **** *
1433:Generated_Source\PSoC6\pdl\drivers\peripheral\prot/cy_prot.c **** * Enables the Master PPU PROG structure.
1434:Generated_Source\PSoC6\pdl\drivers\peripheral\prot/cy_prot.c **** *
1435:Generated_Source\PSoC6\pdl\drivers\peripheral\prot/cy_prot.c **** * This is a PPU PROG master struct enable function. The PPU PROG protection 
1436:Generated_Source\PSoC6\pdl\drivers\peripheral\prot/cy_prot.c **** * settings will take effect after successful completion of this function call.
1437:Generated_Source\PSoC6\pdl\drivers\peripheral\prot/cy_prot.c **** *
1438:Generated_Source\PSoC6\pdl\drivers\peripheral\prot/cy_prot.c **** * \note This function is applicable for CPUSS ver_1 only.
1439:Generated_Source\PSoC6\pdl\drivers\peripheral\prot/cy_prot.c **** *
1440:Generated_Source\PSoC6\pdl\drivers\peripheral\prot/cy_prot.c **** * \param base
1441:Generated_Source\PSoC6\pdl\drivers\peripheral\prot/cy_prot.c **** * The base address for the protection unit structure being configured. 
1442:Generated_Source\PSoC6\pdl\drivers\peripheral\prot/cy_prot.c **** *
1443:Generated_Source\PSoC6\pdl\drivers\peripheral\prot/cy_prot.c **** * \return
1444:Generated_Source\PSoC6\pdl\drivers\peripheral\prot/cy_prot.c **** * Status of the function call.
1445:Generated_Source\PSoC6\pdl\drivers\peripheral\prot/cy_prot.c **** *
1446:Generated_Source\PSoC6\pdl\drivers\peripheral\prot/cy_prot.c **** *   Status                | Description
1447:Generated_Source\PSoC6\pdl\drivers\peripheral\prot/cy_prot.c **** *   ------------          | -----------
1448:Generated_Source\PSoC6\pdl\drivers\peripheral\prot/cy_prot.c **** *   CY_PROT_SUCCESS       | The Master PU struct was enabled.
1449:Generated_Source\PSoC6\pdl\drivers\peripheral\prot/cy_prot.c **** *   CY_PROT_FAILURE       | The Master PU struct is disabled and possibly locked.
1450:Generated_Source\PSoC6\pdl\drivers\peripheral\prot/cy_prot.c **** *   CY_PROT_INVALID_STATE | The function was called on the device with an unsupported PERI HW versi
1451:Generated_Source\PSoC6\pdl\drivers\peripheral\prot/cy_prot.c **** *
1452:Generated_Source\PSoC6\pdl\drivers\peripheral\prot/cy_prot.c **** * \funcusage
1453:Generated_Source\PSoC6\pdl\drivers\peripheral\prot/cy_prot.c **** * \snippet prot/1.20/snippet/main.c snippet_Cy_Prot_EnablePpuProgMasterStruct
1454:Generated_Source\PSoC6\pdl\drivers\peripheral\prot/cy_prot.c **** *
1455:Generated_Source\PSoC6\pdl\drivers\peripheral\prot/cy_prot.c **** *******************************************************************************/
1456:Generated_Source\PSoC6\pdl\drivers\peripheral\prot/cy_prot.c **** cy_en_prot_status_t Cy_Prot_EnablePpuProgMasterStruct(PERI_PPU_PR_Type* base)
1457:Generated_Source\PSoC6\pdl\drivers\peripheral\prot/cy_prot.c **** {
 3783              		.loc 1 1457 0
 3784              		.cfi_startproc
 3785              		@ args = 0, pretend = 0, frame = 16
 3786              		@ frame_needed = 1, uses_anonymous_args = 0
ARM GAS  C:\Users\JC\AppData\Local\Temp\ccU1E72d.s 			page 94


 3787 0000 80B5     		push	{r7, lr}
 3788              		.cfi_def_cfa_offset 8
 3789              		.cfi_offset 7, -8
 3790              		.cfi_offset 14, -4
 3791 0002 84B0     		sub	sp, sp, #16
 3792              		.cfi_def_cfa_offset 24
 3793 0004 00AF     		add	r7, sp, #0
 3794              		.cfi_def_cfa_register 7
 3795 0006 7860     		str	r0, [r7, #4]
1458:Generated_Source\PSoC6\pdl\drivers\peripheral\prot/cy_prot.c ****     cy_en_prot_status_t status = CY_PROT_INVALID_STATE;
 3796              		.loc 1 1458 0
 3797 0008 134B     		ldr	r3, .L230
 3798 000a FB60     		str	r3, [r7, #12]
1459:Generated_Source\PSoC6\pdl\drivers\peripheral\prot/cy_prot.c ****     
1460:Generated_Source\PSoC6\pdl\drivers\peripheral\prot/cy_prot.c ****     CY_ASSERT_L1(NULL != base);
 3799              		.loc 1 1460 0
 3800 000c 7B68     		ldr	r3, [r7, #4]
 3801 000e 002B     		cmp	r3, #0
 3802 0010 05D1     		bne	.L225
 3803              		.loc 1 1460 0 is_stmt 0 discriminator 1
 3804 0012 124A     		ldr	r2, .L230+4
 3805 0014 124B     		ldr	r3, .L230+8
 3806 0016 1100     		movs	r1, r2
 3807 0018 1800     		movs	r0, r3
 3808 001a FFF7FEFF 		bl	Cy_SysLib_AssertFailed
 3809              	.L225:
1461:Generated_Source\PSoC6\pdl\drivers\peripheral\prot/cy_prot.c ****     
1462:Generated_Source\PSoC6\pdl\drivers\peripheral\prot/cy_prot.c ****     if (CY_PERI_V1)
 3810              		.loc 1 1462 0 is_stmt 1
 3811 001e 114B     		ldr	r3, .L230+12
 3812 0020 1B68     		ldr	r3, [r3]
 3813 0022 2F22     		movs	r2, #47
 3814 0024 9B5C     		ldrb	r3, [r3, r2]
 3815 0026 012B     		cmp	r3, #1
 3816 0028 11D1     		bne	.L226
1463:Generated_Source\PSoC6\pdl\drivers\peripheral\prot/cy_prot.c ****     {
1464:Generated_Source\PSoC6\pdl\drivers\peripheral\prot/cy_prot.c ****         PERI_PPU_PR_ATT1(base) |= _VAL2FLD(PERI_PPU_PR_ATT1_ENABLED, CY_PROT_STRUCT_ENABLE);
 3817              		.loc 1 1464 0
 3818 002a 7B68     		ldr	r3, [r7, #4]
 3819 002c 5B6A     		ldr	r3, [r3, #36]
 3820 002e 8022     		movs	r2, #128
 3821 0030 1206     		lsls	r2, r2, #24
 3822 0032 1A43     		orrs	r2, r3
 3823 0034 7B68     		ldr	r3, [r7, #4]
 3824 0036 5A62     		str	r2, [r3, #36]
1465:Generated_Source\PSoC6\pdl\drivers\peripheral\prot/cy_prot.c ****         status = (_FLD2VAL(PERI_PPU_PR_ATT1_ENABLED, PERI_PPU_PR_ATT1(base)) != CY_PROT_STRUCT_ENAB
 3825              		.loc 1 1465 0
 3826 0038 7B68     		ldr	r3, [r7, #4]
 3827 003a 5B6A     		ldr	r3, [r3, #36]
 3828 003c DB0F     		lsrs	r3, r3, #31
 3829 003e DB07     		lsls	r3, r3, #31
 3830 0040 DB0F     		lsrs	r3, r3, #31
 3831 0042 012B     		cmp	r3, #1
 3832 0044 01D0     		beq	.L227
 3833              		.loc 1 1465 0 is_stmt 0 discriminator 1
 3834 0046 084B     		ldr	r3, .L230+16
 3835 0048 00E0     		b	.L228
ARM GAS  C:\Users\JC\AppData\Local\Temp\ccU1E72d.s 			page 95


 3836              	.L227:
 3837              		.loc 1 1465 0 discriminator 2
 3838 004a 0023     		movs	r3, #0
 3839              	.L228:
 3840              		.loc 1 1465 0 discriminator 4
 3841 004c FB60     		str	r3, [r7, #12]
 3842              	.L226:
1466:Generated_Source\PSoC6\pdl\drivers\peripheral\prot/cy_prot.c ****                     CY_PROT_FAILURE : CY_PROT_SUCCESS;
1467:Generated_Source\PSoC6\pdl\drivers\peripheral\prot/cy_prot.c ****     }
1468:Generated_Source\PSoC6\pdl\drivers\peripheral\prot/cy_prot.c **** 
1469:Generated_Source\PSoC6\pdl\drivers\peripheral\prot/cy_prot.c ****     return status;
 3843              		.loc 1 1469 0 is_stmt 1
 3844 004e FB68     		ldr	r3, [r7, #12]
1470:Generated_Source\PSoC6\pdl\drivers\peripheral\prot/cy_prot.c **** }
 3845              		.loc 1 1470 0
 3846 0050 1800     		movs	r0, r3
 3847 0052 BD46     		mov	sp, r7
 3848 0054 04B0     		add	sp, sp, #16
 3849              		@ sp needed
 3850 0056 80BD     		pop	{r7, pc}
 3851              	.L231:
 3852              		.align	2
 3853              	.L230:
 3854 0058 0200C200 		.word	12713986
 3855 005c B4050000 		.word	1460
 3856 0060 00000000 		.word	.LC1
 3857 0064 00000000 		.word	cy_device
 3858 0068 0300C200 		.word	12713987
 3859              		.cfi_endproc
 3860              	.LFE70:
 3861              		.size	Cy_Prot_EnablePpuProgMasterStruct, .-Cy_Prot_EnablePpuProgMasterStruct
 3862              		.section	.text.Cy_Prot_DisablePpuProgMasterStruct,"ax",%progbits
 3863              		.align	2
 3864              		.global	Cy_Prot_DisablePpuProgMasterStruct
 3865              		.code	16
 3866              		.thumb_func
 3867              		.type	Cy_Prot_DisablePpuProgMasterStruct, %function
 3868              	Cy_Prot_DisablePpuProgMasterStruct:
 3869              	.LFB71:
1471:Generated_Source\PSoC6\pdl\drivers\peripheral\prot/cy_prot.c **** 
1472:Generated_Source\PSoC6\pdl\drivers\peripheral\prot/cy_prot.c **** 
1473:Generated_Source\PSoC6\pdl\drivers\peripheral\prot/cy_prot.c **** /*******************************************************************************
1474:Generated_Source\PSoC6\pdl\drivers\peripheral\prot/cy_prot.c **** * Function Name: Cy_Prot_DisablePpuProgMasterStruct
1475:Generated_Source\PSoC6\pdl\drivers\peripheral\prot/cy_prot.c **** ****************************************************************************//**
1476:Generated_Source\PSoC6\pdl\drivers\peripheral\prot/cy_prot.c **** *
1477:Generated_Source\PSoC6\pdl\drivers\peripheral\prot/cy_prot.c **** * Disables the Master PPU PROG structure.
1478:Generated_Source\PSoC6\pdl\drivers\peripheral\prot/cy_prot.c **** *
1479:Generated_Source\PSoC6\pdl\drivers\peripheral\prot/cy_prot.c **** * This is a PPU PROG master struct disable function. The PPU PROG protection 
1480:Generated_Source\PSoC6\pdl\drivers\peripheral\prot/cy_prot.c **** * settings will seize to take effect after successful completion of this 
1481:Generated_Source\PSoC6\pdl\drivers\peripheral\prot/cy_prot.c **** * function call.
1482:Generated_Source\PSoC6\pdl\drivers\peripheral\prot/cy_prot.c **** *
1483:Generated_Source\PSoC6\pdl\drivers\peripheral\prot/cy_prot.c **** * \note This function is applicable for CPUSS ver_1 only.
1484:Generated_Source\PSoC6\pdl\drivers\peripheral\prot/cy_prot.c **** *
1485:Generated_Source\PSoC6\pdl\drivers\peripheral\prot/cy_prot.c **** * \param base
1486:Generated_Source\PSoC6\pdl\drivers\peripheral\prot/cy_prot.c **** * The base address for the protection unit structure being configured. 
1487:Generated_Source\PSoC6\pdl\drivers\peripheral\prot/cy_prot.c **** *
1488:Generated_Source\PSoC6\pdl\drivers\peripheral\prot/cy_prot.c **** * \return
ARM GAS  C:\Users\JC\AppData\Local\Temp\ccU1E72d.s 			page 96


1489:Generated_Source\PSoC6\pdl\drivers\peripheral\prot/cy_prot.c **** * Status of the function call.
1490:Generated_Source\PSoC6\pdl\drivers\peripheral\prot/cy_prot.c **** *
1491:Generated_Source\PSoC6\pdl\drivers\peripheral\prot/cy_prot.c **** *   Status                | Description
1492:Generated_Source\PSoC6\pdl\drivers\peripheral\prot/cy_prot.c **** *   ------------          | -----------
1493:Generated_Source\PSoC6\pdl\drivers\peripheral\prot/cy_prot.c **** *   CY_PROT_SUCCESS       | The Master PU struct was disabled.
1494:Generated_Source\PSoC6\pdl\drivers\peripheral\prot/cy_prot.c **** *   CY_PROT_FAILURE       | The Master PU struct is enabled and possibly locked.
1495:Generated_Source\PSoC6\pdl\drivers\peripheral\prot/cy_prot.c **** *   CY_PROT_INVALID_STATE | The function was called on the device with an unsupported PERI HW versi
1496:Generated_Source\PSoC6\pdl\drivers\peripheral\prot/cy_prot.c **** *
1497:Generated_Source\PSoC6\pdl\drivers\peripheral\prot/cy_prot.c **** * \funcusage
1498:Generated_Source\PSoC6\pdl\drivers\peripheral\prot/cy_prot.c **** * \snippet prot/1.20/snippet/main.c snippet_Cy_Prot_DisablePpuProgMasterStruct
1499:Generated_Source\PSoC6\pdl\drivers\peripheral\prot/cy_prot.c **** *
1500:Generated_Source\PSoC6\pdl\drivers\peripheral\prot/cy_prot.c **** *******************************************************************************/
1501:Generated_Source\PSoC6\pdl\drivers\peripheral\prot/cy_prot.c **** cy_en_prot_status_t Cy_Prot_DisablePpuProgMasterStruct(PERI_PPU_PR_Type* base)
1502:Generated_Source\PSoC6\pdl\drivers\peripheral\prot/cy_prot.c **** {
 3870              		.loc 1 1502 0
 3871              		.cfi_startproc
 3872              		@ args = 0, pretend = 0, frame = 16
 3873              		@ frame_needed = 1, uses_anonymous_args = 0
 3874 0000 80B5     		push	{r7, lr}
 3875              		.cfi_def_cfa_offset 8
 3876              		.cfi_offset 7, -8
 3877              		.cfi_offset 14, -4
 3878 0002 84B0     		sub	sp, sp, #16
 3879              		.cfi_def_cfa_offset 24
 3880 0004 00AF     		add	r7, sp, #0
 3881              		.cfi_def_cfa_register 7
 3882 0006 7860     		str	r0, [r7, #4]
1503:Generated_Source\PSoC6\pdl\drivers\peripheral\prot/cy_prot.c ****     cy_en_prot_status_t status = CY_PROT_INVALID_STATE;
 3883              		.loc 1 1503 0
 3884 0008 134B     		ldr	r3, .L238
 3885 000a FB60     		str	r3, [r7, #12]
1504:Generated_Source\PSoC6\pdl\drivers\peripheral\prot/cy_prot.c ****     
1505:Generated_Source\PSoC6\pdl\drivers\peripheral\prot/cy_prot.c ****     CY_ASSERT_L1(NULL != base);
 3886              		.loc 1 1505 0
 3887 000c 7B68     		ldr	r3, [r7, #4]
 3888 000e 002B     		cmp	r3, #0
 3889 0010 05D1     		bne	.L233
 3890              		.loc 1 1505 0 is_stmt 0 discriminator 1
 3891 0012 124A     		ldr	r2, .L238+4
 3892 0014 124B     		ldr	r3, .L238+8
 3893 0016 1100     		movs	r1, r2
 3894 0018 1800     		movs	r0, r3
 3895 001a FFF7FEFF 		bl	Cy_SysLib_AssertFailed
 3896              	.L233:
1506:Generated_Source\PSoC6\pdl\drivers\peripheral\prot/cy_prot.c ****     
1507:Generated_Source\PSoC6\pdl\drivers\peripheral\prot/cy_prot.c ****     if (CY_PERI_V1)
 3897              		.loc 1 1507 0 is_stmt 1
 3898 001e 114B     		ldr	r3, .L238+12
 3899 0020 1B68     		ldr	r3, [r3]
 3900 0022 2F22     		movs	r2, #47
 3901 0024 9B5C     		ldrb	r3, [r3, r2]
 3902 0026 012B     		cmp	r3, #1
 3903 0028 10D1     		bne	.L234
1508:Generated_Source\PSoC6\pdl\drivers\peripheral\prot/cy_prot.c ****     {
1509:Generated_Source\PSoC6\pdl\drivers\peripheral\prot/cy_prot.c ****         PERI_PPU_PR_ATT1(base) &= ~_VAL2FLD(PERI_PPU_PR_ATT1_ENABLED, CY_PROT_STRUCT_ENABLE);
 3904              		.loc 1 1509 0
 3905 002a 7B68     		ldr	r3, [r7, #4]
ARM GAS  C:\Users\JC\AppData\Local\Temp\ccU1E72d.s 			page 97


 3906 002c 5B6A     		ldr	r3, [r3, #36]
 3907 002e 5B00     		lsls	r3, r3, #1
 3908 0030 5A08     		lsrs	r2, r3, #1
 3909 0032 7B68     		ldr	r3, [r7, #4]
 3910 0034 5A62     		str	r2, [r3, #36]
1510:Generated_Source\PSoC6\pdl\drivers\peripheral\prot/cy_prot.c ****         status = (_FLD2VAL(PERI_PPU_PR_ATT1_ENABLED, PERI_PPU_PR_ATT1(base)) == CY_PROT_STRUCT_ENAB
 3911              		.loc 1 1510 0
 3912 0036 7B68     		ldr	r3, [r7, #4]
 3913 0038 5B6A     		ldr	r3, [r3, #36]
 3914 003a DB0F     		lsrs	r3, r3, #31
 3915 003c DB07     		lsls	r3, r3, #31
 3916 003e DB0F     		lsrs	r3, r3, #31
 3917 0040 012B     		cmp	r3, #1
 3918 0042 01D1     		bne	.L235
 3919              		.loc 1 1510 0 is_stmt 0 discriminator 1
 3920 0044 084B     		ldr	r3, .L238+16
 3921 0046 00E0     		b	.L236
 3922              	.L235:
 3923              		.loc 1 1510 0 discriminator 2
 3924 0048 0023     		movs	r3, #0
 3925              	.L236:
 3926              		.loc 1 1510 0 discriminator 4
 3927 004a FB60     		str	r3, [r7, #12]
 3928              	.L234:
1511:Generated_Source\PSoC6\pdl\drivers\peripheral\prot/cy_prot.c ****                     CY_PROT_FAILURE : CY_PROT_SUCCESS;
1512:Generated_Source\PSoC6\pdl\drivers\peripheral\prot/cy_prot.c ****     }
1513:Generated_Source\PSoC6\pdl\drivers\peripheral\prot/cy_prot.c **** 
1514:Generated_Source\PSoC6\pdl\drivers\peripheral\prot/cy_prot.c ****     return status;
 3929              		.loc 1 1514 0 is_stmt 1
 3930 004c FB68     		ldr	r3, [r7, #12]
1515:Generated_Source\PSoC6\pdl\drivers\peripheral\prot/cy_prot.c **** }
 3931              		.loc 1 1515 0
 3932 004e 1800     		movs	r0, r3
 3933 0050 BD46     		mov	sp, r7
 3934 0052 04B0     		add	sp, sp, #16
 3935              		@ sp needed
 3936 0054 80BD     		pop	{r7, pc}
 3937              	.L239:
 3938 0056 C046     		.align	2
 3939              	.L238:
 3940 0058 0200C200 		.word	12713986
 3941 005c E1050000 		.word	1505
 3942 0060 00000000 		.word	.LC1
 3943 0064 00000000 		.word	cy_device
 3944 0068 0300C200 		.word	12713987
 3945              		.cfi_endproc
 3946              	.LFE71:
 3947              		.size	Cy_Prot_DisablePpuProgMasterStruct, .-Cy_Prot_DisablePpuProgMasterStruct
 3948              		.section	.text.Cy_Prot_EnablePpuProgSlaveStruct,"ax",%progbits
 3949              		.align	2
 3950              		.global	Cy_Prot_EnablePpuProgSlaveStruct
 3951              		.code	16
 3952              		.thumb_func
 3953              		.type	Cy_Prot_EnablePpuProgSlaveStruct, %function
 3954              	Cy_Prot_EnablePpuProgSlaveStruct:
 3955              	.LFB72:
1516:Generated_Source\PSoC6\pdl\drivers\peripheral\prot/cy_prot.c **** 
ARM GAS  C:\Users\JC\AppData\Local\Temp\ccU1E72d.s 			page 98


1517:Generated_Source\PSoC6\pdl\drivers\peripheral\prot/cy_prot.c **** 
1518:Generated_Source\PSoC6\pdl\drivers\peripheral\prot/cy_prot.c **** /*******************************************************************************
1519:Generated_Source\PSoC6\pdl\drivers\peripheral\prot/cy_prot.c **** * Function Name: Cy_Prot_EnablePpuProgSlaveStruct
1520:Generated_Source\PSoC6\pdl\drivers\peripheral\prot/cy_prot.c **** ****************************************************************************//**
1521:Generated_Source\PSoC6\pdl\drivers\peripheral\prot/cy_prot.c **** *
1522:Generated_Source\PSoC6\pdl\drivers\peripheral\prot/cy_prot.c **** * Enables the Slave PPU PROG structure.
1523:Generated_Source\PSoC6\pdl\drivers\peripheral\prot/cy_prot.c **** *
1524:Generated_Source\PSoC6\pdl\drivers\peripheral\prot/cy_prot.c **** * This is a PPU PROG slave struct enable function. The PPU PROG protection 
1525:Generated_Source\PSoC6\pdl\drivers\peripheral\prot/cy_prot.c **** * settings will take effect after successful completion of this function call.
1526:Generated_Source\PSoC6\pdl\drivers\peripheral\prot/cy_prot.c **** *
1527:Generated_Source\PSoC6\pdl\drivers\peripheral\prot/cy_prot.c **** * \note This function is applicable for CPUSS ver_1 only.
1528:Generated_Source\PSoC6\pdl\drivers\peripheral\prot/cy_prot.c **** *
1529:Generated_Source\PSoC6\pdl\drivers\peripheral\prot/cy_prot.c **** * \param base
1530:Generated_Source\PSoC6\pdl\drivers\peripheral\prot/cy_prot.c **** * The base address for the protection unit structure being configured. 
1531:Generated_Source\PSoC6\pdl\drivers\peripheral\prot/cy_prot.c **** *
1532:Generated_Source\PSoC6\pdl\drivers\peripheral\prot/cy_prot.c **** * \return
1533:Generated_Source\PSoC6\pdl\drivers\peripheral\prot/cy_prot.c **** * Status of the function call.
1534:Generated_Source\PSoC6\pdl\drivers\peripheral\prot/cy_prot.c **** *
1535:Generated_Source\PSoC6\pdl\drivers\peripheral\prot/cy_prot.c **** *   Status                | Description
1536:Generated_Source\PSoC6\pdl\drivers\peripheral\prot/cy_prot.c **** *   ------------          | -----------
1537:Generated_Source\PSoC6\pdl\drivers\peripheral\prot/cy_prot.c **** *   CY_PROT_SUCCESS       | The Slave PU struct was enabled.
1538:Generated_Source\PSoC6\pdl\drivers\peripheral\prot/cy_prot.c **** *   CY_PROT_FAILURE       | The Slave PU struct is disabled and possibly locked.
1539:Generated_Source\PSoC6\pdl\drivers\peripheral\prot/cy_prot.c **** *   CY_PROT_INVALID_STATE | The function was called on the device with an unsupported PERI HW versi
1540:Generated_Source\PSoC6\pdl\drivers\peripheral\prot/cy_prot.c **** *
1541:Generated_Source\PSoC6\pdl\drivers\peripheral\prot/cy_prot.c **** * \funcusage
1542:Generated_Source\PSoC6\pdl\drivers\peripheral\prot/cy_prot.c **** * \snippet prot/1.20/snippet/main.c snippet_Cy_Prot_EnablePpuProgSlaveStruct
1543:Generated_Source\PSoC6\pdl\drivers\peripheral\prot/cy_prot.c **** *
1544:Generated_Source\PSoC6\pdl\drivers\peripheral\prot/cy_prot.c **** *******************************************************************************/
1545:Generated_Source\PSoC6\pdl\drivers\peripheral\prot/cy_prot.c **** cy_en_prot_status_t Cy_Prot_EnablePpuProgSlaveStruct(PERI_PPU_PR_Type* base)
1546:Generated_Source\PSoC6\pdl\drivers\peripheral\prot/cy_prot.c **** {   
 3956              		.loc 1 1546 0
 3957              		.cfi_startproc
 3958              		@ args = 0, pretend = 0, frame = 16
 3959              		@ frame_needed = 1, uses_anonymous_args = 0
 3960 0000 80B5     		push	{r7, lr}
 3961              		.cfi_def_cfa_offset 8
 3962              		.cfi_offset 7, -8
 3963              		.cfi_offset 14, -4
 3964 0002 84B0     		sub	sp, sp, #16
 3965              		.cfi_def_cfa_offset 24
 3966 0004 00AF     		add	r7, sp, #0
 3967              		.cfi_def_cfa_register 7
 3968 0006 7860     		str	r0, [r7, #4]
1547:Generated_Source\PSoC6\pdl\drivers\peripheral\prot/cy_prot.c ****     cy_en_prot_status_t status = CY_PROT_INVALID_STATE;
 3969              		.loc 1 1547 0
 3970 0008 134B     		ldr	r3, .L246
 3971 000a FB60     		str	r3, [r7, #12]
1548:Generated_Source\PSoC6\pdl\drivers\peripheral\prot/cy_prot.c ****     
1549:Generated_Source\PSoC6\pdl\drivers\peripheral\prot/cy_prot.c ****     CY_ASSERT_L1(NULL != base);
 3972              		.loc 1 1549 0
 3973 000c 7B68     		ldr	r3, [r7, #4]
 3974 000e 002B     		cmp	r3, #0
 3975 0010 05D1     		bne	.L241
 3976              		.loc 1 1549 0 is_stmt 0 discriminator 1
 3977 0012 124A     		ldr	r2, .L246+4
 3978 0014 124B     		ldr	r3, .L246+8
 3979 0016 1100     		movs	r1, r2
ARM GAS  C:\Users\JC\AppData\Local\Temp\ccU1E72d.s 			page 99


 3980 0018 1800     		movs	r0, r3
 3981 001a FFF7FEFF 		bl	Cy_SysLib_AssertFailed
 3982              	.L241:
1550:Generated_Source\PSoC6\pdl\drivers\peripheral\prot/cy_prot.c ****     
1551:Generated_Source\PSoC6\pdl\drivers\peripheral\prot/cy_prot.c ****     if (CY_PERI_V1)
 3983              		.loc 1 1551 0 is_stmt 1
 3984 001e 114B     		ldr	r3, .L246+12
 3985 0020 1B68     		ldr	r3, [r3]
 3986 0022 2F22     		movs	r2, #47
 3987 0024 9B5C     		ldrb	r3, [r3, r2]
 3988 0026 012B     		cmp	r3, #1
 3989 0028 11D1     		bne	.L242
1552:Generated_Source\PSoC6\pdl\drivers\peripheral\prot/cy_prot.c ****     {
1553:Generated_Source\PSoC6\pdl\drivers\peripheral\prot/cy_prot.c ****         PERI_PPU_PR_ATT0(base) |= _VAL2FLD(PERI_PPU_PR_ATT0_ENABLED, CY_PROT_STRUCT_ENABLE);
 3990              		.loc 1 1553 0
 3991 002a 7B68     		ldr	r3, [r7, #4]
 3992 002c 5B68     		ldr	r3, [r3, #4]
 3993 002e 8022     		movs	r2, #128
 3994 0030 1206     		lsls	r2, r2, #24
 3995 0032 1A43     		orrs	r2, r3
 3996 0034 7B68     		ldr	r3, [r7, #4]
 3997 0036 5A60     		str	r2, [r3, #4]
1554:Generated_Source\PSoC6\pdl\drivers\peripheral\prot/cy_prot.c ****         status = (_FLD2VAL(PERI_PPU_PR_ATT0_ENABLED, PERI_PPU_PR_ATT0(base)) != CY_PROT_STRUCT_ENAB
 3998              		.loc 1 1554 0
 3999 0038 7B68     		ldr	r3, [r7, #4]
 4000 003a 5B68     		ldr	r3, [r3, #4]
 4001 003c DB0F     		lsrs	r3, r3, #31
 4002 003e DB07     		lsls	r3, r3, #31
 4003 0040 DB0F     		lsrs	r3, r3, #31
 4004 0042 012B     		cmp	r3, #1
 4005 0044 01D0     		beq	.L243
 4006              		.loc 1 1554 0 is_stmt 0 discriminator 1
 4007 0046 084B     		ldr	r3, .L246+16
 4008 0048 00E0     		b	.L244
 4009              	.L243:
 4010              		.loc 1 1554 0 discriminator 2
 4011 004a 0023     		movs	r3, #0
 4012              	.L244:
 4013              		.loc 1 1554 0 discriminator 4
 4014 004c FB60     		str	r3, [r7, #12]
 4015              	.L242:
1555:Generated_Source\PSoC6\pdl\drivers\peripheral\prot/cy_prot.c ****                     CY_PROT_FAILURE : CY_PROT_SUCCESS;
1556:Generated_Source\PSoC6\pdl\drivers\peripheral\prot/cy_prot.c ****     }
1557:Generated_Source\PSoC6\pdl\drivers\peripheral\prot/cy_prot.c **** 
1558:Generated_Source\PSoC6\pdl\drivers\peripheral\prot/cy_prot.c ****     return status;
 4016              		.loc 1 1558 0 is_stmt 1
 4017 004e FB68     		ldr	r3, [r7, #12]
1559:Generated_Source\PSoC6\pdl\drivers\peripheral\prot/cy_prot.c **** }
 4018              		.loc 1 1559 0
 4019 0050 1800     		movs	r0, r3
 4020 0052 BD46     		mov	sp, r7
 4021 0054 04B0     		add	sp, sp, #16
 4022              		@ sp needed
 4023 0056 80BD     		pop	{r7, pc}
 4024              	.L247:
 4025              		.align	2
 4026              	.L246:
ARM GAS  C:\Users\JC\AppData\Local\Temp\ccU1E72d.s 			page 100


 4027 0058 0200C200 		.word	12713986
 4028 005c 0D060000 		.word	1549
 4029 0060 00000000 		.word	.LC1
 4030 0064 00000000 		.word	cy_device
 4031 0068 0300C200 		.word	12713987
 4032              		.cfi_endproc
 4033              	.LFE72:
 4034              		.size	Cy_Prot_EnablePpuProgSlaveStruct, .-Cy_Prot_EnablePpuProgSlaveStruct
 4035              		.section	.text.Cy_Prot_DisablePpuProgSlaveStruct,"ax",%progbits
 4036              		.align	2
 4037              		.global	Cy_Prot_DisablePpuProgSlaveStruct
 4038              		.code	16
 4039              		.thumb_func
 4040              		.type	Cy_Prot_DisablePpuProgSlaveStruct, %function
 4041              	Cy_Prot_DisablePpuProgSlaveStruct:
 4042              	.LFB73:
1560:Generated_Source\PSoC6\pdl\drivers\peripheral\prot/cy_prot.c **** 
1561:Generated_Source\PSoC6\pdl\drivers\peripheral\prot/cy_prot.c **** 
1562:Generated_Source\PSoC6\pdl\drivers\peripheral\prot/cy_prot.c **** /*******************************************************************************
1563:Generated_Source\PSoC6\pdl\drivers\peripheral\prot/cy_prot.c **** * Function Name: Cy_Prot_DisablePpuProgSlaveStruct
1564:Generated_Source\PSoC6\pdl\drivers\peripheral\prot/cy_prot.c **** ****************************************************************************//**
1565:Generated_Source\PSoC6\pdl\drivers\peripheral\prot/cy_prot.c **** *
1566:Generated_Source\PSoC6\pdl\drivers\peripheral\prot/cy_prot.c **** * Disables the Slave PPU PROG structure.
1567:Generated_Source\PSoC6\pdl\drivers\peripheral\prot/cy_prot.c **** *
1568:Generated_Source\PSoC6\pdl\drivers\peripheral\prot/cy_prot.c **** * This is a PPU PROG slave struct disable function. The PPU PROG protection 
1569:Generated_Source\PSoC6\pdl\drivers\peripheral\prot/cy_prot.c **** * settings will seize to take effect after successful completion of this 
1570:Generated_Source\PSoC6\pdl\drivers\peripheral\prot/cy_prot.c **** * function call.
1571:Generated_Source\PSoC6\pdl\drivers\peripheral\prot/cy_prot.c **** *
1572:Generated_Source\PSoC6\pdl\drivers\peripheral\prot/cy_prot.c **** * \note This function is applicable for CPUSS ver_1 only.
1573:Generated_Source\PSoC6\pdl\drivers\peripheral\prot/cy_prot.c **** *
1574:Generated_Source\PSoC6\pdl\drivers\peripheral\prot/cy_prot.c **** * \param base
1575:Generated_Source\PSoC6\pdl\drivers\peripheral\prot/cy_prot.c **** * The base address for the protection unit structure being configured. 
1576:Generated_Source\PSoC6\pdl\drivers\peripheral\prot/cy_prot.c **** *
1577:Generated_Source\PSoC6\pdl\drivers\peripheral\prot/cy_prot.c **** * \return
1578:Generated_Source\PSoC6\pdl\drivers\peripheral\prot/cy_prot.c **** * Status of the function call.
1579:Generated_Source\PSoC6\pdl\drivers\peripheral\prot/cy_prot.c **** *
1580:Generated_Source\PSoC6\pdl\drivers\peripheral\prot/cy_prot.c **** *   Status                | Description
1581:Generated_Source\PSoC6\pdl\drivers\peripheral\prot/cy_prot.c **** *   ------------          | -----------
1582:Generated_Source\PSoC6\pdl\drivers\peripheral\prot/cy_prot.c **** *   CY_PROT_SUCCESS       | The Slave PU struct was disabled.
1583:Generated_Source\PSoC6\pdl\drivers\peripheral\prot/cy_prot.c **** *   CY_PROT_FAILURE       | The Slave PU struct is enabled and possibly locked.
1584:Generated_Source\PSoC6\pdl\drivers\peripheral\prot/cy_prot.c **** *   CY_PROT_INVALID_STATE | The function was called on the device with an unsupported PERI HW versi
1585:Generated_Source\PSoC6\pdl\drivers\peripheral\prot/cy_prot.c **** *
1586:Generated_Source\PSoC6\pdl\drivers\peripheral\prot/cy_prot.c **** * \funcusage
1587:Generated_Source\PSoC6\pdl\drivers\peripheral\prot/cy_prot.c **** * \snippet prot/1.20/snippet/main.c snippet_Cy_Prot_DisablePpuProgSlaveStruct
1588:Generated_Source\PSoC6\pdl\drivers\peripheral\prot/cy_prot.c **** *
1589:Generated_Source\PSoC6\pdl\drivers\peripheral\prot/cy_prot.c **** *******************************************************************************/
1590:Generated_Source\PSoC6\pdl\drivers\peripheral\prot/cy_prot.c **** cy_en_prot_status_t Cy_Prot_DisablePpuProgSlaveStruct(PERI_PPU_PR_Type* base)
1591:Generated_Source\PSoC6\pdl\drivers\peripheral\prot/cy_prot.c **** {
 4043              		.loc 1 1591 0
 4044              		.cfi_startproc
 4045              		@ args = 0, pretend = 0, frame = 16
 4046              		@ frame_needed = 1, uses_anonymous_args = 0
 4047 0000 80B5     		push	{r7, lr}
 4048              		.cfi_def_cfa_offset 8
 4049              		.cfi_offset 7, -8
 4050              		.cfi_offset 14, -4
 4051 0002 84B0     		sub	sp, sp, #16
ARM GAS  C:\Users\JC\AppData\Local\Temp\ccU1E72d.s 			page 101


 4052              		.cfi_def_cfa_offset 24
 4053 0004 00AF     		add	r7, sp, #0
 4054              		.cfi_def_cfa_register 7
 4055 0006 7860     		str	r0, [r7, #4]
1592:Generated_Source\PSoC6\pdl\drivers\peripheral\prot/cy_prot.c ****     cy_en_prot_status_t status = CY_PROT_INVALID_STATE;
 4056              		.loc 1 1592 0
 4057 0008 134B     		ldr	r3, .L254
 4058 000a FB60     		str	r3, [r7, #12]
1593:Generated_Source\PSoC6\pdl\drivers\peripheral\prot/cy_prot.c ****     
1594:Generated_Source\PSoC6\pdl\drivers\peripheral\prot/cy_prot.c ****     CY_ASSERT_L1(NULL != base);
 4059              		.loc 1 1594 0
 4060 000c 7B68     		ldr	r3, [r7, #4]
 4061 000e 002B     		cmp	r3, #0
 4062 0010 05D1     		bne	.L249
 4063              		.loc 1 1594 0 is_stmt 0 discriminator 1
 4064 0012 124A     		ldr	r2, .L254+4
 4065 0014 124B     		ldr	r3, .L254+8
 4066 0016 1100     		movs	r1, r2
 4067 0018 1800     		movs	r0, r3
 4068 001a FFF7FEFF 		bl	Cy_SysLib_AssertFailed
 4069              	.L249:
1595:Generated_Source\PSoC6\pdl\drivers\peripheral\prot/cy_prot.c ****     
1596:Generated_Source\PSoC6\pdl\drivers\peripheral\prot/cy_prot.c ****     if (CY_PERI_V1)
 4070              		.loc 1 1596 0 is_stmt 1
 4071 001e 114B     		ldr	r3, .L254+12
 4072 0020 1B68     		ldr	r3, [r3]
 4073 0022 2F22     		movs	r2, #47
 4074 0024 9B5C     		ldrb	r3, [r3, r2]
 4075 0026 012B     		cmp	r3, #1
 4076 0028 10D1     		bne	.L250
1597:Generated_Source\PSoC6\pdl\drivers\peripheral\prot/cy_prot.c ****     {
1598:Generated_Source\PSoC6\pdl\drivers\peripheral\prot/cy_prot.c ****         PERI_PPU_PR_ATT0(base) &= ~_VAL2FLD(PERI_PPU_PR_ATT0_ENABLED, CY_PROT_STRUCT_ENABLE);
 4077              		.loc 1 1598 0
 4078 002a 7B68     		ldr	r3, [r7, #4]
 4079 002c 5B68     		ldr	r3, [r3, #4]
 4080 002e 5B00     		lsls	r3, r3, #1
 4081 0030 5A08     		lsrs	r2, r3, #1
 4082 0032 7B68     		ldr	r3, [r7, #4]
 4083 0034 5A60     		str	r2, [r3, #4]
1599:Generated_Source\PSoC6\pdl\drivers\peripheral\prot/cy_prot.c ****         status = (_FLD2VAL(PERI_PPU_PR_ATT0_ENABLED, PERI_PPU_PR_ATT0(base)) == CY_PROT_STRUCT_ENAB
 4084              		.loc 1 1599 0
 4085 0036 7B68     		ldr	r3, [r7, #4]
 4086 0038 5B68     		ldr	r3, [r3, #4]
 4087 003a DB0F     		lsrs	r3, r3, #31
 4088 003c DB07     		lsls	r3, r3, #31
 4089 003e DB0F     		lsrs	r3, r3, #31
 4090 0040 012B     		cmp	r3, #1
 4091 0042 01D1     		bne	.L251
 4092              		.loc 1 1599 0 is_stmt 0 discriminator 1
 4093 0044 084B     		ldr	r3, .L254+16
 4094 0046 00E0     		b	.L252
 4095              	.L251:
 4096              		.loc 1 1599 0 discriminator 2
 4097 0048 0023     		movs	r3, #0
 4098              	.L252:
 4099              		.loc 1 1599 0 discriminator 4
 4100 004a FB60     		str	r3, [r7, #12]
ARM GAS  C:\Users\JC\AppData\Local\Temp\ccU1E72d.s 			page 102


 4101              	.L250:
1600:Generated_Source\PSoC6\pdl\drivers\peripheral\prot/cy_prot.c ****                     CY_PROT_FAILURE : CY_PROT_SUCCESS;
1601:Generated_Source\PSoC6\pdl\drivers\peripheral\prot/cy_prot.c ****     }
1602:Generated_Source\PSoC6\pdl\drivers\peripheral\prot/cy_prot.c **** 
1603:Generated_Source\PSoC6\pdl\drivers\peripheral\prot/cy_prot.c ****     return status;
 4102              		.loc 1 1603 0 is_stmt 1
 4103 004c FB68     		ldr	r3, [r7, #12]
1604:Generated_Source\PSoC6\pdl\drivers\peripheral\prot/cy_prot.c **** }
 4104              		.loc 1 1604 0
 4105 004e 1800     		movs	r0, r3
 4106 0050 BD46     		mov	sp, r7
 4107 0052 04B0     		add	sp, sp, #16
 4108              		@ sp needed
 4109 0054 80BD     		pop	{r7, pc}
 4110              	.L255:
 4111 0056 C046     		.align	2
 4112              	.L254:
 4113 0058 0200C200 		.word	12713986
 4114 005c 3A060000 		.word	1594
 4115 0060 00000000 		.word	.LC1
 4116 0064 00000000 		.word	cy_device
 4117 0068 0300C200 		.word	12713987
 4118              		.cfi_endproc
 4119              	.LFE73:
 4120              		.size	Cy_Prot_DisablePpuProgSlaveStruct, .-Cy_Prot_DisablePpuProgSlaveStruct
 4121              		.section	.text.Cy_Prot_GetPpuProgStruct,"ax",%progbits
 4122              		.align	2
 4123              		.global	Cy_Prot_GetPpuProgStruct
 4124              		.code	16
 4125              		.thumb_func
 4126              		.type	Cy_Prot_GetPpuProgStruct, %function
 4127              	Cy_Prot_GetPpuProgStruct:
 4128              	.LFB74:
1605:Generated_Source\PSoC6\pdl\drivers\peripheral\prot/cy_prot.c **** 
1606:Generated_Source\PSoC6\pdl\drivers\peripheral\prot/cy_prot.c **** 
1607:Generated_Source\PSoC6\pdl\drivers\peripheral\prot/cy_prot.c **** /*******************************************************************************
1608:Generated_Source\PSoC6\pdl\drivers\peripheral\prot/cy_prot.c **** * Function Name: Cy_Prot_GetPpuProgStruct
1609:Generated_Source\PSoC6\pdl\drivers\peripheral\prot/cy_prot.c **** ****************************************************************************//**
1610:Generated_Source\PSoC6\pdl\drivers\peripheral\prot/cy_prot.c **** *
1611:Generated_Source\PSoC6\pdl\drivers\peripheral\prot/cy_prot.c **** * Functions returns a pointer of the requested unused Programmable PPU 
1612:Generated_Source\PSoC6\pdl\drivers\peripheral\prot/cy_prot.c **** * structure. Function searches the Programmable PPU structure until it finds 
1613:Generated_Source\PSoC6\pdl\drivers\peripheral\prot/cy_prot.c **** * one that both the slave and master sections are disabled. After an available
1614:Generated_Source\PSoC6\pdl\drivers\peripheral\prot/cy_prot.c **** * structure is located, function enables the slave structure and enables all 
1615:Generated_Source\PSoC6\pdl\drivers\peripheral\prot/cy_prot.c **** * attributes, to make sure that a subsequent call will not see this
1616:Generated_Source\PSoC6\pdl\drivers\peripheral\prot/cy_prot.c **** * as an available (unused) Programmable PPU. 
1617:Generated_Source\PSoC6\pdl\drivers\peripheral\prot/cy_prot.c **** *
1618:Generated_Source\PSoC6\pdl\drivers\peripheral\prot/cy_prot.c **** * It is up to the user to implement, if needed, a system in which a semaphore 
1619:Generated_Source\PSoC6\pdl\drivers\peripheral\prot/cy_prot.c **** * will lock-out all but one CPU from calling this function at once.
1620:Generated_Source\PSoC6\pdl\drivers\peripheral\prot/cy_prot.c **** *
1621:Generated_Source\PSoC6\pdl\drivers\peripheral\prot/cy_prot.c **** * \note This function is applicable for CPUSS ver_1 only.
1622:Generated_Source\PSoC6\pdl\drivers\peripheral\prot/cy_prot.c **** *
1623:Generated_Source\PSoC6\pdl\drivers\peripheral\prot/cy_prot.c **** * \param base
1624:Generated_Source\PSoC6\pdl\drivers\peripheral\prot/cy_prot.c **** * The base address for the Programmable PPU structure returned if an unused 
1625:Generated_Source\PSoC6\pdl\drivers\peripheral\prot/cy_prot.c **** * structure was found. If an empty structure was not found, the returned 
1626:Generated_Source\PSoC6\pdl\drivers\peripheral\prot/cy_prot.c **** * pointer is NULL.
1627:Generated_Source\PSoC6\pdl\drivers\peripheral\prot/cy_prot.c **** *
1628:Generated_Source\PSoC6\pdl\drivers\peripheral\prot/cy_prot.c **** * \param reqMode
ARM GAS  C:\Users\JC\AppData\Local\Temp\ccU1E72d.s 			page 103


1629:Generated_Source\PSoC6\pdl\drivers\peripheral\prot/cy_prot.c **** * This parameter (request mode) selects how the user wants to select a 
1630:Generated_Source\PSoC6\pdl\drivers\peripheral\prot/cy_prot.c **** * Programmable PPU structure.
1631:Generated_Source\PSoC6\pdl\drivers\peripheral\prot/cy_prot.c **** *
1632:Generated_Source\PSoC6\pdl\drivers\peripheral\prot/cy_prot.c **** *   reqMode                 | Description
1633:Generated_Source\PSoC6\pdl\drivers\peripheral\prot/cy_prot.c **** * --------------------------| -----------------------------
1634:Generated_Source\PSoC6\pdl\drivers\peripheral\prot/cy_prot.c **** * CY_PROT_REQMODE_HIGHPRIOR | Return the Programmable PPU structure with the highest priority.
1635:Generated_Source\PSoC6\pdl\drivers\peripheral\prot/cy_prot.c **** * CY_PROT_REQMODE_LOWPRIOR  | Return the Programmable PPU structure with the lowest priority.
1636:Generated_Source\PSoC6\pdl\drivers\peripheral\prot/cy_prot.c **** * CY_PROT_REQMODE_INDEX     | Return the Programmable PPU structure with the specific index.
1637:Generated_Source\PSoC6\pdl\drivers\peripheral\prot/cy_prot.c **** *
1638:Generated_Source\PSoC6\pdl\drivers\peripheral\prot/cy_prot.c **** * \param ppuProgIndex
1639:Generated_Source\PSoC6\pdl\drivers\peripheral\prot/cy_prot.c **** * This is the index of the requested Programmable PPU structure. It is only 
1640:Generated_Source\PSoC6\pdl\drivers\peripheral\prot/cy_prot.c **** * used if the request mode is reqMode = CY_PROT_REQMODE_INDEX.
1641:Generated_Source\PSoC6\pdl\drivers\peripheral\prot/cy_prot.c **** *
1642:Generated_Source\PSoC6\pdl\drivers\peripheral\prot/cy_prot.c **** * \return
1643:Generated_Source\PSoC6\pdl\drivers\peripheral\prot/cy_prot.c **** * Status of the function call.
1644:Generated_Source\PSoC6\pdl\drivers\peripheral\prot/cy_prot.c **** *
1645:Generated_Source\PSoC6\pdl\drivers\peripheral\prot/cy_prot.c **** *   Status              | Description
1646:Generated_Source\PSoC6\pdl\drivers\peripheral\prot/cy_prot.c **** * ----------------------| ---------------------------------------
1647:Generated_Source\PSoC6\pdl\drivers\peripheral\prot/cy_prot.c **** * CY_PROT_SUCCESS       | The Slave PU struct was disabled.
1648:Generated_Source\PSoC6\pdl\drivers\peripheral\prot/cy_prot.c **** * CY_PROT_FAILURE       | The Master or Slave Programmable PPU struct is disabled and possibly lock
1649:Generated_Source\PSoC6\pdl\drivers\peripheral\prot/cy_prot.c **** * CY_PROT_UNAVAILABLE   | The requested structure in use or there were no unused structures.
1650:Generated_Source\PSoC6\pdl\drivers\peripheral\prot/cy_prot.c **** * CY_PROT_INVALID_STATE | Function was called on unsupported PERI HW version.
1651:Generated_Source\PSoC6\pdl\drivers\peripheral\prot/cy_prot.c **** *
1652:Generated_Source\PSoC6\pdl\drivers\peripheral\prot/cy_prot.c **** * \funcusage
1653:Generated_Source\PSoC6\pdl\drivers\peripheral\prot/cy_prot.c **** * \snippet prot/1.20/snippet/main.c snippet_Cy_Prot_GetPpuProgStruct
1654:Generated_Source\PSoC6\pdl\drivers\peripheral\prot/cy_prot.c **** *
1655:Generated_Source\PSoC6\pdl\drivers\peripheral\prot/cy_prot.c **** *******************************************************************************/
1656:Generated_Source\PSoC6\pdl\drivers\peripheral\prot/cy_prot.c **** cy_en_prot_status_t Cy_Prot_GetPpuProgStruct(PERI_PPU_PR_Type** base, cy_en_prot_req_mode_t reqMode
1657:Generated_Source\PSoC6\pdl\drivers\peripheral\prot/cy_prot.c **** {
 4129              		.loc 1 1657 0
 4130              		.cfi_startproc
 4131              		@ args = 0, pretend = 0, frame = 24
 4132              		@ frame_needed = 1, uses_anonymous_args = 0
 4133 0000 80B5     		push	{r7, lr}
 4134              		.cfi_def_cfa_offset 8
 4135              		.cfi_offset 7, -8
 4136              		.cfi_offset 14, -4
 4137 0002 86B0     		sub	sp, sp, #24
 4138              		.cfi_def_cfa_offset 32
 4139 0004 00AF     		add	r7, sp, #0
 4140              		.cfi_def_cfa_register 7
 4141 0006 F860     		str	r0, [r7, #12]
 4142 0008 7A60     		str	r2, [r7, #4]
 4143 000a 0B23     		movs	r3, #11
 4144 000c FB18     		adds	r3, r7, r3
 4145 000e 0A1C     		adds	r2, r1, #0
 4146 0010 1A70     		strb	r2, [r3]
1658:Generated_Source\PSoC6\pdl\drivers\peripheral\prot/cy_prot.c ****     cy_en_prot_status_t status = CY_PROT_INVALID_STATE;
 4147              		.loc 1 1658 0
 4148 0012 604B     		ldr	r3, .L280
 4149 0014 7B61     		str	r3, [r7, #20]
1659:Generated_Source\PSoC6\pdl\drivers\peripheral\prot/cy_prot.c ****     
1660:Generated_Source\PSoC6\pdl\drivers\peripheral\prot/cy_prot.c ****     if (CY_PERI_V1)
 4150              		.loc 1 1660 0
 4151 0016 604B     		ldr	r3, .L280+4
 4152 0018 1B68     		ldr	r3, [r3]
 4153 001a 2F22     		movs	r2, #47
ARM GAS  C:\Users\JC\AppData\Local\Temp\ccU1E72d.s 			page 104


 4154 001c 9B5C     		ldrb	r3, [r3, r2]
 4155 001e 012B     		cmp	r3, #1
 4156 0020 00D0     		beq	.LCB3620
 4157 0022 B2E0     		b	.L257	@long jump
 4158              	.LCB3620:
 4159              	.LBB3:
1661:Generated_Source\PSoC6\pdl\drivers\peripheral\prot/cy_prot.c ****     {
1662:Generated_Source\PSoC6\pdl\drivers\peripheral\prot/cy_prot.c ****         CY_ASSERT_L3(CY_PROT_IS_PPU_PROG_REQ_MODE_VALID(reqMode));
 4160              		.loc 1 1662 0
 4161 0024 0B23     		movs	r3, #11
 4162 0026 FB18     		adds	r3, r7, r3
 4163 0028 1B78     		ldrb	r3, [r3]
 4164 002a 002B     		cmp	r3, #0
 4165 002c 0FD0     		beq	.L258
 4166              		.loc 1 1662 0 is_stmt 0 discriminator 1
 4167 002e 0B23     		movs	r3, #11
 4168 0030 FB18     		adds	r3, r7, r3
 4169 0032 1B78     		ldrb	r3, [r3]
 4170 0034 012B     		cmp	r3, #1
 4171 0036 0AD0     		beq	.L258
 4172              		.loc 1 1662 0 discriminator 2
 4173 0038 0B23     		movs	r3, #11
 4174 003a FB18     		adds	r3, r7, r3
 4175 003c 1B78     		ldrb	r3, [r3]
 4176 003e 022B     		cmp	r3, #2
 4177 0040 05D0     		beq	.L258
 4178              		.loc 1 1662 0 discriminator 3
 4179 0042 564A     		ldr	r2, .L280+8
 4180 0044 564B     		ldr	r3, .L280+12
 4181 0046 1100     		movs	r1, r2
 4182 0048 1800     		movs	r0, r3
 4183 004a FFF7FEFF 		bl	Cy_SysLib_AssertFailed
 4184              	.L258:
1663:Generated_Source\PSoC6\pdl\drivers\peripheral\prot/cy_prot.c ****         CY_ASSERT_L2(CY_PROT_IS_PPU_PROG_IDX_VALID(ppuProgIndex));
 4185              		.loc 1 1663 0 is_stmt 1
 4186 004e 7B68     		ldr	r3, [r7, #4]
 4187 0050 0F2B     		cmp	r3, #15
 4188 0052 05D9     		bls	.L259
 4189              		.loc 1 1663 0 is_stmt 0 discriminator 1
 4190 0054 534A     		ldr	r2, .L280+16
 4191 0056 524B     		ldr	r3, .L280+12
 4192 0058 1100     		movs	r1, r2
 4193 005a 1800     		movs	r0, r3
 4194 005c FFF7FEFF 		bl	Cy_SysLib_AssertFailed
 4195              	.L259:
1664:Generated_Source\PSoC6\pdl\drivers\peripheral\prot/cy_prot.c **** 
1665:Generated_Source\PSoC6\pdl\drivers\peripheral\prot/cy_prot.c ****         status = CY_PROT_UNAVAILABLE;
 4196              		.loc 1 1665 0 is_stmt 1
 4197 0060 514B     		ldr	r3, .L280+20
 4198 0062 7B61     		str	r3, [r7, #20]
1666:Generated_Source\PSoC6\pdl\drivers\peripheral\prot/cy_prot.c ****         int32_t stcIdx = (int32_t) ppuProgIndex;
 4199              		.loc 1 1666 0
 4200 0064 7B68     		ldr	r3, [r7, #4]
 4201 0066 3B61     		str	r3, [r7, #16]
1667:Generated_Source\PSoC6\pdl\drivers\peripheral\prot/cy_prot.c **** 
1668:Generated_Source\PSoC6\pdl\drivers\peripheral\prot/cy_prot.c ****         *base = NULL;
 4202              		.loc 1 1668 0
ARM GAS  C:\Users\JC\AppData\Local\Temp\ccU1E72d.s 			page 105


 4203 0068 FB68     		ldr	r3, [r7, #12]
 4204 006a 0022     		movs	r2, #0
 4205 006c 1A60     		str	r2, [r3]
1669:Generated_Source\PSoC6\pdl\drivers\peripheral\prot/cy_prot.c **** 
1670:Generated_Source\PSoC6\pdl\drivers\peripheral\prot/cy_prot.c ****         switch (reqMode)
 4206              		.loc 1 1670 0
 4207 006e 0B23     		movs	r3, #11
 4208 0070 FB18     		adds	r3, r7, r3
 4209 0072 1B78     		ldrb	r3, [r3]
 4210 0074 012B     		cmp	r3, #1
 4211 0076 04D0     		beq	.L261
 4212 0078 022B     		cmp	r3, #2
 4213 007a 2CD0     		beq	.L262
 4214 007c 002B     		cmp	r3, #0
 4215 007e 15D0     		beq	.L263
1671:Generated_Source\PSoC6\pdl\drivers\peripheral\prot/cy_prot.c ****         {
1672:Generated_Source\PSoC6\pdl\drivers\peripheral\prot/cy_prot.c ****             /* Programmed structures priority goes from 0 (highest) to
1673:Generated_Source\PSoC6\pdl\drivers\peripheral\prot/cy_prot.c ****             *  PROT_PPU_PROG_STRUCT_WTH_LOWEST_PR (lowest) 
1674:Generated_Source\PSoC6\pdl\drivers\peripheral\prot/cy_prot.c ****             */
1675:Generated_Source\PSoC6\pdl\drivers\peripheral\prot/cy_prot.c ****             case CY_PROT_REQMODE_LOWPRIOR:
1676:Generated_Source\PSoC6\pdl\drivers\peripheral\prot/cy_prot.c **** 
1677:Generated_Source\PSoC6\pdl\drivers\peripheral\prot/cy_prot.c ****                 stcIdx = PROT_PPU_PROG_STRUCT_WTH_LOWEST_PR;
1678:Generated_Source\PSoC6\pdl\drivers\peripheral\prot/cy_prot.c ****                 do
1679:Generated_Source\PSoC6\pdl\drivers\peripheral\prot/cy_prot.c ****                 {
1680:Generated_Source\PSoC6\pdl\drivers\peripheral\prot/cy_prot.c ****                     if (Prot_IsPpuProgStructDisabled((uint32_t)stcIdx))
1681:Generated_Source\PSoC6\pdl\drivers\peripheral\prot/cy_prot.c ****                     {
1682:Generated_Source\PSoC6\pdl\drivers\peripheral\prot/cy_prot.c ****                         status = CY_PROT_SUCCESS;
1683:Generated_Source\PSoC6\pdl\drivers\peripheral\prot/cy_prot.c ****                     }
1684:Generated_Source\PSoC6\pdl\drivers\peripheral\prot/cy_prot.c ****                     else
1685:Generated_Source\PSoC6\pdl\drivers\peripheral\prot/cy_prot.c ****                     {
1686:Generated_Source\PSoC6\pdl\drivers\peripheral\prot/cy_prot.c ****                         --stcIdx;
1687:Generated_Source\PSoC6\pdl\drivers\peripheral\prot/cy_prot.c ****                     }
1688:Generated_Source\PSoC6\pdl\drivers\peripheral\prot/cy_prot.c ****                 } while ((stcIdx >= 0) && (CY_PROT_SUCCESS != status));
1689:Generated_Source\PSoC6\pdl\drivers\peripheral\prot/cy_prot.c ****                 break;
1690:Generated_Source\PSoC6\pdl\drivers\peripheral\prot/cy_prot.c **** 
1691:Generated_Source\PSoC6\pdl\drivers\peripheral\prot/cy_prot.c ****             /* Programmed structures priority goes from 0 (highest) to 
1692:Generated_Source\PSoC6\pdl\drivers\peripheral\prot/cy_prot.c ****             *  PROT_PPU_PROG_STRUCT_WTH_LOWEST_PR (lowest)
1693:Generated_Source\PSoC6\pdl\drivers\peripheral\prot/cy_prot.c ****             */
1694:Generated_Source\PSoC6\pdl\drivers\peripheral\prot/cy_prot.c ****             case CY_PROT_REQMODE_HIGHPRIOR:
1695:Generated_Source\PSoC6\pdl\drivers\peripheral\prot/cy_prot.c ****                 stcIdx = 0;
1696:Generated_Source\PSoC6\pdl\drivers\peripheral\prot/cy_prot.c ****                 do
1697:Generated_Source\PSoC6\pdl\drivers\peripheral\prot/cy_prot.c ****                 {
1698:Generated_Source\PSoC6\pdl\drivers\peripheral\prot/cy_prot.c ****                     if (Prot_IsPpuProgStructDisabled((uint32_t)stcIdx))
1699:Generated_Source\PSoC6\pdl\drivers\peripheral\prot/cy_prot.c ****                     {
1700:Generated_Source\PSoC6\pdl\drivers\peripheral\prot/cy_prot.c ****                         status = CY_PROT_SUCCESS;
1701:Generated_Source\PSoC6\pdl\drivers\peripheral\prot/cy_prot.c ****                     }
1702:Generated_Source\PSoC6\pdl\drivers\peripheral\prot/cy_prot.c ****                     else
1703:Generated_Source\PSoC6\pdl\drivers\peripheral\prot/cy_prot.c ****                     {
1704:Generated_Source\PSoC6\pdl\drivers\peripheral\prot/cy_prot.c ****                         ++stcIdx;
1705:Generated_Source\PSoC6\pdl\drivers\peripheral\prot/cy_prot.c ****                     }
1706:Generated_Source\PSoC6\pdl\drivers\peripheral\prot/cy_prot.c ****                 } while ((stcIdx <= PROT_PPU_PROG_STRUCT_WTH_LOWEST_PR) && (CY_PROT_SUCCESS != stat
1707:Generated_Source\PSoC6\pdl\drivers\peripheral\prot/cy_prot.c ****                 break;
1708:Generated_Source\PSoC6\pdl\drivers\peripheral\prot/cy_prot.c ****             
1709:Generated_Source\PSoC6\pdl\drivers\peripheral\prot/cy_prot.c ****             case CY_PROT_REQMODE_INDEX:
1710:Generated_Source\PSoC6\pdl\drivers\peripheral\prot/cy_prot.c **** 
1711:Generated_Source\PSoC6\pdl\drivers\peripheral\prot/cy_prot.c ****                 if (Prot_IsPpuProgStructDisabled((uint32_t)stcIdx))
1712:Generated_Source\PSoC6\pdl\drivers\peripheral\prot/cy_prot.c ****                 {
ARM GAS  C:\Users\JC\AppData\Local\Temp\ccU1E72d.s 			page 106


1713:Generated_Source\PSoC6\pdl\drivers\peripheral\prot/cy_prot.c ****                     status = CY_PROT_SUCCESS;
1714:Generated_Source\PSoC6\pdl\drivers\peripheral\prot/cy_prot.c ****                 }
1715:Generated_Source\PSoC6\pdl\drivers\peripheral\prot/cy_prot.c ****                 break;
1716:Generated_Source\PSoC6\pdl\drivers\peripheral\prot/cy_prot.c ****                 
1717:Generated_Source\PSoC6\pdl\drivers\peripheral\prot/cy_prot.c ****             default:
1718:Generated_Source\PSoC6\pdl\drivers\peripheral\prot/cy_prot.c ****                 break;
 4216              		.loc 1 1718 0
 4217 0080 37E0     		b	.L268
 4218              	.L261:
1677:Generated_Source\PSoC6\pdl\drivers\peripheral\prot/cy_prot.c ****                 do
 4219              		.loc 1 1677 0
 4220 0082 0F23     		movs	r3, #15
 4221 0084 3B61     		str	r3, [r7, #16]
 4222              	.L267:
1680:Generated_Source\PSoC6\pdl\drivers\peripheral\prot/cy_prot.c ****                     {
 4223              		.loc 1 1680 0
 4224 0086 3B69     		ldr	r3, [r7, #16]
 4225 0088 1800     		movs	r0, r3
 4226 008a FFF7FEFF 		bl	Prot_IsPpuProgStructDisabled
 4227 008e 031E     		subs	r3, r0, #0
 4228 0090 02D0     		beq	.L264
1682:Generated_Source\PSoC6\pdl\drivers\peripheral\prot/cy_prot.c ****                     }
 4229              		.loc 1 1682 0
 4230 0092 0023     		movs	r3, #0
 4231 0094 7B61     		str	r3, [r7, #20]
 4232 0096 02E0     		b	.L265
 4233              	.L264:
1686:Generated_Source\PSoC6\pdl\drivers\peripheral\prot/cy_prot.c ****                     }
 4234              		.loc 1 1686 0
 4235 0098 3B69     		ldr	r3, [r7, #16]
 4236 009a 013B     		subs	r3, r3, #1
 4237 009c 3B61     		str	r3, [r7, #16]
 4238              	.L265:
1688:Generated_Source\PSoC6\pdl\drivers\peripheral\prot/cy_prot.c ****                 break;
 4239              		.loc 1 1688 0
 4240 009e 3B69     		ldr	r3, [r7, #16]
 4241 00a0 002B     		cmp	r3, #0
 4242 00a2 21DB     		blt	.L277
1688:Generated_Source\PSoC6\pdl\drivers\peripheral\prot/cy_prot.c ****                 break;
 4243              		.loc 1 1688 0 is_stmt 0 discriminator 1
 4244 00a4 7B69     		ldr	r3, [r7, #20]
 4245 00a6 002B     		cmp	r3, #0
 4246 00a8 EDD1     		bne	.L267
1689:Generated_Source\PSoC6\pdl\drivers\peripheral\prot/cy_prot.c **** 
 4247              		.loc 1 1689 0 is_stmt 1
 4248 00aa 1DE0     		b	.L277
 4249              	.L263:
1695:Generated_Source\PSoC6\pdl\drivers\peripheral\prot/cy_prot.c ****                 do
 4250              		.loc 1 1695 0
 4251 00ac 0023     		movs	r3, #0
 4252 00ae 3B61     		str	r3, [r7, #16]
 4253              	.L272:
1698:Generated_Source\PSoC6\pdl\drivers\peripheral\prot/cy_prot.c ****                     {
 4254              		.loc 1 1698 0
 4255 00b0 3B69     		ldr	r3, [r7, #16]
 4256 00b2 1800     		movs	r0, r3
 4257 00b4 FFF7FEFF 		bl	Prot_IsPpuProgStructDisabled
ARM GAS  C:\Users\JC\AppData\Local\Temp\ccU1E72d.s 			page 107


 4258 00b8 031E     		subs	r3, r0, #0
 4259 00ba 02D0     		beq	.L269
1700:Generated_Source\PSoC6\pdl\drivers\peripheral\prot/cy_prot.c ****                     }
 4260              		.loc 1 1700 0
 4261 00bc 0023     		movs	r3, #0
 4262 00be 7B61     		str	r3, [r7, #20]
 4263 00c0 02E0     		b	.L270
 4264              	.L269:
1704:Generated_Source\PSoC6\pdl\drivers\peripheral\prot/cy_prot.c ****                     }
 4265              		.loc 1 1704 0
 4266 00c2 3B69     		ldr	r3, [r7, #16]
 4267 00c4 0133     		adds	r3, r3, #1
 4268 00c6 3B61     		str	r3, [r7, #16]
 4269              	.L270:
1706:Generated_Source\PSoC6\pdl\drivers\peripheral\prot/cy_prot.c ****                 break;
 4270              		.loc 1 1706 0
 4271 00c8 3B69     		ldr	r3, [r7, #16]
 4272 00ca 0F2B     		cmp	r3, #15
 4273 00cc 0EDC     		bgt	.L278
1706:Generated_Source\PSoC6\pdl\drivers\peripheral\prot/cy_prot.c ****                 break;
 4274              		.loc 1 1706 0 is_stmt 0 discriminator 1
 4275 00ce 7B69     		ldr	r3, [r7, #20]
 4276 00d0 002B     		cmp	r3, #0
 4277 00d2 EDD1     		bne	.L272
1707:Generated_Source\PSoC6\pdl\drivers\peripheral\prot/cy_prot.c ****             
 4278              		.loc 1 1707 0 is_stmt 1
 4279 00d4 0AE0     		b	.L278
 4280              	.L262:
1711:Generated_Source\PSoC6\pdl\drivers\peripheral\prot/cy_prot.c ****                 {
 4281              		.loc 1 1711 0
 4282 00d6 3B69     		ldr	r3, [r7, #16]
 4283 00d8 1800     		movs	r0, r3
 4284 00da FFF7FEFF 		bl	Prot_IsPpuProgStructDisabled
 4285 00de 031E     		subs	r3, r0, #0
 4286 00e0 06D0     		beq	.L279
1713:Generated_Source\PSoC6\pdl\drivers\peripheral\prot/cy_prot.c ****                 }
 4287              		.loc 1 1713 0
 4288 00e2 0023     		movs	r3, #0
 4289 00e4 7B61     		str	r3, [r7, #20]
1715:Generated_Source\PSoC6\pdl\drivers\peripheral\prot/cy_prot.c ****                 
 4290              		.loc 1 1715 0
 4291 00e6 03E0     		b	.L279
 4292              	.L277:
1689:Generated_Source\PSoC6\pdl\drivers\peripheral\prot/cy_prot.c **** 
 4293              		.loc 1 1689 0
 4294 00e8 C046     		nop
 4295 00ea 02E0     		b	.L268
 4296              	.L278:
1707:Generated_Source\PSoC6\pdl\drivers\peripheral\prot/cy_prot.c ****             
 4297              		.loc 1 1707 0
 4298 00ec C046     		nop
 4299 00ee 00E0     		b	.L268
 4300              	.L279:
1715:Generated_Source\PSoC6\pdl\drivers\peripheral\prot/cy_prot.c ****                 
 4301              		.loc 1 1715 0
 4302 00f0 C046     		nop
 4303              	.L268:
ARM GAS  C:\Users\JC\AppData\Local\Temp\ccU1E72d.s 			page 108


1719:Generated_Source\PSoC6\pdl\drivers\peripheral\prot/cy_prot.c ****         }
1720:Generated_Source\PSoC6\pdl\drivers\peripheral\prot/cy_prot.c **** 
1721:Generated_Source\PSoC6\pdl\drivers\peripheral\prot/cy_prot.c ****         /* Enable Programmable PPU struct */
1722:Generated_Source\PSoC6\pdl\drivers\peripheral\prot/cy_prot.c ****         if (CY_PROT_SUCCESS == status)
 4304              		.loc 1 1722 0
 4305 00f2 7B69     		ldr	r3, [r7, #20]
 4306 00f4 002B     		cmp	r3, #0
 4307 00f6 48D1     		bne	.L257
1723:Generated_Source\PSoC6\pdl\drivers\peripheral\prot/cy_prot.c ****         {
1724:Generated_Source\PSoC6\pdl\drivers\peripheral\prot/cy_prot.c ****             PROT_PERI_PPU_PR_STRUCT_IDX_ATT0(stcIdx) |= _VAL2FLD(PERI_PPU_PR_ATT0_ENABLED, CY_PROT_
 4308              		.loc 1 1724 0
 4309 00f8 274B     		ldr	r3, .L280+4
 4310 00fa 1B68     		ldr	r3, [r3]
 4311 00fc 9B68     		ldr	r3, [r3, #8]
 4312 00fe 1900     		movs	r1, r3
 4313 0100 254B     		ldr	r3, .L280+4
 4314 0102 1B68     		ldr	r3, [r3]
 4315 0104 9B68     		ldr	r3, [r3, #8]
 4316 0106 1A00     		movs	r2, r3
 4317 0108 3B69     		ldr	r3, [r7, #16]
 4318 010a 0133     		adds	r3, r3, #1
 4319 010c FF33     		adds	r3, r3, #255
 4320 010e 9B01     		lsls	r3, r3, #6
 4321 0110 9B58     		ldr	r3, [r3, r2]
 4322 0112 8022     		movs	r2, #128
 4323 0114 1206     		lsls	r2, r2, #24
 4324 0116 1A43     		orrs	r2, r3
 4325 0118 3B69     		ldr	r3, [r7, #16]
 4326 011a 0133     		adds	r3, r3, #1
 4327 011c FF33     		adds	r3, r3, #255
 4328 011e 9B01     		lsls	r3, r3, #6
 4329 0120 5A50     		str	r2, [r3, r1]
1725:Generated_Source\PSoC6\pdl\drivers\peripheral\prot/cy_prot.c ****             
1726:Generated_Source\PSoC6\pdl\drivers\peripheral\prot/cy_prot.c ****             status = 
1727:Generated_Source\PSoC6\pdl\drivers\peripheral\prot/cy_prot.c ****             (_FLD2VAL(PERI_PPU_PR_ATT0_ENABLED, PROT_PERI_PPU_PR_STRUCT_IDX_ATT0(stcIdx)) != CY_PRO
 4330              		.loc 1 1727 0
 4331 0122 1D4B     		ldr	r3, .L280+4
 4332 0124 1B68     		ldr	r3, [r3]
 4333 0126 9B68     		ldr	r3, [r3, #8]
 4334 0128 1A00     		movs	r2, r3
 4335 012a 3B69     		ldr	r3, [r7, #16]
 4336 012c 0133     		adds	r3, r3, #1
 4337 012e FF33     		adds	r3, r3, #255
 4338 0130 9B01     		lsls	r3, r3, #6
 4339 0132 9B58     		ldr	r3, [r3, r2]
 4340 0134 DB0F     		lsrs	r3, r3, #31
 4341 0136 DB07     		lsls	r3, r3, #31
 4342 0138 DB0F     		lsrs	r3, r3, #31
1726:Generated_Source\PSoC6\pdl\drivers\peripheral\prot/cy_prot.c ****             (_FLD2VAL(PERI_PPU_PR_ATT0_ENABLED, PROT_PERI_PPU_PR_STRUCT_IDX_ATT0(stcIdx)) != CY_PRO
 4343              		.loc 1 1726 0
 4344 013a 012B     		cmp	r3, #1
 4345 013c 01D0     		beq	.L274
1726:Generated_Source\PSoC6\pdl\drivers\peripheral\prot/cy_prot.c ****             (_FLD2VAL(PERI_PPU_PR_ATT0_ENABLED, PROT_PERI_PPU_PR_STRUCT_IDX_ATT0(stcIdx)) != CY_PRO
 4346              		.loc 1 1726 0 is_stmt 0 discriminator 1
 4347 013e 1B4B     		ldr	r3, .L280+24
 4348 0140 00E0     		b	.L275
 4349              	.L274:
ARM GAS  C:\Users\JC\AppData\Local\Temp\ccU1E72d.s 			page 109


1726:Generated_Source\PSoC6\pdl\drivers\peripheral\prot/cy_prot.c ****             (_FLD2VAL(PERI_PPU_PR_ATT0_ENABLED, PROT_PERI_PPU_PR_STRUCT_IDX_ATT0(stcIdx)) != CY_PRO
 4350              		.loc 1 1726 0 discriminator 2
 4351 0142 0023     		movs	r3, #0
 4352              	.L275:
1726:Generated_Source\PSoC6\pdl\drivers\peripheral\prot/cy_prot.c ****             (_FLD2VAL(PERI_PPU_PR_ATT0_ENABLED, PROT_PERI_PPU_PR_STRUCT_IDX_ATT0(stcIdx)) != CY_PRO
 4353              		.loc 1 1726 0 discriminator 4
 4354 0144 7B61     		str	r3, [r7, #20]
1728:Generated_Source\PSoC6\pdl\drivers\peripheral\prot/cy_prot.c ****              CY_PROT_FAILURE : CY_PROT_SUCCESS;
1729:Generated_Source\PSoC6\pdl\drivers\peripheral\prot/cy_prot.c ****             
1730:Generated_Source\PSoC6\pdl\drivers\peripheral\prot/cy_prot.c ****             /* Enable all attributes only if Slave struct was enabled */
1731:Generated_Source\PSoC6\pdl\drivers\peripheral\prot/cy_prot.c ****             if (CY_PROT_SUCCESS == status)
 4355              		.loc 1 1731 0 is_stmt 1 discriminator 4
 4356 0146 7B69     		ldr	r3, [r7, #20]
 4357 0148 002B     		cmp	r3, #0
 4358 014a 1ED1     		bne	.L257
1732:Generated_Source\PSoC6\pdl\drivers\peripheral\prot/cy_prot.c ****             {
1733:Generated_Source\PSoC6\pdl\drivers\peripheral\prot/cy_prot.c ****                 *base = (PERI_PPU_PR_Type*) PROT_PERI_PPU_PR_STRUCT_IDX(stcIdx);
 4359              		.loc 1 1733 0
 4360 014c 124B     		ldr	r3, .L280+4
 4361 014e 1B68     		ldr	r3, [r3]
 4362 0150 9B68     		ldr	r3, [r3, #8]
 4363 0152 1A00     		movs	r2, r3
 4364 0154 3B69     		ldr	r3, [r7, #16]
 4365 0156 0133     		adds	r3, r3, #1
 4366 0158 FF33     		adds	r3, r3, #255
 4367 015a 9B01     		lsls	r3, r3, #6
 4368 015c D218     		adds	r2, r2, r3
 4369 015e FB68     		ldr	r3, [r7, #12]
 4370 0160 1A60     		str	r2, [r3]
1734:Generated_Source\PSoC6\pdl\drivers\peripheral\prot/cy_prot.c ****                 PROT_PERI_PPU_PR_STRUCT_IDX_ATT0(stcIdx) |= PROT_PERI_PPU_PR_ATT0_ENABLE_ALL_MASK;
 4371              		.loc 1 1734 0
 4372 0162 0D4B     		ldr	r3, .L280+4
 4373 0164 1B68     		ldr	r3, [r3]
 4374 0166 9B68     		ldr	r3, [r3, #8]
 4375 0168 1900     		movs	r1, r3
 4376 016a 0B4B     		ldr	r3, .L280+4
 4377 016c 1B68     		ldr	r3, [r3]
 4378 016e 9B68     		ldr	r3, [r3, #8]
 4379 0170 1A00     		movs	r2, r3
 4380 0172 3B69     		ldr	r3, [r7, #16]
 4381 0174 0133     		adds	r3, r3, #1
 4382 0176 FF33     		adds	r3, r3, #255
 4383 0178 9B01     		lsls	r3, r3, #6
 4384 017a 9B58     		ldr	r3, [r3, r2]
 4385 017c 7F22     		movs	r2, #127
 4386 017e 1A43     		orrs	r2, r3
 4387 0180 3B69     		ldr	r3, [r7, #16]
 4388 0182 0133     		adds	r3, r3, #1
 4389 0184 FF33     		adds	r3, r3, #255
 4390 0186 9B01     		lsls	r3, r3, #6
 4391 0188 5A50     		str	r2, [r3, r1]
 4392              	.L257:
 4393              	.LBE3:
1735:Generated_Source\PSoC6\pdl\drivers\peripheral\prot/cy_prot.c ****             }
1736:Generated_Source\PSoC6\pdl\drivers\peripheral\prot/cy_prot.c ****         }
1737:Generated_Source\PSoC6\pdl\drivers\peripheral\prot/cy_prot.c ****     }
1738:Generated_Source\PSoC6\pdl\drivers\peripheral\prot/cy_prot.c **** 
ARM GAS  C:\Users\JC\AppData\Local\Temp\ccU1E72d.s 			page 110


1739:Generated_Source\PSoC6\pdl\drivers\peripheral\prot/cy_prot.c ****     return status;
 4394              		.loc 1 1739 0
 4395 018a 7B69     		ldr	r3, [r7, #20]
1740:Generated_Source\PSoC6\pdl\drivers\peripheral\prot/cy_prot.c **** }
 4396              		.loc 1 1740 0
 4397 018c 1800     		movs	r0, r3
 4398 018e BD46     		mov	sp, r7
 4399 0190 06B0     		add	sp, sp, #24
 4400              		@ sp needed
 4401 0192 80BD     		pop	{r7, pc}
 4402              	.L281:
 4403              		.align	2
 4404              	.L280:
 4405 0194 0200C200 		.word	12713986
 4406 0198 00000000 		.word	cy_device
 4407 019c 7E060000 		.word	1662
 4408 01a0 00000000 		.word	.LC1
 4409 01a4 7F060000 		.word	1663
 4410 01a8 0400C200 		.word	12713988
 4411 01ac 0300C200 		.word	12713987
 4412              		.cfi_endproc
 4413              	.LFE74:
 4414              		.size	Cy_Prot_GetPpuProgStruct, .-Cy_Prot_GetPpuProgStruct
 4415              		.section	.text.Cy_Prot_ConfigPpuFixedGrMasterStruct,"ax",%progbits
 4416              		.align	2
 4417              		.global	Cy_Prot_ConfigPpuFixedGrMasterStruct
 4418              		.code	16
 4419              		.thumb_func
 4420              		.type	Cy_Prot_ConfigPpuFixedGrMasterStruct, %function
 4421              	Cy_Prot_ConfigPpuFixedGrMasterStruct:
 4422              	.LFB75:
1741:Generated_Source\PSoC6\pdl\drivers\peripheral\prot/cy_prot.c **** 
1742:Generated_Source\PSoC6\pdl\drivers\peripheral\prot/cy_prot.c **** 
1743:Generated_Source\PSoC6\pdl\drivers\peripheral\prot/cy_prot.c **** 
1744:Generated_Source\PSoC6\pdl\drivers\peripheral\prot/cy_prot.c **** /*******************************************************************************
1745:Generated_Source\PSoC6\pdl\drivers\peripheral\prot/cy_prot.c **** * Function Name: Cy_Prot_ConfigPpuFixedGrMasterStruct
1746:Generated_Source\PSoC6\pdl\drivers\peripheral\prot/cy_prot.c **** ****************************************************************************//**
1747:Generated_Source\PSoC6\pdl\drivers\peripheral\prot/cy_prot.c **** *
1748:Generated_Source\PSoC6\pdl\drivers\peripheral\prot/cy_prot.c **** * Configures a Fixed Peripheral Group Protection Unit (PPU GR) master 
1749:Generated_Source\PSoC6\pdl\drivers\peripheral\prot/cy_prot.c **** * protection struct with its protection attributes. 
1750:Generated_Source\PSoC6\pdl\drivers\peripheral\prot/cy_prot.c **** *
1751:Generated_Source\PSoC6\pdl\drivers\peripheral\prot/cy_prot.c **** * This function configures the master struct governing the corresponding slave
1752:Generated_Source\PSoC6\pdl\drivers\peripheral\prot/cy_prot.c **** * struct pair. It is a mechanism to protect the slave PPU GR struct. Since
1753:Generated_Source\PSoC6\pdl\drivers\peripheral\prot/cy_prot.c **** * the memory location of the slave struct is known, the address, regionSize and
1754:Generated_Source\PSoC6\pdl\drivers\peripheral\prot/cy_prot.c **** * subregions of the configuration struct are not applicable.
1755:Generated_Source\PSoC6\pdl\drivers\peripheral\prot/cy_prot.c **** *
1756:Generated_Source\PSoC6\pdl\drivers\peripheral\prot/cy_prot.c **** * Note that only the user/privileged write permissions are configurable. The 
1757:Generated_Source\PSoC6\pdl\drivers\peripheral\prot/cy_prot.c **** * read and execute permissions are read-only and cannot be configured.
1758:Generated_Source\PSoC6\pdl\drivers\peripheral\prot/cy_prot.c **** *
1759:Generated_Source\PSoC6\pdl\drivers\peripheral\prot/cy_prot.c **** * \note This function is applicable for CPUSS ver_1 only.
1760:Generated_Source\PSoC6\pdl\drivers\peripheral\prot/cy_prot.c **** *
1761:Generated_Source\PSoC6\pdl\drivers\peripheral\prot/cy_prot.c **** * \param base
1762:Generated_Source\PSoC6\pdl\drivers\peripheral\prot/cy_prot.c **** * The register base address of the protection struct being configured.
1763:Generated_Source\PSoC6\pdl\drivers\peripheral\prot/cy_prot.c **** * 
1764:Generated_Source\PSoC6\pdl\drivers\peripheral\prot/cy_prot.c **** * \param config
1765:Generated_Source\PSoC6\pdl\drivers\peripheral\prot/cy_prot.c **** * Initialization structure with all the protection attributes.
1766:Generated_Source\PSoC6\pdl\drivers\peripheral\prot/cy_prot.c **** * 
ARM GAS  C:\Users\JC\AppData\Local\Temp\ccU1E72d.s 			page 111


1767:Generated_Source\PSoC6\pdl\drivers\peripheral\prot/cy_prot.c **** * \return
1768:Generated_Source\PSoC6\pdl\drivers\peripheral\prot/cy_prot.c **** * Status of the function call.
1769:Generated_Source\PSoC6\pdl\drivers\peripheral\prot/cy_prot.c **** *
1770:Generated_Source\PSoC6\pdl\drivers\peripheral\prot/cy_prot.c **** *   Status                | Description
1771:Generated_Source\PSoC6\pdl\drivers\peripheral\prot/cy_prot.c **** *   ------------          | -----------
1772:Generated_Source\PSoC6\pdl\drivers\peripheral\prot/cy_prot.c **** *   CY_PROT_SUCCESS       | PPU GR master struct was successfully configured.
1773:Generated_Source\PSoC6\pdl\drivers\peripheral\prot/cy_prot.c **** *   CY_PROT_FAILURE       | The resource is locked.
1774:Generated_Source\PSoC6\pdl\drivers\peripheral\prot/cy_prot.c **** *   CY_PROT_BAD_PARAM     | An incorrect/invalid parameter was passed.
1775:Generated_Source\PSoC6\pdl\drivers\peripheral\prot/cy_prot.c **** *   CY_PROT_INVALID_STATE | The function was called on the device with an unsupported PERI HW versi
1776:Generated_Source\PSoC6\pdl\drivers\peripheral\prot/cy_prot.c **** *
1777:Generated_Source\PSoC6\pdl\drivers\peripheral\prot/cy_prot.c **** * \funcusage
1778:Generated_Source\PSoC6\pdl\drivers\peripheral\prot/cy_prot.c **** * \snippet prot/1.20/snippet/main.c snippet_Cy_Prot_ConfigPpuFixedGrMasterStruct
1779:Generated_Source\PSoC6\pdl\drivers\peripheral\prot/cy_prot.c **** *
1780:Generated_Source\PSoC6\pdl\drivers\peripheral\prot/cy_prot.c **** *******************************************************************************/
1781:Generated_Source\PSoC6\pdl\drivers\peripheral\prot/cy_prot.c **** cy_en_prot_status_t Cy_Prot_ConfigPpuFixedGrMasterStruct(PERI_PPU_GR_Type* base, const cy_stc_ppu_g
1782:Generated_Source\PSoC6\pdl\drivers\peripheral\prot/cy_prot.c **** {
 4423              		.loc 1 1782 0
 4424              		.cfi_startproc
 4425              		@ args = 0, pretend = 0, frame = 16
 4426              		@ frame_needed = 1, uses_anonymous_args = 0
 4427 0000 80B5     		push	{r7, lr}
 4428              		.cfi_def_cfa_offset 8
 4429              		.cfi_offset 7, -8
 4430              		.cfi_offset 14, -4
 4431 0002 84B0     		sub	sp, sp, #16
 4432              		.cfi_def_cfa_offset 24
 4433 0004 00AF     		add	r7, sp, #0
 4434              		.cfi_def_cfa_register 7
 4435 0006 7860     		str	r0, [r7, #4]
 4436 0008 3960     		str	r1, [r7]
1783:Generated_Source\PSoC6\pdl\drivers\peripheral\prot/cy_prot.c ****     cy_en_prot_status_t status = CY_PROT_INVALID_STATE;
 4437              		.loc 1 1783 0
 4438 000a 424B     		ldr	r3, .L292
 4439 000c FB60     		str	r3, [r7, #12]
1784:Generated_Source\PSoC6\pdl\drivers\peripheral\prot/cy_prot.c ****     uint32_t attReg;
1785:Generated_Source\PSoC6\pdl\drivers\peripheral\prot/cy_prot.c ****     
1786:Generated_Source\PSoC6\pdl\drivers\peripheral\prot/cy_prot.c ****     CY_ASSERT_L1(NULL != base);
 4440              		.loc 1 1786 0
 4441 000e 7B68     		ldr	r3, [r7, #4]
 4442 0010 002B     		cmp	r3, #0
 4443 0012 05D1     		bne	.L283
 4444              		.loc 1 1786 0 is_stmt 0 discriminator 1
 4445 0014 404A     		ldr	r2, .L292+4
 4446 0016 414B     		ldr	r3, .L292+8
 4447 0018 1100     		movs	r1, r2
 4448 001a 1800     		movs	r0, r3
 4449 001c FFF7FEFF 		bl	Cy_SysLib_AssertFailed
 4450              	.L283:
1787:Generated_Source\PSoC6\pdl\drivers\peripheral\prot/cy_prot.c ****     CY_ASSERT_L3(CY_PROT_IS_FIXED_MS_PERM_VALID(config->userPermission));
 4451              		.loc 1 1787 0 is_stmt 1
 4452 0020 3B68     		ldr	r3, [r7]
 4453 0022 1B78     		ldrb	r3, [r3]
 4454 0024 002B     		cmp	r3, #0
 4455 0026 11D0     		beq	.L284
 4456              		.loc 1 1787 0 is_stmt 0 discriminator 1
 4457 0028 3B68     		ldr	r3, [r7]
 4458 002a 1B78     		ldrb	r3, [r3]
ARM GAS  C:\Users\JC\AppData\Local\Temp\ccU1E72d.s 			page 112


 4459 002c 012B     		cmp	r3, #1
 4460 002e 0DD0     		beq	.L284
 4461              		.loc 1 1787 0 discriminator 2
 4462 0030 3B68     		ldr	r3, [r7]
 4463 0032 1B78     		ldrb	r3, [r3]
 4464 0034 022B     		cmp	r3, #2
 4465 0036 09D0     		beq	.L284
 4466              		.loc 1 1787 0 discriminator 3
 4467 0038 3B68     		ldr	r3, [r7]
 4468 003a 1B78     		ldrb	r3, [r3]
 4469 003c 032B     		cmp	r3, #3
 4470 003e 05D0     		beq	.L284
 4471              		.loc 1 1787 0 discriminator 4
 4472 0040 374A     		ldr	r2, .L292+12
 4473 0042 364B     		ldr	r3, .L292+8
 4474 0044 1100     		movs	r1, r2
 4475 0046 1800     		movs	r0, r3
 4476 0048 FFF7FEFF 		bl	Cy_SysLib_AssertFailed
 4477              	.L284:
1788:Generated_Source\PSoC6\pdl\drivers\peripheral\prot/cy_prot.c ****     CY_ASSERT_L3(CY_PROT_IS_FIXED_MS_PERM_VALID(config->privPermission));
 4478              		.loc 1 1788 0 is_stmt 1
 4479 004c 3B68     		ldr	r3, [r7]
 4480 004e 5B78     		ldrb	r3, [r3, #1]
 4481 0050 002B     		cmp	r3, #0
 4482 0052 11D0     		beq	.L285
 4483              		.loc 1 1788 0 is_stmt 0 discriminator 1
 4484 0054 3B68     		ldr	r3, [r7]
 4485 0056 5B78     		ldrb	r3, [r3, #1]
 4486 0058 012B     		cmp	r3, #1
 4487 005a 0DD0     		beq	.L285
 4488              		.loc 1 1788 0 discriminator 2
 4489 005c 3B68     		ldr	r3, [r7]
 4490 005e 5B78     		ldrb	r3, [r3, #1]
 4491 0060 022B     		cmp	r3, #2
 4492 0062 09D0     		beq	.L285
 4493              		.loc 1 1788 0 discriminator 3
 4494 0064 3B68     		ldr	r3, [r7]
 4495 0066 5B78     		ldrb	r3, [r3, #1]
 4496 0068 032B     		cmp	r3, #3
 4497 006a 05D0     		beq	.L285
 4498              		.loc 1 1788 0 discriminator 4
 4499 006c 2D4A     		ldr	r2, .L292+16
 4500 006e 2B4B     		ldr	r3, .L292+8
 4501 0070 1100     		movs	r1, r2
 4502 0072 1800     		movs	r0, r3
 4503 0074 FFF7FEFF 		bl	Cy_SysLib_AssertFailed
 4504              	.L285:
1789:Generated_Source\PSoC6\pdl\drivers\peripheral\prot/cy_prot.c ****     
1790:Generated_Source\PSoC6\pdl\drivers\peripheral\prot/cy_prot.c ****     if (CY_PERI_V1)
 4505              		.loc 1 1790 0 is_stmt 1
 4506 0078 2B4B     		ldr	r3, .L292+20
 4507 007a 1B68     		ldr	r3, [r3]
 4508 007c 2F22     		movs	r2, #47
 4509 007e 9B5C     		ldrb	r3, [r3, r2]
 4510 0080 012B     		cmp	r3, #1
 4511 0082 42D1     		bne	.L286
1791:Generated_Source\PSoC6\pdl\drivers\peripheral\prot/cy_prot.c ****     {
ARM GAS  C:\Users\JC\AppData\Local\Temp\ccU1E72d.s 			page 113


1792:Generated_Source\PSoC6\pdl\drivers\peripheral\prot/cy_prot.c ****         if(((uint32_t)config->pcMask & CY_PROT_PPU_FIXED_PC_LIMIT_MASK) != 0UL) 
 4512              		.loc 1 1792 0
 4513 0084 3B68     		ldr	r3, [r7]
 4514 0086 9B88     		ldrh	r3, [r3, #4]
 4515 0088 1A00     		movs	r2, r3
 4516 008a 7F23     		movs	r3, #127
 4517 008c 9A43     		bics	r2, r3
 4518 008e 131E     		subs	r3, r2, #0
 4519 0090 02D0     		beq	.L287
1793:Generated_Source\PSoC6\pdl\drivers\peripheral\prot/cy_prot.c ****         {
1794:Generated_Source\PSoC6\pdl\drivers\peripheral\prot/cy_prot.c ****             /* PC mask out of range - not supported in device */
1795:Generated_Source\PSoC6\pdl\drivers\peripheral\prot/cy_prot.c ****             status = CY_PROT_BAD_PARAM;
 4520              		.loc 1 1795 0
 4521 0092 264B     		ldr	r3, .L292+24
 4522 0094 FB60     		str	r3, [r7, #12]
 4523 0096 38E0     		b	.L286
 4524              	.L287:
1796:Generated_Source\PSoC6\pdl\drivers\peripheral\prot/cy_prot.c ****         }
1797:Generated_Source\PSoC6\pdl\drivers\peripheral\prot/cy_prot.c ****         else
1798:Generated_Source\PSoC6\pdl\drivers\peripheral\prot/cy_prot.c ****         {
1799:Generated_Source\PSoC6\pdl\drivers\peripheral\prot/cy_prot.c ****             /* ADDR1 is read only. Only configure ATT1 */
1800:Generated_Source\PSoC6\pdl\drivers\peripheral\prot/cy_prot.c ****             attReg = (((uint32_t)config->userPermission & CY_PROT_ATT_PERMISSION_MASK))
 4525              		.loc 1 1800 0
 4526 0098 3B68     		ldr	r3, [r7]
 4527 009a 1B78     		ldrb	r3, [r3]
 4528 009c 1A00     		movs	r2, r3
 4529 009e 0723     		movs	r3, #7
 4530 00a0 1A40     		ands	r2, r3
1801:Generated_Source\PSoC6\pdl\drivers\peripheral\prot/cy_prot.c ****                         | (uint32_t)(((uint32_t)config->privPermission & CY_PROT_ATT_PERMISSION_MAS
 4531              		.loc 1 1801 0
 4532 00a2 3B68     		ldr	r3, [r7]
 4533 00a4 5B78     		ldrb	r3, [r3, #1]
 4534 00a6 DB00     		lsls	r3, r3, #3
 4535 00a8 3821     		movs	r1, #56
 4536 00aa 0B40     		ands	r3, r1
 4537 00ac 1A43     		orrs	r2, r3
1802:Generated_Source\PSoC6\pdl\drivers\peripheral\prot/cy_prot.c ****                         | _VAL2FLD(PERI_PPU_GR_ATT1_NS, !(config->secure))
 4538              		.loc 1 1802 0
 4539 00ae 3B68     		ldr	r3, [r7]
 4540 00b0 9B78     		ldrb	r3, [r3, #2]
 4541 00b2 0121     		movs	r1, #1
 4542 00b4 4B40     		eors	r3, r1
 4543 00b6 DBB2     		uxtb	r3, r3
 4544 00b8 9B01     		lsls	r3, r3, #6
 4545 00ba 4021     		movs	r1, #64
 4546 00bc 0B40     		ands	r3, r1
 4547 00be 1A43     		orrs	r2, r3
1803:Generated_Source\PSoC6\pdl\drivers\peripheral\prot/cy_prot.c ****                         | _VAL2FLD(PERI_PPU_GR_ATT1_PC_MASK_15_TO_1, config->pcMask)
 4548              		.loc 1 1803 0
 4549 00c0 3B68     		ldr	r3, [r7]
 4550 00c2 9B88     		ldrh	r3, [r3, #4]
 4551 00c4 5B02     		lsls	r3, r3, #9
 4552 00c6 1A49     		ldr	r1, .L292+28
 4553 00c8 0B40     		ands	r3, r1
 4554 00ca 1A43     		orrs	r2, r3
1804:Generated_Source\PSoC6\pdl\drivers\peripheral\prot/cy_prot.c ****                         /* No region size - read only for master structs */
1805:Generated_Source\PSoC6\pdl\drivers\peripheral\prot/cy_prot.c ****                         | _VAL2FLD(PERI_PPU_GR_ATT1_PC_MATCH, config->pcMatch);
ARM GAS  C:\Users\JC\AppData\Local\Temp\ccU1E72d.s 			page 114


 4555              		.loc 1 1805 0
 4556 00cc 3B68     		ldr	r3, [r7]
 4557 00ce DB78     		ldrb	r3, [r3, #3]
 4558 00d0 9907     		lsls	r1, r3, #30
 4559 00d2 8023     		movs	r3, #128
 4560 00d4 DB05     		lsls	r3, r3, #23
 4561 00d6 0B40     		ands	r3, r1
1800:Generated_Source\PSoC6\pdl\drivers\peripheral\prot/cy_prot.c ****                         | (uint32_t)(((uint32_t)config->privPermission & CY_PROT_ATT_PERMISSION_MAS
 4562              		.loc 1 1800 0
 4563 00d8 1343     		orrs	r3, r2
 4564 00da BB60     		str	r3, [r7, #8]
1806:Generated_Source\PSoC6\pdl\drivers\peripheral\prot/cy_prot.c ****             if ((attReg & CY_PROT_PPU_GR_ATT1_MASK) != attReg)
 4565              		.loc 1 1806 0
 4566 00dc BB68     		ldr	r3, [r7, #8]
 4567 00de 154A     		ldr	r2, .L292+32
 4568 00e0 1A40     		ands	r2, r3
 4569 00e2 BB68     		ldr	r3, [r7, #8]
 4570 00e4 9A42     		cmp	r2, r3
 4571 00e6 02D0     		beq	.L288
1807:Generated_Source\PSoC6\pdl\drivers\peripheral\prot/cy_prot.c ****             {
1808:Generated_Source\PSoC6\pdl\drivers\peripheral\prot/cy_prot.c ****                 /* Invalid parameter was passed */
1809:Generated_Source\PSoC6\pdl\drivers\peripheral\prot/cy_prot.c ****                 status = CY_PROT_BAD_PARAM;
 4572              		.loc 1 1809 0
 4573 00e8 104B     		ldr	r3, .L292+24
 4574 00ea FB60     		str	r3, [r7, #12]
 4575 00ec 0DE0     		b	.L286
 4576              	.L288:
1810:Generated_Source\PSoC6\pdl\drivers\peripheral\prot/cy_prot.c ****             }
1811:Generated_Source\PSoC6\pdl\drivers\peripheral\prot/cy_prot.c ****             else
1812:Generated_Source\PSoC6\pdl\drivers\peripheral\prot/cy_prot.c ****             {
1813:Generated_Source\PSoC6\pdl\drivers\peripheral\prot/cy_prot.c ****                 PERI_PPU_GR_ATT1(base) = attReg;
 4577              		.loc 1 1813 0
 4578 00ee 7B68     		ldr	r3, [r7, #4]
 4579 00f0 BA68     		ldr	r2, [r7, #8]
 4580 00f2 5A62     		str	r2, [r3, #36]
1814:Generated_Source\PSoC6\pdl\drivers\peripheral\prot/cy_prot.c ****                 status = ((PERI_PPU_GR_ATT1(base) & CY_PROT_PPU_GR_ATT1_MASK) != attReg) ? CY_PROT_
 4581              		.loc 1 1814 0
 4582 00f4 7B68     		ldr	r3, [r7, #4]
 4583 00f6 5B6A     		ldr	r3, [r3, #36]
 4584 00f8 0E4A     		ldr	r2, .L292+32
 4585 00fa 1A40     		ands	r2, r3
 4586 00fc BB68     		ldr	r3, [r7, #8]
 4587 00fe 9A42     		cmp	r2, r3
 4588 0100 01D0     		beq	.L289
 4589              		.loc 1 1814 0 is_stmt 0 discriminator 1
 4590 0102 0D4B     		ldr	r3, .L292+36
 4591 0104 00E0     		b	.L290
 4592              	.L289:
 4593              		.loc 1 1814 0 discriminator 2
 4594 0106 0023     		movs	r3, #0
 4595              	.L290:
 4596              		.loc 1 1814 0 discriminator 4
 4597 0108 FB60     		str	r3, [r7, #12]
 4598              	.L286:
1815:Generated_Source\PSoC6\pdl\drivers\peripheral\prot/cy_prot.c ****             }
1816:Generated_Source\PSoC6\pdl\drivers\peripheral\prot/cy_prot.c ****         }
1817:Generated_Source\PSoC6\pdl\drivers\peripheral\prot/cy_prot.c ****     }
ARM GAS  C:\Users\JC\AppData\Local\Temp\ccU1E72d.s 			page 115


1818:Generated_Source\PSoC6\pdl\drivers\peripheral\prot/cy_prot.c **** 
1819:Generated_Source\PSoC6\pdl\drivers\peripheral\prot/cy_prot.c ****     return status;
 4599              		.loc 1 1819 0 is_stmt 1
 4600 010a FB68     		ldr	r3, [r7, #12]
1820:Generated_Source\PSoC6\pdl\drivers\peripheral\prot/cy_prot.c **** }
 4601              		.loc 1 1820 0
 4602 010c 1800     		movs	r0, r3
 4603 010e BD46     		mov	sp, r7
 4604 0110 04B0     		add	sp, sp, #16
 4605              		@ sp needed
 4606 0112 80BD     		pop	{r7, pc}
 4607              	.L293:
 4608              		.align	2
 4609              	.L292:
 4610 0114 0200C200 		.word	12713986
 4611 0118 FA060000 		.word	1786
 4612 011c 00000000 		.word	.LC1
 4613 0120 FB060000 		.word	1787
 4614 0124 FC060000 		.word	1788
 4615 0128 00000000 		.word	cy_device
 4616 012c 0100C200 		.word	12713985
 4617 0130 00FEFF00 		.word	16776704
 4618 0134 DBFEFFE0 		.word	-520093989
 4619 0138 0300C200 		.word	12713987
 4620              		.cfi_endproc
 4621              	.LFE75:
 4622              		.size	Cy_Prot_ConfigPpuFixedGrMasterStruct, .-Cy_Prot_ConfigPpuFixedGrMasterStruct
 4623              		.section	.text.Cy_Prot_ConfigPpuFixedGrSlaveStruct,"ax",%progbits
 4624              		.align	2
 4625              		.global	Cy_Prot_ConfigPpuFixedGrSlaveStruct
 4626              		.code	16
 4627              		.thumb_func
 4628              		.type	Cy_Prot_ConfigPpuFixedGrSlaveStruct, %function
 4629              	Cy_Prot_ConfigPpuFixedGrSlaveStruct:
 4630              	.LFB76:
1821:Generated_Source\PSoC6\pdl\drivers\peripheral\prot/cy_prot.c **** 
1822:Generated_Source\PSoC6\pdl\drivers\peripheral\prot/cy_prot.c **** 
1823:Generated_Source\PSoC6\pdl\drivers\peripheral\prot/cy_prot.c **** /*******************************************************************************
1824:Generated_Source\PSoC6\pdl\drivers\peripheral\prot/cy_prot.c **** * Function Name: Cy_Prot_ConfigPpuFixedGrSlaveStruct
1825:Generated_Source\PSoC6\pdl\drivers\peripheral\prot/cy_prot.c **** ****************************************************************************//**
1826:Generated_Source\PSoC6\pdl\drivers\peripheral\prot/cy_prot.c **** *
1827:Generated_Source\PSoC6\pdl\drivers\peripheral\prot/cy_prot.c **** * Configures a Fixed Peripheral Group Protection Unit (PPU GR) slave
1828:Generated_Source\PSoC6\pdl\drivers\peripheral\prot/cy_prot.c **** * protection struct with its protection attributes. 
1829:Generated_Source\PSoC6\pdl\drivers\peripheral\prot/cy_prot.c **** * 
1830:Generated_Source\PSoC6\pdl\drivers\peripheral\prot/cy_prot.c **** * This function configures the slave struct of a PPU GR pair, which can 
1831:Generated_Source\PSoC6\pdl\drivers\peripheral\prot/cy_prot.c **** * protect an entire peripheral MMIO group from invalid bus master accesses.
1832:Generated_Source\PSoC6\pdl\drivers\peripheral\prot/cy_prot.c **** * Refer to the device Technical Reference manual for details on peripheral
1833:Generated_Source\PSoC6\pdl\drivers\peripheral\prot/cy_prot.c **** * MMIO grouping and which peripherals belong to which groups.
1834:Generated_Source\PSoC6\pdl\drivers\peripheral\prot/cy_prot.c **** *
1835:Generated_Source\PSoC6\pdl\drivers\peripheral\prot/cy_prot.c **** * Each fixed PPU GR is devoted to a defined MMIO group. Hence the address, 
1836:Generated_Source\PSoC6\pdl\drivers\peripheral\prot/cy_prot.c **** * regionSize and subregions of the configuration struct are not applicable.
1837:Generated_Source\PSoC6\pdl\drivers\peripheral\prot/cy_prot.c **** *
1838:Generated_Source\PSoC6\pdl\drivers\peripheral\prot/cy_prot.c **** * Note that the user/privileged execute accesses are read-only and are always 
1839:Generated_Source\PSoC6\pdl\drivers\peripheral\prot/cy_prot.c **** * enabled. 
1840:Generated_Source\PSoC6\pdl\drivers\peripheral\prot/cy_prot.c **** *
1841:Generated_Source\PSoC6\pdl\drivers\peripheral\prot/cy_prot.c **** * \note This function is applicable for CPUSS ver_1 only.
1842:Generated_Source\PSoC6\pdl\drivers\peripheral\prot/cy_prot.c **** *
ARM GAS  C:\Users\JC\AppData\Local\Temp\ccU1E72d.s 			page 116


1843:Generated_Source\PSoC6\pdl\drivers\peripheral\prot/cy_prot.c **** * \param base
1844:Generated_Source\PSoC6\pdl\drivers\peripheral\prot/cy_prot.c **** * The register base address of the protection structure being configured.
1845:Generated_Source\PSoC6\pdl\drivers\peripheral\prot/cy_prot.c **** * 
1846:Generated_Source\PSoC6\pdl\drivers\peripheral\prot/cy_prot.c **** * \param config
1847:Generated_Source\PSoC6\pdl\drivers\peripheral\prot/cy_prot.c **** * Initialization structure with all the protection attributes.
1848:Generated_Source\PSoC6\pdl\drivers\peripheral\prot/cy_prot.c **** * 
1849:Generated_Source\PSoC6\pdl\drivers\peripheral\prot/cy_prot.c **** * \return
1850:Generated_Source\PSoC6\pdl\drivers\peripheral\prot/cy_prot.c **** * Status of the function call.
1851:Generated_Source\PSoC6\pdl\drivers\peripheral\prot/cy_prot.c **** *
1852:Generated_Source\PSoC6\pdl\drivers\peripheral\prot/cy_prot.c **** *   Status                | Description
1853:Generated_Source\PSoC6\pdl\drivers\peripheral\prot/cy_prot.c **** *   ------------          | -----------
1854:Generated_Source\PSoC6\pdl\drivers\peripheral\prot/cy_prot.c **** *   CY_PROT_SUCCESS       | PPU GR slave struct was successfully configured.
1855:Generated_Source\PSoC6\pdl\drivers\peripheral\prot/cy_prot.c **** *   CY_PROT_FAILURE       | The resource is locked.
1856:Generated_Source\PSoC6\pdl\drivers\peripheral\prot/cy_prot.c **** *   CY_PROT_BAD_PARAM     | An incorrect/invalid parameter was passed.
1857:Generated_Source\PSoC6\pdl\drivers\peripheral\prot/cy_prot.c **** *   CY_PROT_INVALID_STATE | The function was called on the device with an unsupported PERI HW versi
1858:Generated_Source\PSoC6\pdl\drivers\peripheral\prot/cy_prot.c **** *
1859:Generated_Source\PSoC6\pdl\drivers\peripheral\prot/cy_prot.c **** * \funcusage
1860:Generated_Source\PSoC6\pdl\drivers\peripheral\prot/cy_prot.c **** * \snippet prot/1.20/snippet/main.c snippet_Cy_Prot_ConfigPpuFixedGrSlaveStruct
1861:Generated_Source\PSoC6\pdl\drivers\peripheral\prot/cy_prot.c **** *
1862:Generated_Source\PSoC6\pdl\drivers\peripheral\prot/cy_prot.c **** *******************************************************************************/
1863:Generated_Source\PSoC6\pdl\drivers\peripheral\prot/cy_prot.c **** cy_en_prot_status_t Cy_Prot_ConfigPpuFixedGrSlaveStruct(PERI_PPU_GR_Type* base, const cy_stc_ppu_gr
1864:Generated_Source\PSoC6\pdl\drivers\peripheral\prot/cy_prot.c **** {
 4631              		.loc 1 1864 0
 4632              		.cfi_startproc
 4633              		@ args = 0, pretend = 0, frame = 16
 4634              		@ frame_needed = 1, uses_anonymous_args = 0
 4635 0000 80B5     		push	{r7, lr}
 4636              		.cfi_def_cfa_offset 8
 4637              		.cfi_offset 7, -8
 4638              		.cfi_offset 14, -4
 4639 0002 84B0     		sub	sp, sp, #16
 4640              		.cfi_def_cfa_offset 24
 4641 0004 00AF     		add	r7, sp, #0
 4642              		.cfi_def_cfa_register 7
 4643 0006 7860     		str	r0, [r7, #4]
 4644 0008 3960     		str	r1, [r7]
1865:Generated_Source\PSoC6\pdl\drivers\peripheral\prot/cy_prot.c ****     cy_en_prot_status_t status = CY_PROT_INVALID_STATE;
 4645              		.loc 1 1865 0
 4646 000a 424B     		ldr	r3, .L304
 4647 000c FB60     		str	r3, [r7, #12]
1866:Generated_Source\PSoC6\pdl\drivers\peripheral\prot/cy_prot.c ****     uint32_t attReg;
1867:Generated_Source\PSoC6\pdl\drivers\peripheral\prot/cy_prot.c ****     
1868:Generated_Source\PSoC6\pdl\drivers\peripheral\prot/cy_prot.c ****     CY_ASSERT_L1(NULL != base);
 4648              		.loc 1 1868 0
 4649 000e 7B68     		ldr	r3, [r7, #4]
 4650 0010 002B     		cmp	r3, #0
 4651 0012 05D1     		bne	.L295
 4652              		.loc 1 1868 0 is_stmt 0 discriminator 1
 4653 0014 404A     		ldr	r2, .L304+4
 4654 0016 414B     		ldr	r3, .L304+8
 4655 0018 1100     		movs	r1, r2
 4656 001a 1800     		movs	r0, r3
 4657 001c FFF7FEFF 		bl	Cy_SysLib_AssertFailed
 4658              	.L295:
1869:Generated_Source\PSoC6\pdl\drivers\peripheral\prot/cy_prot.c ****     CY_ASSERT_L3(CY_PROT_IS_FIXED_SL_PERM_VALID(config->userPermission));
 4659              		.loc 1 1869 0 is_stmt 1
 4660 0020 3B68     		ldr	r3, [r7]
ARM GAS  C:\Users\JC\AppData\Local\Temp\ccU1E72d.s 			page 117


 4661 0022 1B78     		ldrb	r3, [r3]
 4662 0024 002B     		cmp	r3, #0
 4663 0026 11D0     		beq	.L296
 4664              		.loc 1 1869 0 is_stmt 0 discriminator 1
 4665 0028 3B68     		ldr	r3, [r7]
 4666 002a 1B78     		ldrb	r3, [r3]
 4667 002c 012B     		cmp	r3, #1
 4668 002e 0DD0     		beq	.L296
 4669              		.loc 1 1869 0 discriminator 2
 4670 0030 3B68     		ldr	r3, [r7]
 4671 0032 1B78     		ldrb	r3, [r3]
 4672 0034 022B     		cmp	r3, #2
 4673 0036 09D0     		beq	.L296
 4674              		.loc 1 1869 0 discriminator 3
 4675 0038 3B68     		ldr	r3, [r7]
 4676 003a 1B78     		ldrb	r3, [r3]
 4677 003c 032B     		cmp	r3, #3
 4678 003e 05D0     		beq	.L296
 4679              		.loc 1 1869 0 discriminator 4
 4680 0040 374A     		ldr	r2, .L304+12
 4681 0042 364B     		ldr	r3, .L304+8
 4682 0044 1100     		movs	r1, r2
 4683 0046 1800     		movs	r0, r3
 4684 0048 FFF7FEFF 		bl	Cy_SysLib_AssertFailed
 4685              	.L296:
1870:Generated_Source\PSoC6\pdl\drivers\peripheral\prot/cy_prot.c ****     CY_ASSERT_L3(CY_PROT_IS_FIXED_SL_PERM_VALID(config->privPermission));
 4686              		.loc 1 1870 0 is_stmt 1
 4687 004c 3B68     		ldr	r3, [r7]
 4688 004e 5B78     		ldrb	r3, [r3, #1]
 4689 0050 002B     		cmp	r3, #0
 4690 0052 11D0     		beq	.L297
 4691              		.loc 1 1870 0 is_stmt 0 discriminator 1
 4692 0054 3B68     		ldr	r3, [r7]
 4693 0056 5B78     		ldrb	r3, [r3, #1]
 4694 0058 012B     		cmp	r3, #1
 4695 005a 0DD0     		beq	.L297
 4696              		.loc 1 1870 0 discriminator 2
 4697 005c 3B68     		ldr	r3, [r7]
 4698 005e 5B78     		ldrb	r3, [r3, #1]
 4699 0060 022B     		cmp	r3, #2
 4700 0062 09D0     		beq	.L297
 4701              		.loc 1 1870 0 discriminator 3
 4702 0064 3B68     		ldr	r3, [r7]
 4703 0066 5B78     		ldrb	r3, [r3, #1]
 4704 0068 032B     		cmp	r3, #3
 4705 006a 05D0     		beq	.L297
 4706              		.loc 1 1870 0 discriminator 4
 4707 006c 2D4A     		ldr	r2, .L304+16
 4708 006e 2B4B     		ldr	r3, .L304+8
 4709 0070 1100     		movs	r1, r2
 4710 0072 1800     		movs	r0, r3
 4711 0074 FFF7FEFF 		bl	Cy_SysLib_AssertFailed
 4712              	.L297:
1871:Generated_Source\PSoC6\pdl\drivers\peripheral\prot/cy_prot.c ****     
1872:Generated_Source\PSoC6\pdl\drivers\peripheral\prot/cy_prot.c ****     if (CY_PERI_V1)
 4713              		.loc 1 1872 0 is_stmt 1
 4714 0078 2B4B     		ldr	r3, .L304+20
ARM GAS  C:\Users\JC\AppData\Local\Temp\ccU1E72d.s 			page 118


 4715 007a 1B68     		ldr	r3, [r3]
 4716 007c 2F22     		movs	r2, #47
 4717 007e 9B5C     		ldrb	r3, [r3, r2]
 4718 0080 012B     		cmp	r3, #1
 4719 0082 42D1     		bne	.L298
1873:Generated_Source\PSoC6\pdl\drivers\peripheral\prot/cy_prot.c ****     {
1874:Generated_Source\PSoC6\pdl\drivers\peripheral\prot/cy_prot.c ****         if(((uint32_t)config->pcMask & CY_PROT_PPU_FIXED_PC_LIMIT_MASK) != 0UL) 
 4720              		.loc 1 1874 0
 4721 0084 3B68     		ldr	r3, [r7]
 4722 0086 9B88     		ldrh	r3, [r3, #4]
 4723 0088 1A00     		movs	r2, r3
 4724 008a 7F23     		movs	r3, #127
 4725 008c 9A43     		bics	r2, r3
 4726 008e 131E     		subs	r3, r2, #0
 4727 0090 02D0     		beq	.L299
1875:Generated_Source\PSoC6\pdl\drivers\peripheral\prot/cy_prot.c ****         {
1876:Generated_Source\PSoC6\pdl\drivers\peripheral\prot/cy_prot.c ****             /* PC mask out of range - not supported in device */
1877:Generated_Source\PSoC6\pdl\drivers\peripheral\prot/cy_prot.c ****             status = CY_PROT_BAD_PARAM;
 4728              		.loc 1 1877 0
 4729 0092 264B     		ldr	r3, .L304+24
 4730 0094 FB60     		str	r3, [r7, #12]
 4731 0096 38E0     		b	.L298
 4732              	.L299:
1878:Generated_Source\PSoC6\pdl\drivers\peripheral\prot/cy_prot.c ****         }
1879:Generated_Source\PSoC6\pdl\drivers\peripheral\prot/cy_prot.c ****         else
1880:Generated_Source\PSoC6\pdl\drivers\peripheral\prot/cy_prot.c ****         {
1881:Generated_Source\PSoC6\pdl\drivers\peripheral\prot/cy_prot.c ****             /* ADDR0 is read only. Only configure ATT0 */
1882:Generated_Source\PSoC6\pdl\drivers\peripheral\prot/cy_prot.c ****             attReg = (uint32_t)(((uint32_t)config->userPermission & CY_PROT_ATT_PERMISSION_MASK))
 4733              		.loc 1 1882 0
 4734 0098 3B68     		ldr	r3, [r7]
 4735 009a 1B78     		ldrb	r3, [r3]
 4736 009c 1A00     		movs	r2, r3
 4737 009e 0723     		movs	r3, #7
 4738 00a0 1A40     		ands	r2, r3
1883:Generated_Source\PSoC6\pdl\drivers\peripheral\prot/cy_prot.c ****                         | (uint32_t)(((uint32_t)config->privPermission & CY_PROT_ATT_PERMISSION_MAS
 4739              		.loc 1 1883 0
 4740 00a2 3B68     		ldr	r3, [r7]
 4741 00a4 5B78     		ldrb	r3, [r3, #1]
 4742 00a6 DB00     		lsls	r3, r3, #3
 4743 00a8 3821     		movs	r1, #56
 4744 00aa 0B40     		ands	r3, r1
 4745 00ac 1A43     		orrs	r2, r3
1884:Generated_Source\PSoC6\pdl\drivers\peripheral\prot/cy_prot.c ****                         | _VAL2FLD(PERI_PPU_GR_ATT0_NS, !(config->secure))
 4746              		.loc 1 1884 0
 4747 00ae 3B68     		ldr	r3, [r7]
 4748 00b0 9B78     		ldrb	r3, [r3, #2]
 4749 00b2 0121     		movs	r1, #1
 4750 00b4 4B40     		eors	r3, r1
 4751 00b6 DBB2     		uxtb	r3, r3
 4752 00b8 9B01     		lsls	r3, r3, #6
 4753 00ba 4021     		movs	r1, #64
 4754 00bc 0B40     		ands	r3, r1
 4755 00be 1A43     		orrs	r2, r3
1885:Generated_Source\PSoC6\pdl\drivers\peripheral\prot/cy_prot.c ****                         | _VAL2FLD(PERI_PPU_GR_ATT0_PC_MASK_15_TO_1, config->pcMask)
 4756              		.loc 1 1885 0
 4757 00c0 3B68     		ldr	r3, [r7]
 4758 00c2 9B88     		ldrh	r3, [r3, #4]
ARM GAS  C:\Users\JC\AppData\Local\Temp\ccU1E72d.s 			page 119


 4759 00c4 5B02     		lsls	r3, r3, #9
 4760 00c6 1A49     		ldr	r1, .L304+28
 4761 00c8 0B40     		ands	r3, r1
 4762 00ca 1A43     		orrs	r2, r3
1886:Generated_Source\PSoC6\pdl\drivers\peripheral\prot/cy_prot.c ****                         /* No region size - read only */
1887:Generated_Source\PSoC6\pdl\drivers\peripheral\prot/cy_prot.c ****                         | _VAL2FLD(PERI_PPU_GR_ATT0_PC_MATCH, config->pcMatch);
 4763              		.loc 1 1887 0
 4764 00cc 3B68     		ldr	r3, [r7]
 4765 00ce DB78     		ldrb	r3, [r3, #3]
 4766 00d0 9907     		lsls	r1, r3, #30
 4767 00d2 8023     		movs	r3, #128
 4768 00d4 DB05     		lsls	r3, r3, #23
 4769 00d6 0B40     		ands	r3, r1
1882:Generated_Source\PSoC6\pdl\drivers\peripheral\prot/cy_prot.c ****                         | (uint32_t)(((uint32_t)config->privPermission & CY_PROT_ATT_PERMISSION_MAS
 4770              		.loc 1 1882 0
 4771 00d8 1343     		orrs	r3, r2
 4772 00da BB60     		str	r3, [r7, #8]
1888:Generated_Source\PSoC6\pdl\drivers\peripheral\prot/cy_prot.c ****             if ((attReg & CY_PROT_PPU_GR_ATT0_MASK) != attReg)
 4773              		.loc 1 1888 0
 4774 00dc BB68     		ldr	r3, [r7, #8]
 4775 00de 154A     		ldr	r2, .L304+32
 4776 00e0 1A40     		ands	r2, r3
 4777 00e2 BB68     		ldr	r3, [r7, #8]
 4778 00e4 9A42     		cmp	r2, r3
 4779 00e6 02D0     		beq	.L300
1889:Generated_Source\PSoC6\pdl\drivers\peripheral\prot/cy_prot.c ****             {
1890:Generated_Source\PSoC6\pdl\drivers\peripheral\prot/cy_prot.c ****                 /* Invalid parameter was passed */
1891:Generated_Source\PSoC6\pdl\drivers\peripheral\prot/cy_prot.c ****                 status = CY_PROT_BAD_PARAM;
 4780              		.loc 1 1891 0
 4781 00e8 104B     		ldr	r3, .L304+24
 4782 00ea FB60     		str	r3, [r7, #12]
 4783 00ec 0DE0     		b	.L298
 4784              	.L300:
1892:Generated_Source\PSoC6\pdl\drivers\peripheral\prot/cy_prot.c ****             }
1893:Generated_Source\PSoC6\pdl\drivers\peripheral\prot/cy_prot.c ****             else
1894:Generated_Source\PSoC6\pdl\drivers\peripheral\prot/cy_prot.c ****             {
1895:Generated_Source\PSoC6\pdl\drivers\peripheral\prot/cy_prot.c ****                 PERI_PPU_GR_ATT0(base) = attReg;
 4785              		.loc 1 1895 0
 4786 00ee 7B68     		ldr	r3, [r7, #4]
 4787 00f0 BA68     		ldr	r2, [r7, #8]
 4788 00f2 5A60     		str	r2, [r3, #4]
1896:Generated_Source\PSoC6\pdl\drivers\peripheral\prot/cy_prot.c ****                 status = ((PERI_PPU_GR_ATT0(base) & CY_PROT_PPU_GR_ATT0_MASK) != attReg) ? CY_PROT_
 4789              		.loc 1 1896 0
 4790 00f4 7B68     		ldr	r3, [r7, #4]
 4791 00f6 5B68     		ldr	r3, [r3, #4]
 4792 00f8 0E4A     		ldr	r2, .L304+32
 4793 00fa 1A40     		ands	r2, r3
 4794 00fc BB68     		ldr	r3, [r7, #8]
 4795 00fe 9A42     		cmp	r2, r3
 4796 0100 01D0     		beq	.L301
 4797              		.loc 1 1896 0 is_stmt 0 discriminator 1
 4798 0102 0D4B     		ldr	r3, .L304+36
 4799 0104 00E0     		b	.L302
 4800              	.L301:
 4801              		.loc 1 1896 0 discriminator 2
 4802 0106 0023     		movs	r3, #0
 4803              	.L302:
ARM GAS  C:\Users\JC\AppData\Local\Temp\ccU1E72d.s 			page 120


 4804              		.loc 1 1896 0 discriminator 4
 4805 0108 FB60     		str	r3, [r7, #12]
 4806              	.L298:
1897:Generated_Source\PSoC6\pdl\drivers\peripheral\prot/cy_prot.c ****             }
1898:Generated_Source\PSoC6\pdl\drivers\peripheral\prot/cy_prot.c ****         }
1899:Generated_Source\PSoC6\pdl\drivers\peripheral\prot/cy_prot.c ****     }
1900:Generated_Source\PSoC6\pdl\drivers\peripheral\prot/cy_prot.c **** 
1901:Generated_Source\PSoC6\pdl\drivers\peripheral\prot/cy_prot.c ****     return status;
 4807              		.loc 1 1901 0 is_stmt 1
 4808 010a FB68     		ldr	r3, [r7, #12]
1902:Generated_Source\PSoC6\pdl\drivers\peripheral\prot/cy_prot.c **** }
 4809              		.loc 1 1902 0
 4810 010c 1800     		movs	r0, r3
 4811 010e BD46     		mov	sp, r7
 4812 0110 04B0     		add	sp, sp, #16
 4813              		@ sp needed
 4814 0112 80BD     		pop	{r7, pc}
 4815              	.L305:
 4816              		.align	2
 4817              	.L304:
 4818 0114 0200C200 		.word	12713986
 4819 0118 4C070000 		.word	1868
 4820 011c 00000000 		.word	.LC1
 4821 0120 4D070000 		.word	1869
 4822 0124 4E070000 		.word	1870
 4823 0128 00000000 		.word	cy_device
 4824 012c 0100C200 		.word	12713985
 4825 0130 00FEFF00 		.word	16776704
 4826 0134 DBFEFFE0 		.word	-520093989
 4827 0138 0300C200 		.word	12713987
 4828              		.cfi_endproc
 4829              	.LFE76:
 4830              		.size	Cy_Prot_ConfigPpuFixedGrSlaveStruct, .-Cy_Prot_ConfigPpuFixedGrSlaveStruct
 4831              		.section	.text.Cy_Prot_EnablePpuFixedGrMasterStruct,"ax",%progbits
 4832              		.align	2
 4833              		.global	Cy_Prot_EnablePpuFixedGrMasterStruct
 4834              		.code	16
 4835              		.thumb_func
 4836              		.type	Cy_Prot_EnablePpuFixedGrMasterStruct, %function
 4837              	Cy_Prot_EnablePpuFixedGrMasterStruct:
 4838              	.LFB77:
1903:Generated_Source\PSoC6\pdl\drivers\peripheral\prot/cy_prot.c **** 
1904:Generated_Source\PSoC6\pdl\drivers\peripheral\prot/cy_prot.c **** 
1905:Generated_Source\PSoC6\pdl\drivers\peripheral\prot/cy_prot.c **** /*******************************************************************************
1906:Generated_Source\PSoC6\pdl\drivers\peripheral\prot/cy_prot.c **** * Function Name: Cy_Prot_EnablePpuFixedGrMasterStruct
1907:Generated_Source\PSoC6\pdl\drivers\peripheral\prot/cy_prot.c **** ****************************************************************************//**
1908:Generated_Source\PSoC6\pdl\drivers\peripheral\prot/cy_prot.c **** *
1909:Generated_Source\PSoC6\pdl\drivers\peripheral\prot/cy_prot.c **** * Enables the Master PPU GR structure.
1910:Generated_Source\PSoC6\pdl\drivers\peripheral\prot/cy_prot.c **** *
1911:Generated_Source\PSoC6\pdl\drivers\peripheral\prot/cy_prot.c **** * This is a PPU GR master struct enable function. The PPU GR protection 
1912:Generated_Source\PSoC6\pdl\drivers\peripheral\prot/cy_prot.c **** * settings will take effect after successful completion of this function call.
1913:Generated_Source\PSoC6\pdl\drivers\peripheral\prot/cy_prot.c **** *
1914:Generated_Source\PSoC6\pdl\drivers\peripheral\prot/cy_prot.c **** * \note This function is applicable for CPUSS ver_1 only.
1915:Generated_Source\PSoC6\pdl\drivers\peripheral\prot/cy_prot.c **** *
1916:Generated_Source\PSoC6\pdl\drivers\peripheral\prot/cy_prot.c **** * \param base
1917:Generated_Source\PSoC6\pdl\drivers\peripheral\prot/cy_prot.c **** * The base address for the protection unit structure being configured. 
1918:Generated_Source\PSoC6\pdl\drivers\peripheral\prot/cy_prot.c **** *
ARM GAS  C:\Users\JC\AppData\Local\Temp\ccU1E72d.s 			page 121


1919:Generated_Source\PSoC6\pdl\drivers\peripheral\prot/cy_prot.c **** * \return
1920:Generated_Source\PSoC6\pdl\drivers\peripheral\prot/cy_prot.c **** * Status of the function call.
1921:Generated_Source\PSoC6\pdl\drivers\peripheral\prot/cy_prot.c **** *
1922:Generated_Source\PSoC6\pdl\drivers\peripheral\prot/cy_prot.c **** *   Status                | Description
1923:Generated_Source\PSoC6\pdl\drivers\peripheral\prot/cy_prot.c **** *   ------------          | -----------
1924:Generated_Source\PSoC6\pdl\drivers\peripheral\prot/cy_prot.c **** *   CY_PROT_SUCCESS       | The Master PU struct was enabled.
1925:Generated_Source\PSoC6\pdl\drivers\peripheral\prot/cy_prot.c **** *   CY_PROT_FAILURE       | The Master PU struct is disabled and possibly locked.
1926:Generated_Source\PSoC6\pdl\drivers\peripheral\prot/cy_prot.c **** *   CY_PROT_INVALID_STATE | The function was called on the device with an unsupported PERI HW versi
1927:Generated_Source\PSoC6\pdl\drivers\peripheral\prot/cy_prot.c **** *
1928:Generated_Source\PSoC6\pdl\drivers\peripheral\prot/cy_prot.c **** * \funcusage
1929:Generated_Source\PSoC6\pdl\drivers\peripheral\prot/cy_prot.c **** * \snippet prot/1.20/snippet/main.c snippet_Cy_Prot_EnablePpuFixedGrMasterStruct
1930:Generated_Source\PSoC6\pdl\drivers\peripheral\prot/cy_prot.c **** *
1931:Generated_Source\PSoC6\pdl\drivers\peripheral\prot/cy_prot.c **** *******************************************************************************/
1932:Generated_Source\PSoC6\pdl\drivers\peripheral\prot/cy_prot.c **** cy_en_prot_status_t Cy_Prot_EnablePpuFixedGrMasterStruct(PERI_PPU_GR_Type* base)
1933:Generated_Source\PSoC6\pdl\drivers\peripheral\prot/cy_prot.c **** {
 4839              		.loc 1 1933 0
 4840              		.cfi_startproc
 4841              		@ args = 0, pretend = 0, frame = 16
 4842              		@ frame_needed = 1, uses_anonymous_args = 0
 4843 0000 80B5     		push	{r7, lr}
 4844              		.cfi_def_cfa_offset 8
 4845              		.cfi_offset 7, -8
 4846              		.cfi_offset 14, -4
 4847 0002 84B0     		sub	sp, sp, #16
 4848              		.cfi_def_cfa_offset 24
 4849 0004 00AF     		add	r7, sp, #0
 4850              		.cfi_def_cfa_register 7
 4851 0006 7860     		str	r0, [r7, #4]
1934:Generated_Source\PSoC6\pdl\drivers\peripheral\prot/cy_prot.c ****     cy_en_prot_status_t status = CY_PROT_INVALID_STATE;
 4852              		.loc 1 1934 0
 4853 0008 144B     		ldr	r3, .L312
 4854 000a FB60     		str	r3, [r7, #12]
1935:Generated_Source\PSoC6\pdl\drivers\peripheral\prot/cy_prot.c ****     
1936:Generated_Source\PSoC6\pdl\drivers\peripheral\prot/cy_prot.c ****     CY_ASSERT_L1(NULL != base);
 4855              		.loc 1 1936 0
 4856 000c 7B68     		ldr	r3, [r7, #4]
 4857 000e 002B     		cmp	r3, #0
 4858 0010 06D1     		bne	.L307
 4859              		.loc 1 1936 0 is_stmt 0 discriminator 1
 4860 0012 F223     		movs	r3, #242
 4861 0014 DA00     		lsls	r2, r3, #3
 4862 0016 124B     		ldr	r3, .L312+4
 4863 0018 1100     		movs	r1, r2
 4864 001a 1800     		movs	r0, r3
 4865 001c FFF7FEFF 		bl	Cy_SysLib_AssertFailed
 4866              	.L307:
1937:Generated_Source\PSoC6\pdl\drivers\peripheral\prot/cy_prot.c ****     
1938:Generated_Source\PSoC6\pdl\drivers\peripheral\prot/cy_prot.c ****     if (CY_PERI_V1)
 4867              		.loc 1 1938 0 is_stmt 1
 4868 0020 104B     		ldr	r3, .L312+8
 4869 0022 1B68     		ldr	r3, [r3]
 4870 0024 2F22     		movs	r2, #47
 4871 0026 9B5C     		ldrb	r3, [r3, r2]
 4872 0028 012B     		cmp	r3, #1
 4873 002a 11D1     		bne	.L308
1939:Generated_Source\PSoC6\pdl\drivers\peripheral\prot/cy_prot.c ****     {
1940:Generated_Source\PSoC6\pdl\drivers\peripheral\prot/cy_prot.c ****         PERI_PPU_GR_ATT1(base) |= _VAL2FLD(PERI_PPU_GR_ATT1_ENABLED, CY_PROT_STRUCT_ENABLE);
ARM GAS  C:\Users\JC\AppData\Local\Temp\ccU1E72d.s 			page 122


 4874              		.loc 1 1940 0
 4875 002c 7B68     		ldr	r3, [r7, #4]
 4876 002e 5B6A     		ldr	r3, [r3, #36]
 4877 0030 8022     		movs	r2, #128
 4878 0032 1206     		lsls	r2, r2, #24
 4879 0034 1A43     		orrs	r2, r3
 4880 0036 7B68     		ldr	r3, [r7, #4]
 4881 0038 5A62     		str	r2, [r3, #36]
1941:Generated_Source\PSoC6\pdl\drivers\peripheral\prot/cy_prot.c ****         status = (_FLD2VAL(PERI_PPU_GR_ATT1_ENABLED, PERI_PPU_GR_ATT1(base)) != CY_PROT_STRUCT_ENAB
 4882              		.loc 1 1941 0
 4883 003a 7B68     		ldr	r3, [r7, #4]
 4884 003c 5B6A     		ldr	r3, [r3, #36]
 4885 003e DB0F     		lsrs	r3, r3, #31
 4886 0040 DB07     		lsls	r3, r3, #31
 4887 0042 DB0F     		lsrs	r3, r3, #31
 4888 0044 012B     		cmp	r3, #1
 4889 0046 01D0     		beq	.L309
 4890              		.loc 1 1941 0 is_stmt 0 discriminator 1
 4891 0048 074B     		ldr	r3, .L312+12
 4892 004a 00E0     		b	.L310
 4893              	.L309:
 4894              		.loc 1 1941 0 discriminator 2
 4895 004c 0023     		movs	r3, #0
 4896              	.L310:
 4897              		.loc 1 1941 0 discriminator 4
 4898 004e FB60     		str	r3, [r7, #12]
 4899              	.L308:
1942:Generated_Source\PSoC6\pdl\drivers\peripheral\prot/cy_prot.c ****                     CY_PROT_FAILURE : CY_PROT_SUCCESS;
1943:Generated_Source\PSoC6\pdl\drivers\peripheral\prot/cy_prot.c ****     }
1944:Generated_Source\PSoC6\pdl\drivers\peripheral\prot/cy_prot.c **** 
1945:Generated_Source\PSoC6\pdl\drivers\peripheral\prot/cy_prot.c ****     return status;
 4900              		.loc 1 1945 0 is_stmt 1
 4901 0050 FB68     		ldr	r3, [r7, #12]
1946:Generated_Source\PSoC6\pdl\drivers\peripheral\prot/cy_prot.c **** }
 4902              		.loc 1 1946 0
 4903 0052 1800     		movs	r0, r3
 4904 0054 BD46     		mov	sp, r7
 4905 0056 04B0     		add	sp, sp, #16
 4906              		@ sp needed
 4907 0058 80BD     		pop	{r7, pc}
 4908              	.L313:
 4909 005a C046     		.align	2
 4910              	.L312:
 4911 005c 0200C200 		.word	12713986
 4912 0060 00000000 		.word	.LC1
 4913 0064 00000000 		.word	cy_device
 4914 0068 0300C200 		.word	12713987
 4915              		.cfi_endproc
 4916              	.LFE77:
 4917              		.size	Cy_Prot_EnablePpuFixedGrMasterStruct, .-Cy_Prot_EnablePpuFixedGrMasterStruct
 4918              		.section	.text.Cy_Prot_DisablePpuFixedGrMasterStruct,"ax",%progbits
 4919              		.align	2
 4920              		.global	Cy_Prot_DisablePpuFixedGrMasterStruct
 4921              		.code	16
 4922              		.thumb_func
 4923              		.type	Cy_Prot_DisablePpuFixedGrMasterStruct, %function
 4924              	Cy_Prot_DisablePpuFixedGrMasterStruct:
ARM GAS  C:\Users\JC\AppData\Local\Temp\ccU1E72d.s 			page 123


 4925              	.LFB78:
1947:Generated_Source\PSoC6\pdl\drivers\peripheral\prot/cy_prot.c **** 
1948:Generated_Source\PSoC6\pdl\drivers\peripheral\prot/cy_prot.c **** 
1949:Generated_Source\PSoC6\pdl\drivers\peripheral\prot/cy_prot.c **** /*******************************************************************************
1950:Generated_Source\PSoC6\pdl\drivers\peripheral\prot/cy_prot.c **** * Function Name: Cy_Prot_DisablePpuFixedGrMasterStruct
1951:Generated_Source\PSoC6\pdl\drivers\peripheral\prot/cy_prot.c **** ****************************************************************************//**
1952:Generated_Source\PSoC6\pdl\drivers\peripheral\prot/cy_prot.c **** *
1953:Generated_Source\PSoC6\pdl\drivers\peripheral\prot/cy_prot.c **** * Disables the Master PPU GR structure.
1954:Generated_Source\PSoC6\pdl\drivers\peripheral\prot/cy_prot.c **** *
1955:Generated_Source\PSoC6\pdl\drivers\peripheral\prot/cy_prot.c **** * This is a PPU GR master struct disable function. The PPU GR protection 
1956:Generated_Source\PSoC6\pdl\drivers\peripheral\prot/cy_prot.c **** * settings will seize to take effect after successful completion of this 
1957:Generated_Source\PSoC6\pdl\drivers\peripheral\prot/cy_prot.c **** * function call.
1958:Generated_Source\PSoC6\pdl\drivers\peripheral\prot/cy_prot.c **** *
1959:Generated_Source\PSoC6\pdl\drivers\peripheral\prot/cy_prot.c **** * \note This function is applicable for CPUSS ver_1 only.
1960:Generated_Source\PSoC6\pdl\drivers\peripheral\prot/cy_prot.c **** *
1961:Generated_Source\PSoC6\pdl\drivers\peripheral\prot/cy_prot.c **** * \param base
1962:Generated_Source\PSoC6\pdl\drivers\peripheral\prot/cy_prot.c **** * The base address for the protection unit structure being configured. 
1963:Generated_Source\PSoC6\pdl\drivers\peripheral\prot/cy_prot.c **** *
1964:Generated_Source\PSoC6\pdl\drivers\peripheral\prot/cy_prot.c **** * \return
1965:Generated_Source\PSoC6\pdl\drivers\peripheral\prot/cy_prot.c **** * Status of the function call.
1966:Generated_Source\PSoC6\pdl\drivers\peripheral\prot/cy_prot.c **** *
1967:Generated_Source\PSoC6\pdl\drivers\peripheral\prot/cy_prot.c **** *   Status                | Description
1968:Generated_Source\PSoC6\pdl\drivers\peripheral\prot/cy_prot.c **** *   ------------          | -----------
1969:Generated_Source\PSoC6\pdl\drivers\peripheral\prot/cy_prot.c **** *   CY_PROT_SUCCESS       | The Master PU struct was disabled.
1970:Generated_Source\PSoC6\pdl\drivers\peripheral\prot/cy_prot.c **** *   CY_PROT_FAILURE       | The Master PU struct is enabled and possibly locked.
1971:Generated_Source\PSoC6\pdl\drivers\peripheral\prot/cy_prot.c **** *   CY_PROT_INVALID_STATE | The function was called on the device with an unsupported PERI HW versi
1972:Generated_Source\PSoC6\pdl\drivers\peripheral\prot/cy_prot.c **** *
1973:Generated_Source\PSoC6\pdl\drivers\peripheral\prot/cy_prot.c **** * \funcusage
1974:Generated_Source\PSoC6\pdl\drivers\peripheral\prot/cy_prot.c **** * \snippet prot/1.20/snippet/main.c snippet_Cy_Prot_DisablePpuFixedGrMasterStruct
1975:Generated_Source\PSoC6\pdl\drivers\peripheral\prot/cy_prot.c **** *
1976:Generated_Source\PSoC6\pdl\drivers\peripheral\prot/cy_prot.c **** *******************************************************************************/
1977:Generated_Source\PSoC6\pdl\drivers\peripheral\prot/cy_prot.c **** cy_en_prot_status_t Cy_Prot_DisablePpuFixedGrMasterStruct(PERI_PPU_GR_Type* base)
1978:Generated_Source\PSoC6\pdl\drivers\peripheral\prot/cy_prot.c **** {
 4926              		.loc 1 1978 0
 4927              		.cfi_startproc
 4928              		@ args = 0, pretend = 0, frame = 16
 4929              		@ frame_needed = 1, uses_anonymous_args = 0
 4930 0000 80B5     		push	{r7, lr}
 4931              		.cfi_def_cfa_offset 8
 4932              		.cfi_offset 7, -8
 4933              		.cfi_offset 14, -4
 4934 0002 84B0     		sub	sp, sp, #16
 4935              		.cfi_def_cfa_offset 24
 4936 0004 00AF     		add	r7, sp, #0
 4937              		.cfi_def_cfa_register 7
 4938 0006 7860     		str	r0, [r7, #4]
1979:Generated_Source\PSoC6\pdl\drivers\peripheral\prot/cy_prot.c ****     cy_en_prot_status_t status = CY_PROT_INVALID_STATE;
 4939              		.loc 1 1979 0
 4940 0008 134B     		ldr	r3, .L320
 4941 000a FB60     		str	r3, [r7, #12]
1980:Generated_Source\PSoC6\pdl\drivers\peripheral\prot/cy_prot.c ****     
1981:Generated_Source\PSoC6\pdl\drivers\peripheral\prot/cy_prot.c ****     CY_ASSERT_L1(NULL != base);
 4942              		.loc 1 1981 0
 4943 000c 7B68     		ldr	r3, [r7, #4]
 4944 000e 002B     		cmp	r3, #0
 4945 0010 05D1     		bne	.L315
 4946              		.loc 1 1981 0 is_stmt 0 discriminator 1
ARM GAS  C:\Users\JC\AppData\Local\Temp\ccU1E72d.s 			page 124


 4947 0012 124A     		ldr	r2, .L320+4
 4948 0014 124B     		ldr	r3, .L320+8
 4949 0016 1100     		movs	r1, r2
 4950 0018 1800     		movs	r0, r3
 4951 001a FFF7FEFF 		bl	Cy_SysLib_AssertFailed
 4952              	.L315:
1982:Generated_Source\PSoC6\pdl\drivers\peripheral\prot/cy_prot.c ****     
1983:Generated_Source\PSoC6\pdl\drivers\peripheral\prot/cy_prot.c ****     if (CY_PERI_V1)
 4953              		.loc 1 1983 0 is_stmt 1
 4954 001e 114B     		ldr	r3, .L320+12
 4955 0020 1B68     		ldr	r3, [r3]
 4956 0022 2F22     		movs	r2, #47
 4957 0024 9B5C     		ldrb	r3, [r3, r2]
 4958 0026 012B     		cmp	r3, #1
 4959 0028 10D1     		bne	.L316
1984:Generated_Source\PSoC6\pdl\drivers\peripheral\prot/cy_prot.c ****     {
1985:Generated_Source\PSoC6\pdl\drivers\peripheral\prot/cy_prot.c ****         PERI_PPU_GR_ATT1(base) &= ~_VAL2FLD(PERI_PPU_GR_ATT1_ENABLED, CY_PROT_STRUCT_ENABLE);
 4960              		.loc 1 1985 0
 4961 002a 7B68     		ldr	r3, [r7, #4]
 4962 002c 5B6A     		ldr	r3, [r3, #36]
 4963 002e 5B00     		lsls	r3, r3, #1
 4964 0030 5A08     		lsrs	r2, r3, #1
 4965 0032 7B68     		ldr	r3, [r7, #4]
 4966 0034 5A62     		str	r2, [r3, #36]
1986:Generated_Source\PSoC6\pdl\drivers\peripheral\prot/cy_prot.c ****         status = (_FLD2VAL(PERI_PPU_GR_ATT1_ENABLED, PERI_PPU_GR_ATT1(base)) == CY_PROT_STRUCT_ENAB
 4967              		.loc 1 1986 0
 4968 0036 7B68     		ldr	r3, [r7, #4]
 4969 0038 5B6A     		ldr	r3, [r3, #36]
 4970 003a DB0F     		lsrs	r3, r3, #31
 4971 003c DB07     		lsls	r3, r3, #31
 4972 003e DB0F     		lsrs	r3, r3, #31
 4973 0040 012B     		cmp	r3, #1
 4974 0042 01D1     		bne	.L317
 4975              		.loc 1 1986 0 is_stmt 0 discriminator 1
 4976 0044 084B     		ldr	r3, .L320+16
 4977 0046 00E0     		b	.L318
 4978              	.L317:
 4979              		.loc 1 1986 0 discriminator 2
 4980 0048 0023     		movs	r3, #0
 4981              	.L318:
 4982              		.loc 1 1986 0 discriminator 4
 4983 004a FB60     		str	r3, [r7, #12]
 4984              	.L316:
1987:Generated_Source\PSoC6\pdl\drivers\peripheral\prot/cy_prot.c ****                     CY_PROT_FAILURE : CY_PROT_SUCCESS;
1988:Generated_Source\PSoC6\pdl\drivers\peripheral\prot/cy_prot.c ****     }
1989:Generated_Source\PSoC6\pdl\drivers\peripheral\prot/cy_prot.c **** 
1990:Generated_Source\PSoC6\pdl\drivers\peripheral\prot/cy_prot.c ****     return status;
 4985              		.loc 1 1990 0 is_stmt 1
 4986 004c FB68     		ldr	r3, [r7, #12]
1991:Generated_Source\PSoC6\pdl\drivers\peripheral\prot/cy_prot.c **** }
 4987              		.loc 1 1991 0
 4988 004e 1800     		movs	r0, r3
 4989 0050 BD46     		mov	sp, r7
 4990 0052 04B0     		add	sp, sp, #16
 4991              		@ sp needed
 4992 0054 80BD     		pop	{r7, pc}
 4993              	.L321:
ARM GAS  C:\Users\JC\AppData\Local\Temp\ccU1E72d.s 			page 125


 4994 0056 C046     		.align	2
 4995              	.L320:
 4996 0058 0200C200 		.word	12713986
 4997 005c BD070000 		.word	1981
 4998 0060 00000000 		.word	.LC1
 4999 0064 00000000 		.word	cy_device
 5000 0068 0300C200 		.word	12713987
 5001              		.cfi_endproc
 5002              	.LFE78:
 5003              		.size	Cy_Prot_DisablePpuFixedGrMasterStruct, .-Cy_Prot_DisablePpuFixedGrMasterStruct
 5004              		.section	.text.Cy_Prot_EnablePpuFixedGrSlaveStruct,"ax",%progbits
 5005              		.align	2
 5006              		.global	Cy_Prot_EnablePpuFixedGrSlaveStruct
 5007              		.code	16
 5008              		.thumb_func
 5009              		.type	Cy_Prot_EnablePpuFixedGrSlaveStruct, %function
 5010              	Cy_Prot_EnablePpuFixedGrSlaveStruct:
 5011              	.LFB79:
1992:Generated_Source\PSoC6\pdl\drivers\peripheral\prot/cy_prot.c **** 
1993:Generated_Source\PSoC6\pdl\drivers\peripheral\prot/cy_prot.c **** 
1994:Generated_Source\PSoC6\pdl\drivers\peripheral\prot/cy_prot.c **** /*******************************************************************************
1995:Generated_Source\PSoC6\pdl\drivers\peripheral\prot/cy_prot.c **** * Function Name: Cy_Prot_EnablePpuFixedGrSlaveStruct
1996:Generated_Source\PSoC6\pdl\drivers\peripheral\prot/cy_prot.c **** ****************************************************************************//**
1997:Generated_Source\PSoC6\pdl\drivers\peripheral\prot/cy_prot.c **** *
1998:Generated_Source\PSoC6\pdl\drivers\peripheral\prot/cy_prot.c **** * Enables the Slave PPU GR structure.
1999:Generated_Source\PSoC6\pdl\drivers\peripheral\prot/cy_prot.c **** *
2000:Generated_Source\PSoC6\pdl\drivers\peripheral\prot/cy_prot.c **** * This is a PPU GR slave struct enable function. The PPU GR protection 
2001:Generated_Source\PSoC6\pdl\drivers\peripheral\prot/cy_prot.c **** * settings will take effect after successful completion of this function call.
2002:Generated_Source\PSoC6\pdl\drivers\peripheral\prot/cy_prot.c **** *
2003:Generated_Source\PSoC6\pdl\drivers\peripheral\prot/cy_prot.c **** * \note This function is applicable for CPUSS ver_1 only.
2004:Generated_Source\PSoC6\pdl\drivers\peripheral\prot/cy_prot.c **** *
2005:Generated_Source\PSoC6\pdl\drivers\peripheral\prot/cy_prot.c **** * \param base
2006:Generated_Source\PSoC6\pdl\drivers\peripheral\prot/cy_prot.c **** * The base address for the protection unit structure being configured. 
2007:Generated_Source\PSoC6\pdl\drivers\peripheral\prot/cy_prot.c **** *
2008:Generated_Source\PSoC6\pdl\drivers\peripheral\prot/cy_prot.c **** * \return
2009:Generated_Source\PSoC6\pdl\drivers\peripheral\prot/cy_prot.c **** * Status of the function call.
2010:Generated_Source\PSoC6\pdl\drivers\peripheral\prot/cy_prot.c **** *
2011:Generated_Source\PSoC6\pdl\drivers\peripheral\prot/cy_prot.c **** *   Status                | Description
2012:Generated_Source\PSoC6\pdl\drivers\peripheral\prot/cy_prot.c **** *   ------------          | -----------
2013:Generated_Source\PSoC6\pdl\drivers\peripheral\prot/cy_prot.c **** *   CY_PROT_SUCCESS       | The Slave PU struct was enabled.
2014:Generated_Source\PSoC6\pdl\drivers\peripheral\prot/cy_prot.c **** *   CY_PROT_FAILURE       | The Slave PU struct is disabled and possibly locked.
2015:Generated_Source\PSoC6\pdl\drivers\peripheral\prot/cy_prot.c **** *   CY_PROT_INVALID_STATE | The function was called on the device with an unsupported PERI HW versi
2016:Generated_Source\PSoC6\pdl\drivers\peripheral\prot/cy_prot.c **** *
2017:Generated_Source\PSoC6\pdl\drivers\peripheral\prot/cy_prot.c **** * \funcusage
2018:Generated_Source\PSoC6\pdl\drivers\peripheral\prot/cy_prot.c **** * \snippet prot/1.20/snippet/main.c snippet_Cy_Prot_EnablePpuFixedGrSlaveStruct
2019:Generated_Source\PSoC6\pdl\drivers\peripheral\prot/cy_prot.c **** *
2020:Generated_Source\PSoC6\pdl\drivers\peripheral\prot/cy_prot.c **** *******************************************************************************/
2021:Generated_Source\PSoC6\pdl\drivers\peripheral\prot/cy_prot.c **** cy_en_prot_status_t Cy_Prot_EnablePpuFixedGrSlaveStruct(PERI_PPU_GR_Type* base)
2022:Generated_Source\PSoC6\pdl\drivers\peripheral\prot/cy_prot.c **** {   
 5012              		.loc 1 2022 0
 5013              		.cfi_startproc
 5014              		@ args = 0, pretend = 0, frame = 16
 5015              		@ frame_needed = 1, uses_anonymous_args = 0
 5016 0000 80B5     		push	{r7, lr}
 5017              		.cfi_def_cfa_offset 8
 5018              		.cfi_offset 7, -8
 5019              		.cfi_offset 14, -4
ARM GAS  C:\Users\JC\AppData\Local\Temp\ccU1E72d.s 			page 126


 5020 0002 84B0     		sub	sp, sp, #16
 5021              		.cfi_def_cfa_offset 24
 5022 0004 00AF     		add	r7, sp, #0
 5023              		.cfi_def_cfa_register 7
 5024 0006 7860     		str	r0, [r7, #4]
2023:Generated_Source\PSoC6\pdl\drivers\peripheral\prot/cy_prot.c ****     cy_en_prot_status_t status = CY_PROT_INVALID_STATE;
 5025              		.loc 1 2023 0
 5026 0008 134B     		ldr	r3, .L328
 5027 000a FB60     		str	r3, [r7, #12]
2024:Generated_Source\PSoC6\pdl\drivers\peripheral\prot/cy_prot.c ****     
2025:Generated_Source\PSoC6\pdl\drivers\peripheral\prot/cy_prot.c ****     CY_ASSERT_L1(NULL != base);
 5028              		.loc 1 2025 0
 5029 000c 7B68     		ldr	r3, [r7, #4]
 5030 000e 002B     		cmp	r3, #0
 5031 0010 05D1     		bne	.L323
 5032              		.loc 1 2025 0 is_stmt 0 discriminator 1
 5033 0012 124A     		ldr	r2, .L328+4
 5034 0014 124B     		ldr	r3, .L328+8
 5035 0016 1100     		movs	r1, r2
 5036 0018 1800     		movs	r0, r3
 5037 001a FFF7FEFF 		bl	Cy_SysLib_AssertFailed
 5038              	.L323:
2026:Generated_Source\PSoC6\pdl\drivers\peripheral\prot/cy_prot.c ****     
2027:Generated_Source\PSoC6\pdl\drivers\peripheral\prot/cy_prot.c ****     if (CY_PERI_V1)
 5039              		.loc 1 2027 0 is_stmt 1
 5040 001e 114B     		ldr	r3, .L328+12
 5041 0020 1B68     		ldr	r3, [r3]
 5042 0022 2F22     		movs	r2, #47
 5043 0024 9B5C     		ldrb	r3, [r3, r2]
 5044 0026 012B     		cmp	r3, #1
 5045 0028 11D1     		bne	.L324
2028:Generated_Source\PSoC6\pdl\drivers\peripheral\prot/cy_prot.c ****     {
2029:Generated_Source\PSoC6\pdl\drivers\peripheral\prot/cy_prot.c ****         PERI_PPU_GR_ATT0(base) |= _VAL2FLD(PERI_PPU_GR_ATT0_ENABLED, CY_PROT_STRUCT_ENABLE);
 5046              		.loc 1 2029 0
 5047 002a 7B68     		ldr	r3, [r7, #4]
 5048 002c 5B68     		ldr	r3, [r3, #4]
 5049 002e 8022     		movs	r2, #128
 5050 0030 1206     		lsls	r2, r2, #24
 5051 0032 1A43     		orrs	r2, r3
 5052 0034 7B68     		ldr	r3, [r7, #4]
 5053 0036 5A60     		str	r2, [r3, #4]
2030:Generated_Source\PSoC6\pdl\drivers\peripheral\prot/cy_prot.c ****         status = (_FLD2VAL(PERI_PPU_GR_ATT0_ENABLED, PERI_PPU_GR_ATT0(base)) != CY_PROT_STRUCT_ENAB
 5054              		.loc 1 2030 0
 5055 0038 7B68     		ldr	r3, [r7, #4]
 5056 003a 5B68     		ldr	r3, [r3, #4]
 5057 003c DB0F     		lsrs	r3, r3, #31
 5058 003e DB07     		lsls	r3, r3, #31
 5059 0040 DB0F     		lsrs	r3, r3, #31
 5060 0042 012B     		cmp	r3, #1
 5061 0044 01D0     		beq	.L325
 5062              		.loc 1 2030 0 is_stmt 0 discriminator 1
 5063 0046 084B     		ldr	r3, .L328+16
 5064 0048 00E0     		b	.L326
 5065              	.L325:
 5066              		.loc 1 2030 0 discriminator 2
 5067 004a 0023     		movs	r3, #0
 5068              	.L326:
ARM GAS  C:\Users\JC\AppData\Local\Temp\ccU1E72d.s 			page 127


 5069              		.loc 1 2030 0 discriminator 4
 5070 004c FB60     		str	r3, [r7, #12]
 5071              	.L324:
2031:Generated_Source\PSoC6\pdl\drivers\peripheral\prot/cy_prot.c ****                     CY_PROT_FAILURE : CY_PROT_SUCCESS;
2032:Generated_Source\PSoC6\pdl\drivers\peripheral\prot/cy_prot.c ****     }
2033:Generated_Source\PSoC6\pdl\drivers\peripheral\prot/cy_prot.c **** 
2034:Generated_Source\PSoC6\pdl\drivers\peripheral\prot/cy_prot.c ****     return status;
 5072              		.loc 1 2034 0 is_stmt 1
 5073 004e FB68     		ldr	r3, [r7, #12]
2035:Generated_Source\PSoC6\pdl\drivers\peripheral\prot/cy_prot.c **** }
 5074              		.loc 1 2035 0
 5075 0050 1800     		movs	r0, r3
 5076 0052 BD46     		mov	sp, r7
 5077 0054 04B0     		add	sp, sp, #16
 5078              		@ sp needed
 5079 0056 80BD     		pop	{r7, pc}
 5080              	.L329:
 5081              		.align	2
 5082              	.L328:
 5083 0058 0200C200 		.word	12713986
 5084 005c E9070000 		.word	2025
 5085 0060 00000000 		.word	.LC1
 5086 0064 00000000 		.word	cy_device
 5087 0068 0300C200 		.word	12713987
 5088              		.cfi_endproc
 5089              	.LFE79:
 5090              		.size	Cy_Prot_EnablePpuFixedGrSlaveStruct, .-Cy_Prot_EnablePpuFixedGrSlaveStruct
 5091              		.section	.text.Cy_Prot_DisablePpuFixedGrSlaveStruct,"ax",%progbits
 5092              		.align	2
 5093              		.global	Cy_Prot_DisablePpuFixedGrSlaveStruct
 5094              		.code	16
 5095              		.thumb_func
 5096              		.type	Cy_Prot_DisablePpuFixedGrSlaveStruct, %function
 5097              	Cy_Prot_DisablePpuFixedGrSlaveStruct:
 5098              	.LFB80:
2036:Generated_Source\PSoC6\pdl\drivers\peripheral\prot/cy_prot.c **** 
2037:Generated_Source\PSoC6\pdl\drivers\peripheral\prot/cy_prot.c **** 
2038:Generated_Source\PSoC6\pdl\drivers\peripheral\prot/cy_prot.c **** /*******************************************************************************
2039:Generated_Source\PSoC6\pdl\drivers\peripheral\prot/cy_prot.c **** * Function Name: Cy_Prot_DisablePpuFixedGrSlaveStruct
2040:Generated_Source\PSoC6\pdl\drivers\peripheral\prot/cy_prot.c **** ****************************************************************************//**
2041:Generated_Source\PSoC6\pdl\drivers\peripheral\prot/cy_prot.c **** *
2042:Generated_Source\PSoC6\pdl\drivers\peripheral\prot/cy_prot.c **** * Disables the Slave PPU GR structure.
2043:Generated_Source\PSoC6\pdl\drivers\peripheral\prot/cy_prot.c **** *
2044:Generated_Source\PSoC6\pdl\drivers\peripheral\prot/cy_prot.c **** * This is a PPU GR slave struct disable function. The PPU GR protection 
2045:Generated_Source\PSoC6\pdl\drivers\peripheral\prot/cy_prot.c **** * settings will seize to take effect after successful completion of this 
2046:Generated_Source\PSoC6\pdl\drivers\peripheral\prot/cy_prot.c **** * function call.
2047:Generated_Source\PSoC6\pdl\drivers\peripheral\prot/cy_prot.c **** *
2048:Generated_Source\PSoC6\pdl\drivers\peripheral\prot/cy_prot.c **** * \note This function is applicable for CPUSS ver_1 only.
2049:Generated_Source\PSoC6\pdl\drivers\peripheral\prot/cy_prot.c **** *
2050:Generated_Source\PSoC6\pdl\drivers\peripheral\prot/cy_prot.c **** * \param base
2051:Generated_Source\PSoC6\pdl\drivers\peripheral\prot/cy_prot.c **** * The base address for the protection unit structure being configured. 
2052:Generated_Source\PSoC6\pdl\drivers\peripheral\prot/cy_prot.c **** *
2053:Generated_Source\PSoC6\pdl\drivers\peripheral\prot/cy_prot.c **** * \return
2054:Generated_Source\PSoC6\pdl\drivers\peripheral\prot/cy_prot.c **** * Status of the function call.
2055:Generated_Source\PSoC6\pdl\drivers\peripheral\prot/cy_prot.c **** *
2056:Generated_Source\PSoC6\pdl\drivers\peripheral\prot/cy_prot.c **** *   Status                | Description
2057:Generated_Source\PSoC6\pdl\drivers\peripheral\prot/cy_prot.c **** *   ------------          | -----------
ARM GAS  C:\Users\JC\AppData\Local\Temp\ccU1E72d.s 			page 128


2058:Generated_Source\PSoC6\pdl\drivers\peripheral\prot/cy_prot.c **** *   CY_PROT_SUCCESS       | The Slave PU struct was disabled.
2059:Generated_Source\PSoC6\pdl\drivers\peripheral\prot/cy_prot.c **** *   CY_PROT_FAILURE       | The Slave PU struct is enabled and possibly locked.
2060:Generated_Source\PSoC6\pdl\drivers\peripheral\prot/cy_prot.c **** *   CY_PROT_INVALID_STATE | The function was called on the device with an unsupported PERI HW versi
2061:Generated_Source\PSoC6\pdl\drivers\peripheral\prot/cy_prot.c **** *
2062:Generated_Source\PSoC6\pdl\drivers\peripheral\prot/cy_prot.c **** * \funcusage
2063:Generated_Source\PSoC6\pdl\drivers\peripheral\prot/cy_prot.c **** * \snippet prot/1.20/snippet/main.c snippet_Cy_Prot_DisablePpuFixedGrSlaveStruct
2064:Generated_Source\PSoC6\pdl\drivers\peripheral\prot/cy_prot.c **** *
2065:Generated_Source\PSoC6\pdl\drivers\peripheral\prot/cy_prot.c **** *******************************************************************************/
2066:Generated_Source\PSoC6\pdl\drivers\peripheral\prot/cy_prot.c **** cy_en_prot_status_t Cy_Prot_DisablePpuFixedGrSlaveStruct(PERI_PPU_GR_Type* base)
2067:Generated_Source\PSoC6\pdl\drivers\peripheral\prot/cy_prot.c **** {
 5099              		.loc 1 2067 0
 5100              		.cfi_startproc
 5101              		@ args = 0, pretend = 0, frame = 16
 5102              		@ frame_needed = 1, uses_anonymous_args = 0
 5103 0000 80B5     		push	{r7, lr}
 5104              		.cfi_def_cfa_offset 8
 5105              		.cfi_offset 7, -8
 5106              		.cfi_offset 14, -4
 5107 0002 84B0     		sub	sp, sp, #16
 5108              		.cfi_def_cfa_offset 24
 5109 0004 00AF     		add	r7, sp, #0
 5110              		.cfi_def_cfa_register 7
 5111 0006 7860     		str	r0, [r7, #4]
2068:Generated_Source\PSoC6\pdl\drivers\peripheral\prot/cy_prot.c ****     cy_en_prot_status_t status = CY_PROT_INVALID_STATE;
 5112              		.loc 1 2068 0
 5113 0008 134B     		ldr	r3, .L336
 5114 000a FB60     		str	r3, [r7, #12]
2069:Generated_Source\PSoC6\pdl\drivers\peripheral\prot/cy_prot.c ****     
2070:Generated_Source\PSoC6\pdl\drivers\peripheral\prot/cy_prot.c ****     CY_ASSERT_L1(NULL != base);
 5115              		.loc 1 2070 0
 5116 000c 7B68     		ldr	r3, [r7, #4]
 5117 000e 002B     		cmp	r3, #0
 5118 0010 05D1     		bne	.L331
 5119              		.loc 1 2070 0 is_stmt 0 discriminator 1
 5120 0012 124A     		ldr	r2, .L336+4
 5121 0014 124B     		ldr	r3, .L336+8
 5122 0016 1100     		movs	r1, r2
 5123 0018 1800     		movs	r0, r3
 5124 001a FFF7FEFF 		bl	Cy_SysLib_AssertFailed
 5125              	.L331:
2071:Generated_Source\PSoC6\pdl\drivers\peripheral\prot/cy_prot.c ****     
2072:Generated_Source\PSoC6\pdl\drivers\peripheral\prot/cy_prot.c ****     if (CY_PERI_V1)
 5126              		.loc 1 2072 0 is_stmt 1
 5127 001e 114B     		ldr	r3, .L336+12
 5128 0020 1B68     		ldr	r3, [r3]
 5129 0022 2F22     		movs	r2, #47
 5130 0024 9B5C     		ldrb	r3, [r3, r2]
 5131 0026 012B     		cmp	r3, #1
 5132 0028 10D1     		bne	.L332
2073:Generated_Source\PSoC6\pdl\drivers\peripheral\prot/cy_prot.c ****     {
2074:Generated_Source\PSoC6\pdl\drivers\peripheral\prot/cy_prot.c ****         PERI_PPU_GR_ATT0(base) &= ~_VAL2FLD(PERI_PPU_GR_ATT0_ENABLED, CY_PROT_STRUCT_ENABLE);
 5133              		.loc 1 2074 0
 5134 002a 7B68     		ldr	r3, [r7, #4]
 5135 002c 5B68     		ldr	r3, [r3, #4]
 5136 002e 5B00     		lsls	r3, r3, #1
 5137 0030 5A08     		lsrs	r2, r3, #1
 5138 0032 7B68     		ldr	r3, [r7, #4]
ARM GAS  C:\Users\JC\AppData\Local\Temp\ccU1E72d.s 			page 129


 5139 0034 5A60     		str	r2, [r3, #4]
2075:Generated_Source\PSoC6\pdl\drivers\peripheral\prot/cy_prot.c ****         status = (_FLD2VAL(PERI_PPU_GR_ATT0_ENABLED, PERI_PPU_GR_ATT0(base)) == CY_PROT_STRUCT_ENAB
 5140              		.loc 1 2075 0
 5141 0036 7B68     		ldr	r3, [r7, #4]
 5142 0038 5B68     		ldr	r3, [r3, #4]
 5143 003a DB0F     		lsrs	r3, r3, #31
 5144 003c DB07     		lsls	r3, r3, #31
 5145 003e DB0F     		lsrs	r3, r3, #31
 5146 0040 012B     		cmp	r3, #1
 5147 0042 01D1     		bne	.L333
 5148              		.loc 1 2075 0 is_stmt 0 discriminator 1
 5149 0044 084B     		ldr	r3, .L336+16
 5150 0046 00E0     		b	.L334
 5151              	.L333:
 5152              		.loc 1 2075 0 discriminator 2
 5153 0048 0023     		movs	r3, #0
 5154              	.L334:
 5155              		.loc 1 2075 0 discriminator 4
 5156 004a FB60     		str	r3, [r7, #12]
 5157              	.L332:
2076:Generated_Source\PSoC6\pdl\drivers\peripheral\prot/cy_prot.c ****                     CY_PROT_FAILURE : CY_PROT_SUCCESS;
2077:Generated_Source\PSoC6\pdl\drivers\peripheral\prot/cy_prot.c ****     }
2078:Generated_Source\PSoC6\pdl\drivers\peripheral\prot/cy_prot.c **** 
2079:Generated_Source\PSoC6\pdl\drivers\peripheral\prot/cy_prot.c ****     return status;
 5158              		.loc 1 2079 0 is_stmt 1
 5159 004c FB68     		ldr	r3, [r7, #12]
2080:Generated_Source\PSoC6\pdl\drivers\peripheral\prot/cy_prot.c **** }
 5160              		.loc 1 2080 0
 5161 004e 1800     		movs	r0, r3
 5162 0050 BD46     		mov	sp, r7
 5163 0052 04B0     		add	sp, sp, #16
 5164              		@ sp needed
 5165 0054 80BD     		pop	{r7, pc}
 5166              	.L337:
 5167 0056 C046     		.align	2
 5168              	.L336:
 5169 0058 0200C200 		.word	12713986
 5170 005c 16080000 		.word	2070
 5171 0060 00000000 		.word	.LC1
 5172 0064 00000000 		.word	cy_device
 5173 0068 0300C200 		.word	12713987
 5174              		.cfi_endproc
 5175              	.LFE80:
 5176              		.size	Cy_Prot_DisablePpuFixedGrSlaveStruct, .-Cy_Prot_DisablePpuFixedGrSlaveStruct
 5177              		.section	.text.Cy_Prot_ConfigPpuFixedSlMasterStruct,"ax",%progbits
 5178              		.align	2
 5179              		.global	Cy_Prot_ConfigPpuFixedSlMasterStruct
 5180              		.code	16
 5181              		.thumb_func
 5182              		.type	Cy_Prot_ConfigPpuFixedSlMasterStruct, %function
 5183              	Cy_Prot_ConfigPpuFixedSlMasterStruct:
 5184              	.LFB81:
2081:Generated_Source\PSoC6\pdl\drivers\peripheral\prot/cy_prot.c **** 
2082:Generated_Source\PSoC6\pdl\drivers\peripheral\prot/cy_prot.c **** 
2083:Generated_Source\PSoC6\pdl\drivers\peripheral\prot/cy_prot.c **** /*******************************************************************************
2084:Generated_Source\PSoC6\pdl\drivers\peripheral\prot/cy_prot.c **** * Function Name: Cy_Prot_ConfigPpuFixedSlMasterStruct
2085:Generated_Source\PSoC6\pdl\drivers\peripheral\prot/cy_prot.c **** ****************************************************************************//**
ARM GAS  C:\Users\JC\AppData\Local\Temp\ccU1E72d.s 			page 130


2086:Generated_Source\PSoC6\pdl\drivers\peripheral\prot/cy_prot.c **** *
2087:Generated_Source\PSoC6\pdl\drivers\peripheral\prot/cy_prot.c **** * Configures a Fixed Peripheral Slave Protection Unit (PPU SL) master 
2088:Generated_Source\PSoC6\pdl\drivers\peripheral\prot/cy_prot.c **** * protection struct with its protection attributes. 
2089:Generated_Source\PSoC6\pdl\drivers\peripheral\prot/cy_prot.c **** *
2090:Generated_Source\PSoC6\pdl\drivers\peripheral\prot/cy_prot.c **** * This function configures the master struct governing the corresponding slave
2091:Generated_Source\PSoC6\pdl\drivers\peripheral\prot/cy_prot.c **** * struct pair. It is a mechanism to protect the slave PPU SL struct. Since
2092:Generated_Source\PSoC6\pdl\drivers\peripheral\prot/cy_prot.c **** * the memory location of the slave struct is known, the address, regionSize and
2093:Generated_Source\PSoC6\pdl\drivers\peripheral\prot/cy_prot.c **** * subregions of the configuration struct are not applicable.
2094:Generated_Source\PSoC6\pdl\drivers\peripheral\prot/cy_prot.c **** *
2095:Generated_Source\PSoC6\pdl\drivers\peripheral\prot/cy_prot.c **** * Note that only the user/privileged write permissions are configurable. The 
2096:Generated_Source\PSoC6\pdl\drivers\peripheral\prot/cy_prot.c **** * read and execute permissions are read-only and cannot be configured.
2097:Generated_Source\PSoC6\pdl\drivers\peripheral\prot/cy_prot.c **** *
2098:Generated_Source\PSoC6\pdl\drivers\peripheral\prot/cy_prot.c **** * \note This function is applicable for CPUSS ver_1 only.
2099:Generated_Source\PSoC6\pdl\drivers\peripheral\prot/cy_prot.c **** *
2100:Generated_Source\PSoC6\pdl\drivers\peripheral\prot/cy_prot.c **** * \param base
2101:Generated_Source\PSoC6\pdl\drivers\peripheral\prot/cy_prot.c **** * The register base address of the protection struct being configured.
2102:Generated_Source\PSoC6\pdl\drivers\peripheral\prot/cy_prot.c **** * 
2103:Generated_Source\PSoC6\pdl\drivers\peripheral\prot/cy_prot.c **** * \param config
2104:Generated_Source\PSoC6\pdl\drivers\peripheral\prot/cy_prot.c **** * Initialization structure with all the protection attributes.
2105:Generated_Source\PSoC6\pdl\drivers\peripheral\prot/cy_prot.c **** * 
2106:Generated_Source\PSoC6\pdl\drivers\peripheral\prot/cy_prot.c **** * \return
2107:Generated_Source\PSoC6\pdl\drivers\peripheral\prot/cy_prot.c **** * Status of the function call.
2108:Generated_Source\PSoC6\pdl\drivers\peripheral\prot/cy_prot.c **** *
2109:Generated_Source\PSoC6\pdl\drivers\peripheral\prot/cy_prot.c **** *   Status                | Description
2110:Generated_Source\PSoC6\pdl\drivers\peripheral\prot/cy_prot.c **** *   ------------          | -----------
2111:Generated_Source\PSoC6\pdl\drivers\peripheral\prot/cy_prot.c **** *   CY_PROT_SUCCESS       | PPU SL master struct was successfully configured.
2112:Generated_Source\PSoC6\pdl\drivers\peripheral\prot/cy_prot.c **** *   CY_PROT_FAILURE       | The resource is locked.
2113:Generated_Source\PSoC6\pdl\drivers\peripheral\prot/cy_prot.c **** *   CY_PROT_BAD_PARAM     | An incorrect/invalid parameter was passed.
2114:Generated_Source\PSoC6\pdl\drivers\peripheral\prot/cy_prot.c **** *   CY_PROT_INVALID_STATE | The function was called on the device with an unsupported PERI HW versi
2115:Generated_Source\PSoC6\pdl\drivers\peripheral\prot/cy_prot.c **** *
2116:Generated_Source\PSoC6\pdl\drivers\peripheral\prot/cy_prot.c **** * \funcusage
2117:Generated_Source\PSoC6\pdl\drivers\peripheral\prot/cy_prot.c **** * \snippet prot/1.20/snippet/main.c snippet_Cy_Prot_ConfigPpuFixedSlMasterStruct
2118:Generated_Source\PSoC6\pdl\drivers\peripheral\prot/cy_prot.c **** *
2119:Generated_Source\PSoC6\pdl\drivers\peripheral\prot/cy_prot.c **** *******************************************************************************/
2120:Generated_Source\PSoC6\pdl\drivers\peripheral\prot/cy_prot.c **** cy_en_prot_status_t Cy_Prot_ConfigPpuFixedSlMasterStruct(PERI_GR_PPU_SL_Type* base, const cy_stc_pp
2121:Generated_Source\PSoC6\pdl\drivers\peripheral\prot/cy_prot.c **** {
 5185              		.loc 1 2121 0
 5186              		.cfi_startproc
 5187              		@ args = 0, pretend = 0, frame = 16
 5188              		@ frame_needed = 1, uses_anonymous_args = 0
 5189 0000 80B5     		push	{r7, lr}
 5190              		.cfi_def_cfa_offset 8
 5191              		.cfi_offset 7, -8
 5192              		.cfi_offset 14, -4
 5193 0002 84B0     		sub	sp, sp, #16
 5194              		.cfi_def_cfa_offset 24
 5195 0004 00AF     		add	r7, sp, #0
 5196              		.cfi_def_cfa_register 7
 5197 0006 7860     		str	r0, [r7, #4]
 5198 0008 3960     		str	r1, [r7]
2122:Generated_Source\PSoC6\pdl\drivers\peripheral\prot/cy_prot.c ****     cy_en_prot_status_t status = CY_PROT_INVALID_STATE;
 5199              		.loc 1 2122 0
 5200 000a 424B     		ldr	r3, .L348
 5201 000c FB60     		str	r3, [r7, #12]
2123:Generated_Source\PSoC6\pdl\drivers\peripheral\prot/cy_prot.c ****     uint32_t attReg;
2124:Generated_Source\PSoC6\pdl\drivers\peripheral\prot/cy_prot.c ****     
2125:Generated_Source\PSoC6\pdl\drivers\peripheral\prot/cy_prot.c ****     CY_ASSERT_L1(NULL != base);
ARM GAS  C:\Users\JC\AppData\Local\Temp\ccU1E72d.s 			page 131


 5202              		.loc 1 2125 0
 5203 000e 7B68     		ldr	r3, [r7, #4]
 5204 0010 002B     		cmp	r3, #0
 5205 0012 05D1     		bne	.L339
 5206              		.loc 1 2125 0 is_stmt 0 discriminator 1
 5207 0014 404A     		ldr	r2, .L348+4
 5208 0016 414B     		ldr	r3, .L348+8
 5209 0018 1100     		movs	r1, r2
 5210 001a 1800     		movs	r0, r3
 5211 001c FFF7FEFF 		bl	Cy_SysLib_AssertFailed
 5212              	.L339:
2126:Generated_Source\PSoC6\pdl\drivers\peripheral\prot/cy_prot.c ****     CY_ASSERT_L3(CY_PROT_IS_FIXED_MS_PERM_VALID(config->userPermission));
 5213              		.loc 1 2126 0 is_stmt 1
 5214 0020 3B68     		ldr	r3, [r7]
 5215 0022 1B78     		ldrb	r3, [r3]
 5216 0024 002B     		cmp	r3, #0
 5217 0026 11D0     		beq	.L340
 5218              		.loc 1 2126 0 is_stmt 0 discriminator 1
 5219 0028 3B68     		ldr	r3, [r7]
 5220 002a 1B78     		ldrb	r3, [r3]
 5221 002c 012B     		cmp	r3, #1
 5222 002e 0DD0     		beq	.L340
 5223              		.loc 1 2126 0 discriminator 2
 5224 0030 3B68     		ldr	r3, [r7]
 5225 0032 1B78     		ldrb	r3, [r3]
 5226 0034 022B     		cmp	r3, #2
 5227 0036 09D0     		beq	.L340
 5228              		.loc 1 2126 0 discriminator 3
 5229 0038 3B68     		ldr	r3, [r7]
 5230 003a 1B78     		ldrb	r3, [r3]
 5231 003c 032B     		cmp	r3, #3
 5232 003e 05D0     		beq	.L340
 5233              		.loc 1 2126 0 discriminator 4
 5234 0040 374A     		ldr	r2, .L348+12
 5235 0042 364B     		ldr	r3, .L348+8
 5236 0044 1100     		movs	r1, r2
 5237 0046 1800     		movs	r0, r3
 5238 0048 FFF7FEFF 		bl	Cy_SysLib_AssertFailed
 5239              	.L340:
2127:Generated_Source\PSoC6\pdl\drivers\peripheral\prot/cy_prot.c ****     CY_ASSERT_L3(CY_PROT_IS_FIXED_MS_PERM_VALID(config->privPermission));
 5240              		.loc 1 2127 0 is_stmt 1
 5241 004c 3B68     		ldr	r3, [r7]
 5242 004e 5B78     		ldrb	r3, [r3, #1]
 5243 0050 002B     		cmp	r3, #0
 5244 0052 11D0     		beq	.L341
 5245              		.loc 1 2127 0 is_stmt 0 discriminator 1
 5246 0054 3B68     		ldr	r3, [r7]
 5247 0056 5B78     		ldrb	r3, [r3, #1]
 5248 0058 012B     		cmp	r3, #1
 5249 005a 0DD0     		beq	.L341
 5250              		.loc 1 2127 0 discriminator 2
 5251 005c 3B68     		ldr	r3, [r7]
 5252 005e 5B78     		ldrb	r3, [r3, #1]
 5253 0060 022B     		cmp	r3, #2
 5254 0062 09D0     		beq	.L341
 5255              		.loc 1 2127 0 discriminator 3
 5256 0064 3B68     		ldr	r3, [r7]
ARM GAS  C:\Users\JC\AppData\Local\Temp\ccU1E72d.s 			page 132


 5257 0066 5B78     		ldrb	r3, [r3, #1]
 5258 0068 032B     		cmp	r3, #3
 5259 006a 05D0     		beq	.L341
 5260              		.loc 1 2127 0 discriminator 4
 5261 006c 2D4A     		ldr	r2, .L348+16
 5262 006e 2B4B     		ldr	r3, .L348+8
 5263 0070 1100     		movs	r1, r2
 5264 0072 1800     		movs	r0, r3
 5265 0074 FFF7FEFF 		bl	Cy_SysLib_AssertFailed
 5266              	.L341:
2128:Generated_Source\PSoC6\pdl\drivers\peripheral\prot/cy_prot.c ****     
2129:Generated_Source\PSoC6\pdl\drivers\peripheral\prot/cy_prot.c ****     if (CY_PERI_V1)
 5267              		.loc 1 2129 0 is_stmt 1
 5268 0078 2B4B     		ldr	r3, .L348+20
 5269 007a 1B68     		ldr	r3, [r3]
 5270 007c 2F22     		movs	r2, #47
 5271 007e 9B5C     		ldrb	r3, [r3, r2]
 5272 0080 012B     		cmp	r3, #1
 5273 0082 42D1     		bne	.L342
2130:Generated_Source\PSoC6\pdl\drivers\peripheral\prot/cy_prot.c ****     {
2131:Generated_Source\PSoC6\pdl\drivers\peripheral\prot/cy_prot.c ****         if(((uint32_t)config->pcMask & CY_PROT_PPU_FIXED_PC_LIMIT_MASK) != 0UL) 
 5274              		.loc 1 2131 0
 5275 0084 3B68     		ldr	r3, [r7]
 5276 0086 9B88     		ldrh	r3, [r3, #4]
 5277 0088 1A00     		movs	r2, r3
 5278 008a 7F23     		movs	r3, #127
 5279 008c 9A43     		bics	r2, r3
 5280 008e 131E     		subs	r3, r2, #0
 5281 0090 02D0     		beq	.L343
2132:Generated_Source\PSoC6\pdl\drivers\peripheral\prot/cy_prot.c ****         {
2133:Generated_Source\PSoC6\pdl\drivers\peripheral\prot/cy_prot.c ****             /* PC mask out of range - not supported in device */
2134:Generated_Source\PSoC6\pdl\drivers\peripheral\prot/cy_prot.c ****             status = CY_PROT_BAD_PARAM;
 5282              		.loc 1 2134 0
 5283 0092 264B     		ldr	r3, .L348+24
 5284 0094 FB60     		str	r3, [r7, #12]
 5285 0096 38E0     		b	.L342
 5286              	.L343:
2135:Generated_Source\PSoC6\pdl\drivers\peripheral\prot/cy_prot.c ****         }
2136:Generated_Source\PSoC6\pdl\drivers\peripheral\prot/cy_prot.c ****         else
2137:Generated_Source\PSoC6\pdl\drivers\peripheral\prot/cy_prot.c ****         {
2138:Generated_Source\PSoC6\pdl\drivers\peripheral\prot/cy_prot.c ****             /* ADDR1 is read only. Only configure ATT1 */
2139:Generated_Source\PSoC6\pdl\drivers\peripheral\prot/cy_prot.c ****             attReg = ((uint32_t)config->userPermission & CY_PROT_ATT_PERMISSION_MASK)
 5287              		.loc 1 2139 0
 5288 0098 3B68     		ldr	r3, [r7]
 5289 009a 1B78     		ldrb	r3, [r3]
 5290 009c 1A00     		movs	r2, r3
 5291 009e 0723     		movs	r3, #7
 5292 00a0 1A40     		ands	r2, r3
2140:Generated_Source\PSoC6\pdl\drivers\peripheral\prot/cy_prot.c ****                         | (uint32_t)(((uint32_t)config->privPermission & CY_PROT_ATT_PERMISSION_MAS
 5293              		.loc 1 2140 0
 5294 00a2 3B68     		ldr	r3, [r7]
 5295 00a4 5B78     		ldrb	r3, [r3, #1]
 5296 00a6 DB00     		lsls	r3, r3, #3
 5297 00a8 3821     		movs	r1, #56
 5298 00aa 0B40     		ands	r3, r1
 5299 00ac 1A43     		orrs	r2, r3
2141:Generated_Source\PSoC6\pdl\drivers\peripheral\prot/cy_prot.c ****                         | _VAL2FLD(PERI_GR_PPU_SL_ATT1_NS, !(config->secure))
ARM GAS  C:\Users\JC\AppData\Local\Temp\ccU1E72d.s 			page 133


 5300              		.loc 1 2141 0
 5301 00ae 3B68     		ldr	r3, [r7]
 5302 00b0 9B78     		ldrb	r3, [r3, #2]
 5303 00b2 0121     		movs	r1, #1
 5304 00b4 4B40     		eors	r3, r1
 5305 00b6 DBB2     		uxtb	r3, r3
 5306 00b8 9B01     		lsls	r3, r3, #6
 5307 00ba 4021     		movs	r1, #64
 5308 00bc 0B40     		ands	r3, r1
 5309 00be 1A43     		orrs	r2, r3
2142:Generated_Source\PSoC6\pdl\drivers\peripheral\prot/cy_prot.c ****                         | _VAL2FLD(PERI_GR_PPU_SL_ATT1_PC_MASK_15_TO_1, config->pcMask)
 5310              		.loc 1 2142 0
 5311 00c0 3B68     		ldr	r3, [r7]
 5312 00c2 9B88     		ldrh	r3, [r3, #4]
 5313 00c4 5B02     		lsls	r3, r3, #9
 5314 00c6 1A49     		ldr	r1, .L348+28
 5315 00c8 0B40     		ands	r3, r1
 5316 00ca 1A43     		orrs	r2, r3
2143:Generated_Source\PSoC6\pdl\drivers\peripheral\prot/cy_prot.c ****                         /* No region size - read only for master structs */
2144:Generated_Source\PSoC6\pdl\drivers\peripheral\prot/cy_prot.c ****                         | _VAL2FLD(PERI_GR_PPU_SL_ATT1_PC_MATCH, config->pcMatch);
 5317              		.loc 1 2144 0
 5318 00cc 3B68     		ldr	r3, [r7]
 5319 00ce DB78     		ldrb	r3, [r3, #3]
 5320 00d0 9907     		lsls	r1, r3, #30
 5321 00d2 8023     		movs	r3, #128
 5322 00d4 DB05     		lsls	r3, r3, #23
 5323 00d6 0B40     		ands	r3, r1
2139:Generated_Source\PSoC6\pdl\drivers\peripheral\prot/cy_prot.c ****                         | (uint32_t)(((uint32_t)config->privPermission & CY_PROT_ATT_PERMISSION_MAS
 5324              		.loc 1 2139 0
 5325 00d8 1343     		orrs	r3, r2
 5326 00da BB60     		str	r3, [r7, #8]
2145:Generated_Source\PSoC6\pdl\drivers\peripheral\prot/cy_prot.c ****             if ((attReg & CY_PROT_PPU_SL_ATT1_MASK) != attReg)
 5327              		.loc 1 2145 0
 5328 00dc BB68     		ldr	r3, [r7, #8]
 5329 00de 154A     		ldr	r2, .L348+32
 5330 00e0 1A40     		ands	r2, r3
 5331 00e2 BB68     		ldr	r3, [r7, #8]
 5332 00e4 9A42     		cmp	r2, r3
 5333 00e6 02D0     		beq	.L344
2146:Generated_Source\PSoC6\pdl\drivers\peripheral\prot/cy_prot.c ****             {
2147:Generated_Source\PSoC6\pdl\drivers\peripheral\prot/cy_prot.c ****                 /* Invalid parameter was passed */
2148:Generated_Source\PSoC6\pdl\drivers\peripheral\prot/cy_prot.c ****                 status = CY_PROT_BAD_PARAM;
 5334              		.loc 1 2148 0
 5335 00e8 104B     		ldr	r3, .L348+24
 5336 00ea FB60     		str	r3, [r7, #12]
 5337 00ec 0DE0     		b	.L342
 5338              	.L344:
2149:Generated_Source\PSoC6\pdl\drivers\peripheral\prot/cy_prot.c ****             }
2150:Generated_Source\PSoC6\pdl\drivers\peripheral\prot/cy_prot.c ****             else
2151:Generated_Source\PSoC6\pdl\drivers\peripheral\prot/cy_prot.c ****             {
2152:Generated_Source\PSoC6\pdl\drivers\peripheral\prot/cy_prot.c ****                 PERI_GR_PPU_SL_ATT1(base) = attReg;
 5339              		.loc 1 2152 0
 5340 00ee 7B68     		ldr	r3, [r7, #4]
 5341 00f0 BA68     		ldr	r2, [r7, #8]
 5342 00f2 5A62     		str	r2, [r3, #36]
2153:Generated_Source\PSoC6\pdl\drivers\peripheral\prot/cy_prot.c ****                 status = ((PERI_GR_PPU_SL_ATT1(base) & CY_PROT_PPU_SL_ATT1_MASK) != attReg) ? CY_PR
 5343              		.loc 1 2153 0
ARM GAS  C:\Users\JC\AppData\Local\Temp\ccU1E72d.s 			page 134


 5344 00f4 7B68     		ldr	r3, [r7, #4]
 5345 00f6 5B6A     		ldr	r3, [r3, #36]
 5346 00f8 0E4A     		ldr	r2, .L348+32
 5347 00fa 1A40     		ands	r2, r3
 5348 00fc BB68     		ldr	r3, [r7, #8]
 5349 00fe 9A42     		cmp	r2, r3
 5350 0100 01D0     		beq	.L345
 5351              		.loc 1 2153 0 is_stmt 0 discriminator 1
 5352 0102 0D4B     		ldr	r3, .L348+36
 5353 0104 00E0     		b	.L346
 5354              	.L345:
 5355              		.loc 1 2153 0 discriminator 2
 5356 0106 0023     		movs	r3, #0
 5357              	.L346:
 5358              		.loc 1 2153 0 discriminator 4
 5359 0108 FB60     		str	r3, [r7, #12]
 5360              	.L342:
2154:Generated_Source\PSoC6\pdl\drivers\peripheral\prot/cy_prot.c ****             }
2155:Generated_Source\PSoC6\pdl\drivers\peripheral\prot/cy_prot.c ****         }
2156:Generated_Source\PSoC6\pdl\drivers\peripheral\prot/cy_prot.c ****     }
2157:Generated_Source\PSoC6\pdl\drivers\peripheral\prot/cy_prot.c **** 
2158:Generated_Source\PSoC6\pdl\drivers\peripheral\prot/cy_prot.c ****     return status;
 5361              		.loc 1 2158 0 is_stmt 1
 5362 010a FB68     		ldr	r3, [r7, #12]
2159:Generated_Source\PSoC6\pdl\drivers\peripheral\prot/cy_prot.c **** }
 5363              		.loc 1 2159 0
 5364 010c 1800     		movs	r0, r3
 5365 010e BD46     		mov	sp, r7
 5366 0110 04B0     		add	sp, sp, #16
 5367              		@ sp needed
 5368 0112 80BD     		pop	{r7, pc}
 5369              	.L349:
 5370              		.align	2
 5371              	.L348:
 5372 0114 0200C200 		.word	12713986
 5373 0118 4D080000 		.word	2125
 5374 011c 00000000 		.word	.LC1
 5375 0120 4E080000 		.word	2126
 5376 0124 4F080000 		.word	2127
 5377 0128 00000000 		.word	cy_device
 5378 012c 0100C200 		.word	12713985
 5379 0130 00FEFF00 		.word	16776704
 5380 0134 DBFEFFE0 		.word	-520093989
 5381 0138 0300C200 		.word	12713987
 5382              		.cfi_endproc
 5383              	.LFE81:
 5384              		.size	Cy_Prot_ConfigPpuFixedSlMasterStruct, .-Cy_Prot_ConfigPpuFixedSlMasterStruct
 5385              		.section	.text.Cy_Prot_ConfigPpuFixedSlSlaveStruct,"ax",%progbits
 5386              		.align	2
 5387              		.global	Cy_Prot_ConfigPpuFixedSlSlaveStruct
 5388              		.code	16
 5389              		.thumb_func
 5390              		.type	Cy_Prot_ConfigPpuFixedSlSlaveStruct, %function
 5391              	Cy_Prot_ConfigPpuFixedSlSlaveStruct:
 5392              	.LFB82:
2160:Generated_Source\PSoC6\pdl\drivers\peripheral\prot/cy_prot.c **** 
2161:Generated_Source\PSoC6\pdl\drivers\peripheral\prot/cy_prot.c **** 
ARM GAS  C:\Users\JC\AppData\Local\Temp\ccU1E72d.s 			page 135


2162:Generated_Source\PSoC6\pdl\drivers\peripheral\prot/cy_prot.c **** /*******************************************************************************
2163:Generated_Source\PSoC6\pdl\drivers\peripheral\prot/cy_prot.c **** * Function Name: Cy_Prot_ConfigPpuFixedSlSlaveStruct
2164:Generated_Source\PSoC6\pdl\drivers\peripheral\prot/cy_prot.c **** ****************************************************************************//**
2165:Generated_Source\PSoC6\pdl\drivers\peripheral\prot/cy_prot.c **** *
2166:Generated_Source\PSoC6\pdl\drivers\peripheral\prot/cy_prot.c **** * Configures a Fixed Peripheral Slave Protection Unit (PPU SL) slave
2167:Generated_Source\PSoC6\pdl\drivers\peripheral\prot/cy_prot.c **** * protection struct with its protection attributes. 
2168:Generated_Source\PSoC6\pdl\drivers\peripheral\prot/cy_prot.c **** * 
2169:Generated_Source\PSoC6\pdl\drivers\peripheral\prot/cy_prot.c **** * This function configures the slave struct of a PPU SL pair, which can 
2170:Generated_Source\PSoC6\pdl\drivers\peripheral\prot/cy_prot.c **** * protect an entire peripheral slave instance from invalid bus master accesses.
2171:Generated_Source\PSoC6\pdl\drivers\peripheral\prot/cy_prot.c **** * For example, TCPWM0, TCPWM1, SCB0 and SCB1 etc.
2172:Generated_Source\PSoC6\pdl\drivers\peripheral\prot/cy_prot.c **** *
2173:Generated_Source\PSoC6\pdl\drivers\peripheral\prot/cy_prot.c **** * Each fixed PPU SL is devoted to a defined peripheral slave. Hence the address, 
2174:Generated_Source\PSoC6\pdl\drivers\peripheral\prot/cy_prot.c **** * regionSize and subregions of the configuration struct are not applicable.
2175:Generated_Source\PSoC6\pdl\drivers\peripheral\prot/cy_prot.c **** *
2176:Generated_Source\PSoC6\pdl\drivers\peripheral\prot/cy_prot.c **** * Note that the user/privileged execute accesses are read-only and are always 
2177:Generated_Source\PSoC6\pdl\drivers\peripheral\prot/cy_prot.c **** * enabled. 
2178:Generated_Source\PSoC6\pdl\drivers\peripheral\prot/cy_prot.c **** *
2179:Generated_Source\PSoC6\pdl\drivers\peripheral\prot/cy_prot.c **** * \note This function is applicable for CPUSS ver_1 only.
2180:Generated_Source\PSoC6\pdl\drivers\peripheral\prot/cy_prot.c **** *
2181:Generated_Source\PSoC6\pdl\drivers\peripheral\prot/cy_prot.c **** * \param base
2182:Generated_Source\PSoC6\pdl\drivers\peripheral\prot/cy_prot.c **** * The register base address of the protection structure being configured.
2183:Generated_Source\PSoC6\pdl\drivers\peripheral\prot/cy_prot.c **** * 
2184:Generated_Source\PSoC6\pdl\drivers\peripheral\prot/cy_prot.c **** * \param config
2185:Generated_Source\PSoC6\pdl\drivers\peripheral\prot/cy_prot.c **** * Initialization structure with all the protection attributes.
2186:Generated_Source\PSoC6\pdl\drivers\peripheral\prot/cy_prot.c **** * 
2187:Generated_Source\PSoC6\pdl\drivers\peripheral\prot/cy_prot.c **** * \return
2188:Generated_Source\PSoC6\pdl\drivers\peripheral\prot/cy_prot.c **** * Status of the function call.
2189:Generated_Source\PSoC6\pdl\drivers\peripheral\prot/cy_prot.c **** *
2190:Generated_Source\PSoC6\pdl\drivers\peripheral\prot/cy_prot.c **** *   Status                | Description
2191:Generated_Source\PSoC6\pdl\drivers\peripheral\prot/cy_prot.c **** *   ------------          | -----------
2192:Generated_Source\PSoC6\pdl\drivers\peripheral\prot/cy_prot.c **** *   CY_PROT_SUCCESS       | PPU SL slave struct was successfully configured.
2193:Generated_Source\PSoC6\pdl\drivers\peripheral\prot/cy_prot.c **** *   CY_PROT_FAILURE       | The resource is locked.
2194:Generated_Source\PSoC6\pdl\drivers\peripheral\prot/cy_prot.c **** *   CY_PROT_BAD_PARAM     | An incorrect/invalid parameter was passed.
2195:Generated_Source\PSoC6\pdl\drivers\peripheral\prot/cy_prot.c **** *   CY_PROT_INVALID_STATE | The function was called on the device with an unsupported PERI HW versi
2196:Generated_Source\PSoC6\pdl\drivers\peripheral\prot/cy_prot.c **** *
2197:Generated_Source\PSoC6\pdl\drivers\peripheral\prot/cy_prot.c **** * \funcusage
2198:Generated_Source\PSoC6\pdl\drivers\peripheral\prot/cy_prot.c **** * \snippet prot/1.20/snippet/main.c snippet_Cy_Prot_ConfigPpuFixedSlSlaveStruct
2199:Generated_Source\PSoC6\pdl\drivers\peripheral\prot/cy_prot.c **** *
2200:Generated_Source\PSoC6\pdl\drivers\peripheral\prot/cy_prot.c **** *******************************************************************************/
2201:Generated_Source\PSoC6\pdl\drivers\peripheral\prot/cy_prot.c **** cy_en_prot_status_t Cy_Prot_ConfigPpuFixedSlSlaveStruct(PERI_GR_PPU_SL_Type* base, const cy_stc_ppu
2202:Generated_Source\PSoC6\pdl\drivers\peripheral\prot/cy_prot.c **** {
 5393              		.loc 1 2202 0
 5394              		.cfi_startproc
 5395              		@ args = 0, pretend = 0, frame = 16
 5396              		@ frame_needed = 1, uses_anonymous_args = 0
 5397 0000 80B5     		push	{r7, lr}
 5398              		.cfi_def_cfa_offset 8
 5399              		.cfi_offset 7, -8
 5400              		.cfi_offset 14, -4
 5401 0002 84B0     		sub	sp, sp, #16
 5402              		.cfi_def_cfa_offset 24
 5403 0004 00AF     		add	r7, sp, #0
 5404              		.cfi_def_cfa_register 7
 5405 0006 7860     		str	r0, [r7, #4]
 5406 0008 3960     		str	r1, [r7]
2203:Generated_Source\PSoC6\pdl\drivers\peripheral\prot/cy_prot.c ****     cy_en_prot_status_t status = CY_PROT_INVALID_STATE;
 5407              		.loc 1 2203 0
ARM GAS  C:\Users\JC\AppData\Local\Temp\ccU1E72d.s 			page 136


 5408 000a 434B     		ldr	r3, .L360
 5409 000c FB60     		str	r3, [r7, #12]
2204:Generated_Source\PSoC6\pdl\drivers\peripheral\prot/cy_prot.c ****     uint32_t attReg;
2205:Generated_Source\PSoC6\pdl\drivers\peripheral\prot/cy_prot.c ****     
2206:Generated_Source\PSoC6\pdl\drivers\peripheral\prot/cy_prot.c ****     CY_ASSERT_L1(NULL != base);
 5410              		.loc 1 2206 0
 5411 000e 7B68     		ldr	r3, [r7, #4]
 5412 0010 002B     		cmp	r3, #0
 5413 0012 05D1     		bne	.L351
 5414              		.loc 1 2206 0 is_stmt 0 discriminator 1
 5415 0014 414A     		ldr	r2, .L360+4
 5416 0016 424B     		ldr	r3, .L360+8
 5417 0018 1100     		movs	r1, r2
 5418 001a 1800     		movs	r0, r3
 5419 001c FFF7FEFF 		bl	Cy_SysLib_AssertFailed
 5420              	.L351:
2207:Generated_Source\PSoC6\pdl\drivers\peripheral\prot/cy_prot.c ****     CY_ASSERT_L3(CY_PROT_IS_FIXED_SL_PERM_VALID(config->userPermission));
 5421              		.loc 1 2207 0 is_stmt 1
 5422 0020 3B68     		ldr	r3, [r7]
 5423 0022 1B78     		ldrb	r3, [r3]
 5424 0024 002B     		cmp	r3, #0
 5425 0026 11D0     		beq	.L352
 5426              		.loc 1 2207 0 is_stmt 0 discriminator 1
 5427 0028 3B68     		ldr	r3, [r7]
 5428 002a 1B78     		ldrb	r3, [r3]
 5429 002c 012B     		cmp	r3, #1
 5430 002e 0DD0     		beq	.L352
 5431              		.loc 1 2207 0 discriminator 2
 5432 0030 3B68     		ldr	r3, [r7]
 5433 0032 1B78     		ldrb	r3, [r3]
 5434 0034 022B     		cmp	r3, #2
 5435 0036 09D0     		beq	.L352
 5436              		.loc 1 2207 0 discriminator 3
 5437 0038 3B68     		ldr	r3, [r7]
 5438 003a 1B78     		ldrb	r3, [r3]
 5439 003c 032B     		cmp	r3, #3
 5440 003e 05D0     		beq	.L352
 5441              		.loc 1 2207 0 discriminator 4
 5442 0040 384A     		ldr	r2, .L360+12
 5443 0042 374B     		ldr	r3, .L360+8
 5444 0044 1100     		movs	r1, r2
 5445 0046 1800     		movs	r0, r3
 5446 0048 FFF7FEFF 		bl	Cy_SysLib_AssertFailed
 5447              	.L352:
2208:Generated_Source\PSoC6\pdl\drivers\peripheral\prot/cy_prot.c ****     CY_ASSERT_L3(CY_PROT_IS_FIXED_SL_PERM_VALID(config->privPermission));
 5448              		.loc 1 2208 0 is_stmt 1
 5449 004c 3B68     		ldr	r3, [r7]
 5450 004e 5B78     		ldrb	r3, [r3, #1]
 5451 0050 002B     		cmp	r3, #0
 5452 0052 12D0     		beq	.L353
 5453              		.loc 1 2208 0 is_stmt 0 discriminator 1
 5454 0054 3B68     		ldr	r3, [r7]
 5455 0056 5B78     		ldrb	r3, [r3, #1]
 5456 0058 012B     		cmp	r3, #1
 5457 005a 0ED0     		beq	.L353
 5458              		.loc 1 2208 0 discriminator 2
 5459 005c 3B68     		ldr	r3, [r7]
ARM GAS  C:\Users\JC\AppData\Local\Temp\ccU1E72d.s 			page 137


 5460 005e 5B78     		ldrb	r3, [r3, #1]
 5461 0060 022B     		cmp	r3, #2
 5462 0062 0AD0     		beq	.L353
 5463              		.loc 1 2208 0 discriminator 3
 5464 0064 3B68     		ldr	r3, [r7]
 5465 0066 5B78     		ldrb	r3, [r3, #1]
 5466 0068 032B     		cmp	r3, #3
 5467 006a 06D0     		beq	.L353
 5468              		.loc 1 2208 0 discriminator 4
 5469 006c 8A23     		movs	r3, #138
 5470 006e 1A01     		lsls	r2, r3, #4
 5471 0070 2B4B     		ldr	r3, .L360+8
 5472 0072 1100     		movs	r1, r2
 5473 0074 1800     		movs	r0, r3
 5474 0076 FFF7FEFF 		bl	Cy_SysLib_AssertFailed
 5475              	.L353:
2209:Generated_Source\PSoC6\pdl\drivers\peripheral\prot/cy_prot.c ****     
2210:Generated_Source\PSoC6\pdl\drivers\peripheral\prot/cy_prot.c ****     if (CY_PERI_V1)
 5476              		.loc 1 2210 0 is_stmt 1
 5477 007a 2B4B     		ldr	r3, .L360+16
 5478 007c 1B68     		ldr	r3, [r3]
 5479 007e 2F22     		movs	r2, #47
 5480 0080 9B5C     		ldrb	r3, [r3, r2]
 5481 0082 012B     		cmp	r3, #1
 5482 0084 42D1     		bne	.L354
2211:Generated_Source\PSoC6\pdl\drivers\peripheral\prot/cy_prot.c ****     {
2212:Generated_Source\PSoC6\pdl\drivers\peripheral\prot/cy_prot.c ****         if(((uint32_t)config->pcMask & CY_PROT_PPU_FIXED_PC_LIMIT_MASK) != 0UL) 
 5483              		.loc 1 2212 0
 5484 0086 3B68     		ldr	r3, [r7]
 5485 0088 9B88     		ldrh	r3, [r3, #4]
 5486 008a 1A00     		movs	r2, r3
 5487 008c 7F23     		movs	r3, #127
 5488 008e 9A43     		bics	r2, r3
 5489 0090 131E     		subs	r3, r2, #0
 5490 0092 02D0     		beq	.L355
2213:Generated_Source\PSoC6\pdl\drivers\peripheral\prot/cy_prot.c ****         {
2214:Generated_Source\PSoC6\pdl\drivers\peripheral\prot/cy_prot.c ****             /* PC mask out of range - not supported in device */
2215:Generated_Source\PSoC6\pdl\drivers\peripheral\prot/cy_prot.c ****             status = CY_PROT_BAD_PARAM;
 5491              		.loc 1 2215 0
 5492 0094 254B     		ldr	r3, .L360+20
 5493 0096 FB60     		str	r3, [r7, #12]
 5494 0098 38E0     		b	.L354
 5495              	.L355:
2216:Generated_Source\PSoC6\pdl\drivers\peripheral\prot/cy_prot.c ****         }
2217:Generated_Source\PSoC6\pdl\drivers\peripheral\prot/cy_prot.c ****         else
2218:Generated_Source\PSoC6\pdl\drivers\peripheral\prot/cy_prot.c ****         {
2219:Generated_Source\PSoC6\pdl\drivers\peripheral\prot/cy_prot.c ****             /* ADDR0 is read only. Only configure ATT0 */
2220:Generated_Source\PSoC6\pdl\drivers\peripheral\prot/cy_prot.c ****             attReg = ((uint32_t)config->userPermission & CY_PROT_ATT_PERMISSION_MASK)
 5496              		.loc 1 2220 0
 5497 009a 3B68     		ldr	r3, [r7]
 5498 009c 1B78     		ldrb	r3, [r3]
 5499 009e 1A00     		movs	r2, r3
 5500 00a0 0723     		movs	r3, #7
 5501 00a2 1A40     		ands	r2, r3
2221:Generated_Source\PSoC6\pdl\drivers\peripheral\prot/cy_prot.c ****                         | (uint32_t)(((uint32_t)config->privPermission & CY_PROT_ATT_PERMISSION_MAS
 5502              		.loc 1 2221 0
 5503 00a4 3B68     		ldr	r3, [r7]
ARM GAS  C:\Users\JC\AppData\Local\Temp\ccU1E72d.s 			page 138


 5504 00a6 5B78     		ldrb	r3, [r3, #1]
 5505 00a8 DB00     		lsls	r3, r3, #3
 5506 00aa 3821     		movs	r1, #56
 5507 00ac 0B40     		ands	r3, r1
 5508 00ae 1A43     		orrs	r2, r3
2222:Generated_Source\PSoC6\pdl\drivers\peripheral\prot/cy_prot.c ****                         | _VAL2FLD(PERI_GR_PPU_SL_ATT0_NS, !(config->secure))
 5509              		.loc 1 2222 0
 5510 00b0 3B68     		ldr	r3, [r7]
 5511 00b2 9B78     		ldrb	r3, [r3, #2]
 5512 00b4 0121     		movs	r1, #1
 5513 00b6 4B40     		eors	r3, r1
 5514 00b8 DBB2     		uxtb	r3, r3
 5515 00ba 9B01     		lsls	r3, r3, #6
 5516 00bc 4021     		movs	r1, #64
 5517 00be 0B40     		ands	r3, r1
 5518 00c0 1A43     		orrs	r2, r3
2223:Generated_Source\PSoC6\pdl\drivers\peripheral\prot/cy_prot.c ****                         | _VAL2FLD(PERI_GR_PPU_SL_ATT0_PC_MASK_15_TO_1, config->pcMask)
 5519              		.loc 1 2223 0
 5520 00c2 3B68     		ldr	r3, [r7]
 5521 00c4 9B88     		ldrh	r3, [r3, #4]
 5522 00c6 5B02     		lsls	r3, r3, #9
 5523 00c8 1949     		ldr	r1, .L360+24
 5524 00ca 0B40     		ands	r3, r1
 5525 00cc 1A43     		orrs	r2, r3
2224:Generated_Source\PSoC6\pdl\drivers\peripheral\prot/cy_prot.c ****                         /* No region size - read only */
2225:Generated_Source\PSoC6\pdl\drivers\peripheral\prot/cy_prot.c ****                         | _VAL2FLD(PERI_GR_PPU_SL_ATT0_PC_MATCH, config->pcMatch);
 5526              		.loc 1 2225 0
 5527 00ce 3B68     		ldr	r3, [r7]
 5528 00d0 DB78     		ldrb	r3, [r3, #3]
 5529 00d2 9907     		lsls	r1, r3, #30
 5530 00d4 8023     		movs	r3, #128
 5531 00d6 DB05     		lsls	r3, r3, #23
 5532 00d8 0B40     		ands	r3, r1
2220:Generated_Source\PSoC6\pdl\drivers\peripheral\prot/cy_prot.c ****                         | (uint32_t)(((uint32_t)config->privPermission & CY_PROT_ATT_PERMISSION_MAS
 5533              		.loc 1 2220 0
 5534 00da 1343     		orrs	r3, r2
 5535 00dc BB60     		str	r3, [r7, #8]
2226:Generated_Source\PSoC6\pdl\drivers\peripheral\prot/cy_prot.c ****             if ((attReg & CY_PROT_PPU_SL_ATT0_MASK) != attReg)
 5536              		.loc 1 2226 0
 5537 00de BB68     		ldr	r3, [r7, #8]
 5538 00e0 144A     		ldr	r2, .L360+28
 5539 00e2 1A40     		ands	r2, r3
 5540 00e4 BB68     		ldr	r3, [r7, #8]
 5541 00e6 9A42     		cmp	r2, r3
 5542 00e8 02D0     		beq	.L356
2227:Generated_Source\PSoC6\pdl\drivers\peripheral\prot/cy_prot.c ****             {
2228:Generated_Source\PSoC6\pdl\drivers\peripheral\prot/cy_prot.c ****                 /* Invalid parameter was passed */
2229:Generated_Source\PSoC6\pdl\drivers\peripheral\prot/cy_prot.c ****                 status = CY_PROT_BAD_PARAM;
 5543              		.loc 1 2229 0
 5544 00ea 104B     		ldr	r3, .L360+20
 5545 00ec FB60     		str	r3, [r7, #12]
 5546 00ee 0DE0     		b	.L354
 5547              	.L356:
2230:Generated_Source\PSoC6\pdl\drivers\peripheral\prot/cy_prot.c ****             }
2231:Generated_Source\PSoC6\pdl\drivers\peripheral\prot/cy_prot.c ****             else
2232:Generated_Source\PSoC6\pdl\drivers\peripheral\prot/cy_prot.c ****             {
2233:Generated_Source\PSoC6\pdl\drivers\peripheral\prot/cy_prot.c ****                 PERI_GR_PPU_SL_ATT0(base) = attReg;
ARM GAS  C:\Users\JC\AppData\Local\Temp\ccU1E72d.s 			page 139


 5548              		.loc 1 2233 0
 5549 00f0 7B68     		ldr	r3, [r7, #4]
 5550 00f2 BA68     		ldr	r2, [r7, #8]
 5551 00f4 5A60     		str	r2, [r3, #4]
2234:Generated_Source\PSoC6\pdl\drivers\peripheral\prot/cy_prot.c ****                 status = ((PERI_GR_PPU_SL_ATT0(base) & CY_PROT_PPU_SL_ATT0_MASK) != attReg) ? CY_PR
 5552              		.loc 1 2234 0
 5553 00f6 7B68     		ldr	r3, [r7, #4]
 5554 00f8 5B68     		ldr	r3, [r3, #4]
 5555 00fa 0E4A     		ldr	r2, .L360+28
 5556 00fc 1A40     		ands	r2, r3
 5557 00fe BB68     		ldr	r3, [r7, #8]
 5558 0100 9A42     		cmp	r2, r3
 5559 0102 01D0     		beq	.L357
 5560              		.loc 1 2234 0 is_stmt 0 discriminator 1
 5561 0104 0C4B     		ldr	r3, .L360+32
 5562 0106 00E0     		b	.L358
 5563              	.L357:
 5564              		.loc 1 2234 0 discriminator 2
 5565 0108 0023     		movs	r3, #0
 5566              	.L358:
 5567              		.loc 1 2234 0 discriminator 4
 5568 010a FB60     		str	r3, [r7, #12]
 5569              	.L354:
2235:Generated_Source\PSoC6\pdl\drivers\peripheral\prot/cy_prot.c ****             }
2236:Generated_Source\PSoC6\pdl\drivers\peripheral\prot/cy_prot.c ****         }
2237:Generated_Source\PSoC6\pdl\drivers\peripheral\prot/cy_prot.c ****     }
2238:Generated_Source\PSoC6\pdl\drivers\peripheral\prot/cy_prot.c **** 
2239:Generated_Source\PSoC6\pdl\drivers\peripheral\prot/cy_prot.c ****     return status;
 5570              		.loc 1 2239 0 is_stmt 1
 5571 010c FB68     		ldr	r3, [r7, #12]
2240:Generated_Source\PSoC6\pdl\drivers\peripheral\prot/cy_prot.c **** }
 5572              		.loc 1 2240 0
 5573 010e 1800     		movs	r0, r3
 5574 0110 BD46     		mov	sp, r7
 5575 0112 04B0     		add	sp, sp, #16
 5576              		@ sp needed
 5577 0114 80BD     		pop	{r7, pc}
 5578              	.L361:
 5579 0116 C046     		.align	2
 5580              	.L360:
 5581 0118 0200C200 		.word	12713986
 5582 011c 9E080000 		.word	2206
 5583 0120 00000000 		.word	.LC1
 5584 0124 9F080000 		.word	2207
 5585 0128 00000000 		.word	cy_device
 5586 012c 0100C200 		.word	12713985
 5587 0130 00FEFF00 		.word	16776704
 5588 0134 DBFEFFE0 		.word	-520093989
 5589 0138 0300C200 		.word	12713987
 5590              		.cfi_endproc
 5591              	.LFE82:
 5592              		.size	Cy_Prot_ConfigPpuFixedSlSlaveStruct, .-Cy_Prot_ConfigPpuFixedSlSlaveStruct
 5593              		.section	.text.Cy_Prot_EnablePpuFixedSlMasterStruct,"ax",%progbits
 5594              		.align	2
 5595              		.global	Cy_Prot_EnablePpuFixedSlMasterStruct
 5596              		.code	16
 5597              		.thumb_func
ARM GAS  C:\Users\JC\AppData\Local\Temp\ccU1E72d.s 			page 140


 5598              		.type	Cy_Prot_EnablePpuFixedSlMasterStruct, %function
 5599              	Cy_Prot_EnablePpuFixedSlMasterStruct:
 5600              	.LFB83:
2241:Generated_Source\PSoC6\pdl\drivers\peripheral\prot/cy_prot.c **** 
2242:Generated_Source\PSoC6\pdl\drivers\peripheral\prot/cy_prot.c **** 
2243:Generated_Source\PSoC6\pdl\drivers\peripheral\prot/cy_prot.c **** /*******************************************************************************
2244:Generated_Source\PSoC6\pdl\drivers\peripheral\prot/cy_prot.c **** * Function Name: Cy_Prot_EnablePpuFixedSlMasterStruct
2245:Generated_Source\PSoC6\pdl\drivers\peripheral\prot/cy_prot.c **** ****************************************************************************//**
2246:Generated_Source\PSoC6\pdl\drivers\peripheral\prot/cy_prot.c **** *
2247:Generated_Source\PSoC6\pdl\drivers\peripheral\prot/cy_prot.c **** * Enables the Master PPU SL structure.
2248:Generated_Source\PSoC6\pdl\drivers\peripheral\prot/cy_prot.c **** *
2249:Generated_Source\PSoC6\pdl\drivers\peripheral\prot/cy_prot.c **** * This is a PPU SL master struct enable function. The PPU SL protection 
2250:Generated_Source\PSoC6\pdl\drivers\peripheral\prot/cy_prot.c **** * settings will take effect after successful completion of this function call.
2251:Generated_Source\PSoC6\pdl\drivers\peripheral\prot/cy_prot.c **** *
2252:Generated_Source\PSoC6\pdl\drivers\peripheral\prot/cy_prot.c **** * \note This function is applicable for CPUSS ver_1 only.
2253:Generated_Source\PSoC6\pdl\drivers\peripheral\prot/cy_prot.c **** *
2254:Generated_Source\PSoC6\pdl\drivers\peripheral\prot/cy_prot.c **** * \param base
2255:Generated_Source\PSoC6\pdl\drivers\peripheral\prot/cy_prot.c **** * The base address for the protection unit structure being configured. 
2256:Generated_Source\PSoC6\pdl\drivers\peripheral\prot/cy_prot.c **** *
2257:Generated_Source\PSoC6\pdl\drivers\peripheral\prot/cy_prot.c **** * \return
2258:Generated_Source\PSoC6\pdl\drivers\peripheral\prot/cy_prot.c **** * Status of the function call.
2259:Generated_Source\PSoC6\pdl\drivers\peripheral\prot/cy_prot.c **** *
2260:Generated_Source\PSoC6\pdl\drivers\peripheral\prot/cy_prot.c **** *   Status                | Description
2261:Generated_Source\PSoC6\pdl\drivers\peripheral\prot/cy_prot.c **** *   ------------          | -----------
2262:Generated_Source\PSoC6\pdl\drivers\peripheral\prot/cy_prot.c **** *   CY_PROT_SUCCESS       | The Master PU struct was enabled.
2263:Generated_Source\PSoC6\pdl\drivers\peripheral\prot/cy_prot.c **** *   CY_PROT_FAILURE       | The Master PU struct is disabled and possibly locked.
2264:Generated_Source\PSoC6\pdl\drivers\peripheral\prot/cy_prot.c **** *   CY_PROT_INVALID_STATE | The function was called on the device with an unsupported PERI HW versi
2265:Generated_Source\PSoC6\pdl\drivers\peripheral\prot/cy_prot.c **** *
2266:Generated_Source\PSoC6\pdl\drivers\peripheral\prot/cy_prot.c **** * \funcusage
2267:Generated_Source\PSoC6\pdl\drivers\peripheral\prot/cy_prot.c **** * \snippet prot/1.20/snippet/main.c snippet_Cy_Prot_EnablePpuFixedSlMasterStruct
2268:Generated_Source\PSoC6\pdl\drivers\peripheral\prot/cy_prot.c **** *
2269:Generated_Source\PSoC6\pdl\drivers\peripheral\prot/cy_prot.c **** *******************************************************************************/
2270:Generated_Source\PSoC6\pdl\drivers\peripheral\prot/cy_prot.c **** cy_en_prot_status_t Cy_Prot_EnablePpuFixedSlMasterStruct(PERI_GR_PPU_SL_Type* base)
2271:Generated_Source\PSoC6\pdl\drivers\peripheral\prot/cy_prot.c **** {
 5601              		.loc 1 2271 0
 5602              		.cfi_startproc
 5603              		@ args = 0, pretend = 0, frame = 16
 5604              		@ frame_needed = 1, uses_anonymous_args = 0
 5605 0000 80B5     		push	{r7, lr}
 5606              		.cfi_def_cfa_offset 8
 5607              		.cfi_offset 7, -8
 5608              		.cfi_offset 14, -4
 5609 0002 84B0     		sub	sp, sp, #16
 5610              		.cfi_def_cfa_offset 24
 5611 0004 00AF     		add	r7, sp, #0
 5612              		.cfi_def_cfa_register 7
 5613 0006 7860     		str	r0, [r7, #4]
2272:Generated_Source\PSoC6\pdl\drivers\peripheral\prot/cy_prot.c ****     cy_en_prot_status_t status = CY_PROT_INVALID_STATE;
 5614              		.loc 1 2272 0
 5615 0008 134B     		ldr	r3, .L368
 5616 000a FB60     		str	r3, [r7, #12]
2273:Generated_Source\PSoC6\pdl\drivers\peripheral\prot/cy_prot.c ****     
2274:Generated_Source\PSoC6\pdl\drivers\peripheral\prot/cy_prot.c ****     CY_ASSERT_L1(NULL != base);
 5617              		.loc 1 2274 0
 5618 000c 7B68     		ldr	r3, [r7, #4]
 5619 000e 002B     		cmp	r3, #0
 5620 0010 05D1     		bne	.L363
ARM GAS  C:\Users\JC\AppData\Local\Temp\ccU1E72d.s 			page 141


 5621              		.loc 1 2274 0 is_stmt 0 discriminator 1
 5622 0012 124A     		ldr	r2, .L368+4
 5623 0014 124B     		ldr	r3, .L368+8
 5624 0016 1100     		movs	r1, r2
 5625 0018 1800     		movs	r0, r3
 5626 001a FFF7FEFF 		bl	Cy_SysLib_AssertFailed
 5627              	.L363:
2275:Generated_Source\PSoC6\pdl\drivers\peripheral\prot/cy_prot.c ****     
2276:Generated_Source\PSoC6\pdl\drivers\peripheral\prot/cy_prot.c ****     if (CY_PERI_V1)
 5628              		.loc 1 2276 0 is_stmt 1
 5629 001e 114B     		ldr	r3, .L368+12
 5630 0020 1B68     		ldr	r3, [r3]
 5631 0022 2F22     		movs	r2, #47
 5632 0024 9B5C     		ldrb	r3, [r3, r2]
 5633 0026 012B     		cmp	r3, #1
 5634 0028 11D1     		bne	.L364
2277:Generated_Source\PSoC6\pdl\drivers\peripheral\prot/cy_prot.c ****     {
2278:Generated_Source\PSoC6\pdl\drivers\peripheral\prot/cy_prot.c ****         PERI_GR_PPU_SL_ATT1(base) |= _VAL2FLD(PERI_GR_PPU_SL_ATT1_ENABLED, CY_PROT_STRUCT_ENABLE);
 5635              		.loc 1 2278 0
 5636 002a 7B68     		ldr	r3, [r7, #4]
 5637 002c 5B6A     		ldr	r3, [r3, #36]
 5638 002e 8022     		movs	r2, #128
 5639 0030 1206     		lsls	r2, r2, #24
 5640 0032 1A43     		orrs	r2, r3
 5641 0034 7B68     		ldr	r3, [r7, #4]
 5642 0036 5A62     		str	r2, [r3, #36]
2279:Generated_Source\PSoC6\pdl\drivers\peripheral\prot/cy_prot.c ****         status = (_FLD2VAL(PERI_GR_PPU_SL_ATT1_ENABLED, PERI_GR_PPU_SL_ATT1(base)) != CY_PROT_STRUC
 5643              		.loc 1 2279 0
 5644 0038 7B68     		ldr	r3, [r7, #4]
 5645 003a 5B6A     		ldr	r3, [r3, #36]
 5646 003c DB0F     		lsrs	r3, r3, #31
 5647 003e DB07     		lsls	r3, r3, #31
 5648 0040 DB0F     		lsrs	r3, r3, #31
 5649 0042 012B     		cmp	r3, #1
 5650 0044 01D0     		beq	.L365
 5651              		.loc 1 2279 0 is_stmt 0 discriminator 1
 5652 0046 084B     		ldr	r3, .L368+16
 5653 0048 00E0     		b	.L366
 5654              	.L365:
 5655              		.loc 1 2279 0 discriminator 2
 5656 004a 0023     		movs	r3, #0
 5657              	.L366:
 5658              		.loc 1 2279 0 discriminator 4
 5659 004c FB60     		str	r3, [r7, #12]
 5660              	.L364:
2280:Generated_Source\PSoC6\pdl\drivers\peripheral\prot/cy_prot.c ****                     CY_PROT_FAILURE : CY_PROT_SUCCESS;
2281:Generated_Source\PSoC6\pdl\drivers\peripheral\prot/cy_prot.c ****     }
2282:Generated_Source\PSoC6\pdl\drivers\peripheral\prot/cy_prot.c **** 
2283:Generated_Source\PSoC6\pdl\drivers\peripheral\prot/cy_prot.c ****     return status;
 5661              		.loc 1 2283 0 is_stmt 1
 5662 004e FB68     		ldr	r3, [r7, #12]
2284:Generated_Source\PSoC6\pdl\drivers\peripheral\prot/cy_prot.c **** }
 5663              		.loc 1 2284 0
 5664 0050 1800     		movs	r0, r3
 5665 0052 BD46     		mov	sp, r7
 5666 0054 04B0     		add	sp, sp, #16
 5667              		@ sp needed
ARM GAS  C:\Users\JC\AppData\Local\Temp\ccU1E72d.s 			page 142


 5668 0056 80BD     		pop	{r7, pc}
 5669              	.L369:
 5670              		.align	2
 5671              	.L368:
 5672 0058 0200C200 		.word	12713986
 5673 005c E2080000 		.word	2274
 5674 0060 00000000 		.word	.LC1
 5675 0064 00000000 		.word	cy_device
 5676 0068 0300C200 		.word	12713987
 5677              		.cfi_endproc
 5678              	.LFE83:
 5679              		.size	Cy_Prot_EnablePpuFixedSlMasterStruct, .-Cy_Prot_EnablePpuFixedSlMasterStruct
 5680              		.section	.text.Cy_Prot_DisablePpuFixedSlMasterStruct,"ax",%progbits
 5681              		.align	2
 5682              		.global	Cy_Prot_DisablePpuFixedSlMasterStruct
 5683              		.code	16
 5684              		.thumb_func
 5685              		.type	Cy_Prot_DisablePpuFixedSlMasterStruct, %function
 5686              	Cy_Prot_DisablePpuFixedSlMasterStruct:
 5687              	.LFB84:
2285:Generated_Source\PSoC6\pdl\drivers\peripheral\prot/cy_prot.c **** 
2286:Generated_Source\PSoC6\pdl\drivers\peripheral\prot/cy_prot.c **** 
2287:Generated_Source\PSoC6\pdl\drivers\peripheral\prot/cy_prot.c **** /*******************************************************************************
2288:Generated_Source\PSoC6\pdl\drivers\peripheral\prot/cy_prot.c **** * Function Name: Cy_Prot_DisablePpuFixedSlMasterStruct
2289:Generated_Source\PSoC6\pdl\drivers\peripheral\prot/cy_prot.c **** ****************************************************************************//**
2290:Generated_Source\PSoC6\pdl\drivers\peripheral\prot/cy_prot.c **** *
2291:Generated_Source\PSoC6\pdl\drivers\peripheral\prot/cy_prot.c **** * Disables the Master PPU SL structure.
2292:Generated_Source\PSoC6\pdl\drivers\peripheral\prot/cy_prot.c **** *
2293:Generated_Source\PSoC6\pdl\drivers\peripheral\prot/cy_prot.c **** * This is a PPU SL master struct disable function. The PPU SL protection 
2294:Generated_Source\PSoC6\pdl\drivers\peripheral\prot/cy_prot.c **** * settings will seize to take effect after successful completion of this 
2295:Generated_Source\PSoC6\pdl\drivers\peripheral\prot/cy_prot.c **** * function call.
2296:Generated_Source\PSoC6\pdl\drivers\peripheral\prot/cy_prot.c **** *
2297:Generated_Source\PSoC6\pdl\drivers\peripheral\prot/cy_prot.c **** * \note This function is applicable for CPUSS ver_1 only.
2298:Generated_Source\PSoC6\pdl\drivers\peripheral\prot/cy_prot.c **** *
2299:Generated_Source\PSoC6\pdl\drivers\peripheral\prot/cy_prot.c **** * \param base
2300:Generated_Source\PSoC6\pdl\drivers\peripheral\prot/cy_prot.c **** * The base address for the protection unit structure being configured. 
2301:Generated_Source\PSoC6\pdl\drivers\peripheral\prot/cy_prot.c **** *
2302:Generated_Source\PSoC6\pdl\drivers\peripheral\prot/cy_prot.c **** * \return
2303:Generated_Source\PSoC6\pdl\drivers\peripheral\prot/cy_prot.c **** * Status of the function call.
2304:Generated_Source\PSoC6\pdl\drivers\peripheral\prot/cy_prot.c **** *
2305:Generated_Source\PSoC6\pdl\drivers\peripheral\prot/cy_prot.c **** *   Status                | Description
2306:Generated_Source\PSoC6\pdl\drivers\peripheral\prot/cy_prot.c **** *   ------------          | -----------
2307:Generated_Source\PSoC6\pdl\drivers\peripheral\prot/cy_prot.c **** *   CY_PROT_SUCCESS       | The Master PU struct was disabled.
2308:Generated_Source\PSoC6\pdl\drivers\peripheral\prot/cy_prot.c **** *   CY_PROT_FAILURE       | The Master PU struct is enabled and possibly locked.
2309:Generated_Source\PSoC6\pdl\drivers\peripheral\prot/cy_prot.c **** *   CY_PROT_INVALID_STATE | The function was called on the device with an unsupported PERI HW versi
2310:Generated_Source\PSoC6\pdl\drivers\peripheral\prot/cy_prot.c **** *
2311:Generated_Source\PSoC6\pdl\drivers\peripheral\prot/cy_prot.c **** * \funcusage
2312:Generated_Source\PSoC6\pdl\drivers\peripheral\prot/cy_prot.c **** * \snippet prot/1.20/snippet/main.c snippet_Cy_Prot_DisablePpuFixedSlMasterStruct
2313:Generated_Source\PSoC6\pdl\drivers\peripheral\prot/cy_prot.c **** *
2314:Generated_Source\PSoC6\pdl\drivers\peripheral\prot/cy_prot.c **** *******************************************************************************/
2315:Generated_Source\PSoC6\pdl\drivers\peripheral\prot/cy_prot.c **** cy_en_prot_status_t Cy_Prot_DisablePpuFixedSlMasterStruct(PERI_GR_PPU_SL_Type* base)
2316:Generated_Source\PSoC6\pdl\drivers\peripheral\prot/cy_prot.c **** {
 5688              		.loc 1 2316 0
 5689              		.cfi_startproc
 5690              		@ args = 0, pretend = 0, frame = 16
 5691              		@ frame_needed = 1, uses_anonymous_args = 0
 5692 0000 80B5     		push	{r7, lr}
ARM GAS  C:\Users\JC\AppData\Local\Temp\ccU1E72d.s 			page 143


 5693              		.cfi_def_cfa_offset 8
 5694              		.cfi_offset 7, -8
 5695              		.cfi_offset 14, -4
 5696 0002 84B0     		sub	sp, sp, #16
 5697              		.cfi_def_cfa_offset 24
 5698 0004 00AF     		add	r7, sp, #0
 5699              		.cfi_def_cfa_register 7
 5700 0006 7860     		str	r0, [r7, #4]
2317:Generated_Source\PSoC6\pdl\drivers\peripheral\prot/cy_prot.c ****     cy_en_prot_status_t status = CY_PROT_INVALID_STATE;
 5701              		.loc 1 2317 0
 5702 0008 134B     		ldr	r3, .L376
 5703 000a FB60     		str	r3, [r7, #12]
2318:Generated_Source\PSoC6\pdl\drivers\peripheral\prot/cy_prot.c ****     
2319:Generated_Source\PSoC6\pdl\drivers\peripheral\prot/cy_prot.c ****     CY_ASSERT_L1(NULL != base);
 5704              		.loc 1 2319 0
 5705 000c 7B68     		ldr	r3, [r7, #4]
 5706 000e 002B     		cmp	r3, #0
 5707 0010 05D1     		bne	.L371
 5708              		.loc 1 2319 0 is_stmt 0 discriminator 1
 5709 0012 124A     		ldr	r2, .L376+4
 5710 0014 124B     		ldr	r3, .L376+8
 5711 0016 1100     		movs	r1, r2
 5712 0018 1800     		movs	r0, r3
 5713 001a FFF7FEFF 		bl	Cy_SysLib_AssertFailed
 5714              	.L371:
2320:Generated_Source\PSoC6\pdl\drivers\peripheral\prot/cy_prot.c ****     
2321:Generated_Source\PSoC6\pdl\drivers\peripheral\prot/cy_prot.c ****     if (CY_PERI_V1)
 5715              		.loc 1 2321 0 is_stmt 1
 5716 001e 114B     		ldr	r3, .L376+12
 5717 0020 1B68     		ldr	r3, [r3]
 5718 0022 2F22     		movs	r2, #47
 5719 0024 9B5C     		ldrb	r3, [r3, r2]
 5720 0026 012B     		cmp	r3, #1
 5721 0028 10D1     		bne	.L372
2322:Generated_Source\PSoC6\pdl\drivers\peripheral\prot/cy_prot.c ****     {
2323:Generated_Source\PSoC6\pdl\drivers\peripheral\prot/cy_prot.c ****         PERI_GR_PPU_SL_ATT1(base) &= ~_VAL2FLD(PERI_GR_PPU_SL_ATT1_ENABLED, CY_PROT_STRUCT_ENABLE);
 5722              		.loc 1 2323 0
 5723 002a 7B68     		ldr	r3, [r7, #4]
 5724 002c 5B6A     		ldr	r3, [r3, #36]
 5725 002e 5B00     		lsls	r3, r3, #1
 5726 0030 5A08     		lsrs	r2, r3, #1
 5727 0032 7B68     		ldr	r3, [r7, #4]
 5728 0034 5A62     		str	r2, [r3, #36]
2324:Generated_Source\PSoC6\pdl\drivers\peripheral\prot/cy_prot.c ****         status = (_FLD2VAL(PERI_GR_PPU_SL_ATT1_ENABLED, PERI_GR_PPU_SL_ATT1(base)) == CY_PROT_STRUC
 5729              		.loc 1 2324 0
 5730 0036 7B68     		ldr	r3, [r7, #4]
 5731 0038 5B6A     		ldr	r3, [r3, #36]
 5732 003a DB0F     		lsrs	r3, r3, #31
 5733 003c DB07     		lsls	r3, r3, #31
 5734 003e DB0F     		lsrs	r3, r3, #31
 5735 0040 012B     		cmp	r3, #1
 5736 0042 01D1     		bne	.L373
 5737              		.loc 1 2324 0 is_stmt 0 discriminator 1
 5738 0044 084B     		ldr	r3, .L376+16
 5739 0046 00E0     		b	.L374
 5740              	.L373:
 5741              		.loc 1 2324 0 discriminator 2
ARM GAS  C:\Users\JC\AppData\Local\Temp\ccU1E72d.s 			page 144


 5742 0048 0023     		movs	r3, #0
 5743              	.L374:
 5744              		.loc 1 2324 0 discriminator 4
 5745 004a FB60     		str	r3, [r7, #12]
 5746              	.L372:
2325:Generated_Source\PSoC6\pdl\drivers\peripheral\prot/cy_prot.c ****                     CY_PROT_FAILURE : CY_PROT_SUCCESS;
2326:Generated_Source\PSoC6\pdl\drivers\peripheral\prot/cy_prot.c ****     }
2327:Generated_Source\PSoC6\pdl\drivers\peripheral\prot/cy_prot.c **** 
2328:Generated_Source\PSoC6\pdl\drivers\peripheral\prot/cy_prot.c ****     return status;
 5747              		.loc 1 2328 0 is_stmt 1
 5748 004c FB68     		ldr	r3, [r7, #12]
2329:Generated_Source\PSoC6\pdl\drivers\peripheral\prot/cy_prot.c **** }
 5749              		.loc 1 2329 0
 5750 004e 1800     		movs	r0, r3
 5751 0050 BD46     		mov	sp, r7
 5752 0052 04B0     		add	sp, sp, #16
 5753              		@ sp needed
 5754 0054 80BD     		pop	{r7, pc}
 5755              	.L377:
 5756 0056 C046     		.align	2
 5757              	.L376:
 5758 0058 0200C200 		.word	12713986
 5759 005c 0F090000 		.word	2319
 5760 0060 00000000 		.word	.LC1
 5761 0064 00000000 		.word	cy_device
 5762 0068 0300C200 		.word	12713987
 5763              		.cfi_endproc
 5764              	.LFE84:
 5765              		.size	Cy_Prot_DisablePpuFixedSlMasterStruct, .-Cy_Prot_DisablePpuFixedSlMasterStruct
 5766              		.section	.text.Cy_Prot_EnablePpuFixedSlSlaveStruct,"ax",%progbits
 5767              		.align	2
 5768              		.global	Cy_Prot_EnablePpuFixedSlSlaveStruct
 5769              		.code	16
 5770              		.thumb_func
 5771              		.type	Cy_Prot_EnablePpuFixedSlSlaveStruct, %function
 5772              	Cy_Prot_EnablePpuFixedSlSlaveStruct:
 5773              	.LFB85:
2330:Generated_Source\PSoC6\pdl\drivers\peripheral\prot/cy_prot.c **** 
2331:Generated_Source\PSoC6\pdl\drivers\peripheral\prot/cy_prot.c **** 
2332:Generated_Source\PSoC6\pdl\drivers\peripheral\prot/cy_prot.c **** /*******************************************************************************
2333:Generated_Source\PSoC6\pdl\drivers\peripheral\prot/cy_prot.c **** * Function Name: Cy_Prot_EnablePpuFixedSlSlaveStruct
2334:Generated_Source\PSoC6\pdl\drivers\peripheral\prot/cy_prot.c **** ****************************************************************************//**
2335:Generated_Source\PSoC6\pdl\drivers\peripheral\prot/cy_prot.c **** *
2336:Generated_Source\PSoC6\pdl\drivers\peripheral\prot/cy_prot.c **** * Enables the Slave PPU SL structure.
2337:Generated_Source\PSoC6\pdl\drivers\peripheral\prot/cy_prot.c **** *
2338:Generated_Source\PSoC6\pdl\drivers\peripheral\prot/cy_prot.c **** * This is a PPU SL slave struct enable function. The PPU SL protection 
2339:Generated_Source\PSoC6\pdl\drivers\peripheral\prot/cy_prot.c **** * settings will take effect after successful completion of this function call.
2340:Generated_Source\PSoC6\pdl\drivers\peripheral\prot/cy_prot.c **** *
2341:Generated_Source\PSoC6\pdl\drivers\peripheral\prot/cy_prot.c **** * \note This function is applicable for CPUSS ver_1 only.
2342:Generated_Source\PSoC6\pdl\drivers\peripheral\prot/cy_prot.c **** *
2343:Generated_Source\PSoC6\pdl\drivers\peripheral\prot/cy_prot.c **** * \param base
2344:Generated_Source\PSoC6\pdl\drivers\peripheral\prot/cy_prot.c **** * The base address for the protection unit structure being configured. 
2345:Generated_Source\PSoC6\pdl\drivers\peripheral\prot/cy_prot.c **** *
2346:Generated_Source\PSoC6\pdl\drivers\peripheral\prot/cy_prot.c **** * \return
2347:Generated_Source\PSoC6\pdl\drivers\peripheral\prot/cy_prot.c **** * Status of the function call.
2348:Generated_Source\PSoC6\pdl\drivers\peripheral\prot/cy_prot.c **** *
2349:Generated_Source\PSoC6\pdl\drivers\peripheral\prot/cy_prot.c **** *   Status                | Description
ARM GAS  C:\Users\JC\AppData\Local\Temp\ccU1E72d.s 			page 145


2350:Generated_Source\PSoC6\pdl\drivers\peripheral\prot/cy_prot.c **** *   ------------          | -----------
2351:Generated_Source\PSoC6\pdl\drivers\peripheral\prot/cy_prot.c **** *   CY_PROT_SUCCESS       | The Slave PU struct was enabled.
2352:Generated_Source\PSoC6\pdl\drivers\peripheral\prot/cy_prot.c **** *   CY_PROT_FAILURE       | The Slave PU struct is disabled and possibly locked.
2353:Generated_Source\PSoC6\pdl\drivers\peripheral\prot/cy_prot.c **** *   CY_PROT_INVALID_STATE | The function was called on the device with an unsupported PERI HW versi
2354:Generated_Source\PSoC6\pdl\drivers\peripheral\prot/cy_prot.c **** *
2355:Generated_Source\PSoC6\pdl\drivers\peripheral\prot/cy_prot.c **** * \funcusage
2356:Generated_Source\PSoC6\pdl\drivers\peripheral\prot/cy_prot.c **** * \snippet prot/1.20/snippet/main.c snippet_Cy_Prot_EnablePpuFixedSlSlaveStruct
2357:Generated_Source\PSoC6\pdl\drivers\peripheral\prot/cy_prot.c **** *
2358:Generated_Source\PSoC6\pdl\drivers\peripheral\prot/cy_prot.c **** *******************************************************************************/
2359:Generated_Source\PSoC6\pdl\drivers\peripheral\prot/cy_prot.c **** cy_en_prot_status_t Cy_Prot_EnablePpuFixedSlSlaveStruct(PERI_GR_PPU_SL_Type* base)
2360:Generated_Source\PSoC6\pdl\drivers\peripheral\prot/cy_prot.c **** {   
 5774              		.loc 1 2360 0
 5775              		.cfi_startproc
 5776              		@ args = 0, pretend = 0, frame = 16
 5777              		@ frame_needed = 1, uses_anonymous_args = 0
 5778 0000 80B5     		push	{r7, lr}
 5779              		.cfi_def_cfa_offset 8
 5780              		.cfi_offset 7, -8
 5781              		.cfi_offset 14, -4
 5782 0002 84B0     		sub	sp, sp, #16
 5783              		.cfi_def_cfa_offset 24
 5784 0004 00AF     		add	r7, sp, #0
 5785              		.cfi_def_cfa_register 7
 5786 0006 7860     		str	r0, [r7, #4]
2361:Generated_Source\PSoC6\pdl\drivers\peripheral\prot/cy_prot.c ****     cy_en_prot_status_t status = CY_PROT_INVALID_STATE;
 5787              		.loc 1 2361 0
 5788 0008 134B     		ldr	r3, .L384
 5789 000a FB60     		str	r3, [r7, #12]
2362:Generated_Source\PSoC6\pdl\drivers\peripheral\prot/cy_prot.c ****     
2363:Generated_Source\PSoC6\pdl\drivers\peripheral\prot/cy_prot.c ****     CY_ASSERT_L1(NULL != base);
 5790              		.loc 1 2363 0
 5791 000c 7B68     		ldr	r3, [r7, #4]
 5792 000e 002B     		cmp	r3, #0
 5793 0010 05D1     		bne	.L379
 5794              		.loc 1 2363 0 is_stmt 0 discriminator 1
 5795 0012 124A     		ldr	r2, .L384+4
 5796 0014 124B     		ldr	r3, .L384+8
 5797 0016 1100     		movs	r1, r2
 5798 0018 1800     		movs	r0, r3
 5799 001a FFF7FEFF 		bl	Cy_SysLib_AssertFailed
 5800              	.L379:
2364:Generated_Source\PSoC6\pdl\drivers\peripheral\prot/cy_prot.c ****     
2365:Generated_Source\PSoC6\pdl\drivers\peripheral\prot/cy_prot.c ****     if (CY_PERI_V1)
 5801              		.loc 1 2365 0 is_stmt 1
 5802 001e 114B     		ldr	r3, .L384+12
 5803 0020 1B68     		ldr	r3, [r3]
 5804 0022 2F22     		movs	r2, #47
 5805 0024 9B5C     		ldrb	r3, [r3, r2]
 5806 0026 012B     		cmp	r3, #1
 5807 0028 11D1     		bne	.L380
2366:Generated_Source\PSoC6\pdl\drivers\peripheral\prot/cy_prot.c ****     {
2367:Generated_Source\PSoC6\pdl\drivers\peripheral\prot/cy_prot.c ****         PERI_GR_PPU_SL_ATT0(base) |= _VAL2FLD(PERI_GR_PPU_SL_ATT0_ENABLED, CY_PROT_STRUCT_ENABLE);
 5808              		.loc 1 2367 0
 5809 002a 7B68     		ldr	r3, [r7, #4]
 5810 002c 5B68     		ldr	r3, [r3, #4]
 5811 002e 8022     		movs	r2, #128
 5812 0030 1206     		lsls	r2, r2, #24
ARM GAS  C:\Users\JC\AppData\Local\Temp\ccU1E72d.s 			page 146


 5813 0032 1A43     		orrs	r2, r3
 5814 0034 7B68     		ldr	r3, [r7, #4]
 5815 0036 5A60     		str	r2, [r3, #4]
2368:Generated_Source\PSoC6\pdl\drivers\peripheral\prot/cy_prot.c ****         status = (_FLD2VAL(PERI_GR_PPU_SL_ATT0_ENABLED, PERI_GR_PPU_SL_ATT0(base)) != CY_PROT_STRUC
 5816              		.loc 1 2368 0
 5817 0038 7B68     		ldr	r3, [r7, #4]
 5818 003a 5B68     		ldr	r3, [r3, #4]
 5819 003c DB0F     		lsrs	r3, r3, #31
 5820 003e DB07     		lsls	r3, r3, #31
 5821 0040 DB0F     		lsrs	r3, r3, #31
 5822 0042 012B     		cmp	r3, #1
 5823 0044 01D0     		beq	.L381
 5824              		.loc 1 2368 0 is_stmt 0 discriminator 1
 5825 0046 084B     		ldr	r3, .L384+16
 5826 0048 00E0     		b	.L382
 5827              	.L381:
 5828              		.loc 1 2368 0 discriminator 2
 5829 004a 0023     		movs	r3, #0
 5830              	.L382:
 5831              		.loc 1 2368 0 discriminator 4
 5832 004c FB60     		str	r3, [r7, #12]
 5833              	.L380:
2369:Generated_Source\PSoC6\pdl\drivers\peripheral\prot/cy_prot.c ****                     CY_PROT_FAILURE : CY_PROT_SUCCESS;
2370:Generated_Source\PSoC6\pdl\drivers\peripheral\prot/cy_prot.c ****     }
2371:Generated_Source\PSoC6\pdl\drivers\peripheral\prot/cy_prot.c **** 
2372:Generated_Source\PSoC6\pdl\drivers\peripheral\prot/cy_prot.c ****     return status;
 5834              		.loc 1 2372 0 is_stmt 1
 5835 004e FB68     		ldr	r3, [r7, #12]
2373:Generated_Source\PSoC6\pdl\drivers\peripheral\prot/cy_prot.c **** }
 5836              		.loc 1 2373 0
 5837 0050 1800     		movs	r0, r3
 5838 0052 BD46     		mov	sp, r7
 5839 0054 04B0     		add	sp, sp, #16
 5840              		@ sp needed
 5841 0056 80BD     		pop	{r7, pc}
 5842              	.L385:
 5843              		.align	2
 5844              	.L384:
 5845 0058 0200C200 		.word	12713986
 5846 005c 3B090000 		.word	2363
 5847 0060 00000000 		.word	.LC1
 5848 0064 00000000 		.word	cy_device
 5849 0068 0300C200 		.word	12713987
 5850              		.cfi_endproc
 5851              	.LFE85:
 5852              		.size	Cy_Prot_EnablePpuFixedSlSlaveStruct, .-Cy_Prot_EnablePpuFixedSlSlaveStruct
 5853              		.section	.text.Cy_Prot_DisablePpuFixedSlSlaveStruct,"ax",%progbits
 5854              		.align	2
 5855              		.global	Cy_Prot_DisablePpuFixedSlSlaveStruct
 5856              		.code	16
 5857              		.thumb_func
 5858              		.type	Cy_Prot_DisablePpuFixedSlSlaveStruct, %function
 5859              	Cy_Prot_DisablePpuFixedSlSlaveStruct:
 5860              	.LFB86:
2374:Generated_Source\PSoC6\pdl\drivers\peripheral\prot/cy_prot.c **** 
2375:Generated_Source\PSoC6\pdl\drivers\peripheral\prot/cy_prot.c **** 
2376:Generated_Source\PSoC6\pdl\drivers\peripheral\prot/cy_prot.c **** /*******************************************************************************
ARM GAS  C:\Users\JC\AppData\Local\Temp\ccU1E72d.s 			page 147


2377:Generated_Source\PSoC6\pdl\drivers\peripheral\prot/cy_prot.c **** * Function Name: Cy_Prot_DisablePpuFixedSlSlaveStruct
2378:Generated_Source\PSoC6\pdl\drivers\peripheral\prot/cy_prot.c **** ****************************************************************************//**
2379:Generated_Source\PSoC6\pdl\drivers\peripheral\prot/cy_prot.c **** *
2380:Generated_Source\PSoC6\pdl\drivers\peripheral\prot/cy_prot.c **** * Disables the Slave PPU SL structure.
2381:Generated_Source\PSoC6\pdl\drivers\peripheral\prot/cy_prot.c **** *
2382:Generated_Source\PSoC6\pdl\drivers\peripheral\prot/cy_prot.c **** * This is a PPU SL slave struct disable function. The PPU SL protection 
2383:Generated_Source\PSoC6\pdl\drivers\peripheral\prot/cy_prot.c **** * settings will seize to take effect after successful completion of this 
2384:Generated_Source\PSoC6\pdl\drivers\peripheral\prot/cy_prot.c **** * function call.
2385:Generated_Source\PSoC6\pdl\drivers\peripheral\prot/cy_prot.c **** *
2386:Generated_Source\PSoC6\pdl\drivers\peripheral\prot/cy_prot.c **** * \note This function is applicable for CPUSS ver_1 only.
2387:Generated_Source\PSoC6\pdl\drivers\peripheral\prot/cy_prot.c **** *
2388:Generated_Source\PSoC6\pdl\drivers\peripheral\prot/cy_prot.c **** * \param base
2389:Generated_Source\PSoC6\pdl\drivers\peripheral\prot/cy_prot.c **** * The base address for the protection unit structure being configured. 
2390:Generated_Source\PSoC6\pdl\drivers\peripheral\prot/cy_prot.c **** *
2391:Generated_Source\PSoC6\pdl\drivers\peripheral\prot/cy_prot.c **** * \return
2392:Generated_Source\PSoC6\pdl\drivers\peripheral\prot/cy_prot.c **** * Status of the function call.
2393:Generated_Source\PSoC6\pdl\drivers\peripheral\prot/cy_prot.c **** *
2394:Generated_Source\PSoC6\pdl\drivers\peripheral\prot/cy_prot.c **** *   Status                | Description
2395:Generated_Source\PSoC6\pdl\drivers\peripheral\prot/cy_prot.c **** *   ------------          | -----------
2396:Generated_Source\PSoC6\pdl\drivers\peripheral\prot/cy_prot.c **** *   CY_PROT_SUCCESS       | The Slave PU struct was enabled.
2397:Generated_Source\PSoC6\pdl\drivers\peripheral\prot/cy_prot.c **** *   CY_PROT_FAILURE       | The Slave PU struct is disabled and possibly locked.
2398:Generated_Source\PSoC6\pdl\drivers\peripheral\prot/cy_prot.c **** *   CY_PROT_INVALID_STATE | The function was called on the device with an unsupported PERI HW versi
2399:Generated_Source\PSoC6\pdl\drivers\peripheral\prot/cy_prot.c **** *
2400:Generated_Source\PSoC6\pdl\drivers\peripheral\prot/cy_prot.c **** * \funcusage
2401:Generated_Source\PSoC6\pdl\drivers\peripheral\prot/cy_prot.c **** * \snippet prot/1.20/snippet/main.c snippet_Cy_Prot_DisablePpuFixedSlSlaveStruct
2402:Generated_Source\PSoC6\pdl\drivers\peripheral\prot/cy_prot.c **** *
2403:Generated_Source\PSoC6\pdl\drivers\peripheral\prot/cy_prot.c **** *******************************************************************************/
2404:Generated_Source\PSoC6\pdl\drivers\peripheral\prot/cy_prot.c **** cy_en_prot_status_t Cy_Prot_DisablePpuFixedSlSlaveStruct(PERI_GR_PPU_SL_Type* base)
2405:Generated_Source\PSoC6\pdl\drivers\peripheral\prot/cy_prot.c **** {
 5861              		.loc 1 2405 0
 5862              		.cfi_startproc
 5863              		@ args = 0, pretend = 0, frame = 16
 5864              		@ frame_needed = 1, uses_anonymous_args = 0
 5865 0000 80B5     		push	{r7, lr}
 5866              		.cfi_def_cfa_offset 8
 5867              		.cfi_offset 7, -8
 5868              		.cfi_offset 14, -4
 5869 0002 84B0     		sub	sp, sp, #16
 5870              		.cfi_def_cfa_offset 24
 5871 0004 00AF     		add	r7, sp, #0
 5872              		.cfi_def_cfa_register 7
 5873 0006 7860     		str	r0, [r7, #4]
2406:Generated_Source\PSoC6\pdl\drivers\peripheral\prot/cy_prot.c ****     cy_en_prot_status_t status = CY_PROT_INVALID_STATE;
 5874              		.loc 1 2406 0
 5875 0008 134B     		ldr	r3, .L392
 5876 000a FB60     		str	r3, [r7, #12]
2407:Generated_Source\PSoC6\pdl\drivers\peripheral\prot/cy_prot.c ****     
2408:Generated_Source\PSoC6\pdl\drivers\peripheral\prot/cy_prot.c ****     CY_ASSERT_L1(NULL != base);
 5877              		.loc 1 2408 0
 5878 000c 7B68     		ldr	r3, [r7, #4]
 5879 000e 002B     		cmp	r3, #0
 5880 0010 05D1     		bne	.L387
 5881              		.loc 1 2408 0 is_stmt 0 discriminator 1
 5882 0012 124A     		ldr	r2, .L392+4
 5883 0014 124B     		ldr	r3, .L392+8
 5884 0016 1100     		movs	r1, r2
 5885 0018 1800     		movs	r0, r3
ARM GAS  C:\Users\JC\AppData\Local\Temp\ccU1E72d.s 			page 148


 5886 001a FFF7FEFF 		bl	Cy_SysLib_AssertFailed
 5887              	.L387:
2409:Generated_Source\PSoC6\pdl\drivers\peripheral\prot/cy_prot.c ****     
2410:Generated_Source\PSoC6\pdl\drivers\peripheral\prot/cy_prot.c ****     if (CY_PERI_V1)
 5888              		.loc 1 2410 0 is_stmt 1
 5889 001e 114B     		ldr	r3, .L392+12
 5890 0020 1B68     		ldr	r3, [r3]
 5891 0022 2F22     		movs	r2, #47
 5892 0024 9B5C     		ldrb	r3, [r3, r2]
 5893 0026 012B     		cmp	r3, #1
 5894 0028 10D1     		bne	.L388
2411:Generated_Source\PSoC6\pdl\drivers\peripheral\prot/cy_prot.c ****     {
2412:Generated_Source\PSoC6\pdl\drivers\peripheral\prot/cy_prot.c ****         PERI_GR_PPU_SL_ATT0(base) &= ~_VAL2FLD(PERI_GR_PPU_SL_ATT0_ENABLED, CY_PROT_STRUCT_ENABLE);
 5895              		.loc 1 2412 0
 5896 002a 7B68     		ldr	r3, [r7, #4]
 5897 002c 5B68     		ldr	r3, [r3, #4]
 5898 002e 5B00     		lsls	r3, r3, #1
 5899 0030 5A08     		lsrs	r2, r3, #1
 5900 0032 7B68     		ldr	r3, [r7, #4]
 5901 0034 5A60     		str	r2, [r3, #4]
2413:Generated_Source\PSoC6\pdl\drivers\peripheral\prot/cy_prot.c ****         status = (_FLD2VAL(PERI_GR_PPU_SL_ATT0_ENABLED, PERI_GR_PPU_SL_ATT0(base)) == CY_PROT_STRUC
 5902              		.loc 1 2413 0
 5903 0036 7B68     		ldr	r3, [r7, #4]
 5904 0038 5B68     		ldr	r3, [r3, #4]
 5905 003a DB0F     		lsrs	r3, r3, #31
 5906 003c DB07     		lsls	r3, r3, #31
 5907 003e DB0F     		lsrs	r3, r3, #31
 5908 0040 012B     		cmp	r3, #1
 5909 0042 01D1     		bne	.L389
 5910              		.loc 1 2413 0 is_stmt 0 discriminator 1
 5911 0044 084B     		ldr	r3, .L392+16
 5912 0046 00E0     		b	.L390
 5913              	.L389:
 5914              		.loc 1 2413 0 discriminator 2
 5915 0048 0023     		movs	r3, #0
 5916              	.L390:
 5917              		.loc 1 2413 0 discriminator 4
 5918 004a FB60     		str	r3, [r7, #12]
 5919              	.L388:
2414:Generated_Source\PSoC6\pdl\drivers\peripheral\prot/cy_prot.c ****                     CY_PROT_FAILURE : CY_PROT_SUCCESS;
2415:Generated_Source\PSoC6\pdl\drivers\peripheral\prot/cy_prot.c ****     }
2416:Generated_Source\PSoC6\pdl\drivers\peripheral\prot/cy_prot.c **** 
2417:Generated_Source\PSoC6\pdl\drivers\peripheral\prot/cy_prot.c ****     return status;
 5920              		.loc 1 2417 0 is_stmt 1
 5921 004c FB68     		ldr	r3, [r7, #12]
2418:Generated_Source\PSoC6\pdl\drivers\peripheral\prot/cy_prot.c **** }
 5922              		.loc 1 2418 0
 5923 004e 1800     		movs	r0, r3
 5924 0050 BD46     		mov	sp, r7
 5925 0052 04B0     		add	sp, sp, #16
 5926              		@ sp needed
 5927 0054 80BD     		pop	{r7, pc}
 5928              	.L393:
 5929 0056 C046     		.align	2
 5930              	.L392:
 5931 0058 0200C200 		.word	12713986
 5932 005c 68090000 		.word	2408
ARM GAS  C:\Users\JC\AppData\Local\Temp\ccU1E72d.s 			page 149


 5933 0060 00000000 		.word	.LC1
 5934 0064 00000000 		.word	cy_device
 5935 0068 0300C200 		.word	12713987
 5936              		.cfi_endproc
 5937              	.LFE86:
 5938              		.size	Cy_Prot_DisablePpuFixedSlSlaveStruct, .-Cy_Prot_DisablePpuFixedSlSlaveStruct
 5939              		.section	.text.Cy_Prot_ConfigPpuFixedRgMasterStruct,"ax",%progbits
 5940              		.align	2
 5941              		.global	Cy_Prot_ConfigPpuFixedRgMasterStruct
 5942              		.code	16
 5943              		.thumb_func
 5944              		.type	Cy_Prot_ConfigPpuFixedRgMasterStruct, %function
 5945              	Cy_Prot_ConfigPpuFixedRgMasterStruct:
 5946              	.LFB87:
2419:Generated_Source\PSoC6\pdl\drivers\peripheral\prot/cy_prot.c **** 
2420:Generated_Source\PSoC6\pdl\drivers\peripheral\prot/cy_prot.c **** 
2421:Generated_Source\PSoC6\pdl\drivers\peripheral\prot/cy_prot.c **** /*******************************************************************************
2422:Generated_Source\PSoC6\pdl\drivers\peripheral\prot/cy_prot.c **** * Function Name: Cy_Prot_ConfigPpuFixedRgMasterStruct
2423:Generated_Source\PSoC6\pdl\drivers\peripheral\prot/cy_prot.c **** ****************************************************************************//**
2424:Generated_Source\PSoC6\pdl\drivers\peripheral\prot/cy_prot.c **** *
2425:Generated_Source\PSoC6\pdl\drivers\peripheral\prot/cy_prot.c **** * Configures a Fixed Peripheral Region Protection Unit (PPU RG) master 
2426:Generated_Source\PSoC6\pdl\drivers\peripheral\prot/cy_prot.c **** * protection struct with its protection attributes. 
2427:Generated_Source\PSoC6\pdl\drivers\peripheral\prot/cy_prot.c **** *
2428:Generated_Source\PSoC6\pdl\drivers\peripheral\prot/cy_prot.c **** * This function configures the master struct governing the corresponding slave
2429:Generated_Source\PSoC6\pdl\drivers\peripheral\prot/cy_prot.c **** * struct pair. It is a mechanism to protect the slave PPU RG struct. Since
2430:Generated_Source\PSoC6\pdl\drivers\peripheral\prot/cy_prot.c **** * the memory location of the slave struct is known, the address, regionSize and
2431:Generated_Source\PSoC6\pdl\drivers\peripheral\prot/cy_prot.c **** * subregions of the configuration struct are not applicable.
2432:Generated_Source\PSoC6\pdl\drivers\peripheral\prot/cy_prot.c **** *
2433:Generated_Source\PSoC6\pdl\drivers\peripheral\prot/cy_prot.c **** * Note that only the user/privileged write permissions are configurable. The 
2434:Generated_Source\PSoC6\pdl\drivers\peripheral\prot/cy_prot.c **** * read and execute permissions are read-only and cannot be configured.
2435:Generated_Source\PSoC6\pdl\drivers\peripheral\prot/cy_prot.c **** *
2436:Generated_Source\PSoC6\pdl\drivers\peripheral\prot/cy_prot.c **** * \note This function is applicable for CPUSS ver_1 only.
2437:Generated_Source\PSoC6\pdl\drivers\peripheral\prot/cy_prot.c **** *
2438:Generated_Source\PSoC6\pdl\drivers\peripheral\prot/cy_prot.c **** * \param base
2439:Generated_Source\PSoC6\pdl\drivers\peripheral\prot/cy_prot.c **** * The register base address of the protection struct being configured.
2440:Generated_Source\PSoC6\pdl\drivers\peripheral\prot/cy_prot.c **** * 
2441:Generated_Source\PSoC6\pdl\drivers\peripheral\prot/cy_prot.c **** * \param config
2442:Generated_Source\PSoC6\pdl\drivers\peripheral\prot/cy_prot.c **** * Initialization structure with all the protection attributes.
2443:Generated_Source\PSoC6\pdl\drivers\peripheral\prot/cy_prot.c **** * 
2444:Generated_Source\PSoC6\pdl\drivers\peripheral\prot/cy_prot.c **** * \return
2445:Generated_Source\PSoC6\pdl\drivers\peripheral\prot/cy_prot.c **** * Status of the function call.
2446:Generated_Source\PSoC6\pdl\drivers\peripheral\prot/cy_prot.c **** *
2447:Generated_Source\PSoC6\pdl\drivers\peripheral\prot/cy_prot.c **** *   Status                | Description
2448:Generated_Source\PSoC6\pdl\drivers\peripheral\prot/cy_prot.c **** *   ------------          | -----------
2449:Generated_Source\PSoC6\pdl\drivers\peripheral\prot/cy_prot.c **** *   CY_PROT_SUCCESS       | PPU RG master struct was successfully configured.
2450:Generated_Source\PSoC6\pdl\drivers\peripheral\prot/cy_prot.c **** *   CY_PROT_FAILURE       | The resource is locked.
2451:Generated_Source\PSoC6\pdl\drivers\peripheral\prot/cy_prot.c **** *   CY_PROT_BAD_PARAM     | An incorrect/invalid parameter was passed.
2452:Generated_Source\PSoC6\pdl\drivers\peripheral\prot/cy_prot.c **** *   CY_PROT_INVALID_STATE | The function was called on the device with an unsupported PERI HW versi
2453:Generated_Source\PSoC6\pdl\drivers\peripheral\prot/cy_prot.c **** *
2454:Generated_Source\PSoC6\pdl\drivers\peripheral\prot/cy_prot.c **** * \funcusage
2455:Generated_Source\PSoC6\pdl\drivers\peripheral\prot/cy_prot.c **** * \snippet prot/1.20/snippet/main.c snippet_Cy_Prot_ConfigPpuFixedRgMasterStruct
2456:Generated_Source\PSoC6\pdl\drivers\peripheral\prot/cy_prot.c **** *
2457:Generated_Source\PSoC6\pdl\drivers\peripheral\prot/cy_prot.c **** *******************************************************************************/
2458:Generated_Source\PSoC6\pdl\drivers\peripheral\prot/cy_prot.c **** cy_en_prot_status_t Cy_Prot_ConfigPpuFixedRgMasterStruct(PERI_GR_PPU_RG_Type* base, const cy_stc_pp
2459:Generated_Source\PSoC6\pdl\drivers\peripheral\prot/cy_prot.c **** {
 5947              		.loc 1 2459 0
 5948              		.cfi_startproc
ARM GAS  C:\Users\JC\AppData\Local\Temp\ccU1E72d.s 			page 150


 5949              		@ args = 0, pretend = 0, frame = 16
 5950              		@ frame_needed = 1, uses_anonymous_args = 0
 5951 0000 80B5     		push	{r7, lr}
 5952              		.cfi_def_cfa_offset 8
 5953              		.cfi_offset 7, -8
 5954              		.cfi_offset 14, -4
 5955 0002 84B0     		sub	sp, sp, #16
 5956              		.cfi_def_cfa_offset 24
 5957 0004 00AF     		add	r7, sp, #0
 5958              		.cfi_def_cfa_register 7
 5959 0006 7860     		str	r0, [r7, #4]
 5960 0008 3960     		str	r1, [r7]
2460:Generated_Source\PSoC6\pdl\drivers\peripheral\prot/cy_prot.c ****     cy_en_prot_status_t status = CY_PROT_INVALID_STATE;
 5961              		.loc 1 2460 0
 5962 000a 434B     		ldr	r3, .L404
 5963 000c FB60     		str	r3, [r7, #12]
2461:Generated_Source\PSoC6\pdl\drivers\peripheral\prot/cy_prot.c ****     uint32_t attReg;
2462:Generated_Source\PSoC6\pdl\drivers\peripheral\prot/cy_prot.c ****     
2463:Generated_Source\PSoC6\pdl\drivers\peripheral\prot/cy_prot.c ****     CY_ASSERT_L1(NULL != base);
 5964              		.loc 1 2463 0
 5965 000e 7B68     		ldr	r3, [r7, #4]
 5966 0010 002B     		cmp	r3, #0
 5967 0012 05D1     		bne	.L395
 5968              		.loc 1 2463 0 is_stmt 0 discriminator 1
 5969 0014 414A     		ldr	r2, .L404+4
 5970 0016 424B     		ldr	r3, .L404+8
 5971 0018 1100     		movs	r1, r2
 5972 001a 1800     		movs	r0, r3
 5973 001c FFF7FEFF 		bl	Cy_SysLib_AssertFailed
 5974              	.L395:
2464:Generated_Source\PSoC6\pdl\drivers\peripheral\prot/cy_prot.c ****     CY_ASSERT_L3(CY_PROT_IS_FIXED_MS_PERM_VALID(config->userPermission));
 5975              		.loc 1 2464 0 is_stmt 1
 5976 0020 3B68     		ldr	r3, [r7]
 5977 0022 1B78     		ldrb	r3, [r3]
 5978 0024 002B     		cmp	r3, #0
 5979 0026 12D0     		beq	.L396
 5980              		.loc 1 2464 0 is_stmt 0 discriminator 1
 5981 0028 3B68     		ldr	r3, [r7]
 5982 002a 1B78     		ldrb	r3, [r3]
 5983 002c 012B     		cmp	r3, #1
 5984 002e 0ED0     		beq	.L396
 5985              		.loc 1 2464 0 discriminator 2
 5986 0030 3B68     		ldr	r3, [r7]
 5987 0032 1B78     		ldrb	r3, [r3]
 5988 0034 022B     		cmp	r3, #2
 5989 0036 0AD0     		beq	.L396
 5990              		.loc 1 2464 0 discriminator 3
 5991 0038 3B68     		ldr	r3, [r7]
 5992 003a 1B78     		ldrb	r3, [r3]
 5993 003c 032B     		cmp	r3, #3
 5994 003e 06D0     		beq	.L396
 5995              		.loc 1 2464 0 discriminator 4
 5996 0040 9A23     		movs	r3, #154
 5997 0042 1A01     		lsls	r2, r3, #4
 5998 0044 364B     		ldr	r3, .L404+8
 5999 0046 1100     		movs	r1, r2
 6000 0048 1800     		movs	r0, r3
ARM GAS  C:\Users\JC\AppData\Local\Temp\ccU1E72d.s 			page 151


 6001 004a FFF7FEFF 		bl	Cy_SysLib_AssertFailed
 6002              	.L396:
2465:Generated_Source\PSoC6\pdl\drivers\peripheral\prot/cy_prot.c ****     CY_ASSERT_L3(CY_PROT_IS_FIXED_MS_PERM_VALID(config->privPermission));
 6003              		.loc 1 2465 0 is_stmt 1
 6004 004e 3B68     		ldr	r3, [r7]
 6005 0050 5B78     		ldrb	r3, [r3, #1]
 6006 0052 002B     		cmp	r3, #0
 6007 0054 11D0     		beq	.L397
 6008              		.loc 1 2465 0 is_stmt 0 discriminator 1
 6009 0056 3B68     		ldr	r3, [r7]
 6010 0058 5B78     		ldrb	r3, [r3, #1]
 6011 005a 012B     		cmp	r3, #1
 6012 005c 0DD0     		beq	.L397
 6013              		.loc 1 2465 0 discriminator 2
 6014 005e 3B68     		ldr	r3, [r7]
 6015 0060 5B78     		ldrb	r3, [r3, #1]
 6016 0062 022B     		cmp	r3, #2
 6017 0064 09D0     		beq	.L397
 6018              		.loc 1 2465 0 discriminator 3
 6019 0066 3B68     		ldr	r3, [r7]
 6020 0068 5B78     		ldrb	r3, [r3, #1]
 6021 006a 032B     		cmp	r3, #3
 6022 006c 05D0     		beq	.L397
 6023              		.loc 1 2465 0 discriminator 4
 6024 006e 2D4A     		ldr	r2, .L404+12
 6025 0070 2B4B     		ldr	r3, .L404+8
 6026 0072 1100     		movs	r1, r2
 6027 0074 1800     		movs	r0, r3
 6028 0076 FFF7FEFF 		bl	Cy_SysLib_AssertFailed
 6029              	.L397:
2466:Generated_Source\PSoC6\pdl\drivers\peripheral\prot/cy_prot.c ****     
2467:Generated_Source\PSoC6\pdl\drivers\peripheral\prot/cy_prot.c ****     if (CY_PERI_V1)
 6030              		.loc 1 2467 0 is_stmt 1
 6031 007a 2B4B     		ldr	r3, .L404+16
 6032 007c 1B68     		ldr	r3, [r3]
 6033 007e 2F22     		movs	r2, #47
 6034 0080 9B5C     		ldrb	r3, [r3, r2]
 6035 0082 012B     		cmp	r3, #1
 6036 0084 42D1     		bne	.L398
2468:Generated_Source\PSoC6\pdl\drivers\peripheral\prot/cy_prot.c ****     {
2469:Generated_Source\PSoC6\pdl\drivers\peripheral\prot/cy_prot.c ****         if(((uint32_t)config->pcMask & CY_PROT_PPU_FIXED_PC_LIMIT_MASK) != 0UL) 
 6037              		.loc 1 2469 0
 6038 0086 3B68     		ldr	r3, [r7]
 6039 0088 9B88     		ldrh	r3, [r3, #4]
 6040 008a 1A00     		movs	r2, r3
 6041 008c 7F23     		movs	r3, #127
 6042 008e 9A43     		bics	r2, r3
 6043 0090 131E     		subs	r3, r2, #0
 6044 0092 02D0     		beq	.L399
2470:Generated_Source\PSoC6\pdl\drivers\peripheral\prot/cy_prot.c ****         {
2471:Generated_Source\PSoC6\pdl\drivers\peripheral\prot/cy_prot.c ****             /* PC mask out of range - not supported in device */
2472:Generated_Source\PSoC6\pdl\drivers\peripheral\prot/cy_prot.c ****             status = CY_PROT_BAD_PARAM;
 6045              		.loc 1 2472 0
 6046 0094 254B     		ldr	r3, .L404+20
 6047 0096 FB60     		str	r3, [r7, #12]
 6048 0098 38E0     		b	.L398
 6049              	.L399:
ARM GAS  C:\Users\JC\AppData\Local\Temp\ccU1E72d.s 			page 152


2473:Generated_Source\PSoC6\pdl\drivers\peripheral\prot/cy_prot.c ****         }
2474:Generated_Source\PSoC6\pdl\drivers\peripheral\prot/cy_prot.c ****         else
2475:Generated_Source\PSoC6\pdl\drivers\peripheral\prot/cy_prot.c ****         {
2476:Generated_Source\PSoC6\pdl\drivers\peripheral\prot/cy_prot.c ****             /* ADDR1 is read only. Only configure ATT1 */
2477:Generated_Source\PSoC6\pdl\drivers\peripheral\prot/cy_prot.c ****             attReg = ((uint32_t)config->userPermission & CY_PROT_ATT_PERMISSION_MASK)
 6050              		.loc 1 2477 0
 6051 009a 3B68     		ldr	r3, [r7]
 6052 009c 1B78     		ldrb	r3, [r3]
 6053 009e 1A00     		movs	r2, r3
 6054 00a0 0723     		movs	r3, #7
 6055 00a2 1A40     		ands	r2, r3
2478:Generated_Source\PSoC6\pdl\drivers\peripheral\prot/cy_prot.c ****                         | (uint32_t)(((uint32_t)config->privPermission & CY_PROT_ATT_PERMISSION_MAS
 6056              		.loc 1 2478 0
 6057 00a4 3B68     		ldr	r3, [r7]
 6058 00a6 5B78     		ldrb	r3, [r3, #1]
 6059 00a8 DB00     		lsls	r3, r3, #3
 6060 00aa 3821     		movs	r1, #56
 6061 00ac 0B40     		ands	r3, r1
 6062 00ae 1A43     		orrs	r2, r3
2479:Generated_Source\PSoC6\pdl\drivers\peripheral\prot/cy_prot.c ****                         | _VAL2FLD(PERI_GR_PPU_RG_ATT1_NS, !(config->secure))
 6063              		.loc 1 2479 0
 6064 00b0 3B68     		ldr	r3, [r7]
 6065 00b2 9B78     		ldrb	r3, [r3, #2]
 6066 00b4 0121     		movs	r1, #1
 6067 00b6 4B40     		eors	r3, r1
 6068 00b8 DBB2     		uxtb	r3, r3
 6069 00ba 9B01     		lsls	r3, r3, #6
 6070 00bc 4021     		movs	r1, #64
 6071 00be 0B40     		ands	r3, r1
 6072 00c0 1A43     		orrs	r2, r3
2480:Generated_Source\PSoC6\pdl\drivers\peripheral\prot/cy_prot.c ****                         | _VAL2FLD(PERI_GR_PPU_RG_ATT1_PC_MASK_15_TO_1, config->pcMask)
 6073              		.loc 1 2480 0
 6074 00c2 3B68     		ldr	r3, [r7]
 6075 00c4 9B88     		ldrh	r3, [r3, #4]
 6076 00c6 5B02     		lsls	r3, r3, #9
 6077 00c8 1949     		ldr	r1, .L404+24
 6078 00ca 0B40     		ands	r3, r1
 6079 00cc 1A43     		orrs	r2, r3
2481:Generated_Source\PSoC6\pdl\drivers\peripheral\prot/cy_prot.c ****                         /* No region size - read only for master structs */
2482:Generated_Source\PSoC6\pdl\drivers\peripheral\prot/cy_prot.c ****                         | _VAL2FLD(PERI_GR_PPU_RG_ATT1_PC_MATCH, config->pcMatch);
 6080              		.loc 1 2482 0
 6081 00ce 3B68     		ldr	r3, [r7]
 6082 00d0 DB78     		ldrb	r3, [r3, #3]
 6083 00d2 9907     		lsls	r1, r3, #30
 6084 00d4 8023     		movs	r3, #128
 6085 00d6 DB05     		lsls	r3, r3, #23
 6086 00d8 0B40     		ands	r3, r1
2477:Generated_Source\PSoC6\pdl\drivers\peripheral\prot/cy_prot.c ****                         | (uint32_t)(((uint32_t)config->privPermission & CY_PROT_ATT_PERMISSION_MAS
 6087              		.loc 1 2477 0
 6088 00da 1343     		orrs	r3, r2
 6089 00dc BB60     		str	r3, [r7, #8]
2483:Generated_Source\PSoC6\pdl\drivers\peripheral\prot/cy_prot.c ****             if ((attReg & CY_PROT_PPU_RG_ATT1_MASK) != attReg)
 6090              		.loc 1 2483 0
 6091 00de BB68     		ldr	r3, [r7, #8]
 6092 00e0 144A     		ldr	r2, .L404+28
 6093 00e2 1A40     		ands	r2, r3
 6094 00e4 BB68     		ldr	r3, [r7, #8]
ARM GAS  C:\Users\JC\AppData\Local\Temp\ccU1E72d.s 			page 153


 6095 00e6 9A42     		cmp	r2, r3
 6096 00e8 02D0     		beq	.L400
2484:Generated_Source\PSoC6\pdl\drivers\peripheral\prot/cy_prot.c ****             {
2485:Generated_Source\PSoC6\pdl\drivers\peripheral\prot/cy_prot.c ****                 /* Invalid parameter was passed */
2486:Generated_Source\PSoC6\pdl\drivers\peripheral\prot/cy_prot.c ****                 status = CY_PROT_BAD_PARAM;
 6097              		.loc 1 2486 0
 6098 00ea 104B     		ldr	r3, .L404+20
 6099 00ec FB60     		str	r3, [r7, #12]
 6100 00ee 0DE0     		b	.L398
 6101              	.L400:
2487:Generated_Source\PSoC6\pdl\drivers\peripheral\prot/cy_prot.c ****             }
2488:Generated_Source\PSoC6\pdl\drivers\peripheral\prot/cy_prot.c ****             else
2489:Generated_Source\PSoC6\pdl\drivers\peripheral\prot/cy_prot.c ****             {
2490:Generated_Source\PSoC6\pdl\drivers\peripheral\prot/cy_prot.c ****                 PERI_GR_PPU_RG_ATT1(base) = attReg;
 6102              		.loc 1 2490 0
 6103 00f0 7B68     		ldr	r3, [r7, #4]
 6104 00f2 BA68     		ldr	r2, [r7, #8]
 6105 00f4 5A62     		str	r2, [r3, #36]
2491:Generated_Source\PSoC6\pdl\drivers\peripheral\prot/cy_prot.c ****                 status = ((PERI_GR_PPU_RG_ATT1(base) & CY_PROT_PPU_RG_ATT1_MASK) != attReg) ? CY_PR
 6106              		.loc 1 2491 0
 6107 00f6 7B68     		ldr	r3, [r7, #4]
 6108 00f8 5B6A     		ldr	r3, [r3, #36]
 6109 00fa 0E4A     		ldr	r2, .L404+28
 6110 00fc 1A40     		ands	r2, r3
 6111 00fe BB68     		ldr	r3, [r7, #8]
 6112 0100 9A42     		cmp	r2, r3
 6113 0102 01D0     		beq	.L401
 6114              		.loc 1 2491 0 is_stmt 0 discriminator 1
 6115 0104 0C4B     		ldr	r3, .L404+32
 6116 0106 00E0     		b	.L402
 6117              	.L401:
 6118              		.loc 1 2491 0 discriminator 2
 6119 0108 0023     		movs	r3, #0
 6120              	.L402:
 6121              		.loc 1 2491 0 discriminator 4
 6122 010a FB60     		str	r3, [r7, #12]
 6123              	.L398:
2492:Generated_Source\PSoC6\pdl\drivers\peripheral\prot/cy_prot.c ****             }
2493:Generated_Source\PSoC6\pdl\drivers\peripheral\prot/cy_prot.c ****         }
2494:Generated_Source\PSoC6\pdl\drivers\peripheral\prot/cy_prot.c ****     }
2495:Generated_Source\PSoC6\pdl\drivers\peripheral\prot/cy_prot.c **** 
2496:Generated_Source\PSoC6\pdl\drivers\peripheral\prot/cy_prot.c ****     return status;
 6124              		.loc 1 2496 0 is_stmt 1
 6125 010c FB68     		ldr	r3, [r7, #12]
2497:Generated_Source\PSoC6\pdl\drivers\peripheral\prot/cy_prot.c **** }
 6126              		.loc 1 2497 0
 6127 010e 1800     		movs	r0, r3
 6128 0110 BD46     		mov	sp, r7
 6129 0112 04B0     		add	sp, sp, #16
 6130              		@ sp needed
 6131 0114 80BD     		pop	{r7, pc}
 6132              	.L405:
 6133 0116 C046     		.align	2
 6134              	.L404:
 6135 0118 0200C200 		.word	12713986
 6136 011c 9F090000 		.word	2463
 6137 0120 00000000 		.word	.LC1
ARM GAS  C:\Users\JC\AppData\Local\Temp\ccU1E72d.s 			page 154


 6138 0124 A1090000 		.word	2465
 6139 0128 00000000 		.word	cy_device
 6140 012c 0100C200 		.word	12713985
 6141 0130 00FEFF00 		.word	16776704
 6142 0134 DBFEFFE0 		.word	-520093989
 6143 0138 0300C200 		.word	12713987
 6144              		.cfi_endproc
 6145              	.LFE87:
 6146              		.size	Cy_Prot_ConfigPpuFixedRgMasterStruct, .-Cy_Prot_ConfigPpuFixedRgMasterStruct
 6147              		.section	.text.Cy_Prot_ConfigPpuFixedRgSlaveStruct,"ax",%progbits
 6148              		.align	2
 6149              		.global	Cy_Prot_ConfigPpuFixedRgSlaveStruct
 6150              		.code	16
 6151              		.thumb_func
 6152              		.type	Cy_Prot_ConfigPpuFixedRgSlaveStruct, %function
 6153              	Cy_Prot_ConfigPpuFixedRgSlaveStruct:
 6154              	.LFB88:
2498:Generated_Source\PSoC6\pdl\drivers\peripheral\prot/cy_prot.c **** 
2499:Generated_Source\PSoC6\pdl\drivers\peripheral\prot/cy_prot.c **** 
2500:Generated_Source\PSoC6\pdl\drivers\peripheral\prot/cy_prot.c **** /*******************************************************************************
2501:Generated_Source\PSoC6\pdl\drivers\peripheral\prot/cy_prot.c **** * Function Name: Cy_Prot_ConfigPpuFixedRgSlaveStruct
2502:Generated_Source\PSoC6\pdl\drivers\peripheral\prot/cy_prot.c **** ****************************************************************************//**
2503:Generated_Source\PSoC6\pdl\drivers\peripheral\prot/cy_prot.c **** *
2504:Generated_Source\PSoC6\pdl\drivers\peripheral\prot/cy_prot.c **** * Configures a Fixed Peripheral Region Protection Unit (PPU RG) slave
2505:Generated_Source\PSoC6\pdl\drivers\peripheral\prot/cy_prot.c **** * protection struct with its protection attributes. 
2506:Generated_Source\PSoC6\pdl\drivers\peripheral\prot/cy_prot.c **** * 
2507:Generated_Source\PSoC6\pdl\drivers\peripheral\prot/cy_prot.c **** * This function configures the slave struct of a PPU RG pair, which can 
2508:Generated_Source\PSoC6\pdl\drivers\peripheral\prot/cy_prot.c **** * protect specified regions of peripheral instances. For example, individual
2509:Generated_Source\PSoC6\pdl\drivers\peripheral\prot/cy_prot.c **** * DW channel structs, SMPU structs, and IPC structs etc.
2510:Generated_Source\PSoC6\pdl\drivers\peripheral\prot/cy_prot.c **** *
2511:Generated_Source\PSoC6\pdl\drivers\peripheral\prot/cy_prot.c **** * Each fixed PPU RG is devoted to a defined peripheral region. Hence the address, 
2512:Generated_Source\PSoC6\pdl\drivers\peripheral\prot/cy_prot.c **** * regionSize and subregions of the configuration struct are not applicable.
2513:Generated_Source\PSoC6\pdl\drivers\peripheral\prot/cy_prot.c **** *
2514:Generated_Source\PSoC6\pdl\drivers\peripheral\prot/cy_prot.c **** * Note that the user/privileged execute accesses are read-only and are always 
2515:Generated_Source\PSoC6\pdl\drivers\peripheral\prot/cy_prot.c **** * enabled. 
2516:Generated_Source\PSoC6\pdl\drivers\peripheral\prot/cy_prot.c **** *
2517:Generated_Source\PSoC6\pdl\drivers\peripheral\prot/cy_prot.c **** * \note This function is applicable for CPUSS ver_1 only.
2518:Generated_Source\PSoC6\pdl\drivers\peripheral\prot/cy_prot.c **** *
2519:Generated_Source\PSoC6\pdl\drivers\peripheral\prot/cy_prot.c **** * \param base
2520:Generated_Source\PSoC6\pdl\drivers\peripheral\prot/cy_prot.c **** * The register base address of the protection structure being configured.
2521:Generated_Source\PSoC6\pdl\drivers\peripheral\prot/cy_prot.c **** * 
2522:Generated_Source\PSoC6\pdl\drivers\peripheral\prot/cy_prot.c **** * \param config
2523:Generated_Source\PSoC6\pdl\drivers\peripheral\prot/cy_prot.c **** * Initialization structure with all the protection attributes.
2524:Generated_Source\PSoC6\pdl\drivers\peripheral\prot/cy_prot.c **** * 
2525:Generated_Source\PSoC6\pdl\drivers\peripheral\prot/cy_prot.c **** * \return
2526:Generated_Source\PSoC6\pdl\drivers\peripheral\prot/cy_prot.c **** * Status of the function call.
2527:Generated_Source\PSoC6\pdl\drivers\peripheral\prot/cy_prot.c **** *
2528:Generated_Source\PSoC6\pdl\drivers\peripheral\prot/cy_prot.c **** *   Status                | Description
2529:Generated_Source\PSoC6\pdl\drivers\peripheral\prot/cy_prot.c **** *   ------------          | -----------
2530:Generated_Source\PSoC6\pdl\drivers\peripheral\prot/cy_prot.c **** *   CY_PROT_SUCCESS       | PPU RG slave struct was successfully configured.
2531:Generated_Source\PSoC6\pdl\drivers\peripheral\prot/cy_prot.c **** *   CY_PROT_FAILURE       | The resource is locked.
2532:Generated_Source\PSoC6\pdl\drivers\peripheral\prot/cy_prot.c **** *   CY_PROT_BAD_PARAM     | An incorrect/invalid parameter was passed.
2533:Generated_Source\PSoC6\pdl\drivers\peripheral\prot/cy_prot.c **** *   CY_PROT_INVALID_STATE | The function was called on the device with an unsupported PERI HW versi
2534:Generated_Source\PSoC6\pdl\drivers\peripheral\prot/cy_prot.c **** *
2535:Generated_Source\PSoC6\pdl\drivers\peripheral\prot/cy_prot.c **** * \funcusage
2536:Generated_Source\PSoC6\pdl\drivers\peripheral\prot/cy_prot.c **** * \snippet prot/1.20/snippet/main.c snippet_Cy_Prot_ConfigPpuFixedRgSlaveStruct
2537:Generated_Source\PSoC6\pdl\drivers\peripheral\prot/cy_prot.c **** *
ARM GAS  C:\Users\JC\AppData\Local\Temp\ccU1E72d.s 			page 155


2538:Generated_Source\PSoC6\pdl\drivers\peripheral\prot/cy_prot.c **** *******************************************************************************/
2539:Generated_Source\PSoC6\pdl\drivers\peripheral\prot/cy_prot.c **** cy_en_prot_status_t Cy_Prot_ConfigPpuFixedRgSlaveStruct(PERI_GR_PPU_RG_Type* base, const cy_stc_ppu
2540:Generated_Source\PSoC6\pdl\drivers\peripheral\prot/cy_prot.c **** {
 6155              		.loc 1 2540 0
 6156              		.cfi_startproc
 6157              		@ args = 0, pretend = 0, frame = 16
 6158              		@ frame_needed = 1, uses_anonymous_args = 0
 6159 0000 80B5     		push	{r7, lr}
 6160              		.cfi_def_cfa_offset 8
 6161              		.cfi_offset 7, -8
 6162              		.cfi_offset 14, -4
 6163 0002 84B0     		sub	sp, sp, #16
 6164              		.cfi_def_cfa_offset 24
 6165 0004 00AF     		add	r7, sp, #0
 6166              		.cfi_def_cfa_register 7
 6167 0006 7860     		str	r0, [r7, #4]
 6168 0008 3960     		str	r1, [r7]
2541:Generated_Source\PSoC6\pdl\drivers\peripheral\prot/cy_prot.c ****     cy_en_prot_status_t status = CY_PROT_INVALID_STATE;
 6169              		.loc 1 2541 0
 6170 000a 434B     		ldr	r3, .L416
 6171 000c FB60     		str	r3, [r7, #12]
2542:Generated_Source\PSoC6\pdl\drivers\peripheral\prot/cy_prot.c ****     uint32_t attReg;
2543:Generated_Source\PSoC6\pdl\drivers\peripheral\prot/cy_prot.c ****     
2544:Generated_Source\PSoC6\pdl\drivers\peripheral\prot/cy_prot.c ****     CY_ASSERT_L1(NULL != base);
 6172              		.loc 1 2544 0
 6173 000e 7B68     		ldr	r3, [r7, #4]
 6174 0010 002B     		cmp	r3, #0
 6175 0012 06D1     		bne	.L407
 6176              		.loc 1 2544 0 is_stmt 0 discriminator 1
 6177 0014 9F23     		movs	r3, #159
 6178 0016 1A01     		lsls	r2, r3, #4
 6179 0018 404B     		ldr	r3, .L416+4
 6180 001a 1100     		movs	r1, r2
 6181 001c 1800     		movs	r0, r3
 6182 001e FFF7FEFF 		bl	Cy_SysLib_AssertFailed
 6183              	.L407:
2545:Generated_Source\PSoC6\pdl\drivers\peripheral\prot/cy_prot.c ****     CY_ASSERT_L3(CY_PROT_IS_FIXED_SL_PERM_VALID(config->userPermission));
 6184              		.loc 1 2545 0 is_stmt 1
 6185 0022 3B68     		ldr	r3, [r7]
 6186 0024 1B78     		ldrb	r3, [r3]
 6187 0026 002B     		cmp	r3, #0
 6188 0028 11D0     		beq	.L408
 6189              		.loc 1 2545 0 is_stmt 0 discriminator 1
 6190 002a 3B68     		ldr	r3, [r7]
 6191 002c 1B78     		ldrb	r3, [r3]
 6192 002e 012B     		cmp	r3, #1
 6193 0030 0DD0     		beq	.L408
 6194              		.loc 1 2545 0 discriminator 2
 6195 0032 3B68     		ldr	r3, [r7]
 6196 0034 1B78     		ldrb	r3, [r3]
 6197 0036 022B     		cmp	r3, #2
 6198 0038 09D0     		beq	.L408
 6199              		.loc 1 2545 0 discriminator 3
 6200 003a 3B68     		ldr	r3, [r7]
 6201 003c 1B78     		ldrb	r3, [r3]
 6202 003e 032B     		cmp	r3, #3
 6203 0040 05D0     		beq	.L408
ARM GAS  C:\Users\JC\AppData\Local\Temp\ccU1E72d.s 			page 156


 6204              		.loc 1 2545 0 discriminator 4
 6205 0042 374A     		ldr	r2, .L416+8
 6206 0044 354B     		ldr	r3, .L416+4
 6207 0046 1100     		movs	r1, r2
 6208 0048 1800     		movs	r0, r3
 6209 004a FFF7FEFF 		bl	Cy_SysLib_AssertFailed
 6210              	.L408:
2546:Generated_Source\PSoC6\pdl\drivers\peripheral\prot/cy_prot.c ****     CY_ASSERT_L3(CY_PROT_IS_FIXED_SL_PERM_VALID(config->privPermission));
 6211              		.loc 1 2546 0 is_stmt 1
 6212 004e 3B68     		ldr	r3, [r7]
 6213 0050 5B78     		ldrb	r3, [r3, #1]
 6214 0052 002B     		cmp	r3, #0
 6215 0054 11D0     		beq	.L409
 6216              		.loc 1 2546 0 is_stmt 0 discriminator 1
 6217 0056 3B68     		ldr	r3, [r7]
 6218 0058 5B78     		ldrb	r3, [r3, #1]
 6219 005a 012B     		cmp	r3, #1
 6220 005c 0DD0     		beq	.L409
 6221              		.loc 1 2546 0 discriminator 2
 6222 005e 3B68     		ldr	r3, [r7]
 6223 0060 5B78     		ldrb	r3, [r3, #1]
 6224 0062 022B     		cmp	r3, #2
 6225 0064 09D0     		beq	.L409
 6226              		.loc 1 2546 0 discriminator 3
 6227 0066 3B68     		ldr	r3, [r7]
 6228 0068 5B78     		ldrb	r3, [r3, #1]
 6229 006a 032B     		cmp	r3, #3
 6230 006c 05D0     		beq	.L409
 6231              		.loc 1 2546 0 discriminator 4
 6232 006e 2D4A     		ldr	r2, .L416+12
 6233 0070 2A4B     		ldr	r3, .L416+4
 6234 0072 1100     		movs	r1, r2
 6235 0074 1800     		movs	r0, r3
 6236 0076 FFF7FEFF 		bl	Cy_SysLib_AssertFailed
 6237              	.L409:
2547:Generated_Source\PSoC6\pdl\drivers\peripheral\prot/cy_prot.c ****     
2548:Generated_Source\PSoC6\pdl\drivers\peripheral\prot/cy_prot.c ****     if (CY_PERI_V1)
 6238              		.loc 1 2548 0 is_stmt 1
 6239 007a 2B4B     		ldr	r3, .L416+16
 6240 007c 1B68     		ldr	r3, [r3]
 6241 007e 2F22     		movs	r2, #47
 6242 0080 9B5C     		ldrb	r3, [r3, r2]
 6243 0082 012B     		cmp	r3, #1
 6244 0084 42D1     		bne	.L410
2549:Generated_Source\PSoC6\pdl\drivers\peripheral\prot/cy_prot.c ****     {
2550:Generated_Source\PSoC6\pdl\drivers\peripheral\prot/cy_prot.c ****         if(((uint32_t)config->pcMask & CY_PROT_PPU_FIXED_PC_LIMIT_MASK) != 0UL) 
 6245              		.loc 1 2550 0
 6246 0086 3B68     		ldr	r3, [r7]
 6247 0088 9B88     		ldrh	r3, [r3, #4]
 6248 008a 1A00     		movs	r2, r3
 6249 008c 7F23     		movs	r3, #127
 6250 008e 9A43     		bics	r2, r3
 6251 0090 131E     		subs	r3, r2, #0
 6252 0092 02D0     		beq	.L411
2551:Generated_Source\PSoC6\pdl\drivers\peripheral\prot/cy_prot.c ****         {
2552:Generated_Source\PSoC6\pdl\drivers\peripheral\prot/cy_prot.c ****             /* PC mask out of range - not supported in device */
2553:Generated_Source\PSoC6\pdl\drivers\peripheral\prot/cy_prot.c ****             status = CY_PROT_BAD_PARAM;
ARM GAS  C:\Users\JC\AppData\Local\Temp\ccU1E72d.s 			page 157


 6253              		.loc 1 2553 0
 6254 0094 254B     		ldr	r3, .L416+20
 6255 0096 FB60     		str	r3, [r7, #12]
 6256 0098 38E0     		b	.L410
 6257              	.L411:
2554:Generated_Source\PSoC6\pdl\drivers\peripheral\prot/cy_prot.c ****         }
2555:Generated_Source\PSoC6\pdl\drivers\peripheral\prot/cy_prot.c ****         else
2556:Generated_Source\PSoC6\pdl\drivers\peripheral\prot/cy_prot.c ****         {
2557:Generated_Source\PSoC6\pdl\drivers\peripheral\prot/cy_prot.c ****             /* ADDR0 is read only. Only configure ATT0 */
2558:Generated_Source\PSoC6\pdl\drivers\peripheral\prot/cy_prot.c ****             attReg = ((uint32_t)config->userPermission & CY_PROT_ATT_PERMISSION_MASK)
 6258              		.loc 1 2558 0
 6259 009a 3B68     		ldr	r3, [r7]
 6260 009c 1B78     		ldrb	r3, [r3]
 6261 009e 1A00     		movs	r2, r3
 6262 00a0 0723     		movs	r3, #7
 6263 00a2 1A40     		ands	r2, r3
2559:Generated_Source\PSoC6\pdl\drivers\peripheral\prot/cy_prot.c ****                         | (uint32_t)(((uint32_t)config->privPermission & CY_PROT_ATT_PERMISSION_MAS
 6264              		.loc 1 2559 0
 6265 00a4 3B68     		ldr	r3, [r7]
 6266 00a6 5B78     		ldrb	r3, [r3, #1]
 6267 00a8 DB00     		lsls	r3, r3, #3
 6268 00aa 3821     		movs	r1, #56
 6269 00ac 0B40     		ands	r3, r1
 6270 00ae 1A43     		orrs	r2, r3
2560:Generated_Source\PSoC6\pdl\drivers\peripheral\prot/cy_prot.c ****                         | _VAL2FLD(PERI_GR_PPU_RG_ATT0_NS, !(config->secure))
 6271              		.loc 1 2560 0
 6272 00b0 3B68     		ldr	r3, [r7]
 6273 00b2 9B78     		ldrb	r3, [r3, #2]
 6274 00b4 0121     		movs	r1, #1
 6275 00b6 4B40     		eors	r3, r1
 6276 00b8 DBB2     		uxtb	r3, r3
 6277 00ba 9B01     		lsls	r3, r3, #6
 6278 00bc 4021     		movs	r1, #64
 6279 00be 0B40     		ands	r3, r1
 6280 00c0 1A43     		orrs	r2, r3
2561:Generated_Source\PSoC6\pdl\drivers\peripheral\prot/cy_prot.c ****                         | _VAL2FLD(PERI_GR_PPU_RG_ATT0_PC_MASK_15_TO_1, config->pcMask)
 6281              		.loc 1 2561 0
 6282 00c2 3B68     		ldr	r3, [r7]
 6283 00c4 9B88     		ldrh	r3, [r3, #4]
 6284 00c6 5B02     		lsls	r3, r3, #9
 6285 00c8 1949     		ldr	r1, .L416+24
 6286 00ca 0B40     		ands	r3, r1
 6287 00cc 1A43     		orrs	r2, r3
2562:Generated_Source\PSoC6\pdl\drivers\peripheral\prot/cy_prot.c ****                         /* No region size - read only */
2563:Generated_Source\PSoC6\pdl\drivers\peripheral\prot/cy_prot.c ****                         | _VAL2FLD(PERI_GR_PPU_RG_ATT0_PC_MATCH, config->pcMatch);
 6288              		.loc 1 2563 0
 6289 00ce 3B68     		ldr	r3, [r7]
 6290 00d0 DB78     		ldrb	r3, [r3, #3]
 6291 00d2 9907     		lsls	r1, r3, #30
 6292 00d4 8023     		movs	r3, #128
 6293 00d6 DB05     		lsls	r3, r3, #23
 6294 00d8 0B40     		ands	r3, r1
2558:Generated_Source\PSoC6\pdl\drivers\peripheral\prot/cy_prot.c ****                         | (uint32_t)(((uint32_t)config->privPermission & CY_PROT_ATT_PERMISSION_MAS
 6295              		.loc 1 2558 0
 6296 00da 1343     		orrs	r3, r2
 6297 00dc BB60     		str	r3, [r7, #8]
2564:Generated_Source\PSoC6\pdl\drivers\peripheral\prot/cy_prot.c ****             if ((attReg & CY_PROT_PPU_RG_ATT0_MASK) != attReg)
ARM GAS  C:\Users\JC\AppData\Local\Temp\ccU1E72d.s 			page 158


 6298              		.loc 1 2564 0
 6299 00de BB68     		ldr	r3, [r7, #8]
 6300 00e0 144A     		ldr	r2, .L416+28
 6301 00e2 1A40     		ands	r2, r3
 6302 00e4 BB68     		ldr	r3, [r7, #8]
 6303 00e6 9A42     		cmp	r2, r3
 6304 00e8 02D0     		beq	.L412
2565:Generated_Source\PSoC6\pdl\drivers\peripheral\prot/cy_prot.c ****             {
2566:Generated_Source\PSoC6\pdl\drivers\peripheral\prot/cy_prot.c ****                 /* Invalid parameter was passed */
2567:Generated_Source\PSoC6\pdl\drivers\peripheral\prot/cy_prot.c ****                 status = CY_PROT_BAD_PARAM;
 6305              		.loc 1 2567 0
 6306 00ea 104B     		ldr	r3, .L416+20
 6307 00ec FB60     		str	r3, [r7, #12]
 6308 00ee 0DE0     		b	.L410
 6309              	.L412:
2568:Generated_Source\PSoC6\pdl\drivers\peripheral\prot/cy_prot.c ****             }
2569:Generated_Source\PSoC6\pdl\drivers\peripheral\prot/cy_prot.c ****             else
2570:Generated_Source\PSoC6\pdl\drivers\peripheral\prot/cy_prot.c ****             {
2571:Generated_Source\PSoC6\pdl\drivers\peripheral\prot/cy_prot.c ****                 PERI_GR_PPU_RG_ATT0(base) = attReg;
 6310              		.loc 1 2571 0
 6311 00f0 7B68     		ldr	r3, [r7, #4]
 6312 00f2 BA68     		ldr	r2, [r7, #8]
 6313 00f4 5A60     		str	r2, [r3, #4]
2572:Generated_Source\PSoC6\pdl\drivers\peripheral\prot/cy_prot.c ****                 status = ((PERI_GR_PPU_RG_ATT0(base) & CY_PROT_PPU_RG_ATT0_MASK) != attReg) ? CY_PR
 6314              		.loc 1 2572 0
 6315 00f6 7B68     		ldr	r3, [r7, #4]
 6316 00f8 5B68     		ldr	r3, [r3, #4]
 6317 00fa 0E4A     		ldr	r2, .L416+28
 6318 00fc 1A40     		ands	r2, r3
 6319 00fe BB68     		ldr	r3, [r7, #8]
 6320 0100 9A42     		cmp	r2, r3
 6321 0102 01D0     		beq	.L413
 6322              		.loc 1 2572 0 is_stmt 0 discriminator 1
 6323 0104 0C4B     		ldr	r3, .L416+32
 6324 0106 00E0     		b	.L414
 6325              	.L413:
 6326              		.loc 1 2572 0 discriminator 2
 6327 0108 0023     		movs	r3, #0
 6328              	.L414:
 6329              		.loc 1 2572 0 discriminator 4
 6330 010a FB60     		str	r3, [r7, #12]
 6331              	.L410:
2573:Generated_Source\PSoC6\pdl\drivers\peripheral\prot/cy_prot.c ****             }
2574:Generated_Source\PSoC6\pdl\drivers\peripheral\prot/cy_prot.c ****         }
2575:Generated_Source\PSoC6\pdl\drivers\peripheral\prot/cy_prot.c ****     }
2576:Generated_Source\PSoC6\pdl\drivers\peripheral\prot/cy_prot.c **** 
2577:Generated_Source\PSoC6\pdl\drivers\peripheral\prot/cy_prot.c ****     return status;
 6332              		.loc 1 2577 0 is_stmt 1
 6333 010c FB68     		ldr	r3, [r7, #12]
2578:Generated_Source\PSoC6\pdl\drivers\peripheral\prot/cy_prot.c **** }
 6334              		.loc 1 2578 0
 6335 010e 1800     		movs	r0, r3
 6336 0110 BD46     		mov	sp, r7
 6337 0112 04B0     		add	sp, sp, #16
 6338              		@ sp needed
 6339 0114 80BD     		pop	{r7, pc}
 6340              	.L417:
ARM GAS  C:\Users\JC\AppData\Local\Temp\ccU1E72d.s 			page 159


 6341 0116 C046     		.align	2
 6342              	.L416:
 6343 0118 0200C200 		.word	12713986
 6344 011c 00000000 		.word	.LC1
 6345 0120 F1090000 		.word	2545
 6346 0124 F2090000 		.word	2546
 6347 0128 00000000 		.word	cy_device
 6348 012c 0100C200 		.word	12713985
 6349 0130 00FEFF00 		.word	16776704
 6350 0134 DBFEFFE0 		.word	-520093989
 6351 0138 0300C200 		.word	12713987
 6352              		.cfi_endproc
 6353              	.LFE88:
 6354              		.size	Cy_Prot_ConfigPpuFixedRgSlaveStruct, .-Cy_Prot_ConfigPpuFixedRgSlaveStruct
 6355              		.section	.text.Cy_Prot_EnablePpuFixedRgMasterStruct,"ax",%progbits
 6356              		.align	2
 6357              		.global	Cy_Prot_EnablePpuFixedRgMasterStruct
 6358              		.code	16
 6359              		.thumb_func
 6360              		.type	Cy_Prot_EnablePpuFixedRgMasterStruct, %function
 6361              	Cy_Prot_EnablePpuFixedRgMasterStruct:
 6362              	.LFB89:
2579:Generated_Source\PSoC6\pdl\drivers\peripheral\prot/cy_prot.c **** 
2580:Generated_Source\PSoC6\pdl\drivers\peripheral\prot/cy_prot.c **** 
2581:Generated_Source\PSoC6\pdl\drivers\peripheral\prot/cy_prot.c **** /*******************************************************************************
2582:Generated_Source\PSoC6\pdl\drivers\peripheral\prot/cy_prot.c **** * Function Name: Cy_Prot_EnablePpuFixedRgMasterStruct
2583:Generated_Source\PSoC6\pdl\drivers\peripheral\prot/cy_prot.c **** ****************************************************************************//**
2584:Generated_Source\PSoC6\pdl\drivers\peripheral\prot/cy_prot.c **** *
2585:Generated_Source\PSoC6\pdl\drivers\peripheral\prot/cy_prot.c **** * Enables the Master PPU RG structure.
2586:Generated_Source\PSoC6\pdl\drivers\peripheral\prot/cy_prot.c **** *
2587:Generated_Source\PSoC6\pdl\drivers\peripheral\prot/cy_prot.c **** * This is a PPU RG master struct enable function. The PPU RG protection 
2588:Generated_Source\PSoC6\pdl\drivers\peripheral\prot/cy_prot.c **** * settings will take effect after successful completion of this function call.
2589:Generated_Source\PSoC6\pdl\drivers\peripheral\prot/cy_prot.c **** *
2590:Generated_Source\PSoC6\pdl\drivers\peripheral\prot/cy_prot.c **** * \note This function is applicable for CPUSS ver_1 only.
2591:Generated_Source\PSoC6\pdl\drivers\peripheral\prot/cy_prot.c **** *
2592:Generated_Source\PSoC6\pdl\drivers\peripheral\prot/cy_prot.c **** * \param base
2593:Generated_Source\PSoC6\pdl\drivers\peripheral\prot/cy_prot.c **** * The base address for the protection unit structure being configured. 
2594:Generated_Source\PSoC6\pdl\drivers\peripheral\prot/cy_prot.c **** *
2595:Generated_Source\PSoC6\pdl\drivers\peripheral\prot/cy_prot.c **** * \return
2596:Generated_Source\PSoC6\pdl\drivers\peripheral\prot/cy_prot.c **** * Status of the function call.
2597:Generated_Source\PSoC6\pdl\drivers\peripheral\prot/cy_prot.c **** *
2598:Generated_Source\PSoC6\pdl\drivers\peripheral\prot/cy_prot.c **** *   Status                | Description
2599:Generated_Source\PSoC6\pdl\drivers\peripheral\prot/cy_prot.c **** *   ------------          | -----------
2600:Generated_Source\PSoC6\pdl\drivers\peripheral\prot/cy_prot.c **** *   CY_PROT_SUCCESS       | The Master PU struct was enabled.
2601:Generated_Source\PSoC6\pdl\drivers\peripheral\prot/cy_prot.c **** *   CY_PROT_FAILURE       | The Master PU struct is disabled and possibly locked.
2602:Generated_Source\PSoC6\pdl\drivers\peripheral\prot/cy_prot.c **** *   CY_PROT_INVALID_STATE | The function was called on the device with an unsupported PERI HW versi
2603:Generated_Source\PSoC6\pdl\drivers\peripheral\prot/cy_prot.c **** *
2604:Generated_Source\PSoC6\pdl\drivers\peripheral\prot/cy_prot.c **** * \funcusage
2605:Generated_Source\PSoC6\pdl\drivers\peripheral\prot/cy_prot.c **** * \snippet prot/1.20/snippet/main.c snippet_Cy_Prot_EnablePpuFixedRgMasterStruct
2606:Generated_Source\PSoC6\pdl\drivers\peripheral\prot/cy_prot.c **** *
2607:Generated_Source\PSoC6\pdl\drivers\peripheral\prot/cy_prot.c **** *******************************************************************************/
2608:Generated_Source\PSoC6\pdl\drivers\peripheral\prot/cy_prot.c **** cy_en_prot_status_t Cy_Prot_EnablePpuFixedRgMasterStruct(PERI_GR_PPU_RG_Type* base)
2609:Generated_Source\PSoC6\pdl\drivers\peripheral\prot/cy_prot.c **** {
 6363              		.loc 1 2609 0
 6364              		.cfi_startproc
 6365              		@ args = 0, pretend = 0, frame = 16
 6366              		@ frame_needed = 1, uses_anonymous_args = 0
ARM GAS  C:\Users\JC\AppData\Local\Temp\ccU1E72d.s 			page 160


 6367 0000 80B5     		push	{r7, lr}
 6368              		.cfi_def_cfa_offset 8
 6369              		.cfi_offset 7, -8
 6370              		.cfi_offset 14, -4
 6371 0002 84B0     		sub	sp, sp, #16
 6372              		.cfi_def_cfa_offset 24
 6373 0004 00AF     		add	r7, sp, #0
 6374              		.cfi_def_cfa_register 7
 6375 0006 7860     		str	r0, [r7, #4]
2610:Generated_Source\PSoC6\pdl\drivers\peripheral\prot/cy_prot.c ****     cy_en_prot_status_t status = CY_PROT_INVALID_STATE;
 6376              		.loc 1 2610 0
 6377 0008 0F4B     		ldr	r3, .L423
 6378 000a FB60     		str	r3, [r7, #12]
2611:Generated_Source\PSoC6\pdl\drivers\peripheral\prot/cy_prot.c **** 
2612:Generated_Source\PSoC6\pdl\drivers\peripheral\prot/cy_prot.c ****     if (CY_PERI_V1)
 6379              		.loc 1 2612 0
 6380 000c 0F4B     		ldr	r3, .L423+4
 6381 000e 1B68     		ldr	r3, [r3]
 6382 0010 2F22     		movs	r2, #47
 6383 0012 9B5C     		ldrb	r3, [r3, r2]
 6384 0014 012B     		cmp	r3, #1
 6385 0016 11D1     		bne	.L419
2613:Generated_Source\PSoC6\pdl\drivers\peripheral\prot/cy_prot.c ****     {
2614:Generated_Source\PSoC6\pdl\drivers\peripheral\prot/cy_prot.c ****         PERI_GR_PPU_RG_ATT1(base) |= _VAL2FLD(PERI_GR_PPU_RG_ATT1_ENABLED, CY_PROT_STRUCT_ENABLE);
 6386              		.loc 1 2614 0
 6387 0018 7B68     		ldr	r3, [r7, #4]
 6388 001a 5B6A     		ldr	r3, [r3, #36]
 6389 001c 8022     		movs	r2, #128
 6390 001e 1206     		lsls	r2, r2, #24
 6391 0020 1A43     		orrs	r2, r3
 6392 0022 7B68     		ldr	r3, [r7, #4]
 6393 0024 5A62     		str	r2, [r3, #36]
2615:Generated_Source\PSoC6\pdl\drivers\peripheral\prot/cy_prot.c ****         status = (_FLD2VAL(PERI_GR_PPU_RG_ATT1_ENABLED, PERI_GR_PPU_RG_ATT1(base)) != CY_PROT_STRUC
 6394              		.loc 1 2615 0
 6395 0026 7B68     		ldr	r3, [r7, #4]
 6396 0028 5B6A     		ldr	r3, [r3, #36]
 6397 002a DB0F     		lsrs	r3, r3, #31
 6398 002c DB07     		lsls	r3, r3, #31
 6399 002e DB0F     		lsrs	r3, r3, #31
 6400 0030 012B     		cmp	r3, #1
 6401 0032 01D0     		beq	.L420
 6402              		.loc 1 2615 0 is_stmt 0 discriminator 1
 6403 0034 064B     		ldr	r3, .L423+8
 6404 0036 00E0     		b	.L421
 6405              	.L420:
 6406              		.loc 1 2615 0 discriminator 2
 6407 0038 0023     		movs	r3, #0
 6408              	.L421:
 6409              		.loc 1 2615 0 discriminator 4
 6410 003a FB60     		str	r3, [r7, #12]
 6411              	.L419:
2616:Generated_Source\PSoC6\pdl\drivers\peripheral\prot/cy_prot.c ****                     CY_PROT_FAILURE : CY_PROT_SUCCESS;
2617:Generated_Source\PSoC6\pdl\drivers\peripheral\prot/cy_prot.c ****     }
2618:Generated_Source\PSoC6\pdl\drivers\peripheral\prot/cy_prot.c **** 
2619:Generated_Source\PSoC6\pdl\drivers\peripheral\prot/cy_prot.c ****     return status;
 6412              		.loc 1 2619 0 is_stmt 1
 6413 003c FB68     		ldr	r3, [r7, #12]
ARM GAS  C:\Users\JC\AppData\Local\Temp\ccU1E72d.s 			page 161


2620:Generated_Source\PSoC6\pdl\drivers\peripheral\prot/cy_prot.c **** }
 6414              		.loc 1 2620 0
 6415 003e 1800     		movs	r0, r3
 6416 0040 BD46     		mov	sp, r7
 6417 0042 04B0     		add	sp, sp, #16
 6418              		@ sp needed
 6419 0044 80BD     		pop	{r7, pc}
 6420              	.L424:
 6421 0046 C046     		.align	2
 6422              	.L423:
 6423 0048 0200C200 		.word	12713986
 6424 004c 00000000 		.word	cy_device
 6425 0050 0300C200 		.word	12713987
 6426              		.cfi_endproc
 6427              	.LFE89:
 6428              		.size	Cy_Prot_EnablePpuFixedRgMasterStruct, .-Cy_Prot_EnablePpuFixedRgMasterStruct
 6429              		.section	.text.Cy_Prot_DisablePpuFixedRgMasterStruct,"ax",%progbits
 6430              		.align	2
 6431              		.global	Cy_Prot_DisablePpuFixedRgMasterStruct
 6432              		.code	16
 6433              		.thumb_func
 6434              		.type	Cy_Prot_DisablePpuFixedRgMasterStruct, %function
 6435              	Cy_Prot_DisablePpuFixedRgMasterStruct:
 6436              	.LFB90:
2621:Generated_Source\PSoC6\pdl\drivers\peripheral\prot/cy_prot.c **** 
2622:Generated_Source\PSoC6\pdl\drivers\peripheral\prot/cy_prot.c **** 
2623:Generated_Source\PSoC6\pdl\drivers\peripheral\prot/cy_prot.c **** /*******************************************************************************
2624:Generated_Source\PSoC6\pdl\drivers\peripheral\prot/cy_prot.c **** * Function Name: Cy_Prot_DisablePpuFixedRgMasterStruct
2625:Generated_Source\PSoC6\pdl\drivers\peripheral\prot/cy_prot.c **** ****************************************************************************//**
2626:Generated_Source\PSoC6\pdl\drivers\peripheral\prot/cy_prot.c **** *
2627:Generated_Source\PSoC6\pdl\drivers\peripheral\prot/cy_prot.c **** * Disables the Master PPU RG structure.
2628:Generated_Source\PSoC6\pdl\drivers\peripheral\prot/cy_prot.c **** *
2629:Generated_Source\PSoC6\pdl\drivers\peripheral\prot/cy_prot.c **** * This is a PPU RG master struct disable function. The PPU RG protection 
2630:Generated_Source\PSoC6\pdl\drivers\peripheral\prot/cy_prot.c **** * settings will seize to take effect after successful completion of this 
2631:Generated_Source\PSoC6\pdl\drivers\peripheral\prot/cy_prot.c **** * function call.
2632:Generated_Source\PSoC6\pdl\drivers\peripheral\prot/cy_prot.c **** *
2633:Generated_Source\PSoC6\pdl\drivers\peripheral\prot/cy_prot.c **** * \note This function is applicable for CPUSS ver_1 only.
2634:Generated_Source\PSoC6\pdl\drivers\peripheral\prot/cy_prot.c **** *
2635:Generated_Source\PSoC6\pdl\drivers\peripheral\prot/cy_prot.c **** * \param base
2636:Generated_Source\PSoC6\pdl\drivers\peripheral\prot/cy_prot.c **** * The base address for the protection unit structure being configured. 
2637:Generated_Source\PSoC6\pdl\drivers\peripheral\prot/cy_prot.c **** *
2638:Generated_Source\PSoC6\pdl\drivers\peripheral\prot/cy_prot.c **** * \return
2639:Generated_Source\PSoC6\pdl\drivers\peripheral\prot/cy_prot.c **** * Status of the function call.
2640:Generated_Source\PSoC6\pdl\drivers\peripheral\prot/cy_prot.c **** *
2641:Generated_Source\PSoC6\pdl\drivers\peripheral\prot/cy_prot.c **** *   Status                | Description
2642:Generated_Source\PSoC6\pdl\drivers\peripheral\prot/cy_prot.c **** *   ------------          | -----------
2643:Generated_Source\PSoC6\pdl\drivers\peripheral\prot/cy_prot.c **** *   CY_PROT_SUCCESS       | The Master PU struct was disabled.
2644:Generated_Source\PSoC6\pdl\drivers\peripheral\prot/cy_prot.c **** *   CY_PROT_FAILURE       | The Master PU struct is enabled and possibly locked.
2645:Generated_Source\PSoC6\pdl\drivers\peripheral\prot/cy_prot.c **** *   CY_PROT_INVALID_STATE | The function was called on the device with an unsupported PERI HW versi
2646:Generated_Source\PSoC6\pdl\drivers\peripheral\prot/cy_prot.c **** *
2647:Generated_Source\PSoC6\pdl\drivers\peripheral\prot/cy_prot.c **** * \funcusage
2648:Generated_Source\PSoC6\pdl\drivers\peripheral\prot/cy_prot.c **** * \snippet prot/1.20/snippet/main.c snippet_Cy_Prot_DisablePpuFixedRgMasterStruct
2649:Generated_Source\PSoC6\pdl\drivers\peripheral\prot/cy_prot.c **** *
2650:Generated_Source\PSoC6\pdl\drivers\peripheral\prot/cy_prot.c **** *******************************************************************************/
2651:Generated_Source\PSoC6\pdl\drivers\peripheral\prot/cy_prot.c **** cy_en_prot_status_t Cy_Prot_DisablePpuFixedRgMasterStruct(PERI_GR_PPU_RG_Type* base)
2652:Generated_Source\PSoC6\pdl\drivers\peripheral\prot/cy_prot.c **** {
 6437              		.loc 1 2652 0
ARM GAS  C:\Users\JC\AppData\Local\Temp\ccU1E72d.s 			page 162


 6438              		.cfi_startproc
 6439              		@ args = 0, pretend = 0, frame = 16
 6440              		@ frame_needed = 1, uses_anonymous_args = 0
 6441 0000 80B5     		push	{r7, lr}
 6442              		.cfi_def_cfa_offset 8
 6443              		.cfi_offset 7, -8
 6444              		.cfi_offset 14, -4
 6445 0002 84B0     		sub	sp, sp, #16
 6446              		.cfi_def_cfa_offset 24
 6447 0004 00AF     		add	r7, sp, #0
 6448              		.cfi_def_cfa_register 7
 6449 0006 7860     		str	r0, [r7, #4]
2653:Generated_Source\PSoC6\pdl\drivers\peripheral\prot/cy_prot.c ****     cy_en_prot_status_t status = CY_PROT_INVALID_STATE;
 6450              		.loc 1 2653 0
 6451 0008 0E4B     		ldr	r3, .L430
 6452 000a FB60     		str	r3, [r7, #12]
2654:Generated_Source\PSoC6\pdl\drivers\peripheral\prot/cy_prot.c ****     
2655:Generated_Source\PSoC6\pdl\drivers\peripheral\prot/cy_prot.c ****     if (CY_PERI_V1)
 6453              		.loc 1 2655 0
 6454 000c 0E4B     		ldr	r3, .L430+4
 6455 000e 1B68     		ldr	r3, [r3]
 6456 0010 2F22     		movs	r2, #47
 6457 0012 9B5C     		ldrb	r3, [r3, r2]
 6458 0014 012B     		cmp	r3, #1
 6459 0016 10D1     		bne	.L426
2656:Generated_Source\PSoC6\pdl\drivers\peripheral\prot/cy_prot.c ****     {
2657:Generated_Source\PSoC6\pdl\drivers\peripheral\prot/cy_prot.c ****         PERI_GR_PPU_RG_ATT1(base) &= ~_VAL2FLD(PERI_GR_PPU_RG_ATT1_ENABLED, CY_PROT_STRUCT_ENABLE);
 6460              		.loc 1 2657 0
 6461 0018 7B68     		ldr	r3, [r7, #4]
 6462 001a 5B6A     		ldr	r3, [r3, #36]
 6463 001c 5B00     		lsls	r3, r3, #1
 6464 001e 5A08     		lsrs	r2, r3, #1
 6465 0020 7B68     		ldr	r3, [r7, #4]
 6466 0022 5A62     		str	r2, [r3, #36]
2658:Generated_Source\PSoC6\pdl\drivers\peripheral\prot/cy_prot.c ****         status = (_FLD2VAL(PERI_GR_PPU_RG_ATT1_ENABLED, PERI_GR_PPU_RG_ATT1(base)) == CY_PROT_STRUC
 6467              		.loc 1 2658 0
 6468 0024 7B68     		ldr	r3, [r7, #4]
 6469 0026 5B6A     		ldr	r3, [r3, #36]
 6470 0028 DB0F     		lsrs	r3, r3, #31
 6471 002a DB07     		lsls	r3, r3, #31
 6472 002c DB0F     		lsrs	r3, r3, #31
 6473 002e 012B     		cmp	r3, #1
 6474 0030 01D1     		bne	.L427
 6475              		.loc 1 2658 0 is_stmt 0 discriminator 1
 6476 0032 064B     		ldr	r3, .L430+8
 6477 0034 00E0     		b	.L428
 6478              	.L427:
 6479              		.loc 1 2658 0 discriminator 2
 6480 0036 0023     		movs	r3, #0
 6481              	.L428:
 6482              		.loc 1 2658 0 discriminator 4
 6483 0038 FB60     		str	r3, [r7, #12]
 6484              	.L426:
2659:Generated_Source\PSoC6\pdl\drivers\peripheral\prot/cy_prot.c ****                     CY_PROT_FAILURE : CY_PROT_SUCCESS;
2660:Generated_Source\PSoC6\pdl\drivers\peripheral\prot/cy_prot.c ****     }
2661:Generated_Source\PSoC6\pdl\drivers\peripheral\prot/cy_prot.c **** 
2662:Generated_Source\PSoC6\pdl\drivers\peripheral\prot/cy_prot.c ****     return status;
ARM GAS  C:\Users\JC\AppData\Local\Temp\ccU1E72d.s 			page 163


 6485              		.loc 1 2662 0 is_stmt 1
 6486 003a FB68     		ldr	r3, [r7, #12]
2663:Generated_Source\PSoC6\pdl\drivers\peripheral\prot/cy_prot.c **** }
 6487              		.loc 1 2663 0
 6488 003c 1800     		movs	r0, r3
 6489 003e BD46     		mov	sp, r7
 6490 0040 04B0     		add	sp, sp, #16
 6491              		@ sp needed
 6492 0042 80BD     		pop	{r7, pc}
 6493              	.L431:
 6494              		.align	2
 6495              	.L430:
 6496 0044 0200C200 		.word	12713986
 6497 0048 00000000 		.word	cy_device
 6498 004c 0300C200 		.word	12713987
 6499              		.cfi_endproc
 6500              	.LFE90:
 6501              		.size	Cy_Prot_DisablePpuFixedRgMasterStruct, .-Cy_Prot_DisablePpuFixedRgMasterStruct
 6502              		.section	.text.Cy_Prot_EnablePpuFixedRgSlaveStruct,"ax",%progbits
 6503              		.align	2
 6504              		.global	Cy_Prot_EnablePpuFixedRgSlaveStruct
 6505              		.code	16
 6506              		.thumb_func
 6507              		.type	Cy_Prot_EnablePpuFixedRgSlaveStruct, %function
 6508              	Cy_Prot_EnablePpuFixedRgSlaveStruct:
 6509              	.LFB91:
2664:Generated_Source\PSoC6\pdl\drivers\peripheral\prot/cy_prot.c **** 
2665:Generated_Source\PSoC6\pdl\drivers\peripheral\prot/cy_prot.c **** 
2666:Generated_Source\PSoC6\pdl\drivers\peripheral\prot/cy_prot.c **** /*******************************************************************************
2667:Generated_Source\PSoC6\pdl\drivers\peripheral\prot/cy_prot.c **** * Function Name: Cy_Prot_EnablePpuFixedRgSlaveStruct
2668:Generated_Source\PSoC6\pdl\drivers\peripheral\prot/cy_prot.c **** ****************************************************************************//**
2669:Generated_Source\PSoC6\pdl\drivers\peripheral\prot/cy_prot.c **** *
2670:Generated_Source\PSoC6\pdl\drivers\peripheral\prot/cy_prot.c **** * Enables the Slave PPU RG structure.
2671:Generated_Source\PSoC6\pdl\drivers\peripheral\prot/cy_prot.c **** *
2672:Generated_Source\PSoC6\pdl\drivers\peripheral\prot/cy_prot.c **** * This is a PPU RG slave struct enable function. The PPU RG protection 
2673:Generated_Source\PSoC6\pdl\drivers\peripheral\prot/cy_prot.c **** * settings will take effect after successful completion of this function call.
2674:Generated_Source\PSoC6\pdl\drivers\peripheral\prot/cy_prot.c **** *
2675:Generated_Source\PSoC6\pdl\drivers\peripheral\prot/cy_prot.c **** * \note This function is applicable for CPUSS ver_1 only.
2676:Generated_Source\PSoC6\pdl\drivers\peripheral\prot/cy_prot.c **** *
2677:Generated_Source\PSoC6\pdl\drivers\peripheral\prot/cy_prot.c **** * \param base
2678:Generated_Source\PSoC6\pdl\drivers\peripheral\prot/cy_prot.c **** * The base address for the protection unit structure being configured. 
2679:Generated_Source\PSoC6\pdl\drivers\peripheral\prot/cy_prot.c **** *
2680:Generated_Source\PSoC6\pdl\drivers\peripheral\prot/cy_prot.c **** * \return
2681:Generated_Source\PSoC6\pdl\drivers\peripheral\prot/cy_prot.c **** * Status of the function call.
2682:Generated_Source\PSoC6\pdl\drivers\peripheral\prot/cy_prot.c **** *
2683:Generated_Source\PSoC6\pdl\drivers\peripheral\prot/cy_prot.c **** *   Status                | Description
2684:Generated_Source\PSoC6\pdl\drivers\peripheral\prot/cy_prot.c **** *   ------------          | -----------
2685:Generated_Source\PSoC6\pdl\drivers\peripheral\prot/cy_prot.c **** *   CY_PROT_SUCCESS       | The Slave PU struct was enabled.
2686:Generated_Source\PSoC6\pdl\drivers\peripheral\prot/cy_prot.c **** *   CY_PROT_FAILURE       | The Slave PU struct is disabled and possibly locked.
2687:Generated_Source\PSoC6\pdl\drivers\peripheral\prot/cy_prot.c **** *   CY_PROT_INVALID_STATE | The function was called on the device with an unsupported PERI HW versi
2688:Generated_Source\PSoC6\pdl\drivers\peripheral\prot/cy_prot.c **** *
2689:Generated_Source\PSoC6\pdl\drivers\peripheral\prot/cy_prot.c **** * \funcusage
2690:Generated_Source\PSoC6\pdl\drivers\peripheral\prot/cy_prot.c **** * \snippet prot/1.20/snippet/main.c snippet_Cy_Prot_EnablePpuFixedRgSlaveStruct
2691:Generated_Source\PSoC6\pdl\drivers\peripheral\prot/cy_prot.c **** *
2692:Generated_Source\PSoC6\pdl\drivers\peripheral\prot/cy_prot.c **** *******************************************************************************/
2693:Generated_Source\PSoC6\pdl\drivers\peripheral\prot/cy_prot.c **** cy_en_prot_status_t Cy_Prot_EnablePpuFixedRgSlaveStruct(PERI_GR_PPU_RG_Type* base)
2694:Generated_Source\PSoC6\pdl\drivers\peripheral\prot/cy_prot.c **** {   
ARM GAS  C:\Users\JC\AppData\Local\Temp\ccU1E72d.s 			page 164


 6510              		.loc 1 2694 0
 6511              		.cfi_startproc
 6512              		@ args = 0, pretend = 0, frame = 16
 6513              		@ frame_needed = 1, uses_anonymous_args = 0
 6514 0000 80B5     		push	{r7, lr}
 6515              		.cfi_def_cfa_offset 8
 6516              		.cfi_offset 7, -8
 6517              		.cfi_offset 14, -4
 6518 0002 84B0     		sub	sp, sp, #16
 6519              		.cfi_def_cfa_offset 24
 6520 0004 00AF     		add	r7, sp, #0
 6521              		.cfi_def_cfa_register 7
 6522 0006 7860     		str	r0, [r7, #4]
2695:Generated_Source\PSoC6\pdl\drivers\peripheral\prot/cy_prot.c ****     cy_en_prot_status_t status = CY_PROT_INVALID_STATE;
 6523              		.loc 1 2695 0
 6524 0008 0F4B     		ldr	r3, .L437
 6525 000a FB60     		str	r3, [r7, #12]
2696:Generated_Source\PSoC6\pdl\drivers\peripheral\prot/cy_prot.c ****     
2697:Generated_Source\PSoC6\pdl\drivers\peripheral\prot/cy_prot.c ****     if (CY_PERI_V1)
 6526              		.loc 1 2697 0
 6527 000c 0F4B     		ldr	r3, .L437+4
 6528 000e 1B68     		ldr	r3, [r3]
 6529 0010 2F22     		movs	r2, #47
 6530 0012 9B5C     		ldrb	r3, [r3, r2]
 6531 0014 012B     		cmp	r3, #1
 6532 0016 11D1     		bne	.L433
2698:Generated_Source\PSoC6\pdl\drivers\peripheral\prot/cy_prot.c ****     {
2699:Generated_Source\PSoC6\pdl\drivers\peripheral\prot/cy_prot.c ****         PERI_GR_PPU_RG_ATT0(base) |= _VAL2FLD(PERI_GR_PPU_RG_ATT0_ENABLED, CY_PROT_STRUCT_ENABLE);
 6533              		.loc 1 2699 0
 6534 0018 7B68     		ldr	r3, [r7, #4]
 6535 001a 5B68     		ldr	r3, [r3, #4]
 6536 001c 8022     		movs	r2, #128
 6537 001e 1206     		lsls	r2, r2, #24
 6538 0020 1A43     		orrs	r2, r3
 6539 0022 7B68     		ldr	r3, [r7, #4]
 6540 0024 5A60     		str	r2, [r3, #4]
2700:Generated_Source\PSoC6\pdl\drivers\peripheral\prot/cy_prot.c ****         status = (_FLD2VAL(PERI_GR_PPU_RG_ATT0_ENABLED, PERI_GR_PPU_RG_ATT0(base)) != CY_PROT_STRUC
 6541              		.loc 1 2700 0
 6542 0026 7B68     		ldr	r3, [r7, #4]
 6543 0028 5B68     		ldr	r3, [r3, #4]
 6544 002a DB0F     		lsrs	r3, r3, #31
 6545 002c DB07     		lsls	r3, r3, #31
 6546 002e DB0F     		lsrs	r3, r3, #31
 6547 0030 012B     		cmp	r3, #1
 6548 0032 01D0     		beq	.L434
 6549              		.loc 1 2700 0 is_stmt 0 discriminator 1
 6550 0034 064B     		ldr	r3, .L437+8
 6551 0036 00E0     		b	.L435
 6552              	.L434:
 6553              		.loc 1 2700 0 discriminator 2
 6554 0038 0023     		movs	r3, #0
 6555              	.L435:
 6556              		.loc 1 2700 0 discriminator 4
 6557 003a FB60     		str	r3, [r7, #12]
 6558              	.L433:
2701:Generated_Source\PSoC6\pdl\drivers\peripheral\prot/cy_prot.c ****                     CY_PROT_FAILURE : CY_PROT_SUCCESS;
2702:Generated_Source\PSoC6\pdl\drivers\peripheral\prot/cy_prot.c ****     }
ARM GAS  C:\Users\JC\AppData\Local\Temp\ccU1E72d.s 			page 165


2703:Generated_Source\PSoC6\pdl\drivers\peripheral\prot/cy_prot.c **** 
2704:Generated_Source\PSoC6\pdl\drivers\peripheral\prot/cy_prot.c ****     return status;
 6559              		.loc 1 2704 0 is_stmt 1
 6560 003c FB68     		ldr	r3, [r7, #12]
2705:Generated_Source\PSoC6\pdl\drivers\peripheral\prot/cy_prot.c **** }
 6561              		.loc 1 2705 0
 6562 003e 1800     		movs	r0, r3
 6563 0040 BD46     		mov	sp, r7
 6564 0042 04B0     		add	sp, sp, #16
 6565              		@ sp needed
 6566 0044 80BD     		pop	{r7, pc}
 6567              	.L438:
 6568 0046 C046     		.align	2
 6569              	.L437:
 6570 0048 0200C200 		.word	12713986
 6571 004c 00000000 		.word	cy_device
 6572 0050 0300C200 		.word	12713987
 6573              		.cfi_endproc
 6574              	.LFE91:
 6575              		.size	Cy_Prot_EnablePpuFixedRgSlaveStruct, .-Cy_Prot_EnablePpuFixedRgSlaveStruct
 6576              		.section	.text.Cy_Prot_DisablePpuFixedRgSlaveStruct,"ax",%progbits
 6577              		.align	2
 6578              		.global	Cy_Prot_DisablePpuFixedRgSlaveStruct
 6579              		.code	16
 6580              		.thumb_func
 6581              		.type	Cy_Prot_DisablePpuFixedRgSlaveStruct, %function
 6582              	Cy_Prot_DisablePpuFixedRgSlaveStruct:
 6583              	.LFB92:
2706:Generated_Source\PSoC6\pdl\drivers\peripheral\prot/cy_prot.c **** 
2707:Generated_Source\PSoC6\pdl\drivers\peripheral\prot/cy_prot.c **** 
2708:Generated_Source\PSoC6\pdl\drivers\peripheral\prot/cy_prot.c **** /*******************************************************************************
2709:Generated_Source\PSoC6\pdl\drivers\peripheral\prot/cy_prot.c **** * Function Name: Cy_Prot_DisablePpuFixedRgSlaveStruct
2710:Generated_Source\PSoC6\pdl\drivers\peripheral\prot/cy_prot.c **** ****************************************************************************//**
2711:Generated_Source\PSoC6\pdl\drivers\peripheral\prot/cy_prot.c **** *
2712:Generated_Source\PSoC6\pdl\drivers\peripheral\prot/cy_prot.c **** * Disables the Slave PPU RG structure.
2713:Generated_Source\PSoC6\pdl\drivers\peripheral\prot/cy_prot.c **** *
2714:Generated_Source\PSoC6\pdl\drivers\peripheral\prot/cy_prot.c **** * This is a PPU RG slave struct disable function. The PPU RG protection 
2715:Generated_Source\PSoC6\pdl\drivers\peripheral\prot/cy_prot.c **** * settings will seize to take effect after successful completion of this 
2716:Generated_Source\PSoC6\pdl\drivers\peripheral\prot/cy_prot.c **** * function call.
2717:Generated_Source\PSoC6\pdl\drivers\peripheral\prot/cy_prot.c **** *
2718:Generated_Source\PSoC6\pdl\drivers\peripheral\prot/cy_prot.c **** * \note This function is applicable for CPUSS ver_1 only.
2719:Generated_Source\PSoC6\pdl\drivers\peripheral\prot/cy_prot.c **** *
2720:Generated_Source\PSoC6\pdl\drivers\peripheral\prot/cy_prot.c **** * \param base
2721:Generated_Source\PSoC6\pdl\drivers\peripheral\prot/cy_prot.c **** * The base address for the protection unit structure being configured. 
2722:Generated_Source\PSoC6\pdl\drivers\peripheral\prot/cy_prot.c **** *
2723:Generated_Source\PSoC6\pdl\drivers\peripheral\prot/cy_prot.c **** * \return
2724:Generated_Source\PSoC6\pdl\drivers\peripheral\prot/cy_prot.c **** * Status of the function call.
2725:Generated_Source\PSoC6\pdl\drivers\peripheral\prot/cy_prot.c **** *
2726:Generated_Source\PSoC6\pdl\drivers\peripheral\prot/cy_prot.c **** *   Status                | Description
2727:Generated_Source\PSoC6\pdl\drivers\peripheral\prot/cy_prot.c **** *   ------------          | -----------
2728:Generated_Source\PSoC6\pdl\drivers\peripheral\prot/cy_prot.c **** *   CY_PROT_SUCCESS       | The Slave PU struct was disabled.
2729:Generated_Source\PSoC6\pdl\drivers\peripheral\prot/cy_prot.c **** *   CY_PROT_FAILURE       | The Slave PU struct is enabled and possibly locked.
2730:Generated_Source\PSoC6\pdl\drivers\peripheral\prot/cy_prot.c **** *   CY_PROT_INVALID_STATE | The function was called on the device with an unsupported PERI HW versi
2731:Generated_Source\PSoC6\pdl\drivers\peripheral\prot/cy_prot.c **** *
2732:Generated_Source\PSoC6\pdl\drivers\peripheral\prot/cy_prot.c **** * \funcusage
2733:Generated_Source\PSoC6\pdl\drivers\peripheral\prot/cy_prot.c **** * \snippet prot/1.20/snippet/main.c snippet_Cy_Prot_DisablePpuFixedRgSlaveStruct
2734:Generated_Source\PSoC6\pdl\drivers\peripheral\prot/cy_prot.c **** *
ARM GAS  C:\Users\JC\AppData\Local\Temp\ccU1E72d.s 			page 166


2735:Generated_Source\PSoC6\pdl\drivers\peripheral\prot/cy_prot.c **** *******************************************************************************/
2736:Generated_Source\PSoC6\pdl\drivers\peripheral\prot/cy_prot.c **** cy_en_prot_status_t Cy_Prot_DisablePpuFixedRgSlaveStruct(PERI_GR_PPU_RG_Type* base)
2737:Generated_Source\PSoC6\pdl\drivers\peripheral\prot/cy_prot.c **** {
 6584              		.loc 1 2737 0
 6585              		.cfi_startproc
 6586              		@ args = 0, pretend = 0, frame = 16
 6587              		@ frame_needed = 1, uses_anonymous_args = 0
 6588 0000 80B5     		push	{r7, lr}
 6589              		.cfi_def_cfa_offset 8
 6590              		.cfi_offset 7, -8
 6591              		.cfi_offset 14, -4
 6592 0002 84B0     		sub	sp, sp, #16
 6593              		.cfi_def_cfa_offset 24
 6594 0004 00AF     		add	r7, sp, #0
 6595              		.cfi_def_cfa_register 7
 6596 0006 7860     		str	r0, [r7, #4]
2738:Generated_Source\PSoC6\pdl\drivers\peripheral\prot/cy_prot.c ****     cy_en_prot_status_t status = CY_PROT_INVALID_STATE;
 6597              		.loc 1 2738 0
 6598 0008 0E4B     		ldr	r3, .L444
 6599 000a FB60     		str	r3, [r7, #12]
2739:Generated_Source\PSoC6\pdl\drivers\peripheral\prot/cy_prot.c ****     
2740:Generated_Source\PSoC6\pdl\drivers\peripheral\prot/cy_prot.c ****     if (CY_PERI_V1)
 6600              		.loc 1 2740 0
 6601 000c 0E4B     		ldr	r3, .L444+4
 6602 000e 1B68     		ldr	r3, [r3]
 6603 0010 2F22     		movs	r2, #47
 6604 0012 9B5C     		ldrb	r3, [r3, r2]
 6605 0014 012B     		cmp	r3, #1
 6606 0016 10D1     		bne	.L440
2741:Generated_Source\PSoC6\pdl\drivers\peripheral\prot/cy_prot.c ****     {
2742:Generated_Source\PSoC6\pdl\drivers\peripheral\prot/cy_prot.c ****         PERI_GR_PPU_RG_ATT0(base) &= ~_VAL2FLD(PERI_GR_PPU_RG_ATT0_ENABLED, CY_PROT_STRUCT_ENABLE);
 6607              		.loc 1 2742 0
 6608 0018 7B68     		ldr	r3, [r7, #4]
 6609 001a 5B68     		ldr	r3, [r3, #4]
 6610 001c 5B00     		lsls	r3, r3, #1
 6611 001e 5A08     		lsrs	r2, r3, #1
 6612 0020 7B68     		ldr	r3, [r7, #4]
 6613 0022 5A60     		str	r2, [r3, #4]
2743:Generated_Source\PSoC6\pdl\drivers\peripheral\prot/cy_prot.c ****         status = (_FLD2VAL(PERI_GR_PPU_RG_ATT0_ENABLED, PERI_GR_PPU_RG_ATT0(base)) == CY_PROT_STRUC
 6614              		.loc 1 2743 0
 6615 0024 7B68     		ldr	r3, [r7, #4]
 6616 0026 5B68     		ldr	r3, [r3, #4]
 6617 0028 DB0F     		lsrs	r3, r3, #31
 6618 002a DB07     		lsls	r3, r3, #31
 6619 002c DB0F     		lsrs	r3, r3, #31
 6620 002e 012B     		cmp	r3, #1
 6621 0030 01D1     		bne	.L441
 6622              		.loc 1 2743 0 is_stmt 0 discriminator 1
 6623 0032 064B     		ldr	r3, .L444+8
 6624 0034 00E0     		b	.L442
 6625              	.L441:
 6626              		.loc 1 2743 0 discriminator 2
 6627 0036 0023     		movs	r3, #0
 6628              	.L442:
 6629              		.loc 1 2743 0 discriminator 4
 6630 0038 FB60     		str	r3, [r7, #12]
 6631              	.L440:
ARM GAS  C:\Users\JC\AppData\Local\Temp\ccU1E72d.s 			page 167


2744:Generated_Source\PSoC6\pdl\drivers\peripheral\prot/cy_prot.c ****                     CY_PROT_FAILURE : CY_PROT_SUCCESS;
2745:Generated_Source\PSoC6\pdl\drivers\peripheral\prot/cy_prot.c ****     }
2746:Generated_Source\PSoC6\pdl\drivers\peripheral\prot/cy_prot.c **** 
2747:Generated_Source\PSoC6\pdl\drivers\peripheral\prot/cy_prot.c ****     return status;
 6632              		.loc 1 2747 0 is_stmt 1
 6633 003a FB68     		ldr	r3, [r7, #12]
2748:Generated_Source\PSoC6\pdl\drivers\peripheral\prot/cy_prot.c **** }
 6634              		.loc 1 2748 0
 6635 003c 1800     		movs	r0, r3
 6636 003e BD46     		mov	sp, r7
 6637 0040 04B0     		add	sp, sp, #16
 6638              		@ sp needed
 6639 0042 80BD     		pop	{r7, pc}
 6640              	.L445:
 6641              		.align	2
 6642              	.L444:
 6643 0044 0200C200 		.word	12713986
 6644 0048 00000000 		.word	cy_device
 6645 004c 0300C200 		.word	12713987
 6646              		.cfi_endproc
 6647              	.LFE92:
 6648              		.size	Cy_Prot_DisablePpuFixedRgSlaveStruct, .-Cy_Prot_DisablePpuFixedRgSlaveStruct
 6649              		.section	.text.Prot_IsSmpuStructDisabled,"ax",%progbits
 6650              		.align	2
 6651              		.code	16
 6652              		.thumb_func
 6653              		.type	Prot_IsSmpuStructDisabled, %function
 6654              	Prot_IsSmpuStructDisabled:
 6655              	.LFB93:
2749:Generated_Source\PSoC6\pdl\drivers\peripheral\prot/cy_prot.c **** 
2750:Generated_Source\PSoC6\pdl\drivers\peripheral\prot/cy_prot.c **** 
2751:Generated_Source\PSoC6\pdl\drivers\peripheral\prot/cy_prot.c **** /*******************************************************************************
2752:Generated_Source\PSoC6\pdl\drivers\peripheral\prot/cy_prot.c **** * Function Name: Prot_IsSmpuStructDisabled
2753:Generated_Source\PSoC6\pdl\drivers\peripheral\prot/cy_prot.c **** ****************************************************************************//**
2754:Generated_Source\PSoC6\pdl\drivers\peripheral\prot/cy_prot.c **** *
2755:Generated_Source\PSoC6\pdl\drivers\peripheral\prot/cy_prot.c **** * This function returns the SMPU disabled status.
2756:Generated_Source\PSoC6\pdl\drivers\peripheral\prot/cy_prot.c **** *
2757:Generated_Source\PSoC6\pdl\drivers\peripheral\prot/cy_prot.c **** * \note This function is applicable for both CPUSS ver_1 and ver_2.
2758:Generated_Source\PSoC6\pdl\drivers\peripheral\prot/cy_prot.c **** *
2759:Generated_Source\PSoC6\pdl\drivers\peripheral\prot/cy_prot.c **** * \param smpuStcIndex
2760:Generated_Source\PSoC6\pdl\drivers\peripheral\prot/cy_prot.c **** * index of the SMPU structure.
2761:Generated_Source\PSoC6\pdl\drivers\peripheral\prot/cy_prot.c **** *
2762:Generated_Source\PSoC6\pdl\drivers\peripheral\prot/cy_prot.c **** * \return
2763:Generated_Source\PSoC6\pdl\drivers\peripheral\prot/cy_prot.c **** * true if both Slave and Master structures are disabled.
2764:Generated_Source\PSoC6\pdl\drivers\peripheral\prot/cy_prot.c **** * false if Master or/and Slave structure is/are enabled.
2765:Generated_Source\PSoC6\pdl\drivers\peripheral\prot/cy_prot.c **** *
2766:Generated_Source\PSoC6\pdl\drivers\peripheral\prot/cy_prot.c **** *******************************************************************************/
2767:Generated_Source\PSoC6\pdl\drivers\peripheral\prot/cy_prot.c **** static bool Prot_IsSmpuStructDisabled(uint32_t smpuStcIndex)
2768:Generated_Source\PSoC6\pdl\drivers\peripheral\prot/cy_prot.c **** {
 6656              		.loc 1 2768 0
 6657              		.cfi_startproc
 6658              		@ args = 0, pretend = 0, frame = 8
 6659              		@ frame_needed = 1, uses_anonymous_args = 0
 6660 0000 80B5     		push	{r7, lr}
 6661              		.cfi_def_cfa_offset 8
 6662              		.cfi_offset 7, -8
 6663              		.cfi_offset 14, -4
ARM GAS  C:\Users\JC\AppData\Local\Temp\ccU1E72d.s 			page 168


 6664 0002 82B0     		sub	sp, sp, #8
 6665              		.cfi_def_cfa_offset 16
 6666 0004 00AF     		add	r7, sp, #0
 6667              		.cfi_def_cfa_register 7
 6668 0006 7860     		str	r0, [r7, #4]
2769:Generated_Source\PSoC6\pdl\drivers\peripheral\prot/cy_prot.c ****     return ((!_FLD2BOOL(PROT_SMPU_SMPU_STRUCT_ATT0_ENABLED, PROT_SMPU_SMPU_STRUCT_IDX_ATT0(smpuStcI
 6669              		.loc 1 2769 0
 6670 0008 114B     		ldr	r3, .L450
 6671 000a 1B68     		ldr	r3, [r3]
 6672 000c 1B69     		ldr	r3, [r3, #16]
 6673 000e 1A00     		movs	r2, r3
 6674 0010 7B68     		ldr	r3, [r7, #4]
 6675 0012 8033     		adds	r3, r3, #128
 6676 0014 9B01     		lsls	r3, r3, #6
 6677 0016 D318     		adds	r3, r2, r3
 6678 0018 0433     		adds	r3, r3, #4
 6679 001a 1B68     		ldr	r3, [r3]
 6680 001c 002B     		cmp	r3, #0
 6681 001e 0DDB     		blt	.L447
2770:Generated_Source\PSoC6\pdl\drivers\peripheral\prot/cy_prot.c ****             (!_FLD2BOOL(PROT_SMPU_SMPU_STRUCT_ATT1_ENABLED, PROT_SMPU_SMPU_STRUCT_IDX_ATT1(smpuStcI
 6682              		.loc 1 2770 0 discriminator 1
 6683 0020 0B4B     		ldr	r3, .L450
 6684 0022 1B68     		ldr	r3, [r3]
 6685 0024 1B69     		ldr	r3, [r3, #16]
 6686 0026 1900     		movs	r1, r3
 6687 0028 7B68     		ldr	r3, [r7, #4]
 6688 002a 0A4A     		ldr	r2, .L450+4
 6689 002c 9B01     		lsls	r3, r3, #6
 6690 002e CB18     		adds	r3, r1, r3
 6691 0030 9B18     		adds	r3, r3, r2
 6692 0032 1B68     		ldr	r3, [r3]
2769:Generated_Source\PSoC6\pdl\drivers\peripheral\prot/cy_prot.c ****     return ((!_FLD2BOOL(PROT_SMPU_SMPU_STRUCT_ATT0_ENABLED, PROT_SMPU_SMPU_STRUCT_IDX_ATT0(smpuStcI
 6693              		.loc 1 2769 0 discriminator 1
 6694 0034 002B     		cmp	r3, #0
 6695 0036 01DB     		blt	.L447
2769:Generated_Source\PSoC6\pdl\drivers\peripheral\prot/cy_prot.c ****     return ((!_FLD2BOOL(PROT_SMPU_SMPU_STRUCT_ATT0_ENABLED, PROT_SMPU_SMPU_STRUCT_IDX_ATT0(smpuStcI
 6696              		.loc 1 2769 0 is_stmt 0 discriminator 3
 6697 0038 0123     		movs	r3, #1
 6698 003a 00E0     		b	.L448
 6699              	.L447:
2769:Generated_Source\PSoC6\pdl\drivers\peripheral\prot/cy_prot.c ****     return ((!_FLD2BOOL(PROT_SMPU_SMPU_STRUCT_ATT0_ENABLED, PROT_SMPU_SMPU_STRUCT_IDX_ATT0(smpuStcI
 6700              		.loc 1 2769 0 discriminator 4
 6701 003c 0023     		movs	r3, #0
 6702              	.L448:
2769:Generated_Source\PSoC6\pdl\drivers\peripheral\prot/cy_prot.c ****     return ((!_FLD2BOOL(PROT_SMPU_SMPU_STRUCT_ATT0_ENABLED, PROT_SMPU_SMPU_STRUCT_IDX_ATT0(smpuStcI
 6703              		.loc 1 2769 0 discriminator 6
 6704 003e 1A1C     		adds	r2, r3, #0
 6705 0040 0123     		movs	r3, #1
 6706 0042 1340     		ands	r3, r2
 6707 0044 DBB2     		uxtb	r3, r3
2771:Generated_Source\PSoC6\pdl\drivers\peripheral\prot/cy_prot.c **** }
 6708              		.loc 1 2771 0 is_stmt 1 discriminator 6
 6709 0046 1800     		movs	r0, r3
 6710 0048 BD46     		mov	sp, r7
 6711 004a 02B0     		add	sp, sp, #8
 6712              		@ sp needed
 6713 004c 80BD     		pop	{r7, pc}
ARM GAS  C:\Users\JC\AppData\Local\Temp\ccU1E72d.s 			page 169


 6714              	.L451:
 6715 004e C046     		.align	2
 6716              	.L450:
 6717 0050 00000000 		.word	cy_device
 6718 0054 24200000 		.word	8228
 6719              		.cfi_endproc
 6720              	.LFE93:
 6721              		.size	Prot_IsSmpuStructDisabled, .-Prot_IsSmpuStructDisabled
 6722              		.section	.text.Prot_IsPpuProgStructDisabled,"ax",%progbits
 6723              		.align	2
 6724              		.code	16
 6725              		.thumb_func
 6726              		.type	Prot_IsPpuProgStructDisabled, %function
 6727              	Prot_IsPpuProgStructDisabled:
 6728              	.LFB94:
2772:Generated_Source\PSoC6\pdl\drivers\peripheral\prot/cy_prot.c **** 
2773:Generated_Source\PSoC6\pdl\drivers\peripheral\prot/cy_prot.c **** 
2774:Generated_Source\PSoC6\pdl\drivers\peripheral\prot/cy_prot.c **** /*******************************************************************************
2775:Generated_Source\PSoC6\pdl\drivers\peripheral\prot/cy_prot.c **** * Function Name: Prot_IsPpoProgStructDisabled
2776:Generated_Source\PSoC6\pdl\drivers\peripheral\prot/cy_prot.c **** ****************************************************************************//**
2777:Generated_Source\PSoC6\pdl\drivers\peripheral\prot/cy_prot.c **** *
2778:Generated_Source\PSoC6\pdl\drivers\peripheral\prot/cy_prot.c **** * This function returns the Peripheral PPU disabled status.
2779:Generated_Source\PSoC6\pdl\drivers\peripheral\prot/cy_prot.c **** *
2780:Generated_Source\PSoC6\pdl\drivers\peripheral\prot/cy_prot.c **** * \note This function is applicable for both CPUSS ver_1 and ver_2.
2781:Generated_Source\PSoC6\pdl\drivers\peripheral\prot/cy_prot.c **** *
2782:Generated_Source\PSoC6\pdl\drivers\peripheral\prot/cy_prot.c **** * \param ppuStcIndex
2783:Generated_Source\PSoC6\pdl\drivers\peripheral\prot/cy_prot.c **** * index of the Prot_IsPpoProgStructDisabled structure.
2784:Generated_Source\PSoC6\pdl\drivers\peripheral\prot/cy_prot.c **** *
2785:Generated_Source\PSoC6\pdl\drivers\peripheral\prot/cy_prot.c **** * \return
2786:Generated_Source\PSoC6\pdl\drivers\peripheral\prot/cy_prot.c **** * true if both Slave and Master structures are disabled.
2787:Generated_Source\PSoC6\pdl\drivers\peripheral\prot/cy_prot.c **** * false if Master or/and Slave structure is/are enabled.
2788:Generated_Source\PSoC6\pdl\drivers\peripheral\prot/cy_prot.c **** *
2789:Generated_Source\PSoC6\pdl\drivers\peripheral\prot/cy_prot.c **** *******************************************************************************/
2790:Generated_Source\PSoC6\pdl\drivers\peripheral\prot/cy_prot.c **** static bool Prot_IsPpuProgStructDisabled(uint32_t ppuStcIndex)
2791:Generated_Source\PSoC6\pdl\drivers\peripheral\prot/cy_prot.c **** {
 6729              		.loc 1 2791 0
 6730              		.cfi_startproc
 6731              		@ args = 0, pretend = 0, frame = 8
 6732              		@ frame_needed = 1, uses_anonymous_args = 0
 6733 0000 80B5     		push	{r7, lr}
 6734              		.cfi_def_cfa_offset 8
 6735              		.cfi_offset 7, -8
 6736              		.cfi_offset 14, -4
 6737 0002 82B0     		sub	sp, sp, #8
 6738              		.cfi_def_cfa_offset 16
 6739 0004 00AF     		add	r7, sp, #0
 6740              		.cfi_def_cfa_register 7
 6741 0006 7860     		str	r0, [r7, #4]
2792:Generated_Source\PSoC6\pdl\drivers\peripheral\prot/cy_prot.c ****     return ((!_FLD2BOOL(PERI_PPU_PR_ATT0_ENABLED, PROT_PERI_PPU_PR_STRUCT_IDX_ATT0(ppuStcIndex))) &
 6742              		.loc 1 2792 0
 6743 0008 104B     		ldr	r3, .L456
 6744 000a 1B68     		ldr	r3, [r3]
 6745 000c 9B68     		ldr	r3, [r3, #8]
 6746 000e 1A00     		movs	r2, r3
 6747 0010 7B68     		ldr	r3, [r7, #4]
 6748 0012 0133     		adds	r3, r3, #1
 6749 0014 FF33     		adds	r3, r3, #255
ARM GAS  C:\Users\JC\AppData\Local\Temp\ccU1E72d.s 			page 170


 6750 0016 9B01     		lsls	r3, r3, #6
 6751 0018 9B58     		ldr	r3, [r3, r2]
 6752 001a 002B     		cmp	r3, #0
 6753 001c 0DDB     		blt	.L453
2793:Generated_Source\PSoC6\pdl\drivers\peripheral\prot/cy_prot.c ****             (!_FLD2BOOL(PERI_PPU_PR_ATT1_ENABLED, PROT_PERI_PPU_PR_STRUCT_IDX_ATT1(ppuStcIndex))));
 6754              		.loc 1 2793 0 discriminator 1
 6755 001e 0B4B     		ldr	r3, .L456
 6756 0020 1B68     		ldr	r3, [r3]
 6757 0022 9B68     		ldr	r3, [r3, #8]
 6758 0024 1900     		movs	r1, r3
 6759 0026 7B68     		ldr	r3, [r7, #4]
 6760 0028 094A     		ldr	r2, .L456+4
 6761 002a 9B01     		lsls	r3, r3, #6
 6762 002c CB18     		adds	r3, r1, r3
 6763 002e 9B18     		adds	r3, r3, r2
 6764 0030 1B68     		ldr	r3, [r3]
2792:Generated_Source\PSoC6\pdl\drivers\peripheral\prot/cy_prot.c ****     return ((!_FLD2BOOL(PERI_PPU_PR_ATT0_ENABLED, PROT_PERI_PPU_PR_STRUCT_IDX_ATT0(ppuStcIndex))) &
 6765              		.loc 1 2792 0 discriminator 1
 6766 0032 002B     		cmp	r3, #0
 6767 0034 01DB     		blt	.L453
2792:Generated_Source\PSoC6\pdl\drivers\peripheral\prot/cy_prot.c ****     return ((!_FLD2BOOL(PERI_PPU_PR_ATT0_ENABLED, PROT_PERI_PPU_PR_STRUCT_IDX_ATT0(ppuStcIndex))) &
 6768              		.loc 1 2792 0 is_stmt 0 discriminator 3
 6769 0036 0123     		movs	r3, #1
 6770 0038 00E0     		b	.L454
 6771              	.L453:
2792:Generated_Source\PSoC6\pdl\drivers\peripheral\prot/cy_prot.c ****     return ((!_FLD2BOOL(PERI_PPU_PR_ATT0_ENABLED, PROT_PERI_PPU_PR_STRUCT_IDX_ATT0(ppuStcIndex))) &
 6772              		.loc 1 2792 0 discriminator 4
 6773 003a 0023     		movs	r3, #0
 6774              	.L454:
2792:Generated_Source\PSoC6\pdl\drivers\peripheral\prot/cy_prot.c ****     return ((!_FLD2BOOL(PERI_PPU_PR_ATT0_ENABLED, PROT_PERI_PPU_PR_STRUCT_IDX_ATT0(ppuStcIndex))) &
 6775              		.loc 1 2792 0 discriminator 6
 6776 003c 1A1C     		adds	r2, r3, #0
 6777 003e 0123     		movs	r3, #1
 6778 0040 1340     		ands	r3, r2
 6779 0042 DBB2     		uxtb	r3, r3
2794:Generated_Source\PSoC6\pdl\drivers\peripheral\prot/cy_prot.c **** }
 6780              		.loc 1 2794 0 is_stmt 1 discriminator 6
 6781 0044 1800     		movs	r0, r3
 6782 0046 BD46     		mov	sp, r7
 6783 0048 02B0     		add	sp, sp, #8
 6784              		@ sp needed
 6785 004a 80BD     		pop	{r7, pc}
 6786              	.L457:
 6787              		.align	2
 6788              	.L456:
 6789 004c 00000000 		.word	cy_device
 6790 0050 20400000 		.word	16416
 6791              		.cfi_endproc
 6792              	.LFE94:
 6793              		.size	Prot_IsPpuProgStructDisabled, .-Prot_IsPpuProgStructDisabled
 6794              		.text
 6795              	.Letext0:
 6796              		.file 2 "c:\\program files (x86)\\cypress\\psoc creator\\4.4\\psoc creator\\import\\gnu\\arm\\5.4.
 6797              		.file 3 "c:\\program files (x86)\\cypress\\psoc creator\\4.4\\psoc creator\\import\\gnu\\arm\\5.4.
 6798              		.file 4 "Generated_Source\\PSoC6\\pdl\\devices/psoc6/include/ip/cyip_peri.h"
 6799              		.file 5 "Generated_Source\\PSoC6\\pdl\\devices/psoc6/include/ip/cyip_peri_ms_v2.h"
 6800              		.file 6 "Generated_Source\\PSoC6\\pdl\\devices/psoc6/include/ip/cyip_prot.h"
ARM GAS  C:\Users\JC\AppData\Local\Temp\ccU1E72d.s 			page 171


 6801              		.file 7 "Generated_Source\\PSoC6\\pdl\\drivers/peripheral/device/cy_device.h"
 6802              		.file 8 "Generated_Source\\PSoC6\\pdl\\devices/psoc6/include/psoc6_01_config.h"
 6803              		.file 9 "Generated_Source\\PSoC6\\pdl\\drivers/peripheral/syslib/cy_syslib.h"
 6804              		.file 10 "Generated_Source\\PSoC6\\pdl\\drivers\\peripheral\\prot\\cy_prot.h"
 6805              		.section	.debug_info,"",%progbits
 6806              	.Ldebug_info0:
 6807 0000 DF200000 		.4byte	0x20df
 6808 0004 0400     		.2byte	0x4
 6809 0006 00000000 		.4byte	.Ldebug_abbrev0
 6810 000a 04       		.byte	0x4
 6811 000b 01       		.uleb128 0x1
 6812 000c 51140000 		.4byte	.LASF330
 6813 0010 0C       		.byte	0xc
 6814 0011 120F0000 		.4byte	.LASF331
 6815 0015 BC070000 		.4byte	.LASF332
 6816 0019 00000000 		.4byte	.Ldebug_ranges0+0
 6817 001d 00000000 		.4byte	0
 6818 0021 00000000 		.4byte	.Ldebug_line0
 6819 0025 02       		.uleb128 0x2
 6820 0026 04       		.byte	0x4
 6821 0027 05       		.byte	0x5
 6822 0028 696E7400 		.ascii	"int\000"
 6823 002c 03       		.uleb128 0x3
 6824 002d 04       		.byte	0x4
 6825 002e 07       		.byte	0x7
 6826 002f 65010000 		.4byte	.LASF0
 6827 0033 03       		.uleb128 0x3
 6828 0034 08       		.byte	0x8
 6829 0035 05       		.byte	0x5
 6830 0036 6F0A0000 		.4byte	.LASF1
 6831 003a 03       		.uleb128 0x3
 6832 003b 08       		.byte	0x8
 6833 003c 04       		.byte	0x4
 6834 003d 340D0000 		.4byte	.LASF2
 6835 0041 03       		.uleb128 0x3
 6836 0042 01       		.byte	0x1
 6837 0043 06       		.byte	0x6
 6838 0044 D7130000 		.4byte	.LASF3
 6839 0048 04       		.uleb128 0x4
 6840 0049 FB0F0000 		.4byte	.LASF5
 6841 004d 02       		.byte	0x2
 6842 004e 1D       		.byte	0x1d
 6843 004f 53000000 		.4byte	0x53
 6844 0053 03       		.uleb128 0x3
 6845 0054 01       		.byte	0x1
 6846 0055 08       		.byte	0x8
 6847 0056 2A120000 		.4byte	.LASF4
 6848 005a 04       		.uleb128 0x4
 6849 005b 2B0B0000 		.4byte	.LASF6
 6850 005f 02       		.byte	0x2
 6851 0060 29       		.byte	0x29
 6852 0061 65000000 		.4byte	0x65
 6853 0065 03       		.uleb128 0x3
 6854 0066 02       		.byte	0x2
 6855 0067 05       		.byte	0x5
 6856 0068 3E0E0000 		.4byte	.LASF7
 6857 006c 04       		.uleb128 0x4
ARM GAS  C:\Users\JC\AppData\Local\Temp\ccU1E72d.s 			page 172


 6858 006d 11060000 		.4byte	.LASF8
 6859 0071 02       		.byte	0x2
 6860 0072 2B       		.byte	0x2b
 6861 0073 77000000 		.4byte	0x77
 6862 0077 03       		.uleb128 0x3
 6863 0078 02       		.byte	0x2
 6864 0079 07       		.byte	0x7
 6865 007a 210D0000 		.4byte	.LASF9
 6866 007e 04       		.uleb128 0x4
 6867 007f 03020000 		.4byte	.LASF10
 6868 0083 02       		.byte	0x2
 6869 0084 3F       		.byte	0x3f
 6870 0085 89000000 		.4byte	0x89
 6871 0089 03       		.uleb128 0x3
 6872 008a 04       		.byte	0x4
 6873 008b 05       		.byte	0x5
 6874 008c 920E0000 		.4byte	.LASF11
 6875 0090 04       		.uleb128 0x4
 6876 0091 38120000 		.4byte	.LASF12
 6877 0095 02       		.byte	0x2
 6878 0096 41       		.byte	0x41
 6879 0097 9B000000 		.4byte	0x9b
 6880 009b 03       		.uleb128 0x3
 6881 009c 04       		.byte	0x4
 6882 009d 07       		.byte	0x7
 6883 009e C4100000 		.4byte	.LASF13
 6884 00a2 03       		.uleb128 0x3
 6885 00a3 08       		.byte	0x8
 6886 00a4 07       		.byte	0x7
 6887 00a5 1D050000 		.4byte	.LASF14
 6888 00a9 04       		.uleb128 0x4
 6889 00aa D2090000 		.4byte	.LASF15
 6890 00ae 03       		.byte	0x3
 6891 00af 18       		.byte	0x18
 6892 00b0 48000000 		.4byte	0x48
 6893 00b4 04       		.uleb128 0x4
 6894 00b5 70030000 		.4byte	.LASF16
 6895 00b9 03       		.byte	0x3
 6896 00ba 20       		.byte	0x20
 6897 00bb 5A000000 		.4byte	0x5a
 6898 00bf 04       		.uleb128 0x4
 6899 00c0 400D0000 		.4byte	.LASF17
 6900 00c4 03       		.byte	0x3
 6901 00c5 24       		.byte	0x24
 6902 00c6 6C000000 		.4byte	0x6c
 6903 00ca 04       		.uleb128 0x4
 6904 00cb 3F020000 		.4byte	.LASF18
 6905 00cf 03       		.byte	0x3
 6906 00d0 2C       		.byte	0x2c
 6907 00d1 7E000000 		.4byte	0x7e
 6908 00d5 04       		.uleb128 0x4
 6909 00d6 F5030000 		.4byte	.LASF19
 6910 00da 03       		.byte	0x3
 6911 00db 30       		.byte	0x30
 6912 00dc 90000000 		.4byte	0x90
 6913 00e0 05       		.uleb128 0x5
 6914 00e1 D5000000 		.4byte	0xd5
ARM GAS  C:\Users\JC\AppData\Local\Temp\ccU1E72d.s 			page 173


 6915 00e5 06       		.uleb128 0x6
 6916 00e6 E0000000 		.4byte	0xe0
 6917 00ea 03       		.uleb128 0x3
 6918 00eb 04       		.byte	0x4
 6919 00ec 07       		.byte	0x7
 6920 00ed DB0D0000 		.4byte	.LASF20
 6921 00f1 07       		.uleb128 0x7
 6922 00f2 E5000000 		.4byte	0xe5
 6923 00f6 01010000 		.4byte	0x101
 6924 00fa 08       		.uleb128 0x8
 6925 00fb EA000000 		.4byte	0xea
 6926 00ff 06       		.byte	0x6
 6927 0100 00       		.byte	0
 6928 0101 07       		.uleb128 0x7
 6929 0102 E5000000 		.4byte	0xe5
 6930 0106 11010000 		.4byte	0x111
 6931 010a 08       		.uleb128 0x8
 6932 010b EA000000 		.4byte	0xea
 6933 010f 01       		.byte	0x1
 6934 0110 00       		.byte	0
 6935 0111 07       		.uleb128 0x7
 6936 0112 E5000000 		.4byte	0xe5
 6937 0116 22010000 		.4byte	0x122
 6938 011a 09       		.uleb128 0x9
 6939 011b EA000000 		.4byte	0xea
 6940 011f FF05     		.2byte	0x5ff
 6941 0121 00       		.byte	0
 6942 0122 07       		.uleb128 0x7
 6943 0123 E0000000 		.4byte	0xe0
 6944 0127 32010000 		.4byte	0x132
 6945 012b 08       		.uleb128 0x8
 6946 012c EA000000 		.4byte	0xea
 6947 0130 3F       		.byte	0x3f
 6948 0131 00       		.byte	0
 6949 0132 07       		.uleb128 0x7
 6950 0133 E0000000 		.4byte	0xe0
 6951 0137 42010000 		.4byte	0x142
 6952 013b 08       		.uleb128 0x8
 6953 013c EA000000 		.4byte	0xea
 6954 0140 7F       		.byte	0x7f
 6955 0141 00       		.byte	0
 6956 0142 0A       		.uleb128 0xa
 6957 0143 40       		.byte	0x40
 6958 0144 04       		.byte	0x4
 6959 0145 27       		.byte	0x27
 6960 0146 87010000 		.4byte	0x187
 6961 014a 0B       		.uleb128 0xb
 6962 014b A0080000 		.4byte	.LASF21
 6963 014f 04       		.byte	0x4
 6964 0150 28       		.byte	0x28
 6965 0151 E0000000 		.4byte	0xe0
 6966 0155 00       		.byte	0
 6967 0156 0B       		.uleb128 0xb
 6968 0157 4B000000 		.4byte	.LASF22
 6969 015b 04       		.byte	0x4
 6970 015c 29       		.byte	0x29
 6971 015d 8C010000 		.4byte	0x18c
ARM GAS  C:\Users\JC\AppData\Local\Temp\ccU1E72d.s 			page 174


 6972 0161 04       		.byte	0x4
 6973 0162 0B       		.uleb128 0xb
 6974 0163 95040000 		.4byte	.LASF23
 6975 0167 04       		.byte	0x4
 6976 0168 2A       		.byte	0x2a
 6977 0169 E0000000 		.4byte	0xe0
 6978 016d 20       		.byte	0x20
 6979 016e 0B       		.uleb128 0xb
 6980 016f AD150000 		.4byte	.LASF24
 6981 0173 04       		.byte	0x4
 6982 0174 2B       		.byte	0x2b
 6983 0175 E0000000 		.4byte	0xe0
 6984 0179 24       		.byte	0x24
 6985 017a 0B       		.uleb128 0xb
 6986 017b 67150000 		.4byte	.LASF25
 6987 017f 04       		.byte	0x4
 6988 0180 2C       		.byte	0x2c
 6989 0181 A6010000 		.4byte	0x1a6
 6990 0185 28       		.byte	0x28
 6991 0186 00       		.byte	0
 6992 0187 05       		.uleb128 0x5
 6993 0188 F1000000 		.4byte	0xf1
 6994 018c 06       		.uleb128 0x6
 6995 018d 87010000 		.4byte	0x187
 6996 0191 07       		.uleb128 0x7
 6997 0192 E5000000 		.4byte	0xe5
 6998 0196 A1010000 		.4byte	0x1a1
 6999 019a 08       		.uleb128 0x8
 7000 019b EA000000 		.4byte	0xea
 7001 019f 05       		.byte	0x5
 7002 01a0 00       		.byte	0
 7003 01a1 05       		.uleb128 0x5
 7004 01a2 91010000 		.4byte	0x191
 7005 01a6 06       		.uleb128 0x6
 7006 01a7 A1010000 		.4byte	0x1a1
 7007 01ab 04       		.uleb128 0x4
 7008 01ac 80150000 		.4byte	.LASF26
 7009 01b0 04       		.byte	0x4
 7010 01b1 2D       		.byte	0x2d
 7011 01b2 42010000 		.4byte	0x142
 7012 01b6 0C       		.uleb128 0xc
 7013 01b7 0002     		.2byte	0x200
 7014 01b9 04       		.byte	0x4
 7015 01ba 32       		.byte	0x32
 7016 01bb CC010000 		.4byte	0x1cc
 7017 01bf 0B       		.uleb128 0xb
 7018 01c0 0B090000 		.4byte	.LASF27
 7019 01c4 04       		.byte	0x4
 7020 01c5 33       		.byte	0x33
 7021 01c6 CC010000 		.4byte	0x1cc
 7022 01ca 00       		.byte	0
 7023 01cb 00       		.byte	0
 7024 01cc 05       		.uleb128 0x5
 7025 01cd 32010000 		.4byte	0x132
 7026 01d1 04       		.uleb128 0x4
 7027 01d2 38000000 		.4byte	.LASF28
 7028 01d6 04       		.byte	0x4
ARM GAS  C:\Users\JC\AppData\Local\Temp\ccU1E72d.s 			page 175


 7029 01d7 34       		.byte	0x34
 7030 01d8 B6010000 		.4byte	0x1b6
 7031 01dc 0A       		.uleb128 0xa
 7032 01dd 40       		.byte	0x40
 7033 01de 04       		.byte	0x4
 7034 01df 39       		.byte	0x39
 7035 01e0 2D020000 		.4byte	0x22d
 7036 01e4 0B       		.uleb128 0xb
 7037 01e5 27150000 		.4byte	.LASF29
 7038 01e9 04       		.byte	0x4
 7039 01ea 3A       		.byte	0x3a
 7040 01eb E0000000 		.4byte	0xe0
 7041 01ef 00       		.byte	0
 7042 01f0 0B       		.uleb128 0xb
 7043 01f1 4F150000 		.4byte	.LASF30
 7044 01f5 04       		.byte	0x4
 7045 01f6 3B       		.byte	0x3b
 7046 01f7 E0000000 		.4byte	0xe0
 7047 01fb 04       		.byte	0x4
 7048 01fc 0B       		.uleb128 0xb
 7049 01fd 4B000000 		.4byte	.LASF22
 7050 0201 04       		.byte	0x4
 7051 0202 3C       		.byte	0x3c
 7052 0203 32020000 		.4byte	0x232
 7053 0207 08       		.byte	0x8
 7054 0208 0B       		.uleb128 0xb
 7055 0209 2D150000 		.4byte	.LASF31
 7056 020d 04       		.byte	0x4
 7057 020e 3D       		.byte	0x3d
 7058 020f E5000000 		.4byte	0xe5
 7059 0213 20       		.byte	0x20
 7060 0214 0B       		.uleb128 0xb
 7061 0215 35060000 		.4byte	.LASF32
 7062 0219 04       		.byte	0x4
 7063 021a 3E       		.byte	0x3e
 7064 021b E0000000 		.4byte	0xe0
 7065 021f 24       		.byte	0x24
 7066 0220 0B       		.uleb128 0xb
 7067 0221 67150000 		.4byte	.LASF25
 7068 0225 04       		.byte	0x4
 7069 0226 3F       		.byte	0x3f
 7070 0227 3C020000 		.4byte	0x23c
 7071 022b 28       		.byte	0x28
 7072 022c 00       		.byte	0
 7073 022d 05       		.uleb128 0x5
 7074 022e 91010000 		.4byte	0x191
 7075 0232 06       		.uleb128 0x6
 7076 0233 2D020000 		.4byte	0x22d
 7077 0237 05       		.uleb128 0x5
 7078 0238 91010000 		.4byte	0x191
 7079 023c 06       		.uleb128 0x6
 7080 023d 37020000 		.4byte	0x237
 7081 0241 04       		.uleb128 0x4
 7082 0242 E1030000 		.4byte	.LASF33
 7083 0246 04       		.byte	0x4
 7084 0247 40       		.byte	0x40
 7085 0248 DC010000 		.4byte	0x1dc
ARM GAS  C:\Users\JC\AppData\Local\Temp\ccU1E72d.s 			page 176


 7086 024c 0A       		.uleb128 0xa
 7087 024d 40       		.byte	0x40
 7088 024e 04       		.byte	0x4
 7089 024f 45       		.byte	0x45
 7090 0250 9D020000 		.4byte	0x29d
 7091 0254 0B       		.uleb128 0xb
 7092 0255 27150000 		.4byte	.LASF29
 7093 0259 04       		.byte	0x4
 7094 025a 46       		.byte	0x46
 7095 025b E5000000 		.4byte	0xe5
 7096 025f 00       		.byte	0
 7097 0260 0B       		.uleb128 0xb
 7098 0261 4F150000 		.4byte	.LASF30
 7099 0265 04       		.byte	0x4
 7100 0266 47       		.byte	0x47
 7101 0267 E0000000 		.4byte	0xe0
 7102 026b 04       		.byte	0x4
 7103 026c 0B       		.uleb128 0xb
 7104 026d 4B000000 		.4byte	.LASF22
 7105 0271 04       		.byte	0x4
 7106 0272 48       		.byte	0x48
 7107 0273 A2020000 		.4byte	0x2a2
 7108 0277 08       		.byte	0x8
 7109 0278 0B       		.uleb128 0xb
 7110 0279 2D150000 		.4byte	.LASF31
 7111 027d 04       		.byte	0x4
 7112 027e 49       		.byte	0x49
 7113 027f E5000000 		.4byte	0xe5
 7114 0283 20       		.byte	0x20
 7115 0284 0B       		.uleb128 0xb
 7116 0285 35060000 		.4byte	.LASF32
 7117 0289 04       		.byte	0x4
 7118 028a 4A       		.byte	0x4a
 7119 028b E0000000 		.4byte	0xe0
 7120 028f 24       		.byte	0x24
 7121 0290 0B       		.uleb128 0xb
 7122 0291 67150000 		.4byte	.LASF25
 7123 0295 04       		.byte	0x4
 7124 0296 4B       		.byte	0x4b
 7125 0297 AC020000 		.4byte	0x2ac
 7126 029b 28       		.byte	0x28
 7127 029c 00       		.byte	0
 7128 029d 05       		.uleb128 0x5
 7129 029e 91010000 		.4byte	0x191
 7130 02a2 06       		.uleb128 0x6
 7131 02a3 9D020000 		.4byte	0x29d
 7132 02a7 05       		.uleb128 0x5
 7133 02a8 91010000 		.4byte	0x191
 7134 02ac 06       		.uleb128 0x6
 7135 02ad A7020000 		.4byte	0x2a7
 7136 02b1 04       		.uleb128 0x4
 7137 02b2 F1150000 		.4byte	.LASF34
 7138 02b6 04       		.byte	0x4
 7139 02b7 4C       		.byte	0x4c
 7140 02b8 4C020000 		.4byte	0x24c
 7141 02bc 0A       		.uleb128 0xa
 7142 02bd 40       		.byte	0x40
ARM GAS  C:\Users\JC\AppData\Local\Temp\ccU1E72d.s 			page 177


 7143 02be 04       		.byte	0x4
 7144 02bf 51       		.byte	0x51
 7145 02c0 0D030000 		.4byte	0x30d
 7146 02c4 0B       		.uleb128 0xb
 7147 02c5 27150000 		.4byte	.LASF29
 7148 02c9 04       		.byte	0x4
 7149 02ca 52       		.byte	0x52
 7150 02cb E5000000 		.4byte	0xe5
 7151 02cf 00       		.byte	0
 7152 02d0 0B       		.uleb128 0xb
 7153 02d1 4F150000 		.4byte	.LASF30
 7154 02d5 04       		.byte	0x4
 7155 02d6 53       		.byte	0x53
 7156 02d7 E0000000 		.4byte	0xe0
 7157 02db 04       		.byte	0x4
 7158 02dc 0B       		.uleb128 0xb
 7159 02dd 4B000000 		.4byte	.LASF22
 7160 02e1 04       		.byte	0x4
 7161 02e2 54       		.byte	0x54
 7162 02e3 12030000 		.4byte	0x312
 7163 02e7 08       		.byte	0x8
 7164 02e8 0B       		.uleb128 0xb
 7165 02e9 2D150000 		.4byte	.LASF31
 7166 02ed 04       		.byte	0x4
 7167 02ee 55       		.byte	0x55
 7168 02ef E5000000 		.4byte	0xe5
 7169 02f3 20       		.byte	0x20
 7170 02f4 0B       		.uleb128 0xb
 7171 02f5 35060000 		.4byte	.LASF32
 7172 02f9 04       		.byte	0x4
 7173 02fa 56       		.byte	0x56
 7174 02fb E0000000 		.4byte	0xe0
 7175 02ff 24       		.byte	0x24
 7176 0300 0B       		.uleb128 0xb
 7177 0301 67150000 		.4byte	.LASF25
 7178 0305 04       		.byte	0x4
 7179 0306 57       		.byte	0x57
 7180 0307 1C030000 		.4byte	0x31c
 7181 030b 28       		.byte	0x28
 7182 030c 00       		.byte	0
 7183 030d 05       		.uleb128 0x5
 7184 030e 91010000 		.4byte	0x191
 7185 0312 06       		.uleb128 0x6
 7186 0313 0D030000 		.4byte	0x30d
 7187 0317 05       		.uleb128 0x5
 7188 0318 91010000 		.4byte	0x191
 7189 031c 06       		.uleb128 0x6
 7190 031d 17030000 		.4byte	0x317
 7191 0321 04       		.uleb128 0x4
 7192 0322 A0100000 		.4byte	.LASF35
 7193 0326 04       		.byte	0x4
 7194 0327 58       		.byte	0x58
 7195 0328 BC020000 		.4byte	0x2bc
 7196 032c 0A       		.uleb128 0xa
 7197 032d 40       		.byte	0x40
 7198 032e 04       		.byte	0x4
 7199 032f 5D       		.byte	0x5d
ARM GAS  C:\Users\JC\AppData\Local\Temp\ccU1E72d.s 			page 178


 7200 0330 7D030000 		.4byte	0x37d
 7201 0334 0B       		.uleb128 0xb
 7202 0335 27150000 		.4byte	.LASF29
 7203 0339 04       		.byte	0x4
 7204 033a 5E       		.byte	0x5e
 7205 033b E5000000 		.4byte	0xe5
 7206 033f 00       		.byte	0
 7207 0340 0B       		.uleb128 0xb
 7208 0341 4F150000 		.4byte	.LASF30
 7209 0345 04       		.byte	0x4
 7210 0346 5F       		.byte	0x5f
 7211 0347 E0000000 		.4byte	0xe0
 7212 034b 04       		.byte	0x4
 7213 034c 0B       		.uleb128 0xb
 7214 034d 4B000000 		.4byte	.LASF22
 7215 0351 04       		.byte	0x4
 7216 0352 60       		.byte	0x60
 7217 0353 82030000 		.4byte	0x382
 7218 0357 08       		.byte	0x8
 7219 0358 0B       		.uleb128 0xb
 7220 0359 2D150000 		.4byte	.LASF31
 7221 035d 04       		.byte	0x4
 7222 035e 61       		.byte	0x61
 7223 035f E5000000 		.4byte	0xe5
 7224 0363 20       		.byte	0x20
 7225 0364 0B       		.uleb128 0xb
 7226 0365 35060000 		.4byte	.LASF32
 7227 0369 04       		.byte	0x4
 7228 036a 62       		.byte	0x62
 7229 036b E0000000 		.4byte	0xe0
 7230 036f 24       		.byte	0x24
 7231 0370 0B       		.uleb128 0xb
 7232 0371 67150000 		.4byte	.LASF25
 7233 0375 04       		.byte	0x4
 7234 0376 63       		.byte	0x63
 7235 0377 8C030000 		.4byte	0x38c
 7236 037b 28       		.byte	0x28
 7237 037c 00       		.byte	0
 7238 037d 05       		.uleb128 0x5
 7239 037e 91010000 		.4byte	0x191
 7240 0382 06       		.uleb128 0x6
 7241 0383 7D030000 		.4byte	0x37d
 7242 0387 05       		.uleb128 0x5
 7243 0388 91010000 		.4byte	0x191
 7244 038c 06       		.uleb128 0x6
 7245 038d 87030000 		.4byte	0x387
 7246 0391 04       		.uleb128 0x4
 7247 0392 6E020000 		.4byte	.LASF36
 7248 0396 04       		.byte	0x4
 7249 0397 64       		.byte	0x64
 7250 0398 2C030000 		.4byte	0x32c
 7251 039c 0C       		.uleb128 0xc
 7252 039d 0054     		.2byte	0x5400
 7253 039f 04       		.byte	0x4
 7254 03a0 69       		.byte	0x69
 7255 03a1 74040000 		.4byte	0x474
 7256 03a5 0D       		.uleb128 0xd
ARM GAS  C:\Users\JC\AppData\Local\Temp\ccU1E72d.s 			page 179


 7257 03a6 475200   		.ascii	"GR\000"
 7258 03a9 04       		.byte	0x4
 7259 03aa 6A       		.byte	0x6a
 7260 03ab 74040000 		.4byte	0x474
 7261 03af 00       		.byte	0
 7262 03b0 0E       		.uleb128 0xe
 7263 03b1 48090000 		.4byte	.LASF37
 7264 03b5 04       		.byte	0x4
 7265 03b6 6B       		.byte	0x6b
 7266 03b7 E0000000 		.4byte	0xe0
 7267 03bb 0004     		.2byte	0x400
 7268 03bd 0E       		.uleb128 0xe
 7269 03be 4B000000 		.4byte	.LASF22
 7270 03c2 04       		.byte	0x4
 7271 03c3 6C       		.byte	0x6c
 7272 03c4 99040000 		.4byte	0x499
 7273 03c8 0404     		.2byte	0x404
 7274 03ca 0E       		.uleb128 0xe
 7275 03cb BB000000 		.4byte	.LASF38
 7276 03cf 04       		.byte	0x4
 7277 03d0 6D       		.byte	0x6d
 7278 03d1 9E040000 		.4byte	0x49e
 7279 03d5 0008     		.2byte	0x800
 7280 03d7 0E       		.uleb128 0xe
 7281 03d8 95080000 		.4byte	.LASF39
 7282 03dc 04       		.byte	0x4
 7283 03dd 6E       		.byte	0x6e
 7284 03de A3040000 		.4byte	0x4a3
 7285 03e2 0009     		.2byte	0x900
 7286 03e4 0E       		.uleb128 0xe
 7287 03e5 23020000 		.4byte	.LASF40
 7288 03e9 04       		.byte	0x4
 7289 03ea 6F       		.byte	0x6f
 7290 03eb A8040000 		.4byte	0x4a8
 7291 03ef 000A     		.2byte	0xa00
 7292 03f1 0E       		.uleb128 0xe
 7293 03f2 70080000 		.4byte	.LASF41
 7294 03f6 04       		.byte	0x4
 7295 03f7 70       		.byte	0x70
 7296 03f8 BD040000 		.4byte	0x4bd
 7297 03fc 000B     		.2byte	0xb00
 7298 03fe 0E       		.uleb128 0xe
 7299 03ff 67150000 		.4byte	.LASF25
 7300 0403 04       		.byte	0x4
 7301 0404 71       		.byte	0x71
 7302 0405 E5000000 		.4byte	0xe5
 7303 0409 FC0B     		.2byte	0xbfc
 7304 040b 0E       		.uleb128 0xe
 7305 040c A0080000 		.4byte	.LASF21
 7306 0410 04       		.byte	0x4
 7307 0411 72       		.byte	0x72
 7308 0412 C2040000 		.4byte	0x4c2
 7309 0416 000C     		.2byte	0xc00
 7310 0418 0E       		.uleb128 0xe
 7311 0419 200E0000 		.4byte	.LASF42
 7312 041d 04       		.byte	0x4
 7313 041e 73       		.byte	0x73
ARM GAS  C:\Users\JC\AppData\Local\Temp\ccU1E72d.s 			page 180


 7314 041f DC040000 		.4byte	0x4dc
 7315 0423 000E     		.2byte	0xe00
 7316 0425 0E       		.uleb128 0xe
 7317 0426 FE060000 		.4byte	.LASF43
 7318 042a 04       		.byte	0x4
 7319 042b 74       		.byte	0x74
 7320 042c E0000000 		.4byte	0xe0
 7321 0430 0010     		.2byte	0x1000
 7322 0432 0E       		.uleb128 0xe
 7323 0433 2A0E0000 		.4byte	.LASF44
 7324 0437 04       		.byte	0x4
 7325 0438 75       		.byte	0x75
 7326 0439 F7040000 		.4byte	0x4f7
 7327 043d 0410     		.2byte	0x1004
 7328 043f 0E       		.uleb128 0xe
 7329 0440 2A090000 		.4byte	.LASF45
 7330 0444 04       		.byte	0x4
 7331 0445 76       		.byte	0x76
 7332 0446 FC040000 		.4byte	0x4fc
 7333 044a 0020     		.2byte	0x2000
 7334 044c 0E       		.uleb128 0xe
 7335 044d 38020000 		.4byte	.LASF46
 7336 0451 04       		.byte	0x4
 7337 0452 77       		.byte	0x77
 7338 0453 0C050000 		.4byte	0x50c
 7339 0457 0040     		.2byte	0x4000
 7340 0459 0E       		.uleb128 0xe
 7341 045a 340E0000 		.4byte	.LASF47
 7342 045e 04       		.byte	0x4
 7343 045f 78       		.byte	0x78
 7344 0460 32050000 		.4byte	0x532
 7345 0464 0048     		.2byte	0x4800
 7346 0466 0E       		.uleb128 0xe
 7347 0467 120B0000 		.4byte	.LASF48
 7348 046b 04       		.byte	0x4
 7349 046c 79       		.byte	0x79
 7350 046d 37050000 		.4byte	0x537
 7351 0471 0050     		.2byte	0x5000
 7352 0473 00       		.byte	0
 7353 0474 07       		.uleb128 0x7
 7354 0475 AB010000 		.4byte	0x1ab
 7355 0479 84040000 		.4byte	0x484
 7356 047d 08       		.uleb128 0x8
 7357 047e EA000000 		.4byte	0xea
 7358 0482 0F       		.byte	0xf
 7359 0483 00       		.byte	0
 7360 0484 07       		.uleb128 0x7
 7361 0485 E5000000 		.4byte	0xe5
 7362 0489 94040000 		.4byte	0x494
 7363 048d 08       		.uleb128 0x8
 7364 048e EA000000 		.4byte	0xea
 7365 0492 FE       		.byte	0xfe
 7366 0493 00       		.byte	0
 7367 0494 05       		.uleb128 0x5
 7368 0495 84040000 		.4byte	0x484
 7369 0499 06       		.uleb128 0x6
 7370 049a 94040000 		.4byte	0x494
ARM GAS  C:\Users\JC\AppData\Local\Temp\ccU1E72d.s 			page 181


 7371 049e 05       		.uleb128 0x5
 7372 049f 22010000 		.4byte	0x122
 7373 04a3 05       		.uleb128 0x5
 7374 04a4 22010000 		.4byte	0x122
 7375 04a8 05       		.uleb128 0x5
 7376 04a9 22010000 		.4byte	0x122
 7377 04ad 07       		.uleb128 0x7
 7378 04ae E0000000 		.4byte	0xe0
 7379 04b2 BD040000 		.4byte	0x4bd
 7380 04b6 08       		.uleb128 0x8
 7381 04b7 EA000000 		.4byte	0xea
 7382 04bb 3E       		.byte	0x3e
 7383 04bc 00       		.byte	0
 7384 04bd 05       		.uleb128 0x5
 7385 04be AD040000 		.4byte	0x4ad
 7386 04c2 05       		.uleb128 0x5
 7387 04c3 32010000 		.4byte	0x132
 7388 04c7 07       		.uleb128 0x7
 7389 04c8 E5000000 		.4byte	0xe5
 7390 04cc D7040000 		.4byte	0x4d7
 7391 04d0 08       		.uleb128 0x8
 7392 04d1 EA000000 		.4byte	0xea
 7393 04d5 7F       		.byte	0x7f
 7394 04d6 00       		.byte	0
 7395 04d7 05       		.uleb128 0x5
 7396 04d8 C7040000 		.4byte	0x4c7
 7397 04dc 06       		.uleb128 0x6
 7398 04dd D7040000 		.4byte	0x4d7
 7399 04e1 07       		.uleb128 0x7
 7400 04e2 E5000000 		.4byte	0xe5
 7401 04e6 F2040000 		.4byte	0x4f2
 7402 04ea 09       		.uleb128 0x9
 7403 04eb EA000000 		.4byte	0xea
 7404 04ef FE03     		.2byte	0x3fe
 7405 04f1 00       		.byte	0
 7406 04f2 05       		.uleb128 0x5
 7407 04f3 E1040000 		.4byte	0x4e1
 7408 04f7 06       		.uleb128 0x6
 7409 04f8 F2040000 		.4byte	0x4f2
 7410 04fc 07       		.uleb128 0x7
 7411 04fd D1010000 		.4byte	0x1d1
 7412 0501 0C050000 		.4byte	0x50c
 7413 0505 08       		.uleb128 0x8
 7414 0506 EA000000 		.4byte	0xea
 7415 050a 0F       		.byte	0xf
 7416 050b 00       		.byte	0
 7417 050c 07       		.uleb128 0x7
 7418 050d 41020000 		.4byte	0x241
 7419 0511 1C050000 		.4byte	0x51c
 7420 0515 08       		.uleb128 0x8
 7421 0516 EA000000 		.4byte	0xea
 7422 051a 1F       		.byte	0x1f
 7423 051b 00       		.byte	0
 7424 051c 07       		.uleb128 0x7
 7425 051d E5000000 		.4byte	0xe5
 7426 0521 2D050000 		.4byte	0x52d
 7427 0525 09       		.uleb128 0x9
ARM GAS  C:\Users\JC\AppData\Local\Temp\ccU1E72d.s 			page 182


 7428 0526 EA000000 		.4byte	0xea
 7429 052a FF01     		.2byte	0x1ff
 7430 052c 00       		.byte	0
 7431 052d 05       		.uleb128 0x5
 7432 052e 1C050000 		.4byte	0x51c
 7433 0532 06       		.uleb128 0x6
 7434 0533 2D050000 		.4byte	0x52d
 7435 0537 07       		.uleb128 0x7
 7436 0538 B1020000 		.4byte	0x2b1
 7437 053c 47050000 		.4byte	0x547
 7438 0540 08       		.uleb128 0x8
 7439 0541 EA000000 		.4byte	0xea
 7440 0545 0F       		.byte	0xf
 7441 0546 00       		.byte	0
 7442 0547 04       		.uleb128 0x4
 7443 0548 F6010000 		.4byte	.LASF49
 7444 054c 04       		.byte	0x4
 7445 054d 7B       		.byte	0x7b
 7446 054e 9C030000 		.4byte	0x39c
 7447 0552 0A       		.uleb128 0xa
 7448 0553 40       		.byte	0x40
 7449 0554 05       		.byte	0x5
 7450 0555 23       		.byte	0x23
 7451 0556 03060000 		.4byte	0x603
 7452 055a 0B       		.uleb128 0xb
 7453 055b 590E0000 		.4byte	.LASF50
 7454 055f 05       		.byte	0x5
 7455 0560 24       		.byte	0x24
 7456 0561 E0000000 		.4byte	0xe0
 7457 0565 00       		.byte	0
 7458 0566 0B       		.uleb128 0xb
 7459 0567 070A0000 		.4byte	.LASF51
 7460 056b 05       		.byte	0x5
 7461 056c 25       		.byte	0x25
 7462 056d E0000000 		.4byte	0xe0
 7463 0571 04       		.byte	0x4
 7464 0572 0B       		.uleb128 0xb
 7465 0573 4B000000 		.4byte	.LASF22
 7466 0577 05       		.byte	0x5
 7467 0578 26       		.byte	0x26
 7468 0579 08060000 		.4byte	0x608
 7469 057d 08       		.byte	0x8
 7470 057e 0B       		.uleb128 0xb
 7471 057f ED000000 		.4byte	.LASF52
 7472 0583 05       		.byte	0x5
 7473 0584 27       		.byte	0x27
 7474 0585 E0000000 		.4byte	0xe0
 7475 0589 10       		.byte	0x10
 7476 058a 0B       		.uleb128 0xb
 7477 058b F5000000 		.4byte	.LASF53
 7478 058f 05       		.byte	0x5
 7479 0590 28       		.byte	0x28
 7480 0591 E0000000 		.4byte	0xe0
 7481 0595 14       		.byte	0x14
 7482 0596 0B       		.uleb128 0xb
 7483 0597 FD000000 		.4byte	.LASF54
 7484 059b 05       		.byte	0x5
ARM GAS  C:\Users\JC\AppData\Local\Temp\ccU1E72d.s 			page 183


 7485 059c 29       		.byte	0x29
 7486 059d E0000000 		.4byte	0xe0
 7487 05a1 18       		.byte	0x18
 7488 05a2 0B       		.uleb128 0xb
 7489 05a3 05010000 		.4byte	.LASF55
 7490 05a7 05       		.byte	0x5
 7491 05a8 2A       		.byte	0x2a
 7492 05a9 E0000000 		.4byte	0xe0
 7493 05ad 1C       		.byte	0x1c
 7494 05ae 0B       		.uleb128 0xb
 7495 05af AA0B0000 		.4byte	.LASF56
 7496 05b3 05       		.byte	0x5
 7497 05b4 2B       		.byte	0x2b
 7498 05b5 E5000000 		.4byte	0xe5
 7499 05b9 20       		.byte	0x20
 7500 05ba 0B       		.uleb128 0xb
 7501 05bb 7D080000 		.4byte	.LASF57
 7502 05bf 05       		.byte	0x5
 7503 05c0 2C       		.byte	0x2c
 7504 05c1 E5000000 		.4byte	0xe5
 7505 05c5 24       		.byte	0x24
 7506 05c6 0B       		.uleb128 0xb
 7507 05c7 67150000 		.4byte	.LASF25
 7508 05cb 05       		.byte	0x5
 7509 05cc 2D       		.byte	0x2d
 7510 05cd 12060000 		.4byte	0x612
 7511 05d1 28       		.byte	0x28
 7512 05d2 0B       		.uleb128 0xb
 7513 05d3 31140000 		.4byte	.LASF58
 7514 05d7 05       		.byte	0x5
 7515 05d8 2E       		.byte	0x2e
 7516 05d9 E0000000 		.4byte	0xe0
 7517 05dd 30       		.byte	0x30
 7518 05de 0B       		.uleb128 0xb
 7519 05df 39140000 		.4byte	.LASF59
 7520 05e3 05       		.byte	0x5
 7521 05e4 2F       		.byte	0x2f
 7522 05e5 E0000000 		.4byte	0xe0
 7523 05e9 34       		.byte	0x34
 7524 05ea 0B       		.uleb128 0xb
 7525 05eb 41140000 		.4byte	.LASF60
 7526 05ef 05       		.byte	0x5
 7527 05f0 30       		.byte	0x30
 7528 05f1 E0000000 		.4byte	0xe0
 7529 05f5 38       		.byte	0x38
 7530 05f6 0B       		.uleb128 0xb
 7531 05f7 49140000 		.4byte	.LASF61
 7532 05fb 05       		.byte	0x5
 7533 05fc 31       		.byte	0x31
 7534 05fd E0000000 		.4byte	0xe0
 7535 0601 3C       		.byte	0x3c
 7536 0602 00       		.byte	0
 7537 0603 05       		.uleb128 0x5
 7538 0604 01010000 		.4byte	0x101
 7539 0608 06       		.uleb128 0x6
 7540 0609 03060000 		.4byte	0x603
 7541 060d 05       		.uleb128 0x5
ARM GAS  C:\Users\JC\AppData\Local\Temp\ccU1E72d.s 			page 184


 7542 060e 01010000 		.4byte	0x101
 7543 0612 06       		.uleb128 0x6
 7544 0613 0D060000 		.4byte	0x60d
 7545 0617 04       		.uleb128 0x4
 7546 0618 85020000 		.4byte	.LASF62
 7547 061c 05       		.byte	0x5
 7548 061d 32       		.byte	0x32
 7549 061e 52050000 		.4byte	0x552
 7550 0622 0A       		.uleb128 0xa
 7551 0623 40       		.byte	0x40
 7552 0624 05       		.byte	0x5
 7553 0625 37       		.byte	0x37
 7554 0626 D3060000 		.4byte	0x6d3
 7555 062a 0B       		.uleb128 0xb
 7556 062b 590E0000 		.4byte	.LASF50
 7557 062f 05       		.byte	0x5
 7558 0630 38       		.byte	0x38
 7559 0631 E5000000 		.4byte	0xe5
 7560 0635 00       		.byte	0
 7561 0636 0B       		.uleb128 0xb
 7562 0637 070A0000 		.4byte	.LASF51
 7563 063b 05       		.byte	0x5
 7564 063c 39       		.byte	0x39
 7565 063d E5000000 		.4byte	0xe5
 7566 0641 04       		.byte	0x4
 7567 0642 0B       		.uleb128 0xb
 7568 0643 4B000000 		.4byte	.LASF22
 7569 0647 05       		.byte	0x5
 7570 0648 3A       		.byte	0x3a
 7571 0649 D8060000 		.4byte	0x6d8
 7572 064d 08       		.byte	0x8
 7573 064e 0B       		.uleb128 0xb
 7574 064f ED000000 		.4byte	.LASF52
 7575 0653 05       		.byte	0x5
 7576 0654 3B       		.byte	0x3b
 7577 0655 E0000000 		.4byte	0xe0
 7578 0659 10       		.byte	0x10
 7579 065a 0B       		.uleb128 0xb
 7580 065b F5000000 		.4byte	.LASF53
 7581 065f 05       		.byte	0x5
 7582 0660 3C       		.byte	0x3c
 7583 0661 E0000000 		.4byte	0xe0
 7584 0665 14       		.byte	0x14
 7585 0666 0B       		.uleb128 0xb
 7586 0667 FD000000 		.4byte	.LASF54
 7587 066b 05       		.byte	0x5
 7588 066c 3D       		.byte	0x3d
 7589 066d E0000000 		.4byte	0xe0
 7590 0671 18       		.byte	0x18
 7591 0672 0B       		.uleb128 0xb
 7592 0673 05010000 		.4byte	.LASF55
 7593 0677 05       		.byte	0x5
 7594 0678 3E       		.byte	0x3e
 7595 0679 E0000000 		.4byte	0xe0
 7596 067d 1C       		.byte	0x1c
 7597 067e 0B       		.uleb128 0xb
 7598 067f AA0B0000 		.4byte	.LASF56
ARM GAS  C:\Users\JC\AppData\Local\Temp\ccU1E72d.s 			page 185


 7599 0683 05       		.byte	0x5
 7600 0684 3F       		.byte	0x3f
 7601 0685 E5000000 		.4byte	0xe5
 7602 0689 20       		.byte	0x20
 7603 068a 0B       		.uleb128 0xb
 7604 068b 7D080000 		.4byte	.LASF57
 7605 068f 05       		.byte	0x5
 7606 0690 40       		.byte	0x40
 7607 0691 E5000000 		.4byte	0xe5
 7608 0695 24       		.byte	0x24
 7609 0696 0B       		.uleb128 0xb
 7610 0697 67150000 		.4byte	.LASF25
 7611 069b 05       		.byte	0x5
 7612 069c 41       		.byte	0x41
 7613 069d E2060000 		.4byte	0x6e2
 7614 06a1 28       		.byte	0x28
 7615 06a2 0B       		.uleb128 0xb
 7616 06a3 31140000 		.4byte	.LASF58
 7617 06a7 05       		.byte	0x5
 7618 06a8 42       		.byte	0x42
 7619 06a9 E0000000 		.4byte	0xe0
 7620 06ad 30       		.byte	0x30
 7621 06ae 0B       		.uleb128 0xb
 7622 06af 39140000 		.4byte	.LASF59
 7623 06b3 05       		.byte	0x5
 7624 06b4 43       		.byte	0x43
 7625 06b5 E0000000 		.4byte	0xe0
 7626 06b9 34       		.byte	0x34
 7627 06ba 0B       		.uleb128 0xb
 7628 06bb 41140000 		.4byte	.LASF60
 7629 06bf 05       		.byte	0x5
 7630 06c0 44       		.byte	0x44
 7631 06c1 E0000000 		.4byte	0xe0
 7632 06c5 38       		.byte	0x38
 7633 06c6 0B       		.uleb128 0xb
 7634 06c7 49140000 		.4byte	.LASF61
 7635 06cb 05       		.byte	0x5
 7636 06cc 45       		.byte	0x45
 7637 06cd E0000000 		.4byte	0xe0
 7638 06d1 3C       		.byte	0x3c
 7639 06d2 00       		.byte	0
 7640 06d3 05       		.uleb128 0x5
 7641 06d4 01010000 		.4byte	0x101
 7642 06d8 06       		.uleb128 0x6
 7643 06d9 D3060000 		.4byte	0x6d3
 7644 06dd 05       		.uleb128 0x5
 7645 06de 01010000 		.4byte	0x101
 7646 06e2 06       		.uleb128 0x6
 7647 06e3 DD060000 		.4byte	0x6dd
 7648 06e7 04       		.uleb128 0x4
 7649 06e8 F80B0000 		.4byte	.LASF63
 7650 06ec 05       		.byte	0x5
 7651 06ed 46       		.byte	0x46
 7652 06ee 22060000 		.4byte	0x622
 7653 06f2 0A       		.uleb128 0xa
 7654 06f3 40       		.byte	0x40
 7655 06f4 06       		.byte	0x6
ARM GAS  C:\Users\JC\AppData\Local\Temp\ccU1E72d.s 			page 186


 7656 06f5 25       		.byte	0x25
 7657 06f6 43070000 		.4byte	0x743
 7658 06fa 0B       		.uleb128 0xb
 7659 06fb 27150000 		.4byte	.LASF29
 7660 06ff 06       		.byte	0x6
 7661 0700 26       		.byte	0x26
 7662 0701 E0000000 		.4byte	0xe0
 7663 0705 00       		.byte	0
 7664 0706 0B       		.uleb128 0xb
 7665 0707 4F150000 		.4byte	.LASF30
 7666 070b 06       		.byte	0x6
 7667 070c 27       		.byte	0x27
 7668 070d E0000000 		.4byte	0xe0
 7669 0711 04       		.byte	0x4
 7670 0712 0B       		.uleb128 0xb
 7671 0713 4B000000 		.4byte	.LASF22
 7672 0717 06       		.byte	0x6
 7673 0718 28       		.byte	0x28
 7674 0719 48070000 		.4byte	0x748
 7675 071d 08       		.byte	0x8
 7676 071e 0B       		.uleb128 0xb
 7677 071f 2D150000 		.4byte	.LASF31
 7678 0723 06       		.byte	0x6
 7679 0724 29       		.byte	0x29
 7680 0725 E5000000 		.4byte	0xe5
 7681 0729 20       		.byte	0x20
 7682 072a 0B       		.uleb128 0xb
 7683 072b 35060000 		.4byte	.LASF32
 7684 072f 06       		.byte	0x6
 7685 0730 2A       		.byte	0x2a
 7686 0731 E0000000 		.4byte	0xe0
 7687 0735 24       		.byte	0x24
 7688 0736 0B       		.uleb128 0xb
 7689 0737 67150000 		.4byte	.LASF25
 7690 073b 06       		.byte	0x6
 7691 073c 2B       		.byte	0x2b
 7692 073d 52070000 		.4byte	0x752
 7693 0741 28       		.byte	0x28
 7694 0742 00       		.byte	0
 7695 0743 05       		.uleb128 0x5
 7696 0744 91010000 		.4byte	0x191
 7697 0748 06       		.uleb128 0x6
 7698 0749 43070000 		.4byte	0x743
 7699 074d 05       		.uleb128 0x5
 7700 074e 91010000 		.4byte	0x191
 7701 0752 06       		.uleb128 0x6
 7702 0753 4D070000 		.4byte	0x74d
 7703 0757 04       		.uleb128 0x4
 7704 0758 00000000 		.4byte	.LASF64
 7705 075c 06       		.byte	0x6
 7706 075d 2C       		.byte	0x2c
 7707 075e F2060000 		.4byte	0x6f2
 7708 0762 0C       		.uleb128 0xc
 7709 0763 0040     		.2byte	0x4000
 7710 0765 06       		.byte	0x6
 7711 0766 31       		.byte	0x31
 7712 0767 52080000 		.4byte	0x852
ARM GAS  C:\Users\JC\AppData\Local\Temp\ccU1E72d.s 			page 187


 7713 076b 0B       		.uleb128 0xb
 7714 076c 79130000 		.4byte	.LASF65
 7715 0770 06       		.byte	0x6
 7716 0771 32       		.byte	0x32
 7717 0772 E0000000 		.4byte	0xe0
 7718 0776 00       		.byte	0
 7719 0777 0B       		.uleb128 0xb
 7720 0778 7D0B0000 		.4byte	.LASF66
 7721 077c 06       		.byte	0x6
 7722 077d 33       		.byte	0x33
 7723 077e E0000000 		.4byte	0xe0
 7724 0782 04       		.byte	0x4
 7725 0783 0B       		.uleb128 0xb
 7726 0784 0F040000 		.4byte	.LASF67
 7727 0788 06       		.byte	0x6
 7728 0789 34       		.byte	0x34
 7729 078a E0000000 		.4byte	0xe0
 7730 078e 08       		.byte	0x8
 7731 078f 0B       		.uleb128 0xb
 7732 0790 8E120000 		.4byte	.LASF68
 7733 0794 06       		.byte	0x6
 7734 0795 35       		.byte	0x35
 7735 0796 E0000000 		.4byte	0xe0
 7736 079a 0C       		.byte	0xc
 7737 079b 0B       		.uleb128 0xb
 7738 079c A50A0000 		.4byte	.LASF69
 7739 07a0 06       		.byte	0x6
 7740 07a1 36       		.byte	0x36
 7741 07a2 E0000000 		.4byte	0xe0
 7742 07a6 10       		.byte	0x10
 7743 07a7 0B       		.uleb128 0xb
 7744 07a8 38030000 		.4byte	.LASF70
 7745 07ac 06       		.byte	0x6
 7746 07ad 37       		.byte	0x37
 7747 07ae E0000000 		.4byte	0xe0
 7748 07b2 14       		.byte	0x14
 7749 07b3 0B       		.uleb128 0xb
 7750 07b4 72110000 		.4byte	.LASF71
 7751 07b8 06       		.byte	0x6
 7752 07b9 38       		.byte	0x38
 7753 07ba E0000000 		.4byte	0xe0
 7754 07be 18       		.byte	0x18
 7755 07bf 0B       		.uleb128 0xb
 7756 07c0 78030000 		.4byte	.LASF72
 7757 07c4 06       		.byte	0x6
 7758 07c5 39       		.byte	0x39
 7759 07c6 E0000000 		.4byte	0xe0
 7760 07ca 1C       		.byte	0x1c
 7761 07cb 0B       		.uleb128 0xb
 7762 07cc 30020000 		.4byte	.LASF73
 7763 07d0 06       		.byte	0x6
 7764 07d1 3A       		.byte	0x3a
 7765 07d2 E0000000 		.4byte	0xe0
 7766 07d6 20       		.byte	0x20
 7767 07d7 0B       		.uleb128 0xb
 7768 07d8 18100000 		.4byte	.LASF74
 7769 07dc 06       		.byte	0x6
ARM GAS  C:\Users\JC\AppData\Local\Temp\ccU1E72d.s 			page 188


 7770 07dd 3B       		.byte	0x3b
 7771 07de E0000000 		.4byte	0xe0
 7772 07e2 24       		.byte	0x24
 7773 07e3 0B       		.uleb128 0xb
 7774 07e4 B2000000 		.4byte	.LASF75
 7775 07e8 06       		.byte	0x6
 7776 07e9 3C       		.byte	0x3c
 7777 07ea E0000000 		.4byte	0xe0
 7778 07ee 28       		.byte	0x28
 7779 07ef 0B       		.uleb128 0xb
 7780 07f0 D6060000 		.4byte	.LASF76
 7781 07f4 06       		.byte	0x6
 7782 07f5 3D       		.byte	0x3d
 7783 07f6 E0000000 		.4byte	0xe0
 7784 07fa 2C       		.byte	0x2c
 7785 07fb 0B       		.uleb128 0xb
 7786 07fc 90150000 		.4byte	.LASF77
 7787 0800 06       		.byte	0x6
 7788 0801 3E       		.byte	0x3e
 7789 0802 E0000000 		.4byte	0xe0
 7790 0806 30       		.byte	0x30
 7791 0807 0B       		.uleb128 0xb
 7792 0808 2F030000 		.4byte	.LASF78
 7793 080c 06       		.byte	0x6
 7794 080d 3F       		.byte	0x3f
 7795 080e E0000000 		.4byte	0xe0
 7796 0812 34       		.byte	0x34
 7797 0813 0B       		.uleb128 0xb
 7798 0814 BB050000 		.4byte	.LASF79
 7799 0818 06       		.byte	0x6
 7800 0819 40       		.byte	0x40
 7801 081a E0000000 		.4byte	0xe0
 7802 081e 38       		.byte	0x38
 7803 081f 0B       		.uleb128 0xb
 7804 0820 CE130000 		.4byte	.LASF80
 7805 0824 06       		.byte	0x6
 7806 0825 41       		.byte	0x41
 7807 0826 E0000000 		.4byte	0xe0
 7808 082a 3C       		.byte	0x3c
 7809 082b 0B       		.uleb128 0xb
 7810 082c 4B000000 		.4byte	.LASF22
 7811 0830 06       		.byte	0x6
 7812 0831 42       		.byte	0x42
 7813 0832 68080000 		.4byte	0x868
 7814 0836 40       		.byte	0x40
 7815 0837 0E       		.uleb128 0xe
 7816 0838 3F010000 		.4byte	.LASF81
 7817 083c 06       		.byte	0x6
 7818 083d 43       		.byte	0x43
 7819 083e 6D080000 		.4byte	0x86d
 7820 0842 0020     		.2byte	0x2000
 7821 0844 0E       		.uleb128 0xe
 7822 0845 67150000 		.4byte	.LASF25
 7823 0849 06       		.byte	0x6
 7824 084a 44       		.byte	0x44
 7825 084b 82080000 		.4byte	0x882
 7826 084f 0028     		.2byte	0x2800
ARM GAS  C:\Users\JC\AppData\Local\Temp\ccU1E72d.s 			page 189


 7827 0851 00       		.byte	0
 7828 0852 07       		.uleb128 0x7
 7829 0853 E5000000 		.4byte	0xe5
 7830 0857 63080000 		.4byte	0x863
 7831 085b 09       		.uleb128 0x9
 7832 085c EA000000 		.4byte	0xea
 7833 0860 EF07     		.2byte	0x7ef
 7834 0862 00       		.byte	0
 7835 0863 05       		.uleb128 0x5
 7836 0864 52080000 		.4byte	0x852
 7837 0868 06       		.uleb128 0x6
 7838 0869 63080000 		.4byte	0x863
 7839 086d 07       		.uleb128 0x7
 7840 086e 57070000 		.4byte	0x757
 7841 0872 7D080000 		.4byte	0x87d
 7842 0876 08       		.uleb128 0x8
 7843 0877 EA000000 		.4byte	0xea
 7844 087b 1F       		.byte	0x1f
 7845 087c 00       		.byte	0
 7846 087d 05       		.uleb128 0x5
 7847 087e 11010000 		.4byte	0x111
 7848 0882 06       		.uleb128 0x6
 7849 0883 7D080000 		.4byte	0x87d
 7850 0887 04       		.uleb128 0x4
 7851 0888 5B000000 		.4byte	.LASF82
 7852 088c 06       		.byte	0x6
 7853 088d 45       		.byte	0x45
 7854 088e 62070000 		.4byte	0x762
 7855 0892 0A       		.uleb128 0xa
 7856 0893 20       		.byte	0x20
 7857 0894 06       		.byte	0x6
 7858 0895 4A       		.byte	0x4a
 7859 0896 BF080000 		.4byte	0x8bf
 7860 089a 0B       		.uleb128 0xb
 7861 089b 560C0000 		.4byte	.LASF83
 7862 089f 06       		.byte	0x6
 7863 08a0 4B       		.byte	0x4b
 7864 08a1 E0000000 		.4byte	0xe0
 7865 08a5 00       		.byte	0
 7866 08a6 0D       		.uleb128 0xd
 7867 08a7 41545400 		.ascii	"ATT\000"
 7868 08ab 06       		.byte	0x6
 7869 08ac 4C       		.byte	0x4c
 7870 08ad E0000000 		.4byte	0xe0
 7871 08b1 04       		.byte	0x4
 7872 08b2 0B       		.uleb128 0xb
 7873 08b3 4B000000 		.4byte	.LASF22
 7874 08b7 06       		.byte	0x6
 7875 08b8 4D       		.byte	0x4d
 7876 08b9 C4080000 		.4byte	0x8c4
 7877 08bd 08       		.byte	0x8
 7878 08be 00       		.byte	0
 7879 08bf 05       		.uleb128 0x5
 7880 08c0 91010000 		.4byte	0x191
 7881 08c4 06       		.uleb128 0x6
 7882 08c5 BF080000 		.4byte	0x8bf
 7883 08c9 04       		.uleb128 0x4
ARM GAS  C:\Users\JC\AppData\Local\Temp\ccU1E72d.s 			page 190


 7884 08ca CA010000 		.4byte	.LASF84
 7885 08ce 06       		.byte	0x6
 7886 08cf 4E       		.byte	0x4e
 7887 08d0 92080000 		.4byte	0x892
 7888 08d4 0C       		.uleb128 0xc
 7889 08d5 0004     		.2byte	0x400
 7890 08d7 06       		.byte	0x6
 7891 08d8 53       		.byte	0x53
 7892 08d9 03090000 		.4byte	0x903
 7893 08dd 0B       		.uleb128 0xb
 7894 08de 770E0000 		.4byte	.LASF85
 7895 08e2 06       		.byte	0x6
 7896 08e3 54       		.byte	0x54
 7897 08e4 E0000000 		.4byte	0xe0
 7898 08e8 00       		.byte	0
 7899 08e9 0B       		.uleb128 0xb
 7900 08ea 5C060000 		.4byte	.LASF86
 7901 08ee 06       		.byte	0x6
 7902 08ef 55       		.byte	0x55
 7903 08f0 18090000 		.4byte	0x918
 7904 08f4 04       		.byte	0x4
 7905 08f5 0E       		.uleb128 0xe
 7906 08f6 6D100000 		.4byte	.LASF87
 7907 08fa 06       		.byte	0x6
 7908 08fb 56       		.byte	0x56
 7909 08fc 1D090000 		.4byte	0x91d
 7910 0900 0002     		.2byte	0x200
 7911 0902 00       		.byte	0
 7912 0903 07       		.uleb128 0x7
 7913 0904 E5000000 		.4byte	0xe5
 7914 0908 13090000 		.4byte	0x913
 7915 090c 08       		.uleb128 0x8
 7916 090d EA000000 		.4byte	0xea
 7917 0911 7E       		.byte	0x7e
 7918 0912 00       		.byte	0
 7919 0913 05       		.uleb128 0x5
 7920 0914 03090000 		.4byte	0x903
 7921 0918 06       		.uleb128 0x6
 7922 0919 13090000 		.4byte	0x913
 7923 091d 07       		.uleb128 0x7
 7924 091e C9080000 		.4byte	0x8c9
 7925 0922 2D090000 		.4byte	0x92d
 7926 0926 08       		.uleb128 0x8
 7927 0927 EA000000 		.4byte	0xea
 7928 092b 0F       		.byte	0xf
 7929 092c 00       		.byte	0
 7930 092d 04       		.uleb128 0x4
 7931 092e AF090000 		.4byte	.LASF88
 7932 0932 06       		.byte	0x6
 7933 0933 57       		.byte	0x57
 7934 0934 D4080000 		.4byte	0x8d4
 7935 0938 0C       		.uleb128 0xc
 7936 0939 0080     		.2byte	0x8000
 7937 093b 06       		.byte	0x6
 7938 093c 5C       		.byte	0x5c
 7939 093d 5B090000 		.4byte	0x95b
 7940 0941 0B       		.uleb128 0xb
ARM GAS  C:\Users\JC\AppData\Local\Temp\ccU1E72d.s 			page 191


 7941 0942 6F070000 		.4byte	.LASF89
 7942 0946 06       		.byte	0x6
 7943 0947 5D       		.byte	0x5d
 7944 0948 87080000 		.4byte	0x887
 7945 094c 00       		.byte	0
 7946 094d 0E       		.uleb128 0xe
 7947 094e 24120000 		.4byte	.LASF90
 7948 0952 06       		.byte	0x6
 7949 0953 5E       		.byte	0x5e
 7950 0954 5B090000 		.4byte	0x95b
 7951 0958 0040     		.2byte	0x4000
 7952 095a 00       		.byte	0
 7953 095b 07       		.uleb128 0x7
 7954 095c 2D090000 		.4byte	0x92d
 7955 0960 6B090000 		.4byte	0x96b
 7956 0964 08       		.uleb128 0x8
 7957 0965 EA000000 		.4byte	0xea
 7958 0969 0F       		.byte	0xf
 7959 096a 00       		.byte	0
 7960 096b 04       		.uleb128 0x4
 7961 096c 50090000 		.4byte	.LASF91
 7962 0970 06       		.byte	0x6
 7963 0971 5F       		.byte	0x5f
 7964 0972 38090000 		.4byte	0x938
 7965 0976 0A       		.uleb128 0xa
 7966 0977 B8       		.byte	0xb8
 7967 0978 07       		.byte	0x7
 7968 0979 34       		.byte	0x34
 7969 097a 870D0000 		.4byte	0xd87
 7970 097e 0B       		.uleb128 0xb
 7971 097f 19020000 		.4byte	.LASF92
 7972 0983 07       		.byte	0x7
 7973 0984 37       		.byte	0x37
 7974 0985 D5000000 		.4byte	0xd5
 7975 0989 00       		.byte	0
 7976 098a 0B       		.uleb128 0xb
 7977 098b 30090000 		.4byte	.LASF93
 7978 098f 07       		.byte	0x7
 7979 0990 38       		.byte	0x38
 7980 0991 D5000000 		.4byte	0xd5
 7981 0995 04       		.byte	0x4
 7982 0996 0B       		.uleb128 0xb
 7983 0997 0D010000 		.4byte	.LASF94
 7984 099b 07       		.byte	0x7
 7985 099c 39       		.byte	0x39
 7986 099d D5000000 		.4byte	0xd5
 7987 09a1 08       		.byte	0x8
 7988 09a2 0B       		.uleb128 0xb
 7989 09a3 D5000000 		.4byte	.LASF95
 7990 09a7 07       		.byte	0x7
 7991 09a8 3A       		.byte	0x3a
 7992 09a9 D5000000 		.4byte	0xd5
 7993 09ad 0C       		.byte	0xc
 7994 09ae 0B       		.uleb128 0xb
 7995 09af 490D0000 		.4byte	.LASF96
 7996 09b3 07       		.byte	0x7
 7997 09b4 3B       		.byte	0x3b
ARM GAS  C:\Users\JC\AppData\Local\Temp\ccU1E72d.s 			page 192


 7998 09b5 D5000000 		.4byte	0xd5
 7999 09b9 10       		.byte	0x10
 8000 09ba 0B       		.uleb128 0xb
 8001 09bb 640B0000 		.4byte	.LASF97
 8002 09bf 07       		.byte	0x7
 8003 09c0 3C       		.byte	0x3c
 8004 09c1 D5000000 		.4byte	0xd5
 8005 09c5 14       		.byte	0x14
 8006 09c6 0B       		.uleb128 0xb
 8007 09c7 85080000 		.4byte	.LASF98
 8008 09cb 07       		.byte	0x7
 8009 09cc 3D       		.byte	0x3d
 8010 09cd D5000000 		.4byte	0xd5
 8011 09d1 18       		.byte	0x18
 8012 09d2 0B       		.uleb128 0xb
 8013 09d3 46150000 		.4byte	.LASF99
 8014 09d7 07       		.byte	0x7
 8015 09d8 3E       		.byte	0x3e
 8016 09d9 D5000000 		.4byte	0xd5
 8017 09dd 1C       		.byte	0x1c
 8018 09de 0B       		.uleb128 0xb
 8019 09df 7D0A0000 		.4byte	.LASF100
 8020 09e3 07       		.byte	0x7
 8021 09e4 3F       		.byte	0x3f
 8022 09e5 D5000000 		.4byte	0xd5
 8023 09e9 20       		.byte	0x20
 8024 09ea 0B       		.uleb128 0xb
 8025 09eb EF080000 		.4byte	.LASF101
 8026 09ef 07       		.byte	0x7
 8027 09f0 40       		.byte	0x40
 8028 09f1 D5000000 		.4byte	0xd5
 8029 09f5 24       		.byte	0x24
 8030 09f6 0B       		.uleb128 0xb
 8031 09f7 AC0E0000 		.4byte	.LASF102
 8032 09fb 07       		.byte	0x7
 8033 09fc 43       		.byte	0x43
 8034 09fd A9000000 		.4byte	0xa9
 8035 0a01 28       		.byte	0x28
 8036 0a02 0B       		.uleb128 0xb
 8037 0a03 57040000 		.4byte	.LASF103
 8038 0a07 07       		.byte	0x7
 8039 0a08 44       		.byte	0x44
 8040 0a09 A9000000 		.4byte	0xa9
 8041 0a0d 29       		.byte	0x29
 8042 0a0e 0B       		.uleb128 0xb
 8043 0a0f BA0D0000 		.4byte	.LASF104
 8044 0a13 07       		.byte	0x7
 8045 0a14 45       		.byte	0x45
 8046 0a15 A9000000 		.4byte	0xa9
 8047 0a19 2A       		.byte	0x2a
 8048 0a1a 0B       		.uleb128 0xb
 8049 0a1b DF0E0000 		.4byte	.LASF105
 8050 0a1f 07       		.byte	0x7
 8051 0a20 46       		.byte	0x46
 8052 0a21 A9000000 		.4byte	0xa9
 8053 0a25 2B       		.byte	0x2b
 8054 0a26 0B       		.uleb128 0xb
ARM GAS  C:\Users\JC\AppData\Local\Temp\ccU1E72d.s 			page 193


 8055 0a27 0D020000 		.4byte	.LASF106
 8056 0a2b 07       		.byte	0x7
 8057 0a2c 47       		.byte	0x47
 8058 0a2d A9000000 		.4byte	0xa9
 8059 0a31 2C       		.byte	0x2c
 8060 0a32 0B       		.uleb128 0xb
 8061 0a33 B7100000 		.4byte	.LASF107
 8062 0a37 07       		.byte	0x7
 8063 0a38 48       		.byte	0x48
 8064 0a39 A9000000 		.4byte	0xa9
 8065 0a3d 2D       		.byte	0x2d
 8066 0a3e 0B       		.uleb128 0xb
 8067 0a3f 3D160000 		.4byte	.LASF108
 8068 0a43 07       		.byte	0x7
 8069 0a44 49       		.byte	0x49
 8070 0a45 A9000000 		.4byte	0xa9
 8071 0a49 2E       		.byte	0x2e
 8072 0a4a 0B       		.uleb128 0xb
 8073 0a4b 33150000 		.4byte	.LASF109
 8074 0a4f 07       		.byte	0x7
 8075 0a50 4A       		.byte	0x4a
 8076 0a51 A9000000 		.4byte	0xa9
 8077 0a55 2F       		.byte	0x2f
 8078 0a56 0B       		.uleb128 0xb
 8079 0a57 64030000 		.4byte	.LASF110
 8080 0a5b 07       		.byte	0x7
 8081 0a5c 4B       		.byte	0x4b
 8082 0a5d A9000000 		.4byte	0xa9
 8083 0a61 30       		.byte	0x30
 8084 0a62 0B       		.uleb128 0xb
 8085 0a63 ED0B0000 		.4byte	.LASF111
 8086 0a67 07       		.byte	0x7
 8087 0a68 4E       		.byte	0x4e
 8088 0a69 A9000000 		.4byte	0xa9
 8089 0a6d 31       		.byte	0x31
 8090 0a6e 0B       		.uleb128 0xb
 8091 0a6f 23140000 		.4byte	.LASF112
 8092 0a73 07       		.byte	0x7
 8093 0a74 4F       		.byte	0x4f
 8094 0a75 A9000000 		.4byte	0xa9
 8095 0a79 32       		.byte	0x32
 8096 0a7a 0B       		.uleb128 0xb
 8097 0a7b 9E0B0000 		.4byte	.LASF113
 8098 0a7f 07       		.byte	0x7
 8099 0a80 50       		.byte	0x50
 8100 0a81 A9000000 		.4byte	0xa9
 8101 0a85 33       		.byte	0x33
 8102 0a86 0B       		.uleb128 0xb
 8103 0a87 FA080000 		.4byte	.LASF114
 8104 0a8b 07       		.byte	0x7
 8105 0a8c 51       		.byte	0x51
 8106 0a8d A9000000 		.4byte	0xa9
 8107 0a91 34       		.byte	0x34
 8108 0a92 0B       		.uleb128 0xb
 8109 0a93 7A050000 		.4byte	.LASF115
 8110 0a97 07       		.byte	0x7
 8111 0a98 52       		.byte	0x52
ARM GAS  C:\Users\JC\AppData\Local\Temp\ccU1E72d.s 			page 194


 8112 0a99 B4000000 		.4byte	0xb4
 8113 0a9d 36       		.byte	0x36
 8114 0a9e 0B       		.uleb128 0xb
 8115 0a9f 47020000 		.4byte	.LASF116
 8116 0aa3 07       		.byte	0x7
 8117 0aa4 53       		.byte	0x53
 8118 0aa5 B4000000 		.4byte	0xb4
 8119 0aa9 38       		.byte	0x38
 8120 0aaa 0B       		.uleb128 0xb
 8121 0aab 59020000 		.4byte	.LASF117
 8122 0aaf 07       		.byte	0x7
 8123 0ab0 54       		.byte	0x54
 8124 0ab1 B4000000 		.4byte	0xb4
 8125 0ab5 3A       		.byte	0x3a
 8126 0ab6 0B       		.uleb128 0xb
 8127 0ab7 71150000 		.4byte	.LASF118
 8128 0abb 07       		.byte	0x7
 8129 0abc 55       		.byte	0x55
 8130 0abd A9000000 		.4byte	0xa9
 8131 0ac1 3C       		.byte	0x3c
 8132 0ac2 0B       		.uleb128 0xb
 8133 0ac3 F3060000 		.4byte	.LASF119
 8134 0ac7 07       		.byte	0x7
 8135 0ac8 56       		.byte	0x56
 8136 0ac9 A9000000 		.4byte	0xa9
 8137 0acd 3D       		.byte	0x3d
 8138 0ace 0B       		.uleb128 0xb
 8139 0acf 840D0000 		.4byte	.LASF120
 8140 0ad3 07       		.byte	0x7
 8141 0ad4 57       		.byte	0x57
 8142 0ad5 A9000000 		.4byte	0xa9
 8143 0ad9 3E       		.byte	0x3e
 8144 0ada 0B       		.uleb128 0xb
 8145 0adb A6000000 		.4byte	.LASF121
 8146 0adf 07       		.byte	0x7
 8147 0ae0 58       		.byte	0x58
 8148 0ae1 A9000000 		.4byte	0xa9
 8149 0ae5 3F       		.byte	0x3f
 8150 0ae6 0B       		.uleb128 0xb
 8151 0ae7 72010000 		.4byte	.LASF122
 8152 0aeb 07       		.byte	0x7
 8153 0aec 59       		.byte	0x59
 8154 0aed A9000000 		.4byte	0xa9
 8155 0af1 40       		.byte	0x40
 8156 0af2 0B       		.uleb128 0xb
 8157 0af3 460C0000 		.4byte	.LASF123
 8158 0af7 07       		.byte	0x7
 8159 0af8 5A       		.byte	0x5a
 8160 0af9 A9000000 		.4byte	0xa9
 8161 0afd 41       		.byte	0x41
 8162 0afe 0B       		.uleb128 0xb
 8163 0aff E1050000 		.4byte	.LASF124
 8164 0b03 07       		.byte	0x7
 8165 0b04 5B       		.byte	0x5b
 8166 0b05 A9000000 		.4byte	0xa9
 8167 0b09 42       		.byte	0x42
 8168 0b0a 0B       		.uleb128 0xb
ARM GAS  C:\Users\JC\AppData\Local\Temp\ccU1E72d.s 			page 195


 8169 0b0b D3080000 		.4byte	.LASF125
 8170 0b0f 07       		.byte	0x7
 8171 0b10 5C       		.byte	0x5c
 8172 0b11 A9000000 		.4byte	0xa9
 8173 0b15 43       		.byte	0x43
 8174 0b16 0B       		.uleb128 0xb
 8175 0b17 84090000 		.4byte	.LASF126
 8176 0b1b 07       		.byte	0x7
 8177 0b1c 5D       		.byte	0x5d
 8178 0b1d A9000000 		.4byte	0xa9
 8179 0b21 44       		.byte	0x44
 8180 0b22 0B       		.uleb128 0xb
 8181 0b23 ED0E0000 		.4byte	.LASF127
 8182 0b27 07       		.byte	0x7
 8183 0b28 5E       		.byte	0x5e
 8184 0b29 D5000000 		.4byte	0xd5
 8185 0b2d 48       		.byte	0x48
 8186 0b2e 0B       		.uleb128 0xb
 8187 0b2f ED020000 		.4byte	.LASF128
 8188 0b33 07       		.byte	0x7
 8189 0b34 5F       		.byte	0x5f
 8190 0b35 D5000000 		.4byte	0xd5
 8191 0b39 4C       		.byte	0x4c
 8192 0b3a 0B       		.uleb128 0xb
 8193 0b3b 68130000 		.4byte	.LASF129
 8194 0b3f 07       		.byte	0x7
 8195 0b40 60       		.byte	0x60
 8196 0b41 A9000000 		.4byte	0xa9
 8197 0b45 50       		.byte	0x50
 8198 0b46 0B       		.uleb128 0xb
 8199 0b47 74070000 		.4byte	.LASF130
 8200 0b4b 07       		.byte	0x7
 8201 0b4c 61       		.byte	0x61
 8202 0b4d A9000000 		.4byte	0xa9
 8203 0b51 51       		.byte	0x51
 8204 0b52 0B       		.uleb128 0xb
 8205 0b53 DE0A0000 		.4byte	.LASF131
 8206 0b57 07       		.byte	0x7
 8207 0b58 62       		.byte	0x62
 8208 0b59 A9000000 		.4byte	0xa9
 8209 0b5d 52       		.byte	0x52
 8210 0b5e 0B       		.uleb128 0xb
 8211 0b5f 65040000 		.4byte	.LASF132
 8212 0b63 07       		.byte	0x7
 8213 0b64 63       		.byte	0x63
 8214 0b65 A9000000 		.4byte	0xa9
 8215 0b69 53       		.byte	0x53
 8216 0b6a 0B       		.uleb128 0xb
 8217 0b6b A2060000 		.4byte	.LASF133
 8218 0b6f 07       		.byte	0x7
 8219 0b70 64       		.byte	0x64
 8220 0b71 A9000000 		.4byte	0xa9
 8221 0b75 54       		.byte	0x54
 8222 0b76 0B       		.uleb128 0xb
 8223 0b77 5C080000 		.4byte	.LASF134
 8224 0b7b 07       		.byte	0x7
 8225 0b7c 65       		.byte	0x65
ARM GAS  C:\Users\JC\AppData\Local\Temp\ccU1E72d.s 			page 196


 8226 0b7d A9000000 		.4byte	0xa9
 8227 0b81 55       		.byte	0x55
 8228 0b82 0B       		.uleb128 0xb
 8229 0b83 9A130000 		.4byte	.LASF135
 8230 0b87 07       		.byte	0x7
 8231 0b88 66       		.byte	0x66
 8232 0b89 A9000000 		.4byte	0xa9
 8233 0b8d 56       		.byte	0x56
 8234 0b8e 0B       		.uleb128 0xb
 8235 0b8f 350B0000 		.4byte	.LASF136
 8236 0b93 07       		.byte	0x7
 8237 0b94 67       		.byte	0x67
 8238 0b95 A9000000 		.4byte	0xa9
 8239 0b99 57       		.byte	0x57
 8240 0b9a 0B       		.uleb128 0xb
 8241 0b9b DF060000 		.4byte	.LASF137
 8242 0b9f 07       		.byte	0x7
 8243 0ba0 68       		.byte	0x68
 8244 0ba1 A9000000 		.4byte	0xa9
 8245 0ba5 58       		.byte	0x58
 8246 0ba6 0B       		.uleb128 0xb
 8247 0ba7 99150000 		.4byte	.LASF138
 8248 0bab 07       		.byte	0x7
 8249 0bac 69       		.byte	0x69
 8250 0bad A9000000 		.4byte	0xa9
 8251 0bb1 59       		.byte	0x59
 8252 0bb2 0B       		.uleb128 0xb
 8253 0bb3 08140000 		.4byte	.LASF139
 8254 0bb7 07       		.byte	0x7
 8255 0bb8 6E       		.byte	0x6e
 8256 0bb9 BF000000 		.4byte	0xbf
 8257 0bbd 5A       		.byte	0x5a
 8258 0bbe 0B       		.uleb128 0xb
 8259 0bbf 4B010000 		.4byte	.LASF140
 8260 0bc3 07       		.byte	0x7
 8261 0bc4 6F       		.byte	0x6f
 8262 0bc5 BF000000 		.4byte	0xbf
 8263 0bc9 5C       		.byte	0x5c
 8264 0bca 0B       		.uleb128 0xb
 8265 0bcb 96010000 		.4byte	.LASF141
 8266 0bcf 07       		.byte	0x7
 8267 0bd0 70       		.byte	0x70
 8268 0bd1 A9000000 		.4byte	0xa9
 8269 0bd5 5E       		.byte	0x5e
 8270 0bd6 0B       		.uleb128 0xb
 8271 0bd7 920D0000 		.4byte	.LASF142
 8272 0bdb 07       		.byte	0x7
 8273 0bdc 71       		.byte	0x71
 8274 0bdd A9000000 		.4byte	0xa9
 8275 0be1 5F       		.byte	0x5f
 8276 0be2 0B       		.uleb128 0xb
 8277 0be3 DE080000 		.4byte	.LASF143
 8278 0be7 07       		.byte	0x7
 8279 0be8 72       		.byte	0x72
 8280 0be9 A9000000 		.4byte	0xa9
 8281 0bed 60       		.byte	0x60
 8282 0bee 0B       		.uleb128 0xb
ARM GAS  C:\Users\JC\AppData\Local\Temp\ccU1E72d.s 			page 197


 8283 0bef 87050000 		.4byte	.LASF144
 8284 0bf3 07       		.byte	0x7
 8285 0bf4 73       		.byte	0x73
 8286 0bf5 D5000000 		.4byte	0xd5
 8287 0bf9 64       		.byte	0x64
 8288 0bfa 0B       		.uleb128 0xb
 8289 0bfb 86070000 		.4byte	.LASF145
 8290 0bff 07       		.byte	0x7
 8291 0c00 76       		.byte	0x76
 8292 0c01 BF000000 		.4byte	0xbf
 8293 0c05 68       		.byte	0x68
 8294 0c06 0B       		.uleb128 0xb
 8295 0c07 520D0000 		.4byte	.LASF146
 8296 0c0b 07       		.byte	0x7
 8297 0c0c 77       		.byte	0x77
 8298 0c0d BF000000 		.4byte	0xbf
 8299 0c11 6A       		.byte	0x6a
 8300 0c12 0B       		.uleb128 0xb
 8301 0c13 6E0B0000 		.4byte	.LASF147
 8302 0c17 07       		.byte	0x7
 8303 0c18 78       		.byte	0x78
 8304 0c19 BF000000 		.4byte	0xbf
 8305 0c1d 6C       		.byte	0x6c
 8306 0c1e 0B       		.uleb128 0xb
 8307 0c1f CA020000 		.4byte	.LASF148
 8308 0c23 07       		.byte	0x7
 8309 0c24 79       		.byte	0x79
 8310 0c25 BF000000 		.4byte	0xbf
 8311 0c29 6E       		.byte	0x6e
 8312 0c2a 0B       		.uleb128 0xb
 8313 0c2b E1090000 		.4byte	.LASF149
 8314 0c2f 07       		.byte	0x7
 8315 0c30 7B       		.byte	0x7b
 8316 0c31 A9000000 		.4byte	0xa9
 8317 0c35 70       		.byte	0x70
 8318 0c36 0B       		.uleb128 0xb
 8319 0c37 80030000 		.4byte	.LASF150
 8320 0c3b 07       		.byte	0x7
 8321 0c3c 7C       		.byte	0x7c
 8322 0c3d A9000000 		.4byte	0xa9
 8323 0c41 71       		.byte	0x71
 8324 0c42 0B       		.uleb128 0xb
 8325 0c43 D7020000 		.4byte	.LASF151
 8326 0c47 07       		.byte	0x7
 8327 0c48 7D       		.byte	0x7d
 8328 0c49 A9000000 		.4byte	0xa9
 8329 0c4d 72       		.byte	0x72
 8330 0c4e 0B       		.uleb128 0xb
 8331 0c4f 7F010000 		.4byte	.LASF152
 8332 0c53 07       		.byte	0x7
 8333 0c54 7E       		.byte	0x7e
 8334 0c55 A9000000 		.4byte	0xa9
 8335 0c59 73       		.byte	0x73
 8336 0c5a 0B       		.uleb128 0xb
 8337 0c5b 0E0E0000 		.4byte	.LASF153
 8338 0c5f 07       		.byte	0x7
 8339 0c60 80       		.byte	0x80
ARM GAS  C:\Users\JC\AppData\Local\Temp\ccU1E72d.s 			page 198


 8340 0c61 BF000000 		.4byte	0xbf
 8341 0c65 74       		.byte	0x74
 8342 0c66 0B       		.uleb128 0xb
 8343 0c67 BE0C0000 		.4byte	.LASF154
 8344 0c6b 07       		.byte	0x7
 8345 0c6c 81       		.byte	0x81
 8346 0c6d BF000000 		.4byte	0xbf
 8347 0c71 76       		.byte	0x76
 8348 0c72 0B       		.uleb128 0xb
 8349 0c73 0F0A0000 		.4byte	.LASF155
 8350 0c77 07       		.byte	0x7
 8351 0c78 82       		.byte	0x82
 8352 0c79 BF000000 		.4byte	0xbf
 8353 0c7d 78       		.byte	0x78
 8354 0c7e 0B       		.uleb128 0xb
 8355 0c7f 34050000 		.4byte	.LASF156
 8356 0c83 07       		.byte	0x7
 8357 0c84 83       		.byte	0x83
 8358 0c85 BF000000 		.4byte	0xbf
 8359 0c89 7A       		.byte	0x7a
 8360 0c8a 0B       		.uleb128 0xb
 8361 0c8b 20100000 		.4byte	.LASF157
 8362 0c8f 07       		.byte	0x7
 8363 0c90 86       		.byte	0x86
 8364 0c91 A9000000 		.4byte	0xa9
 8365 0c95 7C       		.byte	0x7c
 8366 0c96 0B       		.uleb128 0xb
 8367 0c97 FF120000 		.4byte	.LASF158
 8368 0c9b 07       		.byte	0x7
 8369 0c9c 87       		.byte	0x87
 8370 0c9d A9000000 		.4byte	0xa9
 8371 0ca1 7D       		.byte	0x7d
 8372 0ca2 0B       		.uleb128 0xb
 8373 0ca3 CB040000 		.4byte	.LASF159
 8374 0ca7 07       		.byte	0x7
 8375 0ca8 88       		.byte	0x88
 8376 0ca9 A9000000 		.4byte	0xa9
 8377 0cad 7E       		.byte	0x7e
 8378 0cae 0B       		.uleb128 0xb
 8379 0caf 17040000 		.4byte	.LASF160
 8380 0cb3 07       		.byte	0x7
 8381 0cb4 89       		.byte	0x89
 8382 0cb5 A9000000 		.4byte	0xa9
 8383 0cb9 7F       		.byte	0x7f
 8384 0cba 0B       		.uleb128 0xb
 8385 0cbb 49050000 		.4byte	.LASF161
 8386 0cbf 07       		.byte	0x7
 8387 0cc0 8A       		.byte	0x8a
 8388 0cc1 A9000000 		.4byte	0xa9
 8389 0cc5 80       		.byte	0x80
 8390 0cc6 0B       		.uleb128 0xb
 8391 0cc7 8F000000 		.4byte	.LASF162
 8392 0ccb 07       		.byte	0x7
 8393 0ccc 8D       		.byte	0x8d
 8394 0ccd D5000000 		.4byte	0xd5
 8395 0cd1 84       		.byte	0x84
 8396 0cd2 0B       		.uleb128 0xb
ARM GAS  C:\Users\JC\AppData\Local\Temp\ccU1E72d.s 			page 199


 8397 0cd3 46100000 		.4byte	.LASF163
 8398 0cd7 07       		.byte	0x7
 8399 0cd8 8E       		.byte	0x8e
 8400 0cd9 D5000000 		.4byte	0xd5
 8401 0cdd 88       		.byte	0x88
 8402 0cde 0B       		.uleb128 0xb
 8403 0cdf 0F0C0000 		.4byte	.LASF164
 8404 0ce3 07       		.byte	0x7
 8405 0ce4 8F       		.byte	0x8f
 8406 0ce5 D5000000 		.4byte	0xd5
 8407 0ce9 8C       		.byte	0x8c
 8408 0cea 0B       		.uleb128 0xb
 8409 0ceb F90D0000 		.4byte	.LASF165
 8410 0cef 07       		.byte	0x7
 8411 0cf0 90       		.byte	0x90
 8412 0cf1 D5000000 		.4byte	0xd5
 8413 0cf5 90       		.byte	0x90
 8414 0cf6 0B       		.uleb128 0xb
 8415 0cf7 E60F0000 		.4byte	.LASF166
 8416 0cfb 07       		.byte	0x7
 8417 0cfc 91       		.byte	0x91
 8418 0cfd D5000000 		.4byte	0xd5
 8419 0d01 94       		.byte	0x94
 8420 0d02 0B       		.uleb128 0xb
 8421 0d03 95030000 		.4byte	.LASF167
 8422 0d07 07       		.byte	0x7
 8423 0d08 92       		.byte	0x92
 8424 0d09 D5000000 		.4byte	0xd5
 8425 0d0d 98       		.byte	0x98
 8426 0d0e 0B       		.uleb128 0xb
 8427 0d0f 78100000 		.4byte	.LASF168
 8428 0d13 07       		.byte	0x7
 8429 0d14 93       		.byte	0x93
 8430 0d15 D5000000 		.4byte	0xd5
 8431 0d19 9C       		.byte	0x9c
 8432 0d1a 0B       		.uleb128 0xb
 8433 0d1b BD080000 		.4byte	.LASF169
 8434 0d1f 07       		.byte	0x7
 8435 0d20 94       		.byte	0x94
 8436 0d21 D5000000 		.4byte	0xd5
 8437 0d25 A0       		.byte	0xa0
 8438 0d26 0B       		.uleb128 0xb
 8439 0d27 2A010000 		.4byte	.LASF170
 8440 0d2b 07       		.byte	0x7
 8441 0d2c 95       		.byte	0x95
 8442 0d2d BF000000 		.4byte	0xbf
 8443 0d31 A4       		.byte	0xa4
 8444 0d32 0B       		.uleb128 0xb
 8445 0d33 E40D0000 		.4byte	.LASF171
 8446 0d37 07       		.byte	0x7
 8447 0d38 96       		.byte	0x96
 8448 0d39 BF000000 		.4byte	0xbf
 8449 0d3d A6       		.byte	0xa6
 8450 0d3e 0B       		.uleb128 0xb
 8451 0d3f EA100000 		.4byte	.LASF172
 8452 0d43 07       		.byte	0x7
 8453 0d44 97       		.byte	0x97
ARM GAS  C:\Users\JC\AppData\Local\Temp\ccU1E72d.s 			page 200


 8454 0d45 BF000000 		.4byte	0xbf
 8455 0d49 A8       		.byte	0xa8
 8456 0d4a 0B       		.uleb128 0xb
 8457 0d4b 610A0000 		.4byte	.LASF173
 8458 0d4f 07       		.byte	0x7
 8459 0d50 98       		.byte	0x98
 8460 0d51 BF000000 		.4byte	0xbf
 8461 0d55 AA       		.byte	0xaa
 8462 0d56 0B       		.uleb128 0xb
 8463 0d57 13030000 		.4byte	.LASF174
 8464 0d5b 07       		.byte	0x7
 8465 0d5c 99       		.byte	0x99
 8466 0d5d BF000000 		.4byte	0xbf
 8467 0d61 AC       		.byte	0xac
 8468 0d62 0B       		.uleb128 0xb
 8469 0d63 5B0C0000 		.4byte	.LASF175
 8470 0d67 07       		.byte	0x7
 8471 0d68 9A       		.byte	0x9a
 8472 0d69 BF000000 		.4byte	0xbf
 8473 0d6d AE       		.byte	0xae
 8474 0d6e 0B       		.uleb128 0xb
 8475 0d6f 21030000 		.4byte	.LASF176
 8476 0d73 07       		.byte	0x7
 8477 0d74 9D       		.byte	0x9d
 8478 0d75 BF000000 		.4byte	0xbf
 8479 0d79 B0       		.byte	0xb0
 8480 0d7a 0B       		.uleb128 0xb
 8481 0d7b 43120000 		.4byte	.LASF177
 8482 0d7f 07       		.byte	0x7
 8483 0d80 9E       		.byte	0x9e
 8484 0d81 D5000000 		.4byte	0xd5
 8485 0d85 B4       		.byte	0xb4
 8486 0d86 00       		.byte	0
 8487 0d87 04       		.uleb128 0x4
 8488 0d88 01150000 		.4byte	.LASF178
 8489 0d8c 07       		.byte	0x7
 8490 0d8d 9F       		.byte	0x9f
 8491 0d8e 76090000 		.4byte	0x976
 8492 0d92 0F       		.uleb128 0xf
 8493 0d93 01       		.byte	0x1
 8494 0d94 53000000 		.4byte	0x53
 8495 0d98 08       		.byte	0x8
 8496 0d99 E205     		.2byte	0x5e2
 8497 0d9b C40D0000 		.4byte	0xdc4
 8498 0d9f 10       		.uleb128 0x10
 8499 0da0 C5000000 		.4byte	.LASF179
 8500 0da4 00       		.byte	0
 8501 0da5 10       		.uleb128 0x10
 8502 0da6 05100000 		.4byte	.LASF180
 8503 0daa 01       		.byte	0x1
 8504 0dab 10       		.uleb128 0x10
 8505 0dac E6010000 		.4byte	.LASF181
 8506 0db0 02       		.byte	0x2
 8507 0db1 10       		.uleb128 0x10
 8508 0db2 5D100000 		.4byte	.LASF182
 8509 0db6 03       		.byte	0x3
 8510 0db7 10       		.uleb128 0x10
ARM GAS  C:\Users\JC\AppData\Local\Temp\ccU1E72d.s 			page 201


 8511 0db8 DD000000 		.4byte	.LASF183
 8512 0dbc 0E       		.byte	0xe
 8513 0dbd 10       		.uleb128 0x10
 8514 0dbe 11150000 		.4byte	.LASF184
 8515 0dc2 0F       		.byte	0xf
 8516 0dc3 00       		.byte	0
 8517 0dc4 11       		.uleb128 0x11
 8518 0dc5 3A060000 		.4byte	.LASF185
 8519 0dc9 08       		.byte	0x8
 8520 0dca E905     		.2byte	0x5e9
 8521 0dcc 920D0000 		.4byte	0xd92
 8522 0dd0 11       		.uleb128 0x11
 8523 0dd1 100D0000 		.4byte	.LASF186
 8524 0dd5 08       		.byte	0x8
 8525 0dd6 1406     		.2byte	0x614
 8526 0dd8 41020000 		.4byte	0x241
 8527 0ddc 11       		.uleb128 0x11
 8528 0ddd EE120000 		.4byte	.LASF187
 8529 0de1 08       		.byte	0x8
 8530 0de2 1506     		.2byte	0x615
 8531 0de4 B1020000 		.4byte	0x2b1
 8532 0de8 11       		.uleb128 0x11
 8533 0de9 05160000 		.4byte	.LASF188
 8534 0ded 08       		.byte	0x8
 8535 0dee 1606     		.2byte	0x616
 8536 0df0 21030000 		.4byte	0x321
 8537 0df4 11       		.uleb128 0x11
 8538 0df5 880C0000 		.4byte	.LASF189
 8539 0df9 08       		.byte	0x8
 8540 0dfa 1706     		.2byte	0x617
 8541 0dfc 91030000 		.4byte	0x391
 8542 0e00 11       		.uleb128 0x11
 8543 0e01 490B0000 		.4byte	.LASF190
 8544 0e05 08       		.byte	0x8
 8545 0e06 2006     		.2byte	0x620
 8546 0e08 57070000 		.4byte	0x757
 8547 0e0c 11       		.uleb128 0x11
 8548 0e0d 7C040000 		.4byte	.LASF191
 8549 0e11 08       		.byte	0x8
 8550 0e12 2206     		.2byte	0x622
 8551 0e14 C9080000 		.4byte	0x8c9
 8552 0e18 11       		.uleb128 0x11
 8553 0e19 4F0F0000 		.4byte	.LASF192
 8554 0e1d 09       		.byte	0x9
 8555 0e1e F601     		.2byte	0x1f6
 8556 0e20 240E0000 		.4byte	0xe24
 8557 0e24 03       		.uleb128 0x3
 8558 0e25 01       		.byte	0x1
 8559 0e26 08       		.byte	0x8
 8560 0e27 3B090000 		.4byte	.LASF193
 8561 0e2b 03       		.uleb128 0x3
 8562 0e2c 04       		.byte	0x4
 8563 0e2d 04       		.byte	0x4
 8564 0e2e 51040000 		.4byte	.LASF194
 8565 0e32 03       		.uleb128 0x3
 8566 0e33 08       		.byte	0x8
 8567 0e34 04       		.byte	0x4
ARM GAS  C:\Users\JC\AppData\Local\Temp\ccU1E72d.s 			page 202


 8568 0e35 3F150000 		.4byte	.LASF195
 8569 0e39 0F       		.uleb128 0xf
 8570 0e3a 04       		.byte	0x4
 8571 0e3b 2C000000 		.4byte	0x2c
 8572 0e3f 0A       		.byte	0xa
 8573 0e40 DD01     		.2byte	0x1dd
 8574 0e42 710E0000 		.4byte	0xe71
 8575 0e46 10       		.uleb128 0x10
 8576 0e47 850A0000 		.4byte	.LASF196
 8577 0e4b 00       		.byte	0
 8578 0e4c 12       		.uleb128 0x12
 8579 0e4d 68050000 		.4byte	.LASF197
 8580 0e51 0100C200 		.4byte	0xc20001
 8581 0e55 12       		.uleb128 0x12
 8582 0e56 84110000 		.4byte	.LASF198
 8583 0e5a 0200C200 		.4byte	0xc20002
 8584 0e5e 12       		.uleb128 0x12
 8585 0e5f 950A0000 		.4byte	.LASF199
 8586 0e63 0300C200 		.4byte	0xc20003
 8587 0e67 12       		.uleb128 0x12
 8588 0e68 A20F0000 		.4byte	.LASF200
 8589 0e6c 0400C200 		.4byte	0xc20004
 8590 0e70 00       		.byte	0
 8591 0e71 11       		.uleb128 0x11
 8592 0e72 F4130000 		.4byte	.LASF201
 8593 0e76 0A       		.byte	0xa
 8594 0e77 E301     		.2byte	0x1e3
 8595 0e79 390E0000 		.4byte	0xe39
 8596 0e7d 0F       		.uleb128 0xf
 8597 0e7e 01       		.byte	0x1
 8598 0e7f 53000000 		.4byte	0x53
 8599 0e83 0A       		.byte	0xa
 8600 0e84 E901     		.2byte	0x1e9
 8601 0e86 BB0E0000 		.4byte	0xebb
 8602 0e8a 10       		.uleb128 0x10
 8603 0e8b 6E0D0000 		.4byte	.LASF202
 8604 0e8f 00       		.byte	0
 8605 0e90 10       		.uleb128 0x10
 8606 0e91 F6100000 		.4byte	.LASF203
 8607 0e95 01       		.byte	0x1
 8608 0e96 10       		.uleb128 0x10
 8609 0e97 DF120000 		.4byte	.LASF204
 8610 0e9b 02       		.byte	0x2
 8611 0e9c 10       		.uleb128 0x10
 8612 0e9d AE130000 		.4byte	.LASF205
 8613 0ea1 03       		.byte	0x3
 8614 0ea2 10       		.uleb128 0x10
 8615 0ea3 33110000 		.4byte	.LASF206
 8616 0ea7 04       		.byte	0x4
 8617 0ea8 10       		.uleb128 0x10
 8618 0ea9 BE130000 		.4byte	.LASF207
 8619 0ead 05       		.byte	0x5
 8620 0eae 10       		.uleb128 0x10
 8621 0eaf BB040000 		.4byte	.LASF208
 8622 0eb3 06       		.byte	0x6
 8623 0eb4 10       		.uleb128 0x10
 8624 0eb5 96120000 		.4byte	.LASF209
ARM GAS  C:\Users\JC\AppData\Local\Temp\ccU1E72d.s 			page 203


 8625 0eb9 07       		.byte	0x7
 8626 0eba 00       		.byte	0
 8627 0ebb 11       		.uleb128 0x11
 8628 0ebc F5090000 		.4byte	.LASF210
 8629 0ec0 0A       		.byte	0xa
 8630 0ec1 F201     		.2byte	0x1f2
 8631 0ec3 7D0E0000 		.4byte	0xe7d
 8632 0ec7 0F       		.uleb128 0xf
 8633 0ec8 01       		.byte	0x1
 8634 0ec9 53000000 		.4byte	0x53
 8635 0ecd 0A       		.byte	0xa
 8636 0ece F801     		.2byte	0x1f8
 8637 0ed0 8F0F0000 		.4byte	0xf8f
 8638 0ed4 10       		.uleb128 0x10
 8639 0ed5 C40D0000 		.4byte	.LASF211
 8640 0ed9 01       		.byte	0x1
 8641 0eda 10       		.uleb128 0x10
 8642 0edb 13140000 		.4byte	.LASF212
 8643 0edf 02       		.byte	0x2
 8644 0ee0 10       		.uleb128 0x10
 8645 0ee1 E3130000 		.4byte	.LASF213
 8646 0ee5 03       		.byte	0x3
 8647 0ee6 10       		.uleb128 0x10
 8648 0ee7 560F0000 		.4byte	.LASF214
 8649 0eeb 04       		.byte	0x4
 8650 0eec 10       		.uleb128 0x10
 8651 0eed 35100000 		.4byte	.LASF215
 8652 0ef1 05       		.byte	0x5
 8653 0ef2 10       		.uleb128 0x10
 8654 0ef3 E5110000 		.4byte	.LASF216
 8655 0ef7 06       		.byte	0x6
 8656 0ef8 10       		.uleb128 0x10
 8657 0ef9 C0090000 		.4byte	.LASF217
 8658 0efd 07       		.byte	0x7
 8659 0efe 10       		.uleb128 0x10
 8660 0eff AA070000 		.4byte	.LASF218
 8661 0f03 08       		.byte	0x8
 8662 0f04 10       		.uleb128 0x10
 8663 0f05 91060000 		.4byte	.LASF219
 8664 0f09 09       		.byte	0x9
 8665 0f0a 10       		.uleb128 0x10
 8666 0f0b 9B0E0000 		.4byte	.LASF220
 8667 0f0f 0A       		.byte	0xa
 8668 0f10 10       		.uleb128 0x10
 8669 0f11 61110000 		.4byte	.LASF221
 8670 0f15 0B       		.byte	0xb
 8671 0f16 10       		.uleb128 0x10
 8672 0f17 54010000 		.4byte	.LASF222
 8673 0f1b 0C       		.byte	0xc
 8674 0f1c 10       		.uleb128 0x10
 8675 0f1d A80D0000 		.4byte	.LASF223
 8676 0f21 0D       		.byte	0xd
 8677 0f22 10       		.uleb128 0x10
 8678 0f23 CD0E0000 		.4byte	.LASF224
 8679 0f27 0E       		.byte	0xe
 8680 0f28 10       		.uleb128 0x10
 8681 0f29 B60F0000 		.4byte	.LASF225
ARM GAS  C:\Users\JC\AppData\Local\Temp\ccU1E72d.s 			page 204


 8682 0f2d 0F       		.byte	0xf
 8683 0f2e 10       		.uleb128 0x10
 8684 0f2f 54150000 		.4byte	.LASF226
 8685 0f33 10       		.byte	0x10
 8686 0f34 10       		.uleb128 0x10
 8687 0f35 27070000 		.4byte	.LASF227
 8688 0f39 11       		.byte	0x11
 8689 0f3a 10       		.uleb128 0x10
 8690 0f3b AA080000 		.4byte	.LASF228
 8691 0f3f 12       		.byte	0x12
 8692 0f40 10       		.uleb128 0x10
 8693 0f41 5D090000 		.4byte	.LASF229
 8694 0f45 13       		.byte	0x13
 8695 0f46 10       		.uleb128 0x10
 8696 0f47 F7110000 		.4byte	.LASF230
 8697 0f4b 14       		.byte	0x14
 8698 0f4c 10       		.uleb128 0x10
 8699 0f4d D90C0000 		.4byte	.LASF231
 8700 0f51 15       		.byte	0x15
 8701 0f52 10       		.uleb128 0x10
 8702 0f53 FE030000 		.4byte	.LASF232
 8703 0f57 16       		.byte	0x16
 8704 0f58 10       		.uleb128 0x10
 8705 0f59 8E100000 		.4byte	.LASF233
 8706 0f5d 17       		.byte	0x17
 8707 0f5e 10       		.uleb128 0x10
 8708 0f5f 4A080000 		.4byte	.LASF234
 8709 0f63 18       		.byte	0x18
 8710 0f64 10       		.uleb128 0x10
 8711 0f65 190B0000 		.4byte	.LASF235
 8712 0f69 19       		.byte	0x19
 8713 0f6a 10       		.uleb128 0x10
 8714 0f6b CC120000 		.4byte	.LASF236
 8715 0f6f 1A       		.byte	0x1a
 8716 0f70 10       		.uleb128 0x10
 8717 0f71 9C090000 		.4byte	.LASF237
 8718 0f75 1B       		.byte	0x1b
 8719 0f76 10       		.uleb128 0x10
 8720 0f77 CB0A0000 		.4byte	.LASF238
 8721 0f7b 1C       		.byte	0x1c
 8722 0f7c 10       		.uleb128 0x10
 8723 0f7d 7E000000 		.4byte	.LASF239
 8724 0f81 1D       		.byte	0x1d
 8725 0f82 10       		.uleb128 0x10
 8726 0f83 480E0000 		.4byte	.LASF240
 8727 0f87 1E       		.byte	0x1e
 8728 0f88 10       		.uleb128 0x10
 8729 0f89 4B060000 		.4byte	.LASF241
 8730 0f8d 1F       		.byte	0x1f
 8731 0f8e 00       		.byte	0
 8732 0f8f 11       		.uleb128 0x11
 8733 0f90 67160000 		.4byte	.LASF242
 8734 0f94 0A       		.byte	0xa
 8735 0f95 1902     		.2byte	0x219
 8736 0f97 C70E0000 		.4byte	0xec7
 8737 0f9b 0F       		.uleb128 0xf
 8738 0f9c 01       		.byte	0x1
ARM GAS  C:\Users\JC\AppData\Local\Temp\ccU1E72d.s 			page 205


 8739 0f9d 53000000 		.4byte	0x53
 8740 0fa1 0A       		.byte	0xa
 8741 0fa2 5A02     		.2byte	0x25a
 8742 0fa4 BB0F0000 		.4byte	0xfbb
 8743 0fa8 10       		.uleb128 0x10
 8744 0fa9 880F0000 		.4byte	.LASF243
 8745 0fad 00       		.byte	0
 8746 0fae 10       		.uleb128 0x10
 8747 0faf 1C060000 		.4byte	.LASF244
 8748 0fb3 01       		.byte	0x1
 8749 0fb4 10       		.uleb128 0x10
 8750 0fb5 D70B0000 		.4byte	.LASF245
 8751 0fb9 02       		.byte	0x2
 8752 0fba 00       		.byte	0
 8753 0fbb 11       		.uleb128 0x11
 8754 0fbc 6E090000 		.4byte	.LASF246
 8755 0fc0 0A       		.byte	0xa
 8756 0fc1 5E02     		.2byte	0x25e
 8757 0fc3 9B0F0000 		.4byte	0xf9b
 8758 0fc7 11       		.uleb128 0x11
 8759 0fc8 3A070000 		.4byte	.LASF247
 8760 0fcc 0A       		.byte	0xa
 8761 0fcd 7602     		.2byte	0x276
 8762 0fcf 17060000 		.4byte	0x617
 8763 0fd3 11       		.uleb128 0x11
 8764 0fd4 16090000 		.4byte	.LASF248
 8765 0fd8 0A       		.byte	0xa
 8766 0fd9 7702     		.2byte	0x277
 8767 0fdb E7060000 		.4byte	0x6e7
 8768 0fdf 13       		.uleb128 0x13
 8769 0fe0 0C       		.byte	0xc
 8770 0fe1 0A       		.byte	0xa
 8771 0fe2 5103     		.2byte	0x351
 8772 0fe4 37100000 		.4byte	0x1037
 8773 0fe8 14       		.uleb128 0x14
 8774 0fe9 D6100000 		.4byte	.LASF249
 8775 0fed 0A       		.byte	0xa
 8776 0fee 5303     		.2byte	0x353
 8777 0ff0 37100000 		.4byte	0x1037
 8778 0ff4 00       		.byte	0
 8779 0ff5 14       		.uleb128 0x14
 8780 0ff6 FF0E0000 		.4byte	.LASF250
 8781 0ffa 0A       		.byte	0xa
 8782 0ffb 5403     		.2byte	0x354
 8783 0ffd 8F0F0000 		.4byte	0xf8f
 8784 1001 04       		.byte	0x4
 8785 1002 14       		.uleb128 0x14
 8786 1003 7D0C0000 		.4byte	.LASF251
 8787 1007 0A       		.byte	0xa
 8788 1008 5503     		.2byte	0x355
 8789 100a A9000000 		.4byte	0xa9
 8790 100e 05       		.byte	0x5
 8791 100f 14       		.uleb128 0x14
 8792 1010 15120000 		.4byte	.LASF252
 8793 1014 0A       		.byte	0xa
 8794 1015 5603     		.2byte	0x356
 8795 1017 BB0E0000 		.4byte	0xebb
ARM GAS  C:\Users\JC\AppData\Local\Temp\ccU1E72d.s 			page 206


 8796 101b 06       		.byte	0x6
 8797 101c 14       		.uleb128 0x14
 8798 101d BB020000 		.4byte	.LASF253
 8799 1021 0A       		.byte	0xa
 8800 1022 5703     		.2byte	0x357
 8801 1024 BB0E0000 		.4byte	0xebb
 8802 1028 07       		.byte	0x7
 8803 1029 14       		.uleb128 0x14
 8804 102a 77000000 		.4byte	.LASF254
 8805 102e 0A       		.byte	0xa
 8806 102f 5803     		.2byte	0x358
 8807 1031 3D100000 		.4byte	0x103d
 8808 1035 08       		.byte	0x8
 8809 1036 00       		.byte	0
 8810 1037 15       		.uleb128 0x15
 8811 1038 04       		.byte	0x4
 8812 1039 D5000000 		.4byte	0xd5
 8813 103d 03       		.uleb128 0x3
 8814 103e 01       		.byte	0x1
 8815 103f 02       		.byte	0x2
 8816 1040 F6070000 		.4byte	.LASF255
 8817 1044 11       		.uleb128 0x11
 8818 1045 89130000 		.4byte	.LASF256
 8819 1049 0A       		.byte	0xa
 8820 104a 5903     		.2byte	0x359
 8821 104c DF0F0000 		.4byte	0xfdf
 8822 1050 13       		.uleb128 0x13
 8823 1051 0C       		.byte	0xc
 8824 1052 0A       		.byte	0xa
 8825 1053 5C03     		.2byte	0x35c
 8826 1055 C2100000 		.4byte	0x10c2
 8827 1059 14       		.uleb128 0x14
 8828 105a D6100000 		.4byte	.LASF249
 8829 105e 0A       		.byte	0xa
 8830 105f 5E03     		.2byte	0x35e
 8831 1061 37100000 		.4byte	0x1037
 8832 1065 00       		.byte	0
 8833 1066 14       		.uleb128 0x14
 8834 1067 FF0E0000 		.4byte	.LASF250
 8835 106b 0A       		.byte	0xa
 8836 106c 5F03     		.2byte	0x35f
 8837 106e 8F0F0000 		.4byte	0xf8f
 8838 1072 04       		.byte	0x4
 8839 1073 14       		.uleb128 0x14
 8840 1074 7D0C0000 		.4byte	.LASF251
 8841 1078 0A       		.byte	0xa
 8842 1079 6003     		.2byte	0x360
 8843 107b A9000000 		.4byte	0xa9
 8844 107f 05       		.byte	0x5
 8845 1080 14       		.uleb128 0x14
 8846 1081 15120000 		.4byte	.LASF252
 8847 1085 0A       		.byte	0xa
 8848 1086 6103     		.2byte	0x361
 8849 1088 BB0E0000 		.4byte	0xebb
 8850 108c 06       		.byte	0x6
 8851 108d 14       		.uleb128 0x14
 8852 108e BB020000 		.4byte	.LASF253
ARM GAS  C:\Users\JC\AppData\Local\Temp\ccU1E72d.s 			page 207


 8853 1092 0A       		.byte	0xa
 8854 1093 6203     		.2byte	0x362
 8855 1095 BB0E0000 		.4byte	0xebb
 8856 1099 07       		.byte	0x7
 8857 109a 14       		.uleb128 0x14
 8858 109b 77000000 		.4byte	.LASF254
 8859 109f 0A       		.byte	0xa
 8860 10a0 6303     		.2byte	0x363
 8861 10a2 3D100000 		.4byte	0x103d
 8862 10a6 08       		.byte	0x8
 8863 10a7 14       		.uleb128 0x14
 8864 10a8 D10C0000 		.4byte	.LASF257
 8865 10ac 0A       		.byte	0xa
 8866 10ad 6403     		.2byte	0x364
 8867 10af 3D100000 		.4byte	0x103d
 8868 10b3 09       		.byte	0x9
 8869 10b4 14       		.uleb128 0x14
 8870 10b5 8E080000 		.4byte	.LASF258
 8871 10b9 0A       		.byte	0xa
 8872 10ba 6503     		.2byte	0x365
 8873 10bc BF000000 		.4byte	0xbf
 8874 10c0 0A       		.byte	0xa
 8875 10c1 00       		.byte	0
 8876 10c2 11       		.uleb128 0x11
 8877 10c3 56130000 		.4byte	.LASF259
 8878 10c7 0A       		.byte	0xa
 8879 10c8 6603     		.2byte	0x366
 8880 10ca 50100000 		.4byte	0x1050
 8881 10ce 13       		.uleb128 0x13
 8882 10cf 0C       		.byte	0xc
 8883 10d0 0A       		.byte	0xa
 8884 10d1 6903     		.2byte	0x369
 8885 10d3 40110000 		.4byte	0x1140
 8886 10d7 14       		.uleb128 0x14
 8887 10d8 D6100000 		.4byte	.LASF249
 8888 10dc 0A       		.byte	0xa
 8889 10dd 6B03     		.2byte	0x36b
 8890 10df 37100000 		.4byte	0x1037
 8891 10e3 00       		.byte	0
 8892 10e4 14       		.uleb128 0x14
 8893 10e5 FF0E0000 		.4byte	.LASF250
 8894 10e9 0A       		.byte	0xa
 8895 10ea 6C03     		.2byte	0x36c
 8896 10ec 8F0F0000 		.4byte	0xf8f
 8897 10f0 04       		.byte	0x4
 8898 10f1 14       		.uleb128 0x14
 8899 10f2 7D0C0000 		.4byte	.LASF251
 8900 10f6 0A       		.byte	0xa
 8901 10f7 6D03     		.2byte	0x36d
 8902 10f9 A9000000 		.4byte	0xa9
 8903 10fd 05       		.byte	0x5
 8904 10fe 14       		.uleb128 0x14
 8905 10ff 15120000 		.4byte	.LASF252
 8906 1103 0A       		.byte	0xa
 8907 1104 6E03     		.2byte	0x36e
 8908 1106 BB0E0000 		.4byte	0xebb
 8909 110a 06       		.byte	0x6
ARM GAS  C:\Users\JC\AppData\Local\Temp\ccU1E72d.s 			page 208


 8910 110b 14       		.uleb128 0x14
 8911 110c BB020000 		.4byte	.LASF253
 8912 1110 0A       		.byte	0xa
 8913 1111 6F03     		.2byte	0x36f
 8914 1113 BB0E0000 		.4byte	0xebb
 8915 1117 07       		.byte	0x7
 8916 1118 14       		.uleb128 0x14
 8917 1119 77000000 		.4byte	.LASF254
 8918 111d 0A       		.byte	0xa
 8919 111e 7003     		.2byte	0x370
 8920 1120 3D100000 		.4byte	0x103d
 8921 1124 08       		.byte	0x8
 8922 1125 14       		.uleb128 0x14
 8923 1126 D10C0000 		.4byte	.LASF257
 8924 112a 0A       		.byte	0xa
 8925 112b 7103     		.2byte	0x371
 8926 112d 3D100000 		.4byte	0x103d
 8927 1131 09       		.byte	0x9
 8928 1132 14       		.uleb128 0x14
 8929 1133 8E080000 		.4byte	.LASF258
 8930 1137 0A       		.byte	0xa
 8931 1138 7203     		.2byte	0x372
 8932 113a BF000000 		.4byte	0xbf
 8933 113e 0A       		.byte	0xa
 8934 113f 00       		.byte	0
 8935 1140 11       		.uleb128 0x11
 8936 1141 610E0000 		.4byte	.LASF260
 8937 1145 0A       		.byte	0xa
 8938 1146 7303     		.2byte	0x373
 8939 1148 CE100000 		.4byte	0x10ce
 8940 114c 13       		.uleb128 0x13
 8941 114d 06       		.byte	0x6
 8942 114e 0A       		.byte	0xa
 8943 114f 7603     		.2byte	0x376
 8944 1151 97110000 		.4byte	0x1197
 8945 1155 14       		.uleb128 0x14
 8946 1156 15120000 		.4byte	.LASF252
 8947 115a 0A       		.byte	0xa
 8948 115b 7803     		.2byte	0x378
 8949 115d BB0E0000 		.4byte	0xebb
 8950 1161 00       		.byte	0
 8951 1162 14       		.uleb128 0x14
 8952 1163 BB020000 		.4byte	.LASF253
 8953 1167 0A       		.byte	0xa
 8954 1168 7903     		.2byte	0x379
 8955 116a BB0E0000 		.4byte	0xebb
 8956 116e 01       		.byte	0x1
 8957 116f 14       		.uleb128 0x14
 8958 1170 77000000 		.4byte	.LASF254
 8959 1174 0A       		.byte	0xa
 8960 1175 7A03     		.2byte	0x37a
 8961 1177 3D100000 		.4byte	0x103d
 8962 117b 02       		.byte	0x2
 8963 117c 14       		.uleb128 0x14
 8964 117d D10C0000 		.4byte	.LASF257
 8965 1181 0A       		.byte	0xa
 8966 1182 7B03     		.2byte	0x37b
ARM GAS  C:\Users\JC\AppData\Local\Temp\ccU1E72d.s 			page 209


 8967 1184 3D100000 		.4byte	0x103d
 8968 1188 03       		.byte	0x3
 8969 1189 14       		.uleb128 0x14
 8970 118a 8E080000 		.4byte	.LASF258
 8971 118e 0A       		.byte	0xa
 8972 118f 7C03     		.2byte	0x37c
 8973 1191 BF000000 		.4byte	0xbf
 8974 1195 04       		.byte	0x4
 8975 1196 00       		.byte	0
 8976 1197 11       		.uleb128 0x11
 8977 1198 7E0E0000 		.4byte	.LASF261
 8978 119c 0A       		.byte	0xa
 8979 119d 7D03     		.2byte	0x37d
 8980 119f 4C110000 		.4byte	0x114c
 8981 11a3 13       		.uleb128 0x13
 8982 11a4 06       		.byte	0x6
 8983 11a5 0A       		.byte	0xa
 8984 11a6 8003     		.2byte	0x380
 8985 11a8 EE110000 		.4byte	0x11ee
 8986 11ac 14       		.uleb128 0x14
 8987 11ad 15120000 		.4byte	.LASF252
 8988 11b1 0A       		.byte	0xa
 8989 11b2 8203     		.2byte	0x382
 8990 11b4 BB0E0000 		.4byte	0xebb
 8991 11b8 00       		.byte	0
 8992 11b9 14       		.uleb128 0x14
 8993 11ba BB020000 		.4byte	.LASF253
 8994 11be 0A       		.byte	0xa
 8995 11bf 8303     		.2byte	0x383
 8996 11c1 BB0E0000 		.4byte	0xebb
 8997 11c5 01       		.byte	0x1
 8998 11c6 14       		.uleb128 0x14
 8999 11c7 77000000 		.4byte	.LASF254
 9000 11cb 0A       		.byte	0xa
 9001 11cc 8403     		.2byte	0x384
 9002 11ce 3D100000 		.4byte	0x103d
 9003 11d2 02       		.byte	0x2
 9004 11d3 14       		.uleb128 0x14
 9005 11d4 D10C0000 		.4byte	.LASF257
 9006 11d8 0A       		.byte	0xa
 9007 11d9 8503     		.2byte	0x385
 9008 11db 3D100000 		.4byte	0x103d
 9009 11df 03       		.byte	0x3
 9010 11e0 14       		.uleb128 0x14
 9011 11e1 8E080000 		.4byte	.LASF258
 9012 11e5 0A       		.byte	0xa
 9013 11e6 8603     		.2byte	0x386
 9014 11e8 BF000000 		.4byte	0xbf
 9015 11ec 04       		.byte	0x4
 9016 11ed 00       		.byte	0
 9017 11ee 11       		.uleb128 0x11
 9018 11ef B90E0000 		.4byte	.LASF262
 9019 11f3 0A       		.byte	0xa
 9020 11f4 8703     		.2byte	0x387
 9021 11f6 A3110000 		.4byte	0x11a3
 9022 11fa 13       		.uleb128 0x13
 9023 11fb 06       		.byte	0x6
ARM GAS  C:\Users\JC\AppData\Local\Temp\ccU1E72d.s 			page 210


 9024 11fc 0A       		.byte	0xa
 9025 11fd 8A03     		.2byte	0x38a
 9026 11ff 45120000 		.4byte	0x1245
 9027 1203 14       		.uleb128 0x14
 9028 1204 15120000 		.4byte	.LASF252
 9029 1208 0A       		.byte	0xa
 9030 1209 8C03     		.2byte	0x38c
 9031 120b BB0E0000 		.4byte	0xebb
 9032 120f 00       		.byte	0
 9033 1210 14       		.uleb128 0x14
 9034 1211 BB020000 		.4byte	.LASF253
 9035 1215 0A       		.byte	0xa
 9036 1216 8D03     		.2byte	0x38d
 9037 1218 BB0E0000 		.4byte	0xebb
 9038 121c 01       		.byte	0x1
 9039 121d 14       		.uleb128 0x14
 9040 121e 77000000 		.4byte	.LASF254
 9041 1222 0A       		.byte	0xa
 9042 1223 8E03     		.2byte	0x38e
 9043 1225 3D100000 		.4byte	0x103d
 9044 1229 02       		.byte	0x2
 9045 122a 14       		.uleb128 0x14
 9046 122b D10C0000 		.4byte	.LASF257
 9047 122f 0A       		.byte	0xa
 9048 1230 8F03     		.2byte	0x38f
 9049 1232 3D100000 		.4byte	0x103d
 9050 1236 03       		.byte	0x3
 9051 1237 14       		.uleb128 0x14
 9052 1238 8E080000 		.4byte	.LASF258
 9053 123c 0A       		.byte	0xa
 9054 123d 9003     		.2byte	0x390
 9055 123f BF000000 		.4byte	0xbf
 9056 1243 04       		.byte	0x4
 9057 1244 00       		.byte	0
 9058 1245 11       		.uleb128 0x11
 9059 1246 690C0000 		.4byte	.LASF263
 9060 124a 0A       		.byte	0xa
 9061 124b 9103     		.2byte	0x391
 9062 124d FA110000 		.4byte	0x11fa
 9063 1251 16       		.uleb128 0x16
 9064 1252 FB020000 		.4byte	.LASF269
 9065 1256 01       		.byte	0x1
 9066 1257 58       		.byte	0x58
 9067 1258 710E0000 		.4byte	0xe71
 9068 125c 00000000 		.4byte	.LFB47
 9069 1260 B0000000 		.4byte	.LFE47-.LFB47
 9070 1264 01       		.uleb128 0x1
 9071 1265 9C       		.byte	0x9c
 9072 1266 CD120000 		.4byte	0x12cd
 9073 126a 17       		.uleb128 0x17
 9074 126b 640D0000 		.4byte	.LASF264
 9075 126f 01       		.byte	0x1
 9076 1270 58       		.byte	0x58
 9077 1271 C40D0000 		.4byte	0xdc4
 9078 1275 02       		.uleb128 0x2
 9079 1276 91       		.byte	0x91
 9080 1277 5F       		.sleb128 -33
ARM GAS  C:\Users\JC\AppData\Local\Temp\ccU1E72d.s 			page 211


 9081 1278 17       		.uleb128 0x17
 9082 1279 5D050000 		.4byte	.LASF265
 9083 127d 01       		.byte	0x1
 9084 127e 58       		.byte	0x58
 9085 127f 3D100000 		.4byte	0x103d
 9086 1283 02       		.uleb128 0x2
 9087 1284 91       		.byte	0x91
 9088 1285 5E       		.sleb128 -34
 9089 1286 17       		.uleb128 0x17
 9090 1287 77000000 		.4byte	.LASF254
 9091 128b 01       		.byte	0x1
 9092 128c 58       		.byte	0x58
 9093 128d 3D100000 		.4byte	0x103d
 9094 1291 02       		.uleb128 0x2
 9095 1292 91       		.byte	0x91
 9096 1293 5D       		.sleb128 -35
 9097 1294 17       		.uleb128 0x17
 9098 1295 8E080000 		.4byte	.LASF258
 9099 1299 01       		.byte	0x1
 9100 129a 58       		.byte	0x58
 9101 129b D5000000 		.4byte	0xd5
 9102 129f 02       		.uleb128 0x2
 9103 12a0 91       		.byte	0x91
 9104 12a1 58       		.sleb128 -40
 9105 12a2 18       		.uleb128 0x18
 9106 12a3 DA090000 		.4byte	.LASF266
 9107 12a7 01       		.byte	0x1
 9108 12a8 5A       		.byte	0x5a
 9109 12a9 710E0000 		.4byte	0xe71
 9110 12ad 02       		.uleb128 0x2
 9111 12ae 91       		.byte	0x91
 9112 12af 6C       		.sleb128 -20
 9113 12b0 18       		.uleb128 0x18
 9114 12b1 52020000 		.4byte	.LASF267
 9115 12b5 01       		.byte	0x1
 9116 12b6 5B       		.byte	0x5b
 9117 12b7 D5000000 		.4byte	0xd5
 9118 12bb 02       		.uleb128 0x2
 9119 12bc 91       		.byte	0x91
 9120 12bd 64       		.sleb128 -28
 9121 12be 18       		.uleb128 0x18
 9122 12bf 7A110000 		.4byte	.LASF268
 9123 12c3 01       		.byte	0x1
 9124 12c4 5C       		.byte	0x5c
 9125 12c5 CD120000 		.4byte	0x12cd
 9126 12c9 02       		.uleb128 0x2
 9127 12ca 91       		.byte	0x91
 9128 12cb 68       		.sleb128 -24
 9129 12cc 00       		.byte	0
 9130 12cd 15       		.uleb128 0x15
 9131 12ce 04       		.byte	0x4
 9132 12cf E0000000 		.4byte	0xe0
 9133 12d3 16       		.uleb128 0x16
 9134 12d4 96070000 		.4byte	.LASF270
 9135 12d8 01       		.byte	0x1
 9136 12d9 9A       		.byte	0x9a
 9137 12da 710E0000 		.4byte	0xe71
ARM GAS  C:\Users\JC\AppData\Local\Temp\ccU1E72d.s 			page 212


 9138 12de 00000000 		.4byte	.LFB48
 9139 12e2 9C000000 		.4byte	.LFE48-.LFB48
 9140 12e6 01       		.uleb128 0x1
 9141 12e7 9C       		.byte	0x9c
 9142 12e8 16130000 		.4byte	0x1316
 9143 12ec 17       		.uleb128 0x17
 9144 12ed 640D0000 		.4byte	.LASF264
 9145 12f1 01       		.byte	0x1
 9146 12f2 9A       		.byte	0x9a
 9147 12f3 C40D0000 		.4byte	0xdc4
 9148 12f7 02       		.uleb128 0x2
 9149 12f8 91       		.byte	0x91
 9150 12f9 67       		.sleb128 -25
 9151 12fa 19       		.uleb128 0x19
 9152 12fb 706300   		.ascii	"pc\000"
 9153 12fe 01       		.byte	0x1
 9154 12ff 9A       		.byte	0x9a
 9155 1300 D5000000 		.4byte	0xd5
 9156 1304 02       		.uleb128 0x2
 9157 1305 91       		.byte	0x91
 9158 1306 60       		.sleb128 -32
 9159 1307 18       		.uleb128 0x18
 9160 1308 DA090000 		.4byte	.LASF266
 9161 130c 01       		.byte	0x1
 9162 130d 9C       		.byte	0x9c
 9163 130e 710E0000 		.4byte	0xe71
 9164 1312 02       		.uleb128 0x2
 9165 1313 91       		.byte	0x91
 9166 1314 6C       		.sleb128 -20
 9167 1315 00       		.byte	0
 9168 1316 16       		.uleb128 0x16
 9169 1317 16010000 		.4byte	.LASF271
 9170 131b 01       		.byte	0x1
 9171 131c BB       		.byte	0xbb
 9172 131d D5000000 		.4byte	0xd5
 9173 1321 00000000 		.4byte	.LFB49
 9174 1325 50000000 		.4byte	.LFE49-.LFB49
 9175 1329 01       		.uleb128 0x1
 9176 132a 9C       		.byte	0x9c
 9177 132b 3E130000 		.4byte	0x133e
 9178 132f 17       		.uleb128 0x17
 9179 1330 640D0000 		.4byte	.LASF264
 9180 1334 01       		.byte	0x1
 9181 1335 BB       		.byte	0xbb
 9182 1336 C40D0000 		.4byte	0xdc4
 9183 133a 02       		.uleb128 0x2
 9184 133b 91       		.byte	0x91
 9185 133c 77       		.sleb128 -9
 9186 133d 00       		.byte	0
 9187 133e 16       		.uleb128 0x16
 9188 133f 03080000 		.4byte	.LASF272
 9189 1343 01       		.byte	0x1
 9190 1344 E2       		.byte	0xe2
 9191 1345 710E0000 		.4byte	0xe71
 9192 1349 00000000 		.4byte	.LFB50
 9193 134d 10020000 		.4byte	.LFE50-.LFB50
 9194 1351 01       		.uleb128 0x1
ARM GAS  C:\Users\JC\AppData\Local\Temp\ccU1E72d.s 			page 213


 9195 1352 9C       		.byte	0x9c
 9196 1353 9E130000 		.4byte	0x139e
 9197 1357 17       		.uleb128 0x17
 9198 1358 77040000 		.4byte	.LASF273
 9199 135c 01       		.byte	0x1
 9200 135d E2       		.byte	0xe2
 9201 135e 9E130000 		.4byte	0x139e
 9202 1362 02       		.uleb128 0x2
 9203 1363 91       		.byte	0x91
 9204 1364 64       		.sleb128 -28
 9205 1365 17       		.uleb128 0x17
 9206 1366 D40D0000 		.4byte	.LASF274
 9207 136a 01       		.byte	0x1
 9208 136b E2       		.byte	0xe2
 9209 136c A4130000 		.4byte	0x13a4
 9210 1370 02       		.uleb128 0x2
 9211 1371 91       		.byte	0x91
 9212 1372 60       		.sleb128 -32
 9213 1373 18       		.uleb128 0x18
 9214 1374 DA090000 		.4byte	.LASF266
 9215 1378 01       		.byte	0x1
 9216 1379 E4       		.byte	0xe4
 9217 137a 710E0000 		.4byte	0xe71
 9218 137e 02       		.uleb128 0x2
 9219 137f 91       		.byte	0x91
 9220 1380 6C       		.sleb128 -20
 9221 1381 18       		.uleb128 0x18
 9222 1382 40090000 		.4byte	.LASF275
 9223 1386 01       		.byte	0x1
 9224 1387 E5       		.byte	0xe5
 9225 1388 D5000000 		.4byte	0xd5
 9226 138c 02       		.uleb128 0x2
 9227 138d 91       		.byte	0x91
 9228 138e 74       		.sleb128 -12
 9229 138f 18       		.uleb128 0x18
 9230 1390 54000000 		.4byte	.LASF276
 9231 1394 01       		.byte	0x1
 9232 1395 E6       		.byte	0xe6
 9233 1396 D5000000 		.4byte	0xd5
 9234 139a 02       		.uleb128 0x2
 9235 139b 91       		.byte	0x91
 9236 139c 70       		.sleb128 -16
 9237 139d 00       		.byte	0
 9238 139e 15       		.uleb128 0x15
 9239 139f 04       		.byte	0x4
 9240 13a0 0C0E0000 		.4byte	0xe0c
 9241 13a4 15       		.uleb128 0x15
 9242 13a5 04       		.byte	0x4
 9243 13a6 AA130000 		.4byte	0x13aa
 9244 13aa 06       		.uleb128 0x6
 9245 13ab 44100000 		.4byte	0x1044
 9246 13af 1A       		.uleb128 0x1a
 9247 13b0 240A0000 		.4byte	.LASF277
 9248 13b4 01       		.byte	0x1
 9249 13b5 1301     		.2byte	0x113
 9250 13b7 710E0000 		.4byte	0xe71
 9251 13bb 00000000 		.4byte	.LFB51
ARM GAS  C:\Users\JC\AppData\Local\Temp\ccU1E72d.s 			page 214


 9252 13bf 54000000 		.4byte	.LFE51-.LFB51
 9253 13c3 01       		.uleb128 0x1
 9254 13c4 9C       		.byte	0x9c
 9255 13c5 E8130000 		.4byte	0x13e8
 9256 13c9 1B       		.uleb128 0x1b
 9257 13ca 77040000 		.4byte	.LASF273
 9258 13ce 01       		.byte	0x1
 9259 13cf 1301     		.2byte	0x113
 9260 13d1 9E130000 		.4byte	0x139e
 9261 13d5 02       		.uleb128 0x2
 9262 13d6 91       		.byte	0x91
 9263 13d7 6C       		.sleb128 -20
 9264 13d8 1C       		.uleb128 0x1c
 9265 13d9 DA090000 		.4byte	.LASF266
 9266 13dd 01       		.byte	0x1
 9267 13de 1501     		.2byte	0x115
 9268 13e0 710E0000 		.4byte	0xe71
 9269 13e4 02       		.uleb128 0x2
 9270 13e5 91       		.byte	0x91
 9271 13e6 74       		.sleb128 -12
 9272 13e7 00       		.byte	0
 9273 13e8 1A       		.uleb128 0x1a
 9274 13e9 850B0000 		.4byte	.LASF278
 9275 13ed 01       		.byte	0x1
 9276 13ee 3901     		.2byte	0x139
 9277 13f0 710E0000 		.4byte	0xe71
 9278 13f4 00000000 		.4byte	.LFB52
 9279 13f8 54000000 		.4byte	.LFE52-.LFB52
 9280 13fc 01       		.uleb128 0x1
 9281 13fd 9C       		.byte	0x9c
 9282 13fe 21140000 		.4byte	0x1421
 9283 1402 1B       		.uleb128 0x1b
 9284 1403 77040000 		.4byte	.LASF273
 9285 1407 01       		.byte	0x1
 9286 1408 3901     		.2byte	0x139
 9287 140a 9E130000 		.4byte	0x139e
 9288 140e 02       		.uleb128 0x2
 9289 140f 91       		.byte	0x91
 9290 1410 6C       		.sleb128 -20
 9291 1411 1C       		.uleb128 0x1c
 9292 1412 DA090000 		.4byte	.LASF266
 9293 1416 01       		.byte	0x1
 9294 1417 3B01     		.2byte	0x13b
 9295 1419 710E0000 		.4byte	0xe71
 9296 141d 02       		.uleb128 0x2
 9297 141e 91       		.byte	0x91
 9298 141f 74       		.sleb128 -12
 9299 1420 00       		.byte	0
 9300 1421 1A       		.uleb128 0x1a
 9301 1422 42110000 		.4byte	.LASF279
 9302 1426 01       		.byte	0x1
 9303 1427 6B01     		.2byte	0x16b
 9304 1429 710E0000 		.4byte	0xe71
 9305 142d 00000000 		.4byte	.LFB53
 9306 1431 1C010000 		.4byte	.LFE53-.LFB53
 9307 1435 01       		.uleb128 0x1
 9308 1436 9C       		.byte	0x9c
ARM GAS  C:\Users\JC\AppData\Local\Temp\ccU1E72d.s 			page 215


 9309 1437 78140000 		.4byte	0x1478
 9310 143b 1B       		.uleb128 0x1b
 9311 143c 77040000 		.4byte	.LASF273
 9312 1440 01       		.byte	0x1
 9313 1441 6B01     		.2byte	0x16b
 9314 1443 78140000 		.4byte	0x1478
 9315 1447 02       		.uleb128 0x2
 9316 1448 91       		.byte	0x91
 9317 1449 6C       		.sleb128 -20
 9318 144a 1B       		.uleb128 0x1b
 9319 144b D40D0000 		.4byte	.LASF274
 9320 144f 01       		.byte	0x1
 9321 1450 6B01     		.2byte	0x16b
 9322 1452 7E140000 		.4byte	0x147e
 9323 1456 02       		.uleb128 0x2
 9324 1457 91       		.byte	0x91
 9325 1458 68       		.sleb128 -24
 9326 1459 1C       		.uleb128 0x1c
 9327 145a DA090000 		.4byte	.LASF266
 9328 145e 01       		.byte	0x1
 9329 145f 6D01     		.2byte	0x16d
 9330 1461 710E0000 		.4byte	0xe71
 9331 1465 02       		.uleb128 0x2
 9332 1466 91       		.byte	0x91
 9333 1467 74       		.sleb128 -12
 9334 1468 1C       		.uleb128 0x1c
 9335 1469 54000000 		.4byte	.LASF276
 9336 146d 01       		.byte	0x1
 9337 146e 6E01     		.2byte	0x16e
 9338 1470 D5000000 		.4byte	0xd5
 9339 1474 02       		.uleb128 0x2
 9340 1475 91       		.byte	0x91
 9341 1476 70       		.sleb128 -16
 9342 1477 00       		.byte	0
 9343 1478 15       		.uleb128 0x15
 9344 1479 04       		.byte	0x4
 9345 147a 000E0000 		.4byte	0xe00
 9346 147e 15       		.uleb128 0x15
 9347 147f 04       		.byte	0x4
 9348 1480 84140000 		.4byte	0x1484
 9349 1484 06       		.uleb128 0x6
 9350 1485 C2100000 		.4byte	0x10c2
 9351 1489 1A       		.uleb128 0x1a
 9352 148a E3140000 		.4byte	.LASF280
 9353 148e 01       		.byte	0x1
 9354 148f B201     		.2byte	0x1b2
 9355 1491 710E0000 		.4byte	0xe71
 9356 1495 00000000 		.4byte	.LFB54
 9357 1499 80020000 		.4byte	.LFE54-.LFB54
 9358 149d 01       		.uleb128 0x1
 9359 149e 9C       		.byte	0x9c
 9360 149f EF140000 		.4byte	0x14ef
 9361 14a3 1B       		.uleb128 0x1b
 9362 14a4 77040000 		.4byte	.LASF273
 9363 14a8 01       		.byte	0x1
 9364 14a9 B201     		.2byte	0x1b2
 9365 14ab 78140000 		.4byte	0x1478
ARM GAS  C:\Users\JC\AppData\Local\Temp\ccU1E72d.s 			page 216


 9366 14af 02       		.uleb128 0x2
 9367 14b0 91       		.byte	0x91
 9368 14b1 64       		.sleb128 -28
 9369 14b2 1B       		.uleb128 0x1b
 9370 14b3 D40D0000 		.4byte	.LASF274
 9371 14b7 01       		.byte	0x1
 9372 14b8 B201     		.2byte	0x1b2
 9373 14ba 7E140000 		.4byte	0x147e
 9374 14be 02       		.uleb128 0x2
 9375 14bf 91       		.byte	0x91
 9376 14c0 60       		.sleb128 -32
 9377 14c1 1C       		.uleb128 0x1c
 9378 14c2 DA090000 		.4byte	.LASF266
 9379 14c6 01       		.byte	0x1
 9380 14c7 B401     		.2byte	0x1b4
 9381 14c9 710E0000 		.4byte	0xe71
 9382 14cd 02       		.uleb128 0x2
 9383 14ce 91       		.byte	0x91
 9384 14cf 74       		.sleb128 -12
 9385 14d0 1C       		.uleb128 0x1c
 9386 14d1 40090000 		.4byte	.LASF275
 9387 14d5 01       		.byte	0x1
 9388 14d6 B501     		.2byte	0x1b5
 9389 14d8 D5000000 		.4byte	0xd5
 9390 14dc 02       		.uleb128 0x2
 9391 14dd 91       		.byte	0x91
 9392 14de 70       		.sleb128 -16
 9393 14df 1C       		.uleb128 0x1c
 9394 14e0 54000000 		.4byte	.LASF276
 9395 14e4 01       		.byte	0x1
 9396 14e5 B601     		.2byte	0x1b6
 9397 14e7 D5000000 		.4byte	0xd5
 9398 14eb 02       		.uleb128 0x2
 9399 14ec 91       		.byte	0x91
 9400 14ed 6C       		.sleb128 -20
 9401 14ee 00       		.byte	0
 9402 14ef 1A       		.uleb128 0x1a
 9403 14f0 9C020000 		.4byte	.LASF281
 9404 14f4 01       		.byte	0x1
 9405 14f5 F101     		.2byte	0x1f1
 9406 14f7 710E0000 		.4byte	0xe71
 9407 14fb 00000000 		.4byte	.LFB55
 9408 14ff 54000000 		.4byte	.LFE55-.LFB55
 9409 1503 01       		.uleb128 0x1
 9410 1504 9C       		.byte	0x9c
 9411 1505 28150000 		.4byte	0x1528
 9412 1509 1B       		.uleb128 0x1b
 9413 150a 77040000 		.4byte	.LASF273
 9414 150e 01       		.byte	0x1
 9415 150f F101     		.2byte	0x1f1
 9416 1511 78140000 		.4byte	0x1478
 9417 1515 02       		.uleb128 0x2
 9418 1516 91       		.byte	0x91
 9419 1517 6C       		.sleb128 -20
 9420 1518 1C       		.uleb128 0x1c
 9421 1519 DA090000 		.4byte	.LASF266
 9422 151d 01       		.byte	0x1
ARM GAS  C:\Users\JC\AppData\Local\Temp\ccU1E72d.s 			page 217


 9423 151e F301     		.2byte	0x1f3
 9424 1520 710E0000 		.4byte	0xe71
 9425 1524 02       		.uleb128 0x2
 9426 1525 91       		.byte	0x91
 9427 1526 74       		.sleb128 -12
 9428 1527 00       		.byte	0
 9429 1528 1A       		.uleb128 0x1a
 9430 1529 C1030000 		.4byte	.LASF282
 9431 152d 01       		.byte	0x1
 9432 152e 1902     		.2byte	0x219
 9433 1530 710E0000 		.4byte	0xe71
 9434 1534 00000000 		.4byte	.LFB56
 9435 1538 54000000 		.4byte	.LFE56-.LFB56
 9436 153c 01       		.uleb128 0x1
 9437 153d 9C       		.byte	0x9c
 9438 153e 61150000 		.4byte	0x1561
 9439 1542 1B       		.uleb128 0x1b
 9440 1543 77040000 		.4byte	.LASF273
 9441 1547 01       		.byte	0x1
 9442 1548 1902     		.2byte	0x219
 9443 154a 78140000 		.4byte	0x1478
 9444 154e 02       		.uleb128 0x2
 9445 154f 91       		.byte	0x91
 9446 1550 6C       		.sleb128 -20
 9447 1551 1C       		.uleb128 0x1c
 9448 1552 DA090000 		.4byte	.LASF266
 9449 1556 01       		.byte	0x1
 9450 1557 1B02     		.2byte	0x21b
 9451 1559 710E0000 		.4byte	0xe71
 9452 155d 02       		.uleb128 0x2
 9453 155e 91       		.byte	0x91
 9454 155f 74       		.sleb128 -12
 9455 1560 00       		.byte	0
 9456 1561 1A       		.uleb128 0x1a
 9457 1562 C80F0000 		.4byte	.LASF283
 9458 1566 01       		.byte	0x1
 9459 1567 4102     		.2byte	0x241
 9460 1569 710E0000 		.4byte	0xe71
 9461 156d 00000000 		.4byte	.LFB57
 9462 1571 54000000 		.4byte	.LFE57-.LFB57
 9463 1575 01       		.uleb128 0x1
 9464 1576 9C       		.byte	0x9c
 9465 1577 9A150000 		.4byte	0x159a
 9466 157b 1B       		.uleb128 0x1b
 9467 157c 77040000 		.4byte	.LASF273
 9468 1580 01       		.byte	0x1
 9469 1581 4102     		.2byte	0x241
 9470 1583 78140000 		.4byte	0x1478
 9471 1587 02       		.uleb128 0x2
 9472 1588 91       		.byte	0x91
 9473 1589 6C       		.sleb128 -20
 9474 158a 1C       		.uleb128 0x1c
 9475 158b DA090000 		.4byte	.LASF266
 9476 158f 01       		.byte	0x1
 9477 1590 4302     		.2byte	0x243
 9478 1592 710E0000 		.4byte	0xe71
 9479 1596 02       		.uleb128 0x2
ARM GAS  C:\Users\JC\AppData\Local\Temp\ccU1E72d.s 			page 218


 9480 1597 91       		.byte	0x91
 9481 1598 74       		.sleb128 -12
 9482 1599 00       		.byte	0
 9483 159a 1A       		.uleb128 0x1a
 9484 159b 9C040000 		.4byte	.LASF284
 9485 159f 01       		.byte	0x1
 9486 15a0 6902     		.2byte	0x269
 9487 15a2 710E0000 		.4byte	0xe71
 9488 15a6 00000000 		.4byte	.LFB58
 9489 15aa 54000000 		.4byte	.LFE58-.LFB58
 9490 15ae 01       		.uleb128 0x1
 9491 15af 9C       		.byte	0x9c
 9492 15b0 D3150000 		.4byte	0x15d3
 9493 15b4 1B       		.uleb128 0x1b
 9494 15b5 77040000 		.4byte	.LASF273
 9495 15b9 01       		.byte	0x1
 9496 15ba 6902     		.2byte	0x269
 9497 15bc 78140000 		.4byte	0x1478
 9498 15c0 02       		.uleb128 0x2
 9499 15c1 91       		.byte	0x91
 9500 15c2 6C       		.sleb128 -20
 9501 15c3 1C       		.uleb128 0x1c
 9502 15c4 DA090000 		.4byte	.LASF266
 9503 15c8 01       		.byte	0x1
 9504 15c9 6B02     		.2byte	0x26b
 9505 15cb 710E0000 		.4byte	0xe71
 9506 15cf 02       		.uleb128 0x2
 9507 15d0 91       		.byte	0x91
 9508 15d1 74       		.sleb128 -12
 9509 15d2 00       		.byte	0
 9510 15d3 1A       		.uleb128 0x1a
 9511 15d4 AB030000 		.4byte	.LASF285
 9512 15d8 01       		.byte	0x1
 9513 15d9 A502     		.2byte	0x2a5
 9514 15db 710E0000 		.4byte	0xe71
 9515 15df 00000000 		.4byte	.LFB59
 9516 15e3 A0010000 		.4byte	.LFE59-.LFB59
 9517 15e7 01       		.uleb128 0x1
 9518 15e8 9C       		.byte	0x9c
 9519 15e9 39160000 		.4byte	0x1639
 9520 15ed 1B       		.uleb128 0x1b
 9521 15ee 77040000 		.4byte	.LASF273
 9522 15f2 01       		.byte	0x1
 9523 15f3 A502     		.2byte	0x2a5
 9524 15f5 39160000 		.4byte	0x1639
 9525 15f9 02       		.uleb128 0x2
 9526 15fa 91       		.byte	0x91
 9527 15fb 6C       		.sleb128 -20
 9528 15fc 1B       		.uleb128 0x1b
 9529 15fd 81130000 		.4byte	.LASF286
 9530 1601 01       		.byte	0x1
 9531 1602 A602     		.2byte	0x2a6
 9532 1604 BB0F0000 		.4byte	0xfbb
 9533 1608 02       		.uleb128 0x2
 9534 1609 91       		.byte	0x91
 9535 160a 6B       		.sleb128 -21
 9536 160b 1B       		.uleb128 0x1b
ARM GAS  C:\Users\JC\AppData\Local\Temp\ccU1E72d.s 			page 219


 9537 160c 1B080000 		.4byte	.LASF287
 9538 1610 01       		.byte	0x1
 9539 1611 A602     		.2byte	0x2a6
 9540 1613 D5000000 		.4byte	0xd5
 9541 1617 02       		.uleb128 0x2
 9542 1618 91       		.byte	0x91
 9543 1619 64       		.sleb128 -28
 9544 161a 1C       		.uleb128 0x1c
 9545 161b DA090000 		.4byte	.LASF266
 9546 161f 01       		.byte	0x1
 9547 1620 AB02     		.2byte	0x2ab
 9548 1622 710E0000 		.4byte	0xe71
 9549 1626 02       		.uleb128 0x2
 9550 1627 91       		.byte	0x91
 9551 1628 74       		.sleb128 -12
 9552 1629 1C       		.uleb128 0x1c
 9553 162a 95090000 		.4byte	.LASF288
 9554 162e 01       		.byte	0x1
 9555 162f AC02     		.2byte	0x2ac
 9556 1631 CA000000 		.4byte	0xca
 9557 1635 02       		.uleb128 0x2
 9558 1636 91       		.byte	0x91
 9559 1637 70       		.sleb128 -16
 9560 1638 00       		.byte	0
 9561 1639 15       		.uleb128 0x15
 9562 163a 04       		.byte	0x4
 9563 163b 78140000 		.4byte	0x1478
 9564 163f 1D       		.uleb128 0x1d
 9565 1640 7C120000 		.4byte	.LASF325
 9566 1644 01       		.byte	0x1
 9567 1645 1B03     		.2byte	0x31b
 9568 1647 710E0000 		.4byte	0xe71
 9569 164b 00000000 		.4byte	.LFB60
 9570 164f 28010000 		.4byte	.LFE60-.LFB60
 9571 1653 01       		.uleb128 0x1
 9572 1654 9C       		.byte	0x9c
 9573 1655 FA160000 		.4byte	0x16fa
 9574 1659 1E       		.uleb128 0x1e
 9575 165a 72656700 		.ascii	"reg\000"
 9576 165e 01       		.byte	0x1
 9577 165f 1B03     		.2byte	0x31b
 9578 1661 CD120000 		.4byte	0x12cd
 9579 1665 02       		.uleb128 0x2
 9580 1666 91       		.byte	0x91
 9581 1667 54       		.sleb128 -44
 9582 1668 1B       		.uleb128 0x1b
 9583 1669 8E080000 		.4byte	.LASF258
 9584 166d 01       		.byte	0x1
 9585 166e 1B03     		.2byte	0x31b
 9586 1670 BF000000 		.4byte	0xbf
 9587 1674 02       		.uleb128 0x2
 9588 1675 91       		.byte	0x91
 9589 1676 52       		.sleb128 -46
 9590 1677 1B       		.uleb128 0x1b
 9591 1678 15120000 		.4byte	.LASF252
 9592 167c 01       		.byte	0x1
 9593 167d 1C03     		.2byte	0x31c
ARM GAS  C:\Users\JC\AppData\Local\Temp\ccU1E72d.s 			page 220


 9594 167f BB0E0000 		.4byte	0xebb
 9595 1683 02       		.uleb128 0x2
 9596 1684 91       		.byte	0x91
 9597 1685 51       		.sleb128 -47
 9598 1686 1B       		.uleb128 0x1b
 9599 1687 BB020000 		.4byte	.LASF253
 9600 168b 01       		.byte	0x1
 9601 168c 1C03     		.2byte	0x31c
 9602 168e BB0E0000 		.4byte	0xebb
 9603 1692 02       		.uleb128 0x2
 9604 1693 91       		.byte	0x91
 9605 1694 50       		.sleb128 -48
 9606 1695 1B       		.uleb128 0x1b
 9607 1696 77000000 		.4byte	.LASF254
 9608 169a 01       		.byte	0x1
 9609 169b 1C03     		.2byte	0x31c
 9610 169d 3D100000 		.4byte	0x103d
 9611 16a1 02       		.uleb128 0x2
 9612 16a2 91       		.byte	0x91
 9613 16a3 00       		.sleb128 0
 9614 16a4 1C       		.uleb128 0x1c
 9615 16a5 DA090000 		.4byte	.LASF266
 9616 16a9 01       		.byte	0x1
 9617 16aa 1E03     		.2byte	0x31e
 9618 16ac 710E0000 		.4byte	0xe71
 9619 16b0 02       		.uleb128 0x2
 9620 16b1 91       		.byte	0x91
 9621 16b2 6C       		.sleb128 -20
 9622 16b3 1F       		.uleb128 0x1f
 9623 16b4 32000000 		.4byte	.LBB2
 9624 16b8 E0000000 		.4byte	.LBE2-.LBB2
 9625 16bc 1C       		.uleb128 0x1c
 9626 16bd 0A0F0000 		.4byte	.LASF289
 9627 16c1 01       		.byte	0x1
 9628 16c2 2203     		.2byte	0x322
 9629 16c4 D5000000 		.4byte	0xd5
 9630 16c8 02       		.uleb128 0x2
 9631 16c9 91       		.byte	0x91
 9632 16ca 68       		.sleb128 -24
 9633 16cb 1C       		.uleb128 0x1c
 9634 16cc 54000000 		.4byte	.LASF276
 9635 16d0 01       		.byte	0x1
 9636 16d1 2303     		.2byte	0x323
 9637 16d3 D5000000 		.4byte	0xd5
 9638 16d7 02       		.uleb128 0x2
 9639 16d8 91       		.byte	0x91
 9640 16d9 64       		.sleb128 -28
 9641 16da 1C       		.uleb128 0x1c
 9642 16db FC070000 		.4byte	.LASF290
 9643 16df 01       		.byte	0x1
 9644 16e0 2403     		.2byte	0x324
 9645 16e2 D5000000 		.4byte	0xd5
 9646 16e6 02       		.uleb128 0x2
 9647 16e7 91       		.byte	0x91
 9648 16e8 60       		.sleb128 -32
 9649 16e9 1C       		.uleb128 0x1c
 9650 16ea 20150000 		.4byte	.LASF291
ARM GAS  C:\Users\JC\AppData\Local\Temp\ccU1E72d.s 			page 221


 9651 16ee 01       		.byte	0x1
 9652 16ef 2503     		.2byte	0x325
 9653 16f1 D5000000 		.4byte	0xd5
 9654 16f5 02       		.uleb128 0x2
 9655 16f6 91       		.byte	0x91
 9656 16f7 5C       		.sleb128 -36
 9657 16f8 00       		.byte	0
 9658 16f9 00       		.byte	0
 9659 16fa 1A       		.uleb128 0x1a
 9660 16fb D2150000 		.4byte	.LASF292
 9661 16ff 01       		.byte	0x1
 9662 1700 9503     		.2byte	0x395
 9663 1702 710E0000 		.4byte	0xe71
 9664 1706 00000000 		.4byte	.LFB61
 9665 170a A4000000 		.4byte	.LFE61-.LFB61
 9666 170e 01       		.uleb128 0x1
 9667 170f 9C       		.byte	0x9c
 9668 1710 60170000 		.4byte	0x1760
 9669 1714 1B       		.uleb128 0x1b
 9670 1715 77040000 		.4byte	.LASF273
 9671 1719 01       		.byte	0x1
 9672 171a 9503     		.2byte	0x395
 9673 171c 60170000 		.4byte	0x1760
 9674 1720 02       		.uleb128 0x2
 9675 1721 91       		.byte	0x91
 9676 1722 6C       		.sleb128 -20
 9677 1723 1B       		.uleb128 0x1b
 9678 1724 8E080000 		.4byte	.LASF258
 9679 1728 01       		.byte	0x1
 9680 1729 9503     		.2byte	0x395
 9681 172b BF000000 		.4byte	0xbf
 9682 172f 02       		.uleb128 0x2
 9683 1730 91       		.byte	0x91
 9684 1731 6A       		.sleb128 -22
 9685 1732 1B       		.uleb128 0x1b
 9686 1733 15120000 		.4byte	.LASF252
 9687 1737 01       		.byte	0x1
 9688 1738 9603     		.2byte	0x396
 9689 173a BB0E0000 		.4byte	0xebb
 9690 173e 02       		.uleb128 0x2
 9691 173f 91       		.byte	0x91
 9692 1740 69       		.sleb128 -23
 9693 1741 1B       		.uleb128 0x1b
 9694 1742 BB020000 		.4byte	.LASF253
 9695 1746 01       		.byte	0x1
 9696 1747 9603     		.2byte	0x396
 9697 1749 BB0E0000 		.4byte	0xebb
 9698 174d 02       		.uleb128 0x2
 9699 174e 91       		.byte	0x91
 9700 174f 68       		.sleb128 -24
 9701 1750 1B       		.uleb128 0x1b
 9702 1751 77000000 		.4byte	.LASF254
 9703 1755 01       		.byte	0x1
 9704 1756 9603     		.2byte	0x396
 9705 1758 3D100000 		.4byte	0x103d
 9706 175c 02       		.uleb128 0x2
 9707 175d 91       		.byte	0x91
ARM GAS  C:\Users\JC\AppData\Local\Temp\ccU1E72d.s 			page 222


 9708 175e 00       		.sleb128 0
 9709 175f 00       		.byte	0
 9710 1760 15       		.uleb128 0x15
 9711 1761 04       		.byte	0x4
 9712 1762 C70F0000 		.4byte	0xfc7
 9713 1766 1A       		.uleb128 0x1a
 9714 1767 FE040000 		.4byte	.LASF293
 9715 176b 01       		.byte	0x1
 9716 176c C603     		.2byte	0x3c6
 9717 176e 710E0000 		.4byte	0xe71
 9718 1772 00000000 		.4byte	.LFB62
 9719 1776 BC010000 		.4byte	.LFE62-.LFB62
 9720 177a 01       		.uleb128 0x1
 9721 177b 9C       		.byte	0x9c
 9722 177c BD170000 		.4byte	0x17bd
 9723 1780 1B       		.uleb128 0x1b
 9724 1781 77040000 		.4byte	.LASF273
 9725 1785 01       		.byte	0x1
 9726 1786 C603     		.2byte	0x3c6
 9727 1788 60170000 		.4byte	0x1760
 9728 178c 02       		.uleb128 0x2
 9729 178d 91       		.byte	0x91
 9730 178e 6C       		.sleb128 -20
 9731 178f 1B       		.uleb128 0x1b
 9732 1790 D6100000 		.4byte	.LASF249
 9733 1794 01       		.byte	0x1
 9734 1795 C603     		.2byte	0x3c6
 9735 1797 D5000000 		.4byte	0xd5
 9736 179b 02       		.uleb128 0x2
 9737 179c 91       		.byte	0x91
 9738 179d 68       		.sleb128 -24
 9739 179e 1B       		.uleb128 0x1b
 9740 179f FF0E0000 		.4byte	.LASF250
 9741 17a3 01       		.byte	0x1
 9742 17a4 C703     		.2byte	0x3c7
 9743 17a6 8F0F0000 		.4byte	0xf8f
 9744 17aa 02       		.uleb128 0x2
 9745 17ab 91       		.byte	0x91
 9746 17ac 67       		.sleb128 -25
 9747 17ad 1C       		.uleb128 0x1c
 9748 17ae DA090000 		.4byte	.LASF266
 9749 17b2 01       		.byte	0x1
 9750 17b3 C903     		.2byte	0x3c9
 9751 17b5 710E0000 		.4byte	0xe71
 9752 17b9 02       		.uleb128 0x2
 9753 17ba 91       		.byte	0x91
 9754 17bb 74       		.sleb128 -12
 9755 17bc 00       		.byte	0
 9756 17bd 1A       		.uleb128 0x1a
 9757 17be AD0A0000 		.4byte	.LASF294
 9758 17c2 01       		.byte	0x1
 9759 17c3 0D04     		.2byte	0x40d
 9760 17c5 710E0000 		.4byte	0xe71
 9761 17c9 00000000 		.4byte	.LFB63
 9762 17cd C4000000 		.4byte	.LFE63-.LFB63
 9763 17d1 01       		.uleb128 0x1
 9764 17d2 9C       		.byte	0x9c
ARM GAS  C:\Users\JC\AppData\Local\Temp\ccU1E72d.s 			page 223


 9765 17d3 23180000 		.4byte	0x1823
 9766 17d7 1B       		.uleb128 0x1b
 9767 17d8 77040000 		.4byte	.LASF273
 9768 17dc 01       		.byte	0x1
 9769 17dd 0D04     		.2byte	0x40d
 9770 17df 60170000 		.4byte	0x1760
 9771 17e3 02       		.uleb128 0x2
 9772 17e4 91       		.byte	0x91
 9773 17e5 6C       		.sleb128 -20
 9774 17e6 1B       		.uleb128 0x1b
 9775 17e7 8E080000 		.4byte	.LASF258
 9776 17eb 01       		.byte	0x1
 9777 17ec 0D04     		.2byte	0x40d
 9778 17ee BF000000 		.4byte	0xbf
 9779 17f2 02       		.uleb128 0x2
 9780 17f3 91       		.byte	0x91
 9781 17f4 6A       		.sleb128 -22
 9782 17f5 1B       		.uleb128 0x1b
 9783 17f6 15120000 		.4byte	.LASF252
 9784 17fa 01       		.byte	0x1
 9785 17fb 0E04     		.2byte	0x40e
 9786 17fd BB0E0000 		.4byte	0xebb
 9787 1801 02       		.uleb128 0x2
 9788 1802 91       		.byte	0x91
 9789 1803 69       		.sleb128 -23
 9790 1804 1B       		.uleb128 0x1b
 9791 1805 BB020000 		.4byte	.LASF253
 9792 1809 01       		.byte	0x1
 9793 180a 0E04     		.2byte	0x40e
 9794 180c BB0E0000 		.4byte	0xebb
 9795 1810 02       		.uleb128 0x2
 9796 1811 91       		.byte	0x91
 9797 1812 68       		.sleb128 -24
 9798 1813 1B       		.uleb128 0x1b
 9799 1814 77000000 		.4byte	.LASF254
 9800 1818 01       		.byte	0x1
 9801 1819 0E04     		.2byte	0x40e
 9802 181b 3D100000 		.4byte	0x103d
 9803 181f 02       		.uleb128 0x2
 9804 1820 91       		.byte	0x91
 9805 1821 00       		.sleb128 0
 9806 1822 00       		.byte	0
 9807 1823 1A       		.uleb128 0x1a
 9808 1824 05110000 		.4byte	.LASF295
 9809 1828 01       		.byte	0x1
 9810 1829 3404     		.2byte	0x434
 9811 182b 710E0000 		.4byte	0xe71
 9812 182f 00000000 		.4byte	.LFB64
 9813 1833 6C000000 		.4byte	.LFE64-.LFB64
 9814 1837 01       		.uleb128 0x1
 9815 1838 9C       		.byte	0x9c
 9816 1839 5C180000 		.4byte	0x185c
 9817 183d 1B       		.uleb128 0x1b
 9818 183e 77040000 		.4byte	.LASF273
 9819 1842 01       		.byte	0x1
 9820 1843 3404     		.2byte	0x434
 9821 1845 60170000 		.4byte	0x1760
ARM GAS  C:\Users\JC\AppData\Local\Temp\ccU1E72d.s 			page 224


 9822 1849 02       		.uleb128 0x2
 9823 184a 91       		.byte	0x91
 9824 184b 6C       		.sleb128 -20
 9825 184c 1C       		.uleb128 0x1c
 9826 184d DA090000 		.4byte	.LASF266
 9827 1851 01       		.byte	0x1
 9828 1852 3604     		.2byte	0x436
 9829 1854 710E0000 		.4byte	0xe71
 9830 1858 02       		.uleb128 0x2
 9831 1859 91       		.byte	0x91
 9832 185a 74       		.sleb128 -12
 9833 185b 00       		.byte	0
 9834 185c 1A       		.uleb128 0x1a
 9835 185d 10130000 		.4byte	.LASF296
 9836 1861 01       		.byte	0x1
 9837 1862 6304     		.2byte	0x463
 9838 1864 710E0000 		.4byte	0xe71
 9839 1868 00000000 		.4byte	.LFB65
 9840 186c 68000000 		.4byte	.LFE65-.LFB65
 9841 1870 01       		.uleb128 0x1
 9842 1871 9C       		.byte	0x9c
 9843 1872 95180000 		.4byte	0x1895
 9844 1876 1B       		.uleb128 0x1b
 9845 1877 77040000 		.4byte	.LASF273
 9846 187b 01       		.byte	0x1
 9847 187c 6304     		.2byte	0x463
 9848 187e 60170000 		.4byte	0x1760
 9849 1882 02       		.uleb128 0x2
 9850 1883 91       		.byte	0x91
 9851 1884 6C       		.sleb128 -20
 9852 1885 1C       		.uleb128 0x1c
 9853 1886 DA090000 		.4byte	.LASF266
 9854 188a 01       		.byte	0x1
 9855 188b 6504     		.2byte	0x465
 9856 188d 710E0000 		.4byte	0xe71
 9857 1891 02       		.uleb128 0x2
 9858 1892 91       		.byte	0x91
 9859 1893 74       		.sleb128 -12
 9860 1894 00       		.byte	0
 9861 1895 1A       		.uleb128 0x1a
 9862 1896 DE040000 		.4byte	.LASF297
 9863 189a 01       		.byte	0x1
 9864 189b AC04     		.2byte	0x4ac
 9865 189d 710E0000 		.4byte	0xe71
 9866 18a1 00000000 		.4byte	.LFB66
 9867 18a5 A4000000 		.4byte	.LFE66-.LFB66
 9868 18a9 01       		.uleb128 0x1
 9869 18aa 9C       		.byte	0x9c
 9870 18ab FB180000 		.4byte	0x18fb
 9871 18af 1B       		.uleb128 0x1b
 9872 18b0 77040000 		.4byte	.LASF273
 9873 18b4 01       		.byte	0x1
 9874 18b5 AC04     		.2byte	0x4ac
 9875 18b7 FB180000 		.4byte	0x18fb
 9876 18bb 02       		.uleb128 0x2
 9877 18bc 91       		.byte	0x91
 9878 18bd 6C       		.sleb128 -20
ARM GAS  C:\Users\JC\AppData\Local\Temp\ccU1E72d.s 			page 225


 9879 18be 1B       		.uleb128 0x1b
 9880 18bf 8E080000 		.4byte	.LASF258
 9881 18c3 01       		.byte	0x1
 9882 18c4 AC04     		.2byte	0x4ac
 9883 18c6 BF000000 		.4byte	0xbf
 9884 18ca 02       		.uleb128 0x2
 9885 18cb 91       		.byte	0x91
 9886 18cc 6A       		.sleb128 -22
 9887 18cd 1B       		.uleb128 0x1b
 9888 18ce 15120000 		.4byte	.LASF252
 9889 18d2 01       		.byte	0x1
 9890 18d3 AD04     		.2byte	0x4ad
 9891 18d5 BB0E0000 		.4byte	0xebb
 9892 18d9 02       		.uleb128 0x2
 9893 18da 91       		.byte	0x91
 9894 18db 69       		.sleb128 -23
 9895 18dc 1B       		.uleb128 0x1b
 9896 18dd BB020000 		.4byte	.LASF253
 9897 18e1 01       		.byte	0x1
 9898 18e2 AD04     		.2byte	0x4ad
 9899 18e4 BB0E0000 		.4byte	0xebb
 9900 18e8 02       		.uleb128 0x2
 9901 18e9 91       		.byte	0x91
 9902 18ea 68       		.sleb128 -24
 9903 18eb 1B       		.uleb128 0x1b
 9904 18ec 77000000 		.4byte	.LASF254
 9905 18f0 01       		.byte	0x1
 9906 18f1 AD04     		.2byte	0x4ad
 9907 18f3 3D100000 		.4byte	0x103d
 9908 18f7 02       		.uleb128 0x2
 9909 18f8 91       		.byte	0x91
 9910 18f9 00       		.sleb128 0
 9911 18fa 00       		.byte	0
 9912 18fb 15       		.uleb128 0x15
 9913 18fc 04       		.byte	0x4
 9914 18fd D30F0000 		.4byte	0xfd3
 9915 1901 1A       		.uleb128 0x1a
 9916 1902 48160000 		.4byte	.LASF298
 9917 1906 01       		.byte	0x1
 9918 1907 E804     		.2byte	0x4e8
 9919 1909 710E0000 		.4byte	0xe71
 9920 190d 00000000 		.4byte	.LFB67
 9921 1911 C4000000 		.4byte	.LFE67-.LFB67
 9922 1915 01       		.uleb128 0x1
 9923 1916 9C       		.byte	0x9c
 9924 1917 67190000 		.4byte	0x1967
 9925 191b 1B       		.uleb128 0x1b
 9926 191c 77040000 		.4byte	.LASF273
 9927 1920 01       		.byte	0x1
 9928 1921 E804     		.2byte	0x4e8
 9929 1923 FB180000 		.4byte	0x18fb
 9930 1927 02       		.uleb128 0x2
 9931 1928 91       		.byte	0x91
 9932 1929 6C       		.sleb128 -20
 9933 192a 1B       		.uleb128 0x1b
 9934 192b 8E080000 		.4byte	.LASF258
 9935 192f 01       		.byte	0x1
ARM GAS  C:\Users\JC\AppData\Local\Temp\ccU1E72d.s 			page 226


 9936 1930 E804     		.2byte	0x4e8
 9937 1932 BF000000 		.4byte	0xbf
 9938 1936 02       		.uleb128 0x2
 9939 1937 91       		.byte	0x91
 9940 1938 6A       		.sleb128 -22
 9941 1939 1B       		.uleb128 0x1b
 9942 193a 15120000 		.4byte	.LASF252
 9943 193e 01       		.byte	0x1
 9944 193f E904     		.2byte	0x4e9
 9945 1941 BB0E0000 		.4byte	0xebb
 9946 1945 02       		.uleb128 0x2
 9947 1946 91       		.byte	0x91
 9948 1947 69       		.sleb128 -23
 9949 1948 1B       		.uleb128 0x1b
 9950 1949 BB020000 		.4byte	.LASF253
 9951 194d 01       		.byte	0x1
 9952 194e E904     		.2byte	0x4e9
 9953 1950 BB0E0000 		.4byte	0xebb
 9954 1954 02       		.uleb128 0x2
 9955 1955 91       		.byte	0x91
 9956 1956 68       		.sleb128 -24
 9957 1957 1B       		.uleb128 0x1b
 9958 1958 77000000 		.4byte	.LASF254
 9959 195c 01       		.byte	0x1
 9960 195d E904     		.2byte	0x4e9
 9961 195f 3D100000 		.4byte	0x103d
 9962 1963 02       		.uleb128 0x2
 9963 1964 91       		.byte	0x91
 9964 1965 00       		.sleb128 0
 9965 1966 00       		.byte	0
 9966 1967 1A       		.uleb128 0x1a
 9967 1968 240C0000 		.4byte	.LASF299
 9968 196c 01       		.byte	0x1
 9969 196d 1905     		.2byte	0x519
 9970 196f 710E0000 		.4byte	0xe71
 9971 1973 00000000 		.4byte	.LFB68
 9972 1977 1C010000 		.4byte	.LFE68-.LFB68
 9973 197b 01       		.uleb128 0x1
 9974 197c 9C       		.byte	0x9c
 9975 197d BE190000 		.4byte	0x19be
 9976 1981 1B       		.uleb128 0x1b
 9977 1982 77040000 		.4byte	.LASF273
 9978 1986 01       		.byte	0x1
 9979 1987 1905     		.2byte	0x519
 9980 1989 BE190000 		.4byte	0x19be
 9981 198d 02       		.uleb128 0x2
 9982 198e 91       		.byte	0x91
 9983 198f 6C       		.sleb128 -20
 9984 1990 1B       		.uleb128 0x1b
 9985 1991 D40D0000 		.4byte	.LASF274
 9986 1995 01       		.byte	0x1
 9987 1996 1905     		.2byte	0x519
 9988 1998 C4190000 		.4byte	0x19c4
 9989 199c 02       		.uleb128 0x2
 9990 199d 91       		.byte	0x91
 9991 199e 68       		.sleb128 -24
 9992 199f 1C       		.uleb128 0x1c
ARM GAS  C:\Users\JC\AppData\Local\Temp\ccU1E72d.s 			page 227


 9993 19a0 DA090000 		.4byte	.LASF266
 9994 19a4 01       		.byte	0x1
 9995 19a5 1B05     		.2byte	0x51b
 9996 19a7 710E0000 		.4byte	0xe71
 9997 19ab 02       		.uleb128 0x2
 9998 19ac 91       		.byte	0x91
 9999 19ad 74       		.sleb128 -12
 10000 19ae 1C       		.uleb128 0x1c
 10001 19af 54000000 		.4byte	.LASF276
 10002 19b3 01       		.byte	0x1
 10003 19b4 1C05     		.2byte	0x51c
 10004 19b6 D5000000 		.4byte	0xd5
 10005 19ba 02       		.uleb128 0x2
 10006 19bb 91       		.byte	0x91
 10007 19bc 70       		.sleb128 -16
 10008 19bd 00       		.byte	0
 10009 19be 15       		.uleb128 0x15
 10010 19bf 04       		.byte	0x4
 10011 19c0 D00D0000 		.4byte	0xdd0
 10012 19c4 15       		.uleb128 0x15
 10013 19c5 04       		.byte	0x4
 10014 19c6 CA190000 		.4byte	0x19ca
 10015 19ca 06       		.uleb128 0x6
 10016 19cb 40110000 		.4byte	0x1140
 10017 19cf 1A       		.uleb128 0x1a
 10018 19d0 4E070000 		.4byte	.LASF300
 10019 19d4 01       		.byte	0x1
 10020 19d5 6605     		.2byte	0x566
 10021 19d7 710E0000 		.4byte	0xe71
 10022 19db 00000000 		.4byte	.LFB69
 10023 19df 50020000 		.4byte	.LFE69-.LFB69
 10024 19e3 01       		.uleb128 0x1
 10025 19e4 9C       		.byte	0x9c
 10026 19e5 351A0000 		.4byte	0x1a35
 10027 19e9 1B       		.uleb128 0x1b
 10028 19ea 77040000 		.4byte	.LASF273
 10029 19ee 01       		.byte	0x1
 10030 19ef 6605     		.2byte	0x566
 10031 19f1 BE190000 		.4byte	0x19be
 10032 19f5 02       		.uleb128 0x2
 10033 19f6 91       		.byte	0x91
 10034 19f7 64       		.sleb128 -28
 10035 19f8 1B       		.uleb128 0x1b
 10036 19f9 D40D0000 		.4byte	.LASF274
 10037 19fd 01       		.byte	0x1
 10038 19fe 6605     		.2byte	0x566
 10039 1a00 C4190000 		.4byte	0x19c4
 10040 1a04 02       		.uleb128 0x2
 10041 1a05 91       		.byte	0x91
 10042 1a06 60       		.sleb128 -32
 10043 1a07 1C       		.uleb128 0x1c
 10044 1a08 DA090000 		.4byte	.LASF266
 10045 1a0c 01       		.byte	0x1
 10046 1a0d 6805     		.2byte	0x568
 10047 1a0f 710E0000 		.4byte	0xe71
 10048 1a13 02       		.uleb128 0x2
 10049 1a14 91       		.byte	0x91
ARM GAS  C:\Users\JC\AppData\Local\Temp\ccU1E72d.s 			page 228


 10050 1a15 74       		.sleb128 -12
 10051 1a16 1C       		.uleb128 0x1c
 10052 1a17 40090000 		.4byte	.LASF275
 10053 1a1b 01       		.byte	0x1
 10054 1a1c 6905     		.2byte	0x569
 10055 1a1e D5000000 		.4byte	0xd5
 10056 1a22 02       		.uleb128 0x2
 10057 1a23 91       		.byte	0x91
 10058 1a24 70       		.sleb128 -16
 10059 1a25 1C       		.uleb128 0x1c
 10060 1a26 54000000 		.4byte	.LASF276
 10061 1a2a 01       		.byte	0x1
 10062 1a2b 6A05     		.2byte	0x56a
 10063 1a2d D5000000 		.4byte	0xd5
 10064 1a31 02       		.uleb128 0x2
 10065 1a32 91       		.byte	0x91
 10066 1a33 6C       		.sleb128 -20
 10067 1a34 00       		.byte	0
 10068 1a35 1A       		.uleb128 0x1a
 10069 1a36 05070000 		.4byte	.LASF301
 10070 1a3a 01       		.byte	0x1
 10071 1a3b B005     		.2byte	0x5b0
 10072 1a3d 710E0000 		.4byte	0xe71
 10073 1a41 00000000 		.4byte	.LFB70
 10074 1a45 6C000000 		.4byte	.LFE70-.LFB70
 10075 1a49 01       		.uleb128 0x1
 10076 1a4a 9C       		.byte	0x9c
 10077 1a4b 6E1A0000 		.4byte	0x1a6e
 10078 1a4f 1B       		.uleb128 0x1b
 10079 1a50 77040000 		.4byte	.LASF273
 10080 1a54 01       		.byte	0x1
 10081 1a55 B005     		.2byte	0x5b0
 10082 1a57 BE190000 		.4byte	0x19be
 10083 1a5b 02       		.uleb128 0x2
 10084 1a5c 91       		.byte	0x91
 10085 1a5d 6C       		.sleb128 -20
 10086 1a5e 1C       		.uleb128 0x1c
 10087 1a5f DA090000 		.4byte	.LASF266
 10088 1a63 01       		.byte	0x1
 10089 1a64 B205     		.2byte	0x5b2
 10090 1a66 710E0000 		.4byte	0xe71
 10091 1a6a 02       		.uleb128 0x2
 10092 1a6b 91       		.byte	0x91
 10093 1a6c 74       		.sleb128 -12
 10094 1a6d 00       		.byte	0
 10095 1a6e 1A       		.uleb128 0x1a
 10096 1a6f 98050000 		.4byte	.LASF302
 10097 1a73 01       		.byte	0x1
 10098 1a74 DD05     		.2byte	0x5dd
 10099 1a76 710E0000 		.4byte	0xe71
 10100 1a7a 00000000 		.4byte	.LFB71
 10101 1a7e 6C000000 		.4byte	.LFE71-.LFB71
 10102 1a82 01       		.uleb128 0x1
 10103 1a83 9C       		.byte	0x9c
 10104 1a84 A71A0000 		.4byte	0x1aa7
 10105 1a88 1B       		.uleb128 0x1b
 10106 1a89 77040000 		.4byte	.LASF273
ARM GAS  C:\Users\JC\AppData\Local\Temp\ccU1E72d.s 			page 229


 10107 1a8d 01       		.byte	0x1
 10108 1a8e DD05     		.2byte	0x5dd
 10109 1a90 BE190000 		.4byte	0x19be
 10110 1a94 02       		.uleb128 0x2
 10111 1a95 91       		.byte	0x91
 10112 1a96 6C       		.sleb128 -20
 10113 1a97 1C       		.uleb128 0x1c
 10114 1a98 DA090000 		.4byte	.LASF266
 10115 1a9c 01       		.byte	0x1
 10116 1a9d DF05     		.2byte	0x5df
 10117 1a9f 710E0000 		.4byte	0xe71
 10118 1aa3 02       		.uleb128 0x2
 10119 1aa4 91       		.byte	0x91
 10120 1aa5 74       		.sleb128 -12
 10121 1aa6 00       		.byte	0
 10122 1aa7 1A       		.uleb128 0x1a
 10123 1aa8 670F0000 		.4byte	.LASF303
 10124 1aac 01       		.byte	0x1
 10125 1aad 0906     		.2byte	0x609
 10126 1aaf 710E0000 		.4byte	0xe71
 10127 1ab3 00000000 		.4byte	.LFB72
 10128 1ab7 6C000000 		.4byte	.LFE72-.LFB72
 10129 1abb 01       		.uleb128 0x1
 10130 1abc 9C       		.byte	0x9c
 10131 1abd E01A0000 		.4byte	0x1ae0
 10132 1ac1 1B       		.uleb128 0x1b
 10133 1ac2 77040000 		.4byte	.LASF273
 10134 1ac6 01       		.byte	0x1
 10135 1ac7 0906     		.2byte	0x609
 10136 1ac9 BE190000 		.4byte	0x19be
 10137 1acd 02       		.uleb128 0x2
 10138 1ace 91       		.byte	0x91
 10139 1acf 6C       		.sleb128 -20
 10140 1ad0 1C       		.uleb128 0x1c
 10141 1ad1 DA090000 		.4byte	.LASF266
 10142 1ad5 01       		.byte	0x1
 10143 1ad6 0B06     		.2byte	0x60b
 10144 1ad8 710E0000 		.4byte	0xe71
 10145 1adc 02       		.uleb128 0x2
 10146 1add 91       		.byte	0x91
 10147 1ade 74       		.sleb128 -12
 10148 1adf 00       		.byte	0
 10149 1ae0 1A       		.uleb128 0x1a
 10150 1ae1 9C0C0000 		.4byte	.LASF304
 10151 1ae5 01       		.byte	0x1
 10152 1ae6 3606     		.2byte	0x636
 10153 1ae8 710E0000 		.4byte	0xe71
 10154 1aec 00000000 		.4byte	.LFB73
 10155 1af0 6C000000 		.4byte	.LFE73-.LFB73
 10156 1af4 01       		.uleb128 0x1
 10157 1af5 9C       		.byte	0x9c
 10158 1af6 191B0000 		.4byte	0x1b19
 10159 1afa 1B       		.uleb128 0x1b
 10160 1afb 77040000 		.4byte	.LASF273
 10161 1aff 01       		.byte	0x1
 10162 1b00 3606     		.2byte	0x636
 10163 1b02 BE190000 		.4byte	0x19be
ARM GAS  C:\Users\JC\AppData\Local\Temp\ccU1E72d.s 			page 230


 10164 1b06 02       		.uleb128 0x2
 10165 1b07 91       		.byte	0x91
 10166 1b08 6C       		.sleb128 -20
 10167 1b09 1C       		.uleb128 0x1c
 10168 1b0a DA090000 		.4byte	.LASF266
 10169 1b0e 01       		.byte	0x1
 10170 1b0f 3806     		.2byte	0x638
 10171 1b11 710E0000 		.4byte	0xe71
 10172 1b15 02       		.uleb128 0x2
 10173 1b16 91       		.byte	0x91
 10174 1b17 74       		.sleb128 -12
 10175 1b18 00       		.byte	0
 10176 1b19 1A       		.uleb128 0x1a
 10177 1b1a B9150000 		.4byte	.LASF305
 10178 1b1e 01       		.byte	0x1
 10179 1b1f 7806     		.2byte	0x678
 10180 1b21 710E0000 		.4byte	0xe71
 10181 1b25 00000000 		.4byte	.LFB74
 10182 1b29 B0010000 		.4byte	.LFE74-.LFB74
 10183 1b2d 01       		.uleb128 0x1
 10184 1b2e 9C       		.byte	0x9c
 10185 1b2f 891B0000 		.4byte	0x1b89
 10186 1b33 1B       		.uleb128 0x1b
 10187 1b34 77040000 		.4byte	.LASF273
 10188 1b38 01       		.byte	0x1
 10189 1b39 7806     		.2byte	0x678
 10190 1b3b 891B0000 		.4byte	0x1b89
 10191 1b3f 02       		.uleb128 0x2
 10192 1b40 91       		.byte	0x91
 10193 1b41 6C       		.sleb128 -20
 10194 1b42 1B       		.uleb128 0x1b
 10195 1b43 81130000 		.4byte	.LASF286
 10196 1b47 01       		.byte	0x1
 10197 1b48 7806     		.2byte	0x678
 10198 1b4a BB0F0000 		.4byte	0xfbb
 10199 1b4e 02       		.uleb128 0x2
 10200 1b4f 91       		.byte	0x91
 10201 1b50 6B       		.sleb128 -21
 10202 1b51 1B       		.uleb128 0x1b
 10203 1b52 26110000 		.4byte	.LASF306
 10204 1b56 01       		.byte	0x1
 10205 1b57 7806     		.2byte	0x678
 10206 1b59 D5000000 		.4byte	0xd5
 10207 1b5d 02       		.uleb128 0x2
 10208 1b5e 91       		.byte	0x91
 10209 1b5f 64       		.sleb128 -28
 10210 1b60 1C       		.uleb128 0x1c
 10211 1b61 DA090000 		.4byte	.LASF266
 10212 1b65 01       		.byte	0x1
 10213 1b66 7A06     		.2byte	0x67a
 10214 1b68 710E0000 		.4byte	0xe71
 10215 1b6c 02       		.uleb128 0x2
 10216 1b6d 91       		.byte	0x91
 10217 1b6e 74       		.sleb128 -12
 10218 1b6f 1F       		.uleb128 0x1f
 10219 1b70 24000000 		.4byte	.LBB3
 10220 1b74 66010000 		.4byte	.LBE3-.LBB3
ARM GAS  C:\Users\JC\AppData\Local\Temp\ccU1E72d.s 			page 231


 10221 1b78 1C       		.uleb128 0x1c
 10222 1b79 95090000 		.4byte	.LASF288
 10223 1b7d 01       		.byte	0x1
 10224 1b7e 8206     		.2byte	0x682
 10225 1b80 CA000000 		.4byte	0xca
 10226 1b84 02       		.uleb128 0x2
 10227 1b85 91       		.byte	0x91
 10228 1b86 70       		.sleb128 -16
 10229 1b87 00       		.byte	0
 10230 1b88 00       		.byte	0
 10231 1b89 15       		.uleb128 0x15
 10232 1b8a 04       		.byte	0x4
 10233 1b8b BE190000 		.4byte	0x19be
 10234 1b8f 1A       		.uleb128 0x1a
 10235 1b90 A5010000 		.4byte	.LASF307
 10236 1b94 01       		.byte	0x1
 10237 1b95 F506     		.2byte	0x6f5
 10238 1b97 710E0000 		.4byte	0xe71
 10239 1b9b 00000000 		.4byte	.LFB75
 10240 1b9f 3C010000 		.4byte	.LFE75-.LFB75
 10241 1ba3 01       		.uleb128 0x1
 10242 1ba4 9C       		.byte	0x9c
 10243 1ba5 E61B0000 		.4byte	0x1be6
 10244 1ba9 1B       		.uleb128 0x1b
 10245 1baa 77040000 		.4byte	.LASF273
 10246 1bae 01       		.byte	0x1
 10247 1baf F506     		.2byte	0x6f5
 10248 1bb1 E61B0000 		.4byte	0x1be6
 10249 1bb5 02       		.uleb128 0x2
 10250 1bb6 91       		.byte	0x91
 10251 1bb7 6C       		.sleb128 -20
 10252 1bb8 1B       		.uleb128 0x1b
 10253 1bb9 D40D0000 		.4byte	.LASF274
 10254 1bbd 01       		.byte	0x1
 10255 1bbe F506     		.2byte	0x6f5
 10256 1bc0 EC1B0000 		.4byte	0x1bec
 10257 1bc4 02       		.uleb128 0x2
 10258 1bc5 91       		.byte	0x91
 10259 1bc6 68       		.sleb128 -24
 10260 1bc7 1C       		.uleb128 0x1c
 10261 1bc8 DA090000 		.4byte	.LASF266
 10262 1bcc 01       		.byte	0x1
 10263 1bcd F706     		.2byte	0x6f7
 10264 1bcf 710E0000 		.4byte	0xe71
 10265 1bd3 02       		.uleb128 0x2
 10266 1bd4 91       		.byte	0x91
 10267 1bd5 74       		.sleb128 -12
 10268 1bd6 1C       		.uleb128 0x1c
 10269 1bd7 54000000 		.4byte	.LASF276
 10270 1bdb 01       		.byte	0x1
 10271 1bdc F806     		.2byte	0x6f8
 10272 1bde D5000000 		.4byte	0xd5
 10273 1be2 02       		.uleb128 0x2
 10274 1be3 91       		.byte	0x91
 10275 1be4 70       		.sleb128 -16
 10276 1be5 00       		.byte	0
 10277 1be6 15       		.uleb128 0x15
ARM GAS  C:\Users\JC\AppData\Local\Temp\ccU1E72d.s 			page 232


 10278 1be7 04       		.byte	0x4
 10279 1be8 DC0D0000 		.4byte	0xddc
 10280 1bec 15       		.uleb128 0x15
 10281 1bed 04       		.byte	0x4
 10282 1bee F21B0000 		.4byte	0x1bf2
 10283 1bf2 06       		.uleb128 0x6
 10284 1bf3 97110000 		.4byte	0x1197
 10285 1bf7 1A       		.uleb128 0x1a
 10286 1bf8 B2060000 		.4byte	.LASF308
 10287 1bfc 01       		.byte	0x1
 10288 1bfd 4707     		.2byte	0x747
 10289 1bff 710E0000 		.4byte	0xe71
 10290 1c03 00000000 		.4byte	.LFB76
 10291 1c07 3C010000 		.4byte	.LFE76-.LFB76
 10292 1c0b 01       		.uleb128 0x1
 10293 1c0c 9C       		.byte	0x9c
 10294 1c0d 4E1C0000 		.4byte	0x1c4e
 10295 1c11 1B       		.uleb128 0x1b
 10296 1c12 77040000 		.4byte	.LASF273
 10297 1c16 01       		.byte	0x1
 10298 1c17 4707     		.2byte	0x747
 10299 1c19 E61B0000 		.4byte	0x1be6
 10300 1c1d 02       		.uleb128 0x2
 10301 1c1e 91       		.byte	0x91
 10302 1c1f 6C       		.sleb128 -20
 10303 1c20 1B       		.uleb128 0x1b
 10304 1c21 D40D0000 		.4byte	.LASF274
 10305 1c25 01       		.byte	0x1
 10306 1c26 4707     		.2byte	0x747
 10307 1c28 EC1B0000 		.4byte	0x1bec
 10308 1c2c 02       		.uleb128 0x2
 10309 1c2d 91       		.byte	0x91
 10310 1c2e 68       		.sleb128 -24
 10311 1c2f 1C       		.uleb128 0x1c
 10312 1c30 DA090000 		.4byte	.LASF266
 10313 1c34 01       		.byte	0x1
 10314 1c35 4907     		.2byte	0x749
 10315 1c37 710E0000 		.4byte	0xe71
 10316 1c3b 02       		.uleb128 0x2
 10317 1c3c 91       		.byte	0x91
 10318 1c3d 74       		.sleb128 -12
 10319 1c3e 1C       		.uleb128 0x1c
 10320 1c3f 54000000 		.4byte	.LASF276
 10321 1c43 01       		.byte	0x1
 10322 1c44 4A07     		.2byte	0x74a
 10323 1c46 D5000000 		.4byte	0xd5
 10324 1c4a 02       		.uleb128 0x2
 10325 1c4b 91       		.byte	0x91
 10326 1c4c 70       		.sleb128 -16
 10327 1c4d 00       		.byte	0
 10328 1c4e 1A       		.uleb128 0x1a
 10329 1c4f A7120000 		.4byte	.LASF309
 10330 1c53 01       		.byte	0x1
 10331 1c54 8C07     		.2byte	0x78c
 10332 1c56 710E0000 		.4byte	0xe71
 10333 1c5a 00000000 		.4byte	.LFB77
 10334 1c5e 6C000000 		.4byte	.LFE77-.LFB77
ARM GAS  C:\Users\JC\AppData\Local\Temp\ccU1E72d.s 			page 233


 10335 1c62 01       		.uleb128 0x1
 10336 1c63 9C       		.byte	0x9c
 10337 1c64 871C0000 		.4byte	0x1c87
 10338 1c68 1B       		.uleb128 0x1b
 10339 1c69 77040000 		.4byte	.LASF273
 10340 1c6d 01       		.byte	0x1
 10341 1c6e 8C07     		.2byte	0x78c
 10342 1c70 E61B0000 		.4byte	0x1be6
 10343 1c74 02       		.uleb128 0x2
 10344 1c75 91       		.byte	0x91
 10345 1c76 6C       		.sleb128 -20
 10346 1c77 1C       		.uleb128 0x1c
 10347 1c78 DA090000 		.4byte	.LASF266
 10348 1c7c 01       		.byte	0x1
 10349 1c7d 8E07     		.2byte	0x78e
 10350 1c7f 710E0000 		.4byte	0xe71
 10351 1c83 02       		.uleb128 0x2
 10352 1c84 91       		.byte	0x91
 10353 1c85 74       		.sleb128 -12
 10354 1c86 00       		.byte	0
 10355 1c87 1A       		.uleb128 0x1a
 10356 1c88 BF110000 		.4byte	.LASF310
 10357 1c8c 01       		.byte	0x1
 10358 1c8d B907     		.2byte	0x7b9
 10359 1c8f 710E0000 		.4byte	0xe71
 10360 1c93 00000000 		.4byte	.LFB78
 10361 1c97 6C000000 		.4byte	.LFE78-.LFB78
 10362 1c9b 01       		.uleb128 0x1
 10363 1c9c 9C       		.byte	0x9c
 10364 1c9d C01C0000 		.4byte	0x1cc0
 10365 1ca1 1B       		.uleb128 0x1b
 10366 1ca2 77040000 		.4byte	.LASF273
 10367 1ca6 01       		.byte	0x1
 10368 1ca7 B907     		.2byte	0x7b9
 10369 1ca9 E61B0000 		.4byte	0x1be6
 10370 1cad 02       		.uleb128 0x2
 10371 1cae 91       		.byte	0x91
 10372 1caf 6C       		.sleb128 -20
 10373 1cb0 1C       		.uleb128 0x1c
 10374 1cb1 DA090000 		.4byte	.LASF266
 10375 1cb5 01       		.byte	0x1
 10376 1cb6 BB07     		.2byte	0x7bb
 10377 1cb8 710E0000 		.4byte	0xe71
 10378 1cbc 02       		.uleb128 0x2
 10379 1cbd 91       		.byte	0x91
 10380 1cbe 74       		.sleb128 -12
 10381 1cbf 00       		.byte	0
 10382 1cc0 1A       		.uleb128 0x1a
 10383 1cc1 EE0A0000 		.4byte	.LASF311
 10384 1cc5 01       		.byte	0x1
 10385 1cc6 E507     		.2byte	0x7e5
 10386 1cc8 710E0000 		.4byte	0xe71
 10387 1ccc 00000000 		.4byte	.LFB79
 10388 1cd0 6C000000 		.4byte	.LFE79-.LFB79
 10389 1cd4 01       		.uleb128 0x1
 10390 1cd5 9C       		.byte	0x9c
 10391 1cd6 F91C0000 		.4byte	0x1cf9
ARM GAS  C:\Users\JC\AppData\Local\Temp\ccU1E72d.s 			page 234


 10392 1cda 1B       		.uleb128 0x1b
 10393 1cdb 77040000 		.4byte	.LASF273
 10394 1cdf 01       		.byte	0x1
 10395 1ce0 E507     		.2byte	0x7e5
 10396 1ce2 E61B0000 		.4byte	0x1be6
 10397 1ce6 02       		.uleb128 0x2
 10398 1ce7 91       		.byte	0x91
 10399 1ce8 6C       		.sleb128 -20
 10400 1ce9 1C       		.uleb128 0x1c
 10401 1cea DA090000 		.4byte	.LASF266
 10402 1cee 01       		.byte	0x1
 10403 1cef E707     		.2byte	0x7e7
 10404 1cf1 710E0000 		.4byte	0xe71
 10405 1cf5 02       		.uleb128 0x2
 10406 1cf6 91       		.byte	0x91
 10407 1cf7 74       		.sleb128 -12
 10408 1cf8 00       		.byte	0
 10409 1cf9 1A       		.uleb128 0x1a
 10410 1cfa 9A110000 		.4byte	.LASF312
 10411 1cfe 01       		.byte	0x1
 10412 1cff 1208     		.2byte	0x812
 10413 1d01 710E0000 		.4byte	0xe71
 10414 1d05 00000000 		.4byte	.LFB80
 10415 1d09 6C000000 		.4byte	.LFE80-.LFB80
 10416 1d0d 01       		.uleb128 0x1
 10417 1d0e 9C       		.byte	0x9c
 10418 1d0f 321D0000 		.4byte	0x1d32
 10419 1d13 1B       		.uleb128 0x1b
 10420 1d14 77040000 		.4byte	.LASF273
 10421 1d18 01       		.byte	0x1
 10422 1d19 1208     		.2byte	0x812
 10423 1d1b E61B0000 		.4byte	0x1be6
 10424 1d1f 02       		.uleb128 0x2
 10425 1d20 91       		.byte	0x91
 10426 1d21 6C       		.sleb128 -20
 10427 1d22 1C       		.uleb128 0x1c
 10428 1d23 DA090000 		.4byte	.LASF266
 10429 1d27 01       		.byte	0x1
 10430 1d28 1408     		.2byte	0x814
 10431 1d2a 710E0000 		.4byte	0xe71
 10432 1d2e 02       		.uleb128 0x2
 10433 1d2f 91       		.byte	0x91
 10434 1d30 74       		.sleb128 -12
 10435 1d31 00       		.byte	0
 10436 1d32 1A       		.uleb128 0x1a
 10437 1d33 79160000 		.4byte	.LASF313
 10438 1d37 01       		.byte	0x1
 10439 1d38 4808     		.2byte	0x848
 10440 1d3a 710E0000 		.4byte	0xe71
 10441 1d3e 00000000 		.4byte	.LFB81
 10442 1d42 3C010000 		.4byte	.LFE81-.LFB81
 10443 1d46 01       		.uleb128 0x1
 10444 1d47 9C       		.byte	0x9c
 10445 1d48 891D0000 		.4byte	0x1d89
 10446 1d4c 1B       		.uleb128 0x1b
 10447 1d4d 77040000 		.4byte	.LASF273
 10448 1d51 01       		.byte	0x1
ARM GAS  C:\Users\JC\AppData\Local\Temp\ccU1E72d.s 			page 235


 10449 1d52 4808     		.2byte	0x848
 10450 1d54 891D0000 		.4byte	0x1d89
 10451 1d58 02       		.uleb128 0x2
 10452 1d59 91       		.byte	0x91
 10453 1d5a 6C       		.sleb128 -20
 10454 1d5b 1B       		.uleb128 0x1b
 10455 1d5c D40D0000 		.4byte	.LASF274
 10456 1d60 01       		.byte	0x1
 10457 1d61 4808     		.2byte	0x848
 10458 1d63 8F1D0000 		.4byte	0x1d8f
 10459 1d67 02       		.uleb128 0x2
 10460 1d68 91       		.byte	0x91
 10461 1d69 68       		.sleb128 -24
 10462 1d6a 1C       		.uleb128 0x1c
 10463 1d6b DA090000 		.4byte	.LASF266
 10464 1d6f 01       		.byte	0x1
 10465 1d70 4A08     		.2byte	0x84a
 10466 1d72 710E0000 		.4byte	0xe71
 10467 1d76 02       		.uleb128 0x2
 10468 1d77 91       		.byte	0x91
 10469 1d78 74       		.sleb128 -12
 10470 1d79 1C       		.uleb128 0x1c
 10471 1d7a 54000000 		.4byte	.LASF276
 10472 1d7e 01       		.byte	0x1
 10473 1d7f 4B08     		.2byte	0x84b
 10474 1d81 D5000000 		.4byte	0xd5
 10475 1d85 02       		.uleb128 0x2
 10476 1d86 91       		.byte	0x91
 10477 1d87 70       		.sleb128 -16
 10478 1d88 00       		.byte	0
 10479 1d89 15       		.uleb128 0x15
 10480 1d8a 04       		.byte	0x4
 10481 1d8b E80D0000 		.4byte	0xde8
 10482 1d8f 15       		.uleb128 0x15
 10483 1d90 04       		.byte	0x4
 10484 1d91 951D0000 		.4byte	0x1d95
 10485 1d95 06       		.uleb128 0x6
 10486 1d96 EE110000 		.4byte	0x11ee
 10487 1d9a 1A       		.uleb128 0x1a
 10488 1d9b 40030000 		.4byte	.LASF314
 10489 1d9f 01       		.byte	0x1
 10490 1da0 9908     		.2byte	0x899
 10491 1da2 710E0000 		.4byte	0xe71
 10492 1da6 00000000 		.4byte	.LFB82
 10493 1daa 3C010000 		.4byte	.LFE82-.LFB82
 10494 1dae 01       		.uleb128 0x1
 10495 1daf 9C       		.byte	0x9c
 10496 1db0 F11D0000 		.4byte	0x1df1
 10497 1db4 1B       		.uleb128 0x1b
 10498 1db5 77040000 		.4byte	.LASF273
 10499 1db9 01       		.byte	0x1
 10500 1dba 9908     		.2byte	0x899
 10501 1dbc 891D0000 		.4byte	0x1d89
 10502 1dc0 02       		.uleb128 0x2
 10503 1dc1 91       		.byte	0x91
 10504 1dc2 6C       		.sleb128 -20
 10505 1dc3 1B       		.uleb128 0x1b
ARM GAS  C:\Users\JC\AppData\Local\Temp\ccU1E72d.s 			page 236


 10506 1dc4 D40D0000 		.4byte	.LASF274
 10507 1dc8 01       		.byte	0x1
 10508 1dc9 9908     		.2byte	0x899
 10509 1dcb 8F1D0000 		.4byte	0x1d8f
 10510 1dcf 02       		.uleb128 0x2
 10511 1dd0 91       		.byte	0x91
 10512 1dd1 68       		.sleb128 -24
 10513 1dd2 1C       		.uleb128 0x1c
 10514 1dd3 DA090000 		.4byte	.LASF266
 10515 1dd7 01       		.byte	0x1
 10516 1dd8 9B08     		.2byte	0x89b
 10517 1dda 710E0000 		.4byte	0xe71
 10518 1dde 02       		.uleb128 0x2
 10519 1ddf 91       		.byte	0x91
 10520 1de0 74       		.sleb128 -12
 10521 1de1 1C       		.uleb128 0x1c
 10522 1de2 54000000 		.4byte	.LASF276
 10523 1de6 01       		.byte	0x1
 10524 1de7 9C08     		.2byte	0x89c
 10525 1de9 D5000000 		.4byte	0xd5
 10526 1ded 02       		.uleb128 0x2
 10527 1dee 91       		.byte	0x91
 10528 1def 70       		.sleb128 -16
 10529 1df0 00       		.byte	0
 10530 1df1 1A       		.uleb128 0x1a
 10531 1df2 25080000 		.4byte	.LASF315
 10532 1df6 01       		.byte	0x1
 10533 1df7 DE08     		.2byte	0x8de
 10534 1df9 710E0000 		.4byte	0xe71
 10535 1dfd 00000000 		.4byte	.LFB83
 10536 1e01 6C000000 		.4byte	.LFE83-.LFB83
 10537 1e05 01       		.uleb128 0x1
 10538 1e06 9C       		.byte	0x9c
 10539 1e07 2A1E0000 		.4byte	0x1e2a
 10540 1e0b 1B       		.uleb128 0x1b
 10541 1e0c 77040000 		.4byte	.LASF273
 10542 1e10 01       		.byte	0x1
 10543 1e11 DE08     		.2byte	0x8de
 10544 1e13 891D0000 		.4byte	0x1d89
 10545 1e17 02       		.uleb128 0x2
 10546 1e18 91       		.byte	0x91
 10547 1e19 6C       		.sleb128 -20
 10548 1e1a 1C       		.uleb128 0x1c
 10549 1e1b DA090000 		.4byte	.LASF266
 10550 1e1f 01       		.byte	0x1
 10551 1e20 E008     		.2byte	0x8e0
 10552 1e22 710E0000 		.4byte	0xe71
 10553 1e26 02       		.uleb128 0x2
 10554 1e27 91       		.byte	0x91
 10555 1e28 74       		.sleb128 -12
 10556 1e29 00       		.byte	0
 10557 1e2a 1A       		.uleb128 0x1a
 10558 1e2b EA0C0000 		.4byte	.LASF316
 10559 1e2f 01       		.byte	0x1
 10560 1e30 0B09     		.2byte	0x90b
 10561 1e32 710E0000 		.4byte	0xe71
 10562 1e36 00000000 		.4byte	.LFB84
ARM GAS  C:\Users\JC\AppData\Local\Temp\ccU1E72d.s 			page 237


 10563 1e3a 6C000000 		.4byte	.LFE84-.LFB84
 10564 1e3e 01       		.uleb128 0x1
 10565 1e3f 9C       		.byte	0x9c
 10566 1e40 631E0000 		.4byte	0x1e63
 10567 1e44 1B       		.uleb128 0x1b
 10568 1e45 77040000 		.4byte	.LASF273
 10569 1e49 01       		.byte	0x1
 10570 1e4a 0B09     		.2byte	0x90b
 10571 1e4c 891D0000 		.4byte	0x1d89
 10572 1e50 02       		.uleb128 0x2
 10573 1e51 91       		.byte	0x91
 10574 1e52 6C       		.sleb128 -20
 10575 1e53 1C       		.uleb128 0x1c
 10576 1e54 DA090000 		.4byte	.LASF266
 10577 1e58 01       		.byte	0x1
 10578 1e59 0D09     		.2byte	0x90d
 10579 1e5b 710E0000 		.4byte	0xe71
 10580 1e5f 02       		.uleb128 0x2
 10581 1e60 91       		.byte	0x91
 10582 1e61 74       		.sleb128 -12
 10583 1e62 00       		.byte	0
 10584 1e63 1A       		.uleb128 0x1a
 10585 1e64 ED050000 		.4byte	.LASF317
 10586 1e68 01       		.byte	0x1
 10587 1e69 3709     		.2byte	0x937
 10588 1e6b 710E0000 		.4byte	0xe71
 10589 1e6f 00000000 		.4byte	.LFB85
 10590 1e73 6C000000 		.4byte	.LFE85-.LFB85
 10591 1e77 01       		.uleb128 0x1
 10592 1e78 9C       		.byte	0x9c
 10593 1e79 9C1E0000 		.4byte	0x1e9c
 10594 1e7d 1B       		.uleb128 0x1b
 10595 1e7e 77040000 		.4byte	.LASF273
 10596 1e82 01       		.byte	0x1
 10597 1e83 3709     		.2byte	0x937
 10598 1e85 891D0000 		.4byte	0x1d89
 10599 1e89 02       		.uleb128 0x2
 10600 1e8a 91       		.byte	0x91
 10601 1e8b 6C       		.sleb128 -20
 10602 1e8c 1C       		.uleb128 0x1c
 10603 1e8d DA090000 		.4byte	.LASF266
 10604 1e91 01       		.byte	0x1
 10605 1e92 3909     		.2byte	0x939
 10606 1e94 710E0000 		.4byte	0xe71
 10607 1e98 02       		.uleb128 0x2
 10608 1e99 91       		.byte	0x91
 10609 1e9a 74       		.sleb128 -12
 10610 1e9b 00       		.byte	0
 10611 1e9c 1A       		.uleb128 0x1a
 10612 1e9d B20B0000 		.4byte	.LASF318
 10613 1ea1 01       		.byte	0x1
 10614 1ea2 6409     		.2byte	0x964
 10615 1ea4 710E0000 		.4byte	0xe71
 10616 1ea8 00000000 		.4byte	.LFB86
 10617 1eac 6C000000 		.4byte	.LFE86-.LFB86
 10618 1eb0 01       		.uleb128 0x1
 10619 1eb1 9C       		.byte	0x9c
ARM GAS  C:\Users\JC\AppData\Local\Temp\ccU1E72d.s 			page 238


 10620 1eb2 D51E0000 		.4byte	0x1ed5
 10621 1eb6 1B       		.uleb128 0x1b
 10622 1eb7 77040000 		.4byte	.LASF273
 10623 1ebb 01       		.byte	0x1
 10624 1ebc 6409     		.2byte	0x964
 10625 1ebe 891D0000 		.4byte	0x1d89
 10626 1ec2 02       		.uleb128 0x2
 10627 1ec3 91       		.byte	0x91
 10628 1ec4 6C       		.sleb128 -20
 10629 1ec5 1C       		.uleb128 0x1c
 10630 1ec6 DA090000 		.4byte	.LASF266
 10631 1eca 01       		.byte	0x1
 10632 1ecb 6609     		.2byte	0x966
 10633 1ecd 710E0000 		.4byte	0xe71
 10634 1ed1 02       		.uleb128 0x2
 10635 1ed2 91       		.byte	0x91
 10636 1ed3 74       		.sleb128 -12
 10637 1ed4 00       		.byte	0
 10638 1ed5 1A       		.uleb128 0x1a
 10639 1ed6 3C0A0000 		.4byte	.LASF319
 10640 1eda 01       		.byte	0x1
 10641 1edb 9A09     		.2byte	0x99a
 10642 1edd 710E0000 		.4byte	0xe71
 10643 1ee1 00000000 		.4byte	.LFB87
 10644 1ee5 3C010000 		.4byte	.LFE87-.LFB87
 10645 1ee9 01       		.uleb128 0x1
 10646 1eea 9C       		.byte	0x9c
 10647 1eeb 2C1F0000 		.4byte	0x1f2c
 10648 1eef 1B       		.uleb128 0x1b
 10649 1ef0 77040000 		.4byte	.LASF273
 10650 1ef4 01       		.byte	0x1
 10651 1ef5 9A09     		.2byte	0x99a
 10652 1ef7 2C1F0000 		.4byte	0x1f2c
 10653 1efb 02       		.uleb128 0x2
 10654 1efc 91       		.byte	0x91
 10655 1efd 6C       		.sleb128 -20
 10656 1efe 1B       		.uleb128 0x1b
 10657 1eff D40D0000 		.4byte	.LASF274
 10658 1f03 01       		.byte	0x1
 10659 1f04 9A09     		.2byte	0x99a
 10660 1f06 321F0000 		.4byte	0x1f32
 10661 1f0a 02       		.uleb128 0x2
 10662 1f0b 91       		.byte	0x91
 10663 1f0c 68       		.sleb128 -24
 10664 1f0d 1C       		.uleb128 0x1c
 10665 1f0e DA090000 		.4byte	.LASF266
 10666 1f12 01       		.byte	0x1
 10667 1f13 9C09     		.2byte	0x99c
 10668 1f15 710E0000 		.4byte	0xe71
 10669 1f19 02       		.uleb128 0x2
 10670 1f1a 91       		.byte	0x91
 10671 1f1b 74       		.sleb128 -12
 10672 1f1c 1C       		.uleb128 0x1c
 10673 1f1d 54000000 		.4byte	.LASF276
 10674 1f21 01       		.byte	0x1
 10675 1f22 9D09     		.2byte	0x99d
 10676 1f24 D5000000 		.4byte	0xd5
ARM GAS  C:\Users\JC\AppData\Local\Temp\ccU1E72d.s 			page 239


 10677 1f28 02       		.uleb128 0x2
 10678 1f29 91       		.byte	0x91
 10679 1f2a 70       		.sleb128 -16
 10680 1f2b 00       		.byte	0
 10681 1f2c 15       		.uleb128 0x15
 10682 1f2d 04       		.byte	0x4
 10683 1f2e F40D0000 		.4byte	0xdf4
 10684 1f32 15       		.uleb128 0x15
 10685 1f33 04       		.byte	0x4
 10686 1f34 381F0000 		.4byte	0x1f38
 10687 1f38 06       		.uleb128 0x6
 10688 1f39 45120000 		.4byte	0x1245
 10689 1f3d 1A       		.uleb128 0x1a
 10690 1f3e 32130000 		.4byte	.LASF320
 10691 1f42 01       		.byte	0x1
 10692 1f43 EB09     		.2byte	0x9eb
 10693 1f45 710E0000 		.4byte	0xe71
 10694 1f49 00000000 		.4byte	.LFB88
 10695 1f4d 3C010000 		.4byte	.LFE88-.LFB88
 10696 1f51 01       		.uleb128 0x1
 10697 1f52 9C       		.byte	0x9c
 10698 1f53 941F0000 		.4byte	0x1f94
 10699 1f57 1B       		.uleb128 0x1b
 10700 1f58 77040000 		.4byte	.LASF273
 10701 1f5c 01       		.byte	0x1
 10702 1f5d EB09     		.2byte	0x9eb
 10703 1f5f 2C1F0000 		.4byte	0x1f2c
 10704 1f63 02       		.uleb128 0x2
 10705 1f64 91       		.byte	0x91
 10706 1f65 6C       		.sleb128 -20
 10707 1f66 1B       		.uleb128 0x1b
 10708 1f67 D40D0000 		.4byte	.LASF274
 10709 1f6b 01       		.byte	0x1
 10710 1f6c EB09     		.2byte	0x9eb
 10711 1f6e 321F0000 		.4byte	0x1f32
 10712 1f72 02       		.uleb128 0x2
 10713 1f73 91       		.byte	0x91
 10714 1f74 68       		.sleb128 -24
 10715 1f75 1C       		.uleb128 0x1c
 10716 1f76 DA090000 		.4byte	.LASF266
 10717 1f7a 01       		.byte	0x1
 10718 1f7b ED09     		.2byte	0x9ed
 10719 1f7d 710E0000 		.4byte	0xe71
 10720 1f81 02       		.uleb128 0x2
 10721 1f82 91       		.byte	0x91
 10722 1f83 74       		.sleb128 -12
 10723 1f84 1C       		.uleb128 0x1c
 10724 1f85 54000000 		.4byte	.LASF276
 10725 1f89 01       		.byte	0x1
 10726 1f8a EE09     		.2byte	0x9ee
 10727 1f8c D5000000 		.4byte	0xd5
 10728 1f90 02       		.uleb128 0x2
 10729 1f91 91       		.byte	0x91
 10730 1f92 70       		.sleb128 -16
 10731 1f93 00       		.byte	0
 10732 1f94 20       		.uleb128 0x20
 10733 1f95 57120000 		.4byte	.LASF321
ARM GAS  C:\Users\JC\AppData\Local\Temp\ccU1E72d.s 			page 240


 10734 1f99 01       		.byte	0x1
 10735 1f9a 300A     		.2byte	0xa30
 10736 1f9c 710E0000 		.4byte	0xe71
 10737 1fa0 00000000 		.4byte	.LFB89
 10738 1fa4 54000000 		.4byte	.LFE89-.LFB89
 10739 1fa8 01       		.uleb128 0x1
 10740 1fa9 9C       		.byte	0x9c
 10741 1faa CD1F0000 		.4byte	0x1fcd
 10742 1fae 1B       		.uleb128 0x1b
 10743 1faf 77040000 		.4byte	.LASF273
 10744 1fb3 01       		.byte	0x1
 10745 1fb4 300A     		.2byte	0xa30
 10746 1fb6 2C1F0000 		.4byte	0x1f2c
 10747 1fba 02       		.uleb128 0x2
 10748 1fbb 91       		.byte	0x91
 10749 1fbc 6C       		.sleb128 -20
 10750 1fbd 1C       		.uleb128 0x1c
 10751 1fbe DA090000 		.4byte	.LASF266
 10752 1fc2 01       		.byte	0x1
 10753 1fc3 320A     		.2byte	0xa32
 10754 1fc5 710E0000 		.4byte	0xe71
 10755 1fc9 02       		.uleb128 0x2
 10756 1fca 91       		.byte	0x91
 10757 1fcb 74       		.sleb128 -12
 10758 1fcc 00       		.byte	0
 10759 1fcd 20       		.uleb128 0x20
 10760 1fce 2B040000 		.4byte	.LASF322
 10761 1fd2 01       		.byte	0x1
 10762 1fd3 5B0A     		.2byte	0xa5b
 10763 1fd5 710E0000 		.4byte	0xe71
 10764 1fd9 00000000 		.4byte	.LFB90
 10765 1fdd 50000000 		.4byte	.LFE90-.LFB90
 10766 1fe1 01       		.uleb128 0x1
 10767 1fe2 9C       		.byte	0x9c
 10768 1fe3 06200000 		.4byte	0x2006
 10769 1fe7 1B       		.uleb128 0x1b
 10770 1fe8 77040000 		.4byte	.LASF273
 10771 1fec 01       		.byte	0x1
 10772 1fed 5B0A     		.2byte	0xa5b
 10773 1fef 2C1F0000 		.4byte	0x1f2c
 10774 1ff3 02       		.uleb128 0x2
 10775 1ff4 91       		.byte	0x91
 10776 1ff5 6C       		.sleb128 -20
 10777 1ff6 1C       		.uleb128 0x1c
 10778 1ff7 DA090000 		.4byte	.LASF266
 10779 1ffb 01       		.byte	0x1
 10780 1ffc 5D0A     		.2byte	0xa5d
 10781 1ffe 710E0000 		.4byte	0xe71
 10782 2002 02       		.uleb128 0x2
 10783 2003 91       		.byte	0x91
 10784 2004 74       		.sleb128 -12
 10785 2005 00       		.byte	0
 10786 2006 20       		.uleb128 0x20
 10787 2007 19160000 		.4byte	.LASF323
 10788 200b 01       		.byte	0x1
 10789 200c 850A     		.2byte	0xa85
 10790 200e 710E0000 		.4byte	0xe71
ARM GAS  C:\Users\JC\AppData\Local\Temp\ccU1E72d.s 			page 241


 10791 2012 00000000 		.4byte	.LFB91
 10792 2016 54000000 		.4byte	.LFE91-.LFB91
 10793 201a 01       		.uleb128 0x1
 10794 201b 9C       		.byte	0x9c
 10795 201c 3F200000 		.4byte	0x203f
 10796 2020 1B       		.uleb128 0x1b
 10797 2021 77040000 		.4byte	.LASF273
 10798 2025 01       		.byte	0x1
 10799 2026 850A     		.2byte	0xa85
 10800 2028 2C1F0000 		.4byte	0x1f2c
 10801 202c 02       		.uleb128 0x2
 10802 202d 91       		.byte	0x91
 10803 202e 6C       		.sleb128 -20
 10804 202f 1C       		.uleb128 0x1c
 10805 2030 DA090000 		.4byte	.LASF266
 10806 2034 01       		.byte	0x1
 10807 2035 870A     		.2byte	0xa87
 10808 2037 710E0000 		.4byte	0xe71
 10809 203b 02       		.uleb128 0x2
 10810 203c 91       		.byte	0x91
 10811 203d 74       		.sleb128 -12
 10812 203e 00       		.byte	0
 10813 203f 20       		.uleb128 0x20
 10814 2040 6C060000 		.4byte	.LASF324
 10815 2044 01       		.byte	0x1
 10816 2045 B00A     		.2byte	0xab0
 10817 2047 710E0000 		.4byte	0xe71
 10818 204b 00000000 		.4byte	.LFB92
 10819 204f 50000000 		.4byte	.LFE92-.LFB92
 10820 2053 01       		.uleb128 0x1
 10821 2054 9C       		.byte	0x9c
 10822 2055 78200000 		.4byte	0x2078
 10823 2059 1B       		.uleb128 0x1b
 10824 205a 77040000 		.4byte	.LASF273
 10825 205e 01       		.byte	0x1
 10826 205f B00A     		.2byte	0xab0
 10827 2061 2C1F0000 		.4byte	0x1f2c
 10828 2065 02       		.uleb128 0x2
 10829 2066 91       		.byte	0x91
 10830 2067 6C       		.sleb128 -20
 10831 2068 1C       		.uleb128 0x1c
 10832 2069 DA090000 		.4byte	.LASF266
 10833 206d 01       		.byte	0x1
 10834 206e B20A     		.2byte	0xab2
 10835 2070 710E0000 		.4byte	0xe71
 10836 2074 02       		.uleb128 0x2
 10837 2075 91       		.byte	0x91
 10838 2076 74       		.sleb128 -12
 10839 2077 00       		.byte	0
 10840 2078 1D       		.uleb128 0x1d
 10841 2079 1E000000 		.4byte	.LASF326
 10842 207d 01       		.byte	0x1
 10843 207e CF0A     		.2byte	0xacf
 10844 2080 3D100000 		.4byte	0x103d
 10845 2084 00000000 		.4byte	.LFB93
 10846 2088 58000000 		.4byte	.LFE93-.LFB93
 10847 208c 01       		.uleb128 0x1
ARM GAS  C:\Users\JC\AppData\Local\Temp\ccU1E72d.s 			page 242


 10848 208d 9C       		.byte	0x9c
 10849 208e A2200000 		.4byte	0x20a2
 10850 2092 1B       		.uleb128 0x1b
 10851 2093 08120000 		.4byte	.LASF327
 10852 2097 01       		.byte	0x1
 10853 2098 CF0A     		.2byte	0xacf
 10854 209a D5000000 		.4byte	0xd5
 10855 209e 02       		.uleb128 0x2
 10856 209f 91       		.byte	0x91
 10857 20a0 74       		.sleb128 -12
 10858 20a1 00       		.byte	0
 10859 20a2 1D       		.uleb128 0x1d
 10860 20a3 C4050000 		.4byte	.LASF328
 10861 20a7 01       		.byte	0x1
 10862 20a8 E60A     		.2byte	0xae6
 10863 20aa 3D100000 		.4byte	0x103d
 10864 20ae 00000000 		.4byte	.LFB94
 10865 20b2 54000000 		.4byte	.LFE94-.LFB94
 10866 20b6 01       		.uleb128 0x1
 10867 20b7 9C       		.byte	0x9c
 10868 20b8 CC200000 		.4byte	0x20cc
 10869 20bc 1B       		.uleb128 0x1b
 10870 20bd DE100000 		.4byte	.LASF329
 10871 20c1 01       		.byte	0x1
 10872 20c2 E60A     		.2byte	0xae6
 10873 20c4 D5000000 		.4byte	0xd5
 10874 20c8 02       		.uleb128 0x2
 10875 20c9 91       		.byte	0x91
 10876 20ca 74       		.sleb128 -12
 10877 20cb 00       		.byte	0
 10878 20cc 21       		.uleb128 0x21
 10879 20cd 6D000000 		.4byte	.LASF333
 10880 20d1 07       		.byte	0x7
 10881 20d2 A7       		.byte	0xa7
 10882 20d3 D7200000 		.4byte	0x20d7
 10883 20d7 15       		.uleb128 0x15
 10884 20d8 04       		.byte	0x4
 10885 20d9 DD200000 		.4byte	0x20dd
 10886 20dd 06       		.uleb128 0x6
 10887 20de 870D0000 		.4byte	0xd87
 10888 20e2 00       		.byte	0
 10889              		.section	.debug_abbrev,"",%progbits
 10890              	.Ldebug_abbrev0:
 10891 0000 01       		.uleb128 0x1
 10892 0001 11       		.uleb128 0x11
 10893 0002 01       		.byte	0x1
 10894 0003 25       		.uleb128 0x25
 10895 0004 0E       		.uleb128 0xe
 10896 0005 13       		.uleb128 0x13
 10897 0006 0B       		.uleb128 0xb
 10898 0007 03       		.uleb128 0x3
 10899 0008 0E       		.uleb128 0xe
 10900 0009 1B       		.uleb128 0x1b
 10901 000a 0E       		.uleb128 0xe
 10902 000b 55       		.uleb128 0x55
 10903 000c 17       		.uleb128 0x17
 10904 000d 11       		.uleb128 0x11
ARM GAS  C:\Users\JC\AppData\Local\Temp\ccU1E72d.s 			page 243


 10905 000e 01       		.uleb128 0x1
 10906 000f 10       		.uleb128 0x10
 10907 0010 17       		.uleb128 0x17
 10908 0011 00       		.byte	0
 10909 0012 00       		.byte	0
 10910 0013 02       		.uleb128 0x2
 10911 0014 24       		.uleb128 0x24
 10912 0015 00       		.byte	0
 10913 0016 0B       		.uleb128 0xb
 10914 0017 0B       		.uleb128 0xb
 10915 0018 3E       		.uleb128 0x3e
 10916 0019 0B       		.uleb128 0xb
 10917 001a 03       		.uleb128 0x3
 10918 001b 08       		.uleb128 0x8
 10919 001c 00       		.byte	0
 10920 001d 00       		.byte	0
 10921 001e 03       		.uleb128 0x3
 10922 001f 24       		.uleb128 0x24
 10923 0020 00       		.byte	0
 10924 0021 0B       		.uleb128 0xb
 10925 0022 0B       		.uleb128 0xb
 10926 0023 3E       		.uleb128 0x3e
 10927 0024 0B       		.uleb128 0xb
 10928 0025 03       		.uleb128 0x3
 10929 0026 0E       		.uleb128 0xe
 10930 0027 00       		.byte	0
 10931 0028 00       		.byte	0
 10932 0029 04       		.uleb128 0x4
 10933 002a 16       		.uleb128 0x16
 10934 002b 00       		.byte	0
 10935 002c 03       		.uleb128 0x3
 10936 002d 0E       		.uleb128 0xe
 10937 002e 3A       		.uleb128 0x3a
 10938 002f 0B       		.uleb128 0xb
 10939 0030 3B       		.uleb128 0x3b
 10940 0031 0B       		.uleb128 0xb
 10941 0032 49       		.uleb128 0x49
 10942 0033 13       		.uleb128 0x13
 10943 0034 00       		.byte	0
 10944 0035 00       		.byte	0
 10945 0036 05       		.uleb128 0x5
 10946 0037 35       		.uleb128 0x35
 10947 0038 00       		.byte	0
 10948 0039 49       		.uleb128 0x49
 10949 003a 13       		.uleb128 0x13
 10950 003b 00       		.byte	0
 10951 003c 00       		.byte	0
 10952 003d 06       		.uleb128 0x6
 10953 003e 26       		.uleb128 0x26
 10954 003f 00       		.byte	0
 10955 0040 49       		.uleb128 0x49
 10956 0041 13       		.uleb128 0x13
 10957 0042 00       		.byte	0
 10958 0043 00       		.byte	0
 10959 0044 07       		.uleb128 0x7
 10960 0045 01       		.uleb128 0x1
 10961 0046 01       		.byte	0x1
ARM GAS  C:\Users\JC\AppData\Local\Temp\ccU1E72d.s 			page 244


 10962 0047 49       		.uleb128 0x49
 10963 0048 13       		.uleb128 0x13
 10964 0049 01       		.uleb128 0x1
 10965 004a 13       		.uleb128 0x13
 10966 004b 00       		.byte	0
 10967 004c 00       		.byte	0
 10968 004d 08       		.uleb128 0x8
 10969 004e 21       		.uleb128 0x21
 10970 004f 00       		.byte	0
 10971 0050 49       		.uleb128 0x49
 10972 0051 13       		.uleb128 0x13
 10973 0052 2F       		.uleb128 0x2f
 10974 0053 0B       		.uleb128 0xb
 10975 0054 00       		.byte	0
 10976 0055 00       		.byte	0
 10977 0056 09       		.uleb128 0x9
 10978 0057 21       		.uleb128 0x21
 10979 0058 00       		.byte	0
 10980 0059 49       		.uleb128 0x49
 10981 005a 13       		.uleb128 0x13
 10982 005b 2F       		.uleb128 0x2f
 10983 005c 05       		.uleb128 0x5
 10984 005d 00       		.byte	0
 10985 005e 00       		.byte	0
 10986 005f 0A       		.uleb128 0xa
 10987 0060 13       		.uleb128 0x13
 10988 0061 01       		.byte	0x1
 10989 0062 0B       		.uleb128 0xb
 10990 0063 0B       		.uleb128 0xb
 10991 0064 3A       		.uleb128 0x3a
 10992 0065 0B       		.uleb128 0xb
 10993 0066 3B       		.uleb128 0x3b
 10994 0067 0B       		.uleb128 0xb
 10995 0068 01       		.uleb128 0x1
 10996 0069 13       		.uleb128 0x13
 10997 006a 00       		.byte	0
 10998 006b 00       		.byte	0
 10999 006c 0B       		.uleb128 0xb
 11000 006d 0D       		.uleb128 0xd
 11001 006e 00       		.byte	0
 11002 006f 03       		.uleb128 0x3
 11003 0070 0E       		.uleb128 0xe
 11004 0071 3A       		.uleb128 0x3a
 11005 0072 0B       		.uleb128 0xb
 11006 0073 3B       		.uleb128 0x3b
 11007 0074 0B       		.uleb128 0xb
 11008 0075 49       		.uleb128 0x49
 11009 0076 13       		.uleb128 0x13
 11010 0077 38       		.uleb128 0x38
 11011 0078 0B       		.uleb128 0xb
 11012 0079 00       		.byte	0
 11013 007a 00       		.byte	0
 11014 007b 0C       		.uleb128 0xc
 11015 007c 13       		.uleb128 0x13
 11016 007d 01       		.byte	0x1
 11017 007e 0B       		.uleb128 0xb
 11018 007f 05       		.uleb128 0x5
ARM GAS  C:\Users\JC\AppData\Local\Temp\ccU1E72d.s 			page 245


 11019 0080 3A       		.uleb128 0x3a
 11020 0081 0B       		.uleb128 0xb
 11021 0082 3B       		.uleb128 0x3b
 11022 0083 0B       		.uleb128 0xb
 11023 0084 01       		.uleb128 0x1
 11024 0085 13       		.uleb128 0x13
 11025 0086 00       		.byte	0
 11026 0087 00       		.byte	0
 11027 0088 0D       		.uleb128 0xd
 11028 0089 0D       		.uleb128 0xd
 11029 008a 00       		.byte	0
 11030 008b 03       		.uleb128 0x3
 11031 008c 08       		.uleb128 0x8
 11032 008d 3A       		.uleb128 0x3a
 11033 008e 0B       		.uleb128 0xb
 11034 008f 3B       		.uleb128 0x3b
 11035 0090 0B       		.uleb128 0xb
 11036 0091 49       		.uleb128 0x49
 11037 0092 13       		.uleb128 0x13
 11038 0093 38       		.uleb128 0x38
 11039 0094 0B       		.uleb128 0xb
 11040 0095 00       		.byte	0
 11041 0096 00       		.byte	0
 11042 0097 0E       		.uleb128 0xe
 11043 0098 0D       		.uleb128 0xd
 11044 0099 00       		.byte	0
 11045 009a 03       		.uleb128 0x3
 11046 009b 0E       		.uleb128 0xe
 11047 009c 3A       		.uleb128 0x3a
 11048 009d 0B       		.uleb128 0xb
 11049 009e 3B       		.uleb128 0x3b
 11050 009f 0B       		.uleb128 0xb
 11051 00a0 49       		.uleb128 0x49
 11052 00a1 13       		.uleb128 0x13
 11053 00a2 38       		.uleb128 0x38
 11054 00a3 05       		.uleb128 0x5
 11055 00a4 00       		.byte	0
 11056 00a5 00       		.byte	0
 11057 00a6 0F       		.uleb128 0xf
 11058 00a7 04       		.uleb128 0x4
 11059 00a8 01       		.byte	0x1
 11060 00a9 0B       		.uleb128 0xb
 11061 00aa 0B       		.uleb128 0xb
 11062 00ab 49       		.uleb128 0x49
 11063 00ac 13       		.uleb128 0x13
 11064 00ad 3A       		.uleb128 0x3a
 11065 00ae 0B       		.uleb128 0xb
 11066 00af 3B       		.uleb128 0x3b
 11067 00b0 05       		.uleb128 0x5
 11068 00b1 01       		.uleb128 0x1
 11069 00b2 13       		.uleb128 0x13
 11070 00b3 00       		.byte	0
 11071 00b4 00       		.byte	0
 11072 00b5 10       		.uleb128 0x10
 11073 00b6 28       		.uleb128 0x28
 11074 00b7 00       		.byte	0
 11075 00b8 03       		.uleb128 0x3
ARM GAS  C:\Users\JC\AppData\Local\Temp\ccU1E72d.s 			page 246


 11076 00b9 0E       		.uleb128 0xe
 11077 00ba 1C       		.uleb128 0x1c
 11078 00bb 0B       		.uleb128 0xb
 11079 00bc 00       		.byte	0
 11080 00bd 00       		.byte	0
 11081 00be 11       		.uleb128 0x11
 11082 00bf 16       		.uleb128 0x16
 11083 00c0 00       		.byte	0
 11084 00c1 03       		.uleb128 0x3
 11085 00c2 0E       		.uleb128 0xe
 11086 00c3 3A       		.uleb128 0x3a
 11087 00c4 0B       		.uleb128 0xb
 11088 00c5 3B       		.uleb128 0x3b
 11089 00c6 05       		.uleb128 0x5
 11090 00c7 49       		.uleb128 0x49
 11091 00c8 13       		.uleb128 0x13
 11092 00c9 00       		.byte	0
 11093 00ca 00       		.byte	0
 11094 00cb 12       		.uleb128 0x12
 11095 00cc 28       		.uleb128 0x28
 11096 00cd 00       		.byte	0
 11097 00ce 03       		.uleb128 0x3
 11098 00cf 0E       		.uleb128 0xe
 11099 00d0 1C       		.uleb128 0x1c
 11100 00d1 06       		.uleb128 0x6
 11101 00d2 00       		.byte	0
 11102 00d3 00       		.byte	0
 11103 00d4 13       		.uleb128 0x13
 11104 00d5 13       		.uleb128 0x13
 11105 00d6 01       		.byte	0x1
 11106 00d7 0B       		.uleb128 0xb
 11107 00d8 0B       		.uleb128 0xb
 11108 00d9 3A       		.uleb128 0x3a
 11109 00da 0B       		.uleb128 0xb
 11110 00db 3B       		.uleb128 0x3b
 11111 00dc 05       		.uleb128 0x5
 11112 00dd 01       		.uleb128 0x1
 11113 00de 13       		.uleb128 0x13
 11114 00df 00       		.byte	0
 11115 00e0 00       		.byte	0
 11116 00e1 14       		.uleb128 0x14
 11117 00e2 0D       		.uleb128 0xd
 11118 00e3 00       		.byte	0
 11119 00e4 03       		.uleb128 0x3
 11120 00e5 0E       		.uleb128 0xe
 11121 00e6 3A       		.uleb128 0x3a
 11122 00e7 0B       		.uleb128 0xb
 11123 00e8 3B       		.uleb128 0x3b
 11124 00e9 05       		.uleb128 0x5
 11125 00ea 49       		.uleb128 0x49
 11126 00eb 13       		.uleb128 0x13
 11127 00ec 38       		.uleb128 0x38
 11128 00ed 0B       		.uleb128 0xb
 11129 00ee 00       		.byte	0
 11130 00ef 00       		.byte	0
 11131 00f0 15       		.uleb128 0x15
 11132 00f1 0F       		.uleb128 0xf
ARM GAS  C:\Users\JC\AppData\Local\Temp\ccU1E72d.s 			page 247


 11133 00f2 00       		.byte	0
 11134 00f3 0B       		.uleb128 0xb
 11135 00f4 0B       		.uleb128 0xb
 11136 00f5 49       		.uleb128 0x49
 11137 00f6 13       		.uleb128 0x13
 11138 00f7 00       		.byte	0
 11139 00f8 00       		.byte	0
 11140 00f9 16       		.uleb128 0x16
 11141 00fa 2E       		.uleb128 0x2e
 11142 00fb 01       		.byte	0x1
 11143 00fc 3F       		.uleb128 0x3f
 11144 00fd 19       		.uleb128 0x19
 11145 00fe 03       		.uleb128 0x3
 11146 00ff 0E       		.uleb128 0xe
 11147 0100 3A       		.uleb128 0x3a
 11148 0101 0B       		.uleb128 0xb
 11149 0102 3B       		.uleb128 0x3b
 11150 0103 0B       		.uleb128 0xb
 11151 0104 27       		.uleb128 0x27
 11152 0105 19       		.uleb128 0x19
 11153 0106 49       		.uleb128 0x49
 11154 0107 13       		.uleb128 0x13
 11155 0108 11       		.uleb128 0x11
 11156 0109 01       		.uleb128 0x1
 11157 010a 12       		.uleb128 0x12
 11158 010b 06       		.uleb128 0x6
 11159 010c 40       		.uleb128 0x40
 11160 010d 18       		.uleb128 0x18
 11161 010e 9642     		.uleb128 0x2116
 11162 0110 19       		.uleb128 0x19
 11163 0111 01       		.uleb128 0x1
 11164 0112 13       		.uleb128 0x13
 11165 0113 00       		.byte	0
 11166 0114 00       		.byte	0
 11167 0115 17       		.uleb128 0x17
 11168 0116 05       		.uleb128 0x5
 11169 0117 00       		.byte	0
 11170 0118 03       		.uleb128 0x3
 11171 0119 0E       		.uleb128 0xe
 11172 011a 3A       		.uleb128 0x3a
 11173 011b 0B       		.uleb128 0xb
 11174 011c 3B       		.uleb128 0x3b
 11175 011d 0B       		.uleb128 0xb
 11176 011e 49       		.uleb128 0x49
 11177 011f 13       		.uleb128 0x13
 11178 0120 02       		.uleb128 0x2
 11179 0121 18       		.uleb128 0x18
 11180 0122 00       		.byte	0
 11181 0123 00       		.byte	0
 11182 0124 18       		.uleb128 0x18
 11183 0125 34       		.uleb128 0x34
 11184 0126 00       		.byte	0
 11185 0127 03       		.uleb128 0x3
 11186 0128 0E       		.uleb128 0xe
 11187 0129 3A       		.uleb128 0x3a
 11188 012a 0B       		.uleb128 0xb
 11189 012b 3B       		.uleb128 0x3b
ARM GAS  C:\Users\JC\AppData\Local\Temp\ccU1E72d.s 			page 248


 11190 012c 0B       		.uleb128 0xb
 11191 012d 49       		.uleb128 0x49
 11192 012e 13       		.uleb128 0x13
 11193 012f 02       		.uleb128 0x2
 11194 0130 18       		.uleb128 0x18
 11195 0131 00       		.byte	0
 11196 0132 00       		.byte	0
 11197 0133 19       		.uleb128 0x19
 11198 0134 05       		.uleb128 0x5
 11199 0135 00       		.byte	0
 11200 0136 03       		.uleb128 0x3
 11201 0137 08       		.uleb128 0x8
 11202 0138 3A       		.uleb128 0x3a
 11203 0139 0B       		.uleb128 0xb
 11204 013a 3B       		.uleb128 0x3b
 11205 013b 0B       		.uleb128 0xb
 11206 013c 49       		.uleb128 0x49
 11207 013d 13       		.uleb128 0x13
 11208 013e 02       		.uleb128 0x2
 11209 013f 18       		.uleb128 0x18
 11210 0140 00       		.byte	0
 11211 0141 00       		.byte	0
 11212 0142 1A       		.uleb128 0x1a
 11213 0143 2E       		.uleb128 0x2e
 11214 0144 01       		.byte	0x1
 11215 0145 3F       		.uleb128 0x3f
 11216 0146 19       		.uleb128 0x19
 11217 0147 03       		.uleb128 0x3
 11218 0148 0E       		.uleb128 0xe
 11219 0149 3A       		.uleb128 0x3a
 11220 014a 0B       		.uleb128 0xb
 11221 014b 3B       		.uleb128 0x3b
 11222 014c 05       		.uleb128 0x5
 11223 014d 27       		.uleb128 0x27
 11224 014e 19       		.uleb128 0x19
 11225 014f 49       		.uleb128 0x49
 11226 0150 13       		.uleb128 0x13
 11227 0151 11       		.uleb128 0x11
 11228 0152 01       		.uleb128 0x1
 11229 0153 12       		.uleb128 0x12
 11230 0154 06       		.uleb128 0x6
 11231 0155 40       		.uleb128 0x40
 11232 0156 18       		.uleb128 0x18
 11233 0157 9642     		.uleb128 0x2116
 11234 0159 19       		.uleb128 0x19
 11235 015a 01       		.uleb128 0x1
 11236 015b 13       		.uleb128 0x13
 11237 015c 00       		.byte	0
 11238 015d 00       		.byte	0
 11239 015e 1B       		.uleb128 0x1b
 11240 015f 05       		.uleb128 0x5
 11241 0160 00       		.byte	0
 11242 0161 03       		.uleb128 0x3
 11243 0162 0E       		.uleb128 0xe
 11244 0163 3A       		.uleb128 0x3a
 11245 0164 0B       		.uleb128 0xb
 11246 0165 3B       		.uleb128 0x3b
ARM GAS  C:\Users\JC\AppData\Local\Temp\ccU1E72d.s 			page 249


 11247 0166 05       		.uleb128 0x5
 11248 0167 49       		.uleb128 0x49
 11249 0168 13       		.uleb128 0x13
 11250 0169 02       		.uleb128 0x2
 11251 016a 18       		.uleb128 0x18
 11252 016b 00       		.byte	0
 11253 016c 00       		.byte	0
 11254 016d 1C       		.uleb128 0x1c
 11255 016e 34       		.uleb128 0x34
 11256 016f 00       		.byte	0
 11257 0170 03       		.uleb128 0x3
 11258 0171 0E       		.uleb128 0xe
 11259 0172 3A       		.uleb128 0x3a
 11260 0173 0B       		.uleb128 0xb
 11261 0174 3B       		.uleb128 0x3b
 11262 0175 05       		.uleb128 0x5
 11263 0176 49       		.uleb128 0x49
 11264 0177 13       		.uleb128 0x13
 11265 0178 02       		.uleb128 0x2
 11266 0179 18       		.uleb128 0x18
 11267 017a 00       		.byte	0
 11268 017b 00       		.byte	0
 11269 017c 1D       		.uleb128 0x1d
 11270 017d 2E       		.uleb128 0x2e
 11271 017e 01       		.byte	0x1
 11272 017f 03       		.uleb128 0x3
 11273 0180 0E       		.uleb128 0xe
 11274 0181 3A       		.uleb128 0x3a
 11275 0182 0B       		.uleb128 0xb
 11276 0183 3B       		.uleb128 0x3b
 11277 0184 05       		.uleb128 0x5
 11278 0185 27       		.uleb128 0x27
 11279 0186 19       		.uleb128 0x19
 11280 0187 49       		.uleb128 0x49
 11281 0188 13       		.uleb128 0x13
 11282 0189 11       		.uleb128 0x11
 11283 018a 01       		.uleb128 0x1
 11284 018b 12       		.uleb128 0x12
 11285 018c 06       		.uleb128 0x6
 11286 018d 40       		.uleb128 0x40
 11287 018e 18       		.uleb128 0x18
 11288 018f 9742     		.uleb128 0x2117
 11289 0191 19       		.uleb128 0x19
 11290 0192 01       		.uleb128 0x1
 11291 0193 13       		.uleb128 0x13
 11292 0194 00       		.byte	0
 11293 0195 00       		.byte	0
 11294 0196 1E       		.uleb128 0x1e
 11295 0197 05       		.uleb128 0x5
 11296 0198 00       		.byte	0
 11297 0199 03       		.uleb128 0x3
 11298 019a 08       		.uleb128 0x8
 11299 019b 3A       		.uleb128 0x3a
 11300 019c 0B       		.uleb128 0xb
 11301 019d 3B       		.uleb128 0x3b
 11302 019e 05       		.uleb128 0x5
 11303 019f 49       		.uleb128 0x49
ARM GAS  C:\Users\JC\AppData\Local\Temp\ccU1E72d.s 			page 250


 11304 01a0 13       		.uleb128 0x13
 11305 01a1 02       		.uleb128 0x2
 11306 01a2 18       		.uleb128 0x18
 11307 01a3 00       		.byte	0
 11308 01a4 00       		.byte	0
 11309 01a5 1F       		.uleb128 0x1f
 11310 01a6 0B       		.uleb128 0xb
 11311 01a7 01       		.byte	0x1
 11312 01a8 11       		.uleb128 0x11
 11313 01a9 01       		.uleb128 0x1
 11314 01aa 12       		.uleb128 0x12
 11315 01ab 06       		.uleb128 0x6
 11316 01ac 00       		.byte	0
 11317 01ad 00       		.byte	0
 11318 01ae 20       		.uleb128 0x20
 11319 01af 2E       		.uleb128 0x2e
 11320 01b0 01       		.byte	0x1
 11321 01b1 3F       		.uleb128 0x3f
 11322 01b2 19       		.uleb128 0x19
 11323 01b3 03       		.uleb128 0x3
 11324 01b4 0E       		.uleb128 0xe
 11325 01b5 3A       		.uleb128 0x3a
 11326 01b6 0B       		.uleb128 0xb
 11327 01b7 3B       		.uleb128 0x3b
 11328 01b8 05       		.uleb128 0x5
 11329 01b9 27       		.uleb128 0x27
 11330 01ba 19       		.uleb128 0x19
 11331 01bb 49       		.uleb128 0x49
 11332 01bc 13       		.uleb128 0x13
 11333 01bd 11       		.uleb128 0x11
 11334 01be 01       		.uleb128 0x1
 11335 01bf 12       		.uleb128 0x12
 11336 01c0 06       		.uleb128 0x6
 11337 01c1 40       		.uleb128 0x40
 11338 01c2 18       		.uleb128 0x18
 11339 01c3 9742     		.uleb128 0x2117
 11340 01c5 19       		.uleb128 0x19
 11341 01c6 01       		.uleb128 0x1
 11342 01c7 13       		.uleb128 0x13
 11343 01c8 00       		.byte	0
 11344 01c9 00       		.byte	0
 11345 01ca 21       		.uleb128 0x21
 11346 01cb 34       		.uleb128 0x34
 11347 01cc 00       		.byte	0
 11348 01cd 03       		.uleb128 0x3
 11349 01ce 0E       		.uleb128 0xe
 11350 01cf 3A       		.uleb128 0x3a
 11351 01d0 0B       		.uleb128 0xb
 11352 01d1 3B       		.uleb128 0x3b
 11353 01d2 0B       		.uleb128 0xb
 11354 01d3 49       		.uleb128 0x49
 11355 01d4 13       		.uleb128 0x13
 11356 01d5 3F       		.uleb128 0x3f
 11357 01d6 19       		.uleb128 0x19
 11358 01d7 3C       		.uleb128 0x3c
 11359 01d8 19       		.uleb128 0x19
 11360 01d9 00       		.byte	0
ARM GAS  C:\Users\JC\AppData\Local\Temp\ccU1E72d.s 			page 251


 11361 01da 00       		.byte	0
 11362 01db 00       		.byte	0
 11363              		.section	.debug_aranges,"",%progbits
 11364 0000 94010000 		.4byte	0x194
 11365 0004 0200     		.2byte	0x2
 11366 0006 00000000 		.4byte	.Ldebug_info0
 11367 000a 04       		.byte	0x4
 11368 000b 00       		.byte	0
 11369 000c 0000     		.2byte	0
 11370 000e 0000     		.2byte	0
 11371 0010 00000000 		.4byte	.LFB47
 11372 0014 B0000000 		.4byte	.LFE47-.LFB47
 11373 0018 00000000 		.4byte	.LFB48
 11374 001c 9C000000 		.4byte	.LFE48-.LFB48
 11375 0020 00000000 		.4byte	.LFB49
 11376 0024 50000000 		.4byte	.LFE49-.LFB49
 11377 0028 00000000 		.4byte	.LFB50
 11378 002c 10020000 		.4byte	.LFE50-.LFB50
 11379 0030 00000000 		.4byte	.LFB51
 11380 0034 54000000 		.4byte	.LFE51-.LFB51
 11381 0038 00000000 		.4byte	.LFB52
 11382 003c 54000000 		.4byte	.LFE52-.LFB52
 11383 0040 00000000 		.4byte	.LFB53
 11384 0044 1C010000 		.4byte	.LFE53-.LFB53
 11385 0048 00000000 		.4byte	.LFB54
 11386 004c 80020000 		.4byte	.LFE54-.LFB54
 11387 0050 00000000 		.4byte	.LFB55
 11388 0054 54000000 		.4byte	.LFE55-.LFB55
 11389 0058 00000000 		.4byte	.LFB56
 11390 005c 54000000 		.4byte	.LFE56-.LFB56
 11391 0060 00000000 		.4byte	.LFB57
 11392 0064 54000000 		.4byte	.LFE57-.LFB57
 11393 0068 00000000 		.4byte	.LFB58
 11394 006c 54000000 		.4byte	.LFE58-.LFB58
 11395 0070 00000000 		.4byte	.LFB59
 11396 0074 A0010000 		.4byte	.LFE59-.LFB59
 11397 0078 00000000 		.4byte	.LFB60
 11398 007c 28010000 		.4byte	.LFE60-.LFB60
 11399 0080 00000000 		.4byte	.LFB61
 11400 0084 A4000000 		.4byte	.LFE61-.LFB61
 11401 0088 00000000 		.4byte	.LFB62
 11402 008c BC010000 		.4byte	.LFE62-.LFB62
 11403 0090 00000000 		.4byte	.LFB63
 11404 0094 C4000000 		.4byte	.LFE63-.LFB63
 11405 0098 00000000 		.4byte	.LFB64
 11406 009c 6C000000 		.4byte	.LFE64-.LFB64
 11407 00a0 00000000 		.4byte	.LFB65
 11408 00a4 68000000 		.4byte	.LFE65-.LFB65
 11409 00a8 00000000 		.4byte	.LFB66
 11410 00ac A4000000 		.4byte	.LFE66-.LFB66
 11411 00b0 00000000 		.4byte	.LFB67
 11412 00b4 C4000000 		.4byte	.LFE67-.LFB67
 11413 00b8 00000000 		.4byte	.LFB68
 11414 00bc 1C010000 		.4byte	.LFE68-.LFB68
 11415 00c0 00000000 		.4byte	.LFB69
 11416 00c4 50020000 		.4byte	.LFE69-.LFB69
 11417 00c8 00000000 		.4byte	.LFB70
ARM GAS  C:\Users\JC\AppData\Local\Temp\ccU1E72d.s 			page 252


 11418 00cc 6C000000 		.4byte	.LFE70-.LFB70
 11419 00d0 00000000 		.4byte	.LFB71
 11420 00d4 6C000000 		.4byte	.LFE71-.LFB71
 11421 00d8 00000000 		.4byte	.LFB72
 11422 00dc 6C000000 		.4byte	.LFE72-.LFB72
 11423 00e0 00000000 		.4byte	.LFB73
 11424 00e4 6C000000 		.4byte	.LFE73-.LFB73
 11425 00e8 00000000 		.4byte	.LFB74
 11426 00ec B0010000 		.4byte	.LFE74-.LFB74
 11427 00f0 00000000 		.4byte	.LFB75
 11428 00f4 3C010000 		.4byte	.LFE75-.LFB75
 11429 00f8 00000000 		.4byte	.LFB76
 11430 00fc 3C010000 		.4byte	.LFE76-.LFB76
 11431 0100 00000000 		.4byte	.LFB77
 11432 0104 6C000000 		.4byte	.LFE77-.LFB77
 11433 0108 00000000 		.4byte	.LFB78
 11434 010c 6C000000 		.4byte	.LFE78-.LFB78
 11435 0110 00000000 		.4byte	.LFB79
 11436 0114 6C000000 		.4byte	.LFE79-.LFB79
 11437 0118 00000000 		.4byte	.LFB80
 11438 011c 6C000000 		.4byte	.LFE80-.LFB80
 11439 0120 00000000 		.4byte	.LFB81
 11440 0124 3C010000 		.4byte	.LFE81-.LFB81
 11441 0128 00000000 		.4byte	.LFB82
 11442 012c 3C010000 		.4byte	.LFE82-.LFB82
 11443 0130 00000000 		.4byte	.LFB83
 11444 0134 6C000000 		.4byte	.LFE83-.LFB83
 11445 0138 00000000 		.4byte	.LFB84
 11446 013c 6C000000 		.4byte	.LFE84-.LFB84
 11447 0140 00000000 		.4byte	.LFB85
 11448 0144 6C000000 		.4byte	.LFE85-.LFB85
 11449 0148 00000000 		.4byte	.LFB86
 11450 014c 6C000000 		.4byte	.LFE86-.LFB86
 11451 0150 00000000 		.4byte	.LFB87
 11452 0154 3C010000 		.4byte	.LFE87-.LFB87
 11453 0158 00000000 		.4byte	.LFB88
 11454 015c 3C010000 		.4byte	.LFE88-.LFB88
 11455 0160 00000000 		.4byte	.LFB89
 11456 0164 54000000 		.4byte	.LFE89-.LFB89
 11457 0168 00000000 		.4byte	.LFB90
 11458 016c 50000000 		.4byte	.LFE90-.LFB90
 11459 0170 00000000 		.4byte	.LFB91
 11460 0174 54000000 		.4byte	.LFE91-.LFB91
 11461 0178 00000000 		.4byte	.LFB92
 11462 017c 50000000 		.4byte	.LFE92-.LFB92
 11463 0180 00000000 		.4byte	.LFB93
 11464 0184 58000000 		.4byte	.LFE93-.LFB93
 11465 0188 00000000 		.4byte	.LFB94
 11466 018c 54000000 		.4byte	.LFE94-.LFB94
 11467 0190 00000000 		.4byte	0
 11468 0194 00000000 		.4byte	0
 11469              		.section	.debug_ranges,"",%progbits
 11470              	.Ldebug_ranges0:
 11471 0000 00000000 		.4byte	.LFB47
 11472 0004 B0000000 		.4byte	.LFE47
 11473 0008 00000000 		.4byte	.LFB48
 11474 000c 9C000000 		.4byte	.LFE48
ARM GAS  C:\Users\JC\AppData\Local\Temp\ccU1E72d.s 			page 253


 11475 0010 00000000 		.4byte	.LFB49
 11476 0014 50000000 		.4byte	.LFE49
 11477 0018 00000000 		.4byte	.LFB50
 11478 001c 10020000 		.4byte	.LFE50
 11479 0020 00000000 		.4byte	.LFB51
 11480 0024 54000000 		.4byte	.LFE51
 11481 0028 00000000 		.4byte	.LFB52
 11482 002c 54000000 		.4byte	.LFE52
 11483 0030 00000000 		.4byte	.LFB53
 11484 0034 1C010000 		.4byte	.LFE53
 11485 0038 00000000 		.4byte	.LFB54
 11486 003c 80020000 		.4byte	.LFE54
 11487 0040 00000000 		.4byte	.LFB55
 11488 0044 54000000 		.4byte	.LFE55
 11489 0048 00000000 		.4byte	.LFB56
 11490 004c 54000000 		.4byte	.LFE56
 11491 0050 00000000 		.4byte	.LFB57
 11492 0054 54000000 		.4byte	.LFE57
 11493 0058 00000000 		.4byte	.LFB58
 11494 005c 54000000 		.4byte	.LFE58
 11495 0060 00000000 		.4byte	.LFB59
 11496 0064 A0010000 		.4byte	.LFE59
 11497 0068 00000000 		.4byte	.LFB60
 11498 006c 28010000 		.4byte	.LFE60
 11499 0070 00000000 		.4byte	.LFB61
 11500 0074 A4000000 		.4byte	.LFE61
 11501 0078 00000000 		.4byte	.LFB62
 11502 007c BC010000 		.4byte	.LFE62
 11503 0080 00000000 		.4byte	.LFB63
 11504 0084 C4000000 		.4byte	.LFE63
 11505 0088 00000000 		.4byte	.LFB64
 11506 008c 6C000000 		.4byte	.LFE64
 11507 0090 00000000 		.4byte	.LFB65
 11508 0094 68000000 		.4byte	.LFE65
 11509 0098 00000000 		.4byte	.LFB66
 11510 009c A4000000 		.4byte	.LFE66
 11511 00a0 00000000 		.4byte	.LFB67
 11512 00a4 C4000000 		.4byte	.LFE67
 11513 00a8 00000000 		.4byte	.LFB68
 11514 00ac 1C010000 		.4byte	.LFE68
 11515 00b0 00000000 		.4byte	.LFB69
 11516 00b4 50020000 		.4byte	.LFE69
 11517 00b8 00000000 		.4byte	.LFB70
 11518 00bc 6C000000 		.4byte	.LFE70
 11519 00c0 00000000 		.4byte	.LFB71
 11520 00c4 6C000000 		.4byte	.LFE71
 11521 00c8 00000000 		.4byte	.LFB72
 11522 00cc 6C000000 		.4byte	.LFE72
 11523 00d0 00000000 		.4byte	.LFB73
 11524 00d4 6C000000 		.4byte	.LFE73
 11525 00d8 00000000 		.4byte	.LFB74
 11526 00dc B0010000 		.4byte	.LFE74
 11527 00e0 00000000 		.4byte	.LFB75
 11528 00e4 3C010000 		.4byte	.LFE75
 11529 00e8 00000000 		.4byte	.LFB76
 11530 00ec 3C010000 		.4byte	.LFE76
 11531 00f0 00000000 		.4byte	.LFB77
ARM GAS  C:\Users\JC\AppData\Local\Temp\ccU1E72d.s 			page 254


 11532 00f4 6C000000 		.4byte	.LFE77
 11533 00f8 00000000 		.4byte	.LFB78
 11534 00fc 6C000000 		.4byte	.LFE78
 11535 0100 00000000 		.4byte	.LFB79
 11536 0104 6C000000 		.4byte	.LFE79
 11537 0108 00000000 		.4byte	.LFB80
 11538 010c 6C000000 		.4byte	.LFE80
 11539 0110 00000000 		.4byte	.LFB81
 11540 0114 3C010000 		.4byte	.LFE81
 11541 0118 00000000 		.4byte	.LFB82
 11542 011c 3C010000 		.4byte	.LFE82
 11543 0120 00000000 		.4byte	.LFB83
 11544 0124 6C000000 		.4byte	.LFE83
 11545 0128 00000000 		.4byte	.LFB84
 11546 012c 6C000000 		.4byte	.LFE84
 11547 0130 00000000 		.4byte	.LFB85
 11548 0134 6C000000 		.4byte	.LFE85
 11549 0138 00000000 		.4byte	.LFB86
 11550 013c 6C000000 		.4byte	.LFE86
 11551 0140 00000000 		.4byte	.LFB87
 11552 0144 3C010000 		.4byte	.LFE87
 11553 0148 00000000 		.4byte	.LFB88
 11554 014c 3C010000 		.4byte	.LFE88
 11555 0150 00000000 		.4byte	.LFB89
 11556 0154 54000000 		.4byte	.LFE89
 11557 0158 00000000 		.4byte	.LFB90
 11558 015c 50000000 		.4byte	.LFE90
 11559 0160 00000000 		.4byte	.LFB91
 11560 0164 54000000 		.4byte	.LFE91
 11561 0168 00000000 		.4byte	.LFB92
 11562 016c 50000000 		.4byte	.LFE92
 11563 0170 00000000 		.4byte	.LFB93
 11564 0174 58000000 		.4byte	.LFE93
 11565 0178 00000000 		.4byte	.LFB94
 11566 017c 54000000 		.4byte	.LFE94
 11567 0180 00000000 		.4byte	0
 11568 0184 00000000 		.4byte	0
 11569              		.section	.debug_line,"",%progbits
 11570              	.Ldebug_line0:
 11571 0000 6C110000 		.section	.debug_str,"MS",%progbits,1
 11571      02009202 
 11571      00000201 
 11571      FB0E0D00 
 11571      01010101 
 11572              	.LASF64:
 11573 0000 50524F54 		.ascii	"PROT_SMPU_SMPU_STRUCT_V1_Type\000"
 11573      5F534D50 
 11573      555F534D 
 11573      50555F53 
 11573      54525543 
 11574              	.LASF326:
 11575 001e 50726F74 		.ascii	"Prot_IsSmpuStructDisabled\000"
 11575      5F497353 
 11575      6D707553 
 11575      74727563 
 11575      74446973 
 11576              	.LASF28:
ARM GAS  C:\Users\JC\AppData\Local\Temp\ccU1E72d.s 			page 255


 11577 0038 50455249 		.ascii	"PERI_TR_GR_V1_Type\000"
 11577      5F54525F 
 11577      47525F56 
 11577      315F5479 
 11577      706500
 11578              	.LASF22:
 11579 004b 52455345 		.ascii	"RESERVED\000"
 11579      52564544 
 11579      00
 11580              	.LASF276:
 11581 0054 61747452 		.ascii	"attReg\000"
 11581      656700
 11582              	.LASF82:
 11583 005b 50524F54 		.ascii	"PROT_SMPU_V1_Type\000"
 11583      5F534D50 
 11583      555F5631 
 11583      5F547970 
 11583      6500
 11584              	.LASF333:
 11585 006d 63795F64 		.ascii	"cy_device\000"
 11585      65766963 
 11585      6500
 11586              	.LASF254:
 11587 0077 73656375 		.ascii	"secure\000"
 11587      726500
 11588              	.LASF239:
 11589 007e 43595F50 		.ascii	"CY_PROT_SIZE_1GB\000"
 11589      524F545F 
 11589      53495A45 
 11589      5F314742 
 11589      00
 11590              	.LASF162:
 11591 008f 63707573 		.ascii	"cpussCm0ClockCtlOffset\000"
 11591      73436D30 
 11591      436C6F63 
 11591      6B43746C 
 11591      4F666673 
 11592              	.LASF121:
 11593 00a6 70657269 		.ascii	"periClockNr\000"
 11593      436C6F63 
 11593      6B4E7200 
 11594              	.LASF75:
 11595 00b2 4D533130 		.ascii	"MS10_CTL\000"
 11595      5F43544C 
 11595      00
 11596              	.LASF38:
 11597 00bb 4449565F 		.ascii	"DIV_8_CTL\000"
 11597      385F4354 
 11597      4C00
 11598              	.LASF179:
 11599 00c5 43505553 		.ascii	"CPUSS_MS_ID_CM0\000"
 11599      535F4D53 
 11599      5F49445F 
 11599      434D3000 
 11600              	.LASF95:
 11601 00d5 75646242 		.ascii	"udbBase\000"
 11601      61736500 
ARM GAS  C:\Users\JC\AppData\Local\Temp\ccU1E72d.s 			page 256


 11602              	.LASF183:
 11603 00dd 43505553 		.ascii	"CPUSS_MS_ID_CM4\000"
 11603      535F4D53 
 11603      5F49445F 
 11603      434D3400 
 11604              	.LASF52:
 11605 00ed 534C5F41 		.ascii	"SL_ATT0\000"
 11605      54543000 
 11606              	.LASF53:
 11607 00f5 534C5F41 		.ascii	"SL_ATT1\000"
 11607      54543100 
 11608              	.LASF54:
 11609 00fd 534C5F41 		.ascii	"SL_ATT2\000"
 11609      54543200 
 11610              	.LASF55:
 11611 0105 534C5F41 		.ascii	"SL_ATT3\000"
 11611      54543300 
 11612              	.LASF94:
 11613 010d 70657269 		.ascii	"periBase\000"
 11613      42617365 
 11613      00
 11614              	.LASF271:
 11615 0116 43795F50 		.ascii	"Cy_Prot_GetActivePC\000"
 11615      726F745F 
 11615      47657441 
 11615      63746976 
 11615      65504300 
 11616              	.LASF170:
 11617 012a 63707573 		.ascii	"cpussCm0NmiCtlOffset\000"
 11617      73436D30 
 11617      4E6D6943 
 11617      746C4F66 
 11617      66736574 
 11618              	.LASF81:
 11619 013f 534D5055 		.ascii	"SMPU_STRUCT\000"
 11619      5F535452 
 11619      55435400 
 11620              	.LASF140:
 11621 014b 64774368 		.ascii	"dwChSize\000"
 11621      53697A65 
 11621      00
 11622              	.LASF222:
 11623 0154 43595F50 		.ascii	"CY_PROT_SIZE_8KB\000"
 11623      524F545F 
 11623      53495A45 
 11623      5F384B42 
 11623      00
 11624              	.LASF0:
 11625 0165 756E7369 		.ascii	"unsigned int\000"
 11625      676E6564 
 11625      20696E74 
 11625      00
 11626              	.LASF122:
 11627 0172 736D6966 		.ascii	"smifDeviceNr\000"
 11627      44657669 
 11627      63654E72 
 11627      00
ARM GAS  C:\Users\JC\AppData\Local\Temp\ccU1E72d.s 			page 257


 11628              	.LASF152:
 11629 017f 70657269 		.ascii	"periDivCmdPaTypeSelPos\000"
 11629      44697643 
 11629      6D645061 
 11629      54797065 
 11629      53656C50 
 11630              	.LASF141:
 11631 0196 64774368 		.ascii	"dwChCtlPrioPos\000"
 11631      43746C50 
 11631      72696F50 
 11631      6F7300
 11632              	.LASF307:
 11633 01a5 43795F50 		.ascii	"Cy_Prot_ConfigPpuFixedGrMasterStruct\000"
 11633      726F745F 
 11633      436F6E66 
 11633      69675070 
 11633      75466978 
 11634              	.LASF84:
 11635 01ca 50524F54 		.ascii	"PROT_MPU_MPU_STRUCT_V1_Type\000"
 11635      5F4D5055 
 11635      5F4D5055 
 11635      5F535452 
 11635      5543545F 
 11636              	.LASF181:
 11637 01e6 43505553 		.ascii	"CPUSS_MS_ID_DW0\000"
 11637      535F4D53 
 11637      5F49445F 
 11637      44573000 
 11638              	.LASF49:
 11639 01f6 50455249 		.ascii	"PERI_V1_Type\000"
 11639      5F56315F 
 11639      54797065 
 11639      00
 11640              	.LASF10:
 11641 0203 5F5F696E 		.ascii	"__int32_t\000"
 11641      7433325F 
 11641      7400
 11642              	.LASF106:
 11643 020d 6770696F 		.ascii	"gpioVersion\000"
 11643      56657273 
 11643      696F6E00 
 11644              	.LASF92:
 11645 0219 63707573 		.ascii	"cpussBase\000"
 11645      73426173 
 11645      6500
 11646              	.LASF40:
 11647 0223 4449565F 		.ascii	"DIV_16_5_CTL\000"
 11647      31365F35 
 11647      5F43544C 
 11647      00
 11648              	.LASF73:
 11649 0230 4D53385F 		.ascii	"MS8_CTL\000"
 11649      43544C00 
 11650              	.LASF46:
 11651 0238 5050555F 		.ascii	"PPU_PR\000"
 11651      505200
 11652              	.LASF18:
ARM GAS  C:\Users\JC\AppData\Local\Temp\ccU1E72d.s 			page 258


 11653 023f 696E7433 		.ascii	"int32_t\000"
 11653      325F7400 
 11654              	.LASF116:
 11655 0247 63707573 		.ascii	"cpussFmIrq\000"
 11655      73466D49 
 11655      727100
 11656              	.LASF267:
 11657 0252 72656756 		.ascii	"regVal\000"
 11657      616C00
 11658              	.LASF117:
 11659 0259 63707573 		.ascii	"cpussNotConnectedIrq\000"
 11659      734E6F74 
 11659      436F6E6E 
 11659      65637465 
 11659      64497271 
 11660              	.LASF36:
 11661 026e 50455249 		.ascii	"PERI_GR_PPU_RG_V1_Type\000"
 11661      5F47525F 
 11661      5050555F 
 11661      52475F56 
 11661      315F5479 
 11662              	.LASF62:
 11663 0285 50455249 		.ascii	"PERI_MS_PPU_PR_V2_Type\000"
 11663      5F4D535F 
 11663      5050555F 
 11663      50525F56 
 11663      325F5479 
 11664              	.LASF281:
 11665 029c 43795F50 		.ascii	"Cy_Prot_EnableSmpuMasterStruct\000"
 11665      726F745F 
 11665      456E6162 
 11665      6C65536D 
 11665      70754D61 
 11666              	.LASF253:
 11667 02bb 70726976 		.ascii	"privPermission\000"
 11667      5065726D 
 11667      69737369 
 11667      6F6E00
 11668              	.LASF148:
 11669 02ca 70657269 		.ascii	"periTrGrSize\000"
 11669      54724772 
 11669      53697A65 
 11669      00
 11670              	.LASF151:
 11671 02d7 70657269 		.ascii	"periDivCmdPaDivSelPos\000"
 11671      44697643 
 11671      6D645061 
 11671      44697653 
 11671      656C506F 
 11672              	.LASF128:
 11673 02ed 63727970 		.ascii	"cryptoMemSize\000"
 11673      746F4D65 
 11673      6D53697A 
 11673      6500
 11674              	.LASF269:
 11675 02fb 43795F50 		.ascii	"Cy_Prot_ConfigBusMaster\000"
 11675      726F745F 
ARM GAS  C:\Users\JC\AppData\Local\Temp\ccU1E72d.s 			page 259


 11675      436F6E66 
 11675      69674275 
 11675      734D6173 
 11676              	.LASF174:
 11677 0313 63707573 		.ascii	"cpussRam1Ctl0\000"
 11677      7352616D 
 11677      3143746C 
 11677      3000
 11678              	.LASF176:
 11679 0321 69706353 		.ascii	"ipcStructSize\000"
 11679      74727563 
 11679      7453697A 
 11679      6500
 11680              	.LASF78:
 11681 032f 4D533133 		.ascii	"MS13_CTL\000"
 11681      5F43544C 
 11681      00
 11682              	.LASF70:
 11683 0338 4D53355F 		.ascii	"MS5_CTL\000"
 11683      43544C00 
 11684              	.LASF314:
 11685 0340 43795F50 		.ascii	"Cy_Prot_ConfigPpuFixedSlSlaveStruct\000"
 11685      726F745F 
 11685      436F6E66 
 11685      69675070 
 11685      75466978 
 11686              	.LASF110:
 11687 0364 70726F74 		.ascii	"protVersion\000"
 11687      56657273 
 11687      696F6E00 
 11688              	.LASF16:
 11689 0370 696E7431 		.ascii	"int16_t\000"
 11689      365F7400 
 11690              	.LASF72:
 11691 0378 4D53375F 		.ascii	"MS7_CTL\000"
 11691      43544C00 
 11692              	.LASF150:
 11693 0380 70657269 		.ascii	"periDivCmdTypeSelPos\000"
 11693      44697643 
 11693      6D645479 
 11693      70655365 
 11693      6C506F73 
 11694              	.LASF167:
 11695 0395 63707573 		.ascii	"cpussTrimRamCtlOffset\000"
 11695      73547269 
 11695      6D52616D 
 11695      43746C4F 
 11695      66667365 
 11696              	.LASF285:
 11697 03ab 43795F50 		.ascii	"Cy_Prot_GetSmpuStruct\000"
 11697      726F745F 
 11697      47657453 
 11697      6D707553 
 11697      74727563 
 11698              	.LASF282:
 11699 03c1 43795F50 		.ascii	"Cy_Prot_DisableSmpuMasterStruct\000"
 11699      726F745F 
ARM GAS  C:\Users\JC\AppData\Local\Temp\ccU1E72d.s 			page 260


 11699      44697361 
 11699      626C6553 
 11699      6D70754D 
 11700              	.LASF33:
 11701 03e1 50455249 		.ascii	"PERI_PPU_PR_V1_Type\000"
 11701      5F505055 
 11701      5F50525F 
 11701      56315F54 
 11701      79706500 
 11702              	.LASF19:
 11703 03f5 75696E74 		.ascii	"uint32_t\000"
 11703      33325F74 
 11703      00
 11704              	.LASF232:
 11705 03fe 43595F50 		.ascii	"CY_PROT_SIZE_8MB\000"
 11705      524F545F 
 11705      53495A45 
 11705      5F384D42 
 11705      00
 11706              	.LASF67:
 11707 040f 4D53325F 		.ascii	"MS2_CTL\000"
 11707      43544C00 
 11708              	.LASF160:
 11709 0417 6770696F 		.ascii	"gpioPrtCfgOutOffset\000"
 11709      50727443 
 11709      66674F75 
 11709      744F6666 
 11709      73657400 
 11710              	.LASF322:
 11711 042b 43795F50 		.ascii	"Cy_Prot_DisablePpuFixedRgMasterStruct\000"
 11711      726F745F 
 11711      44697361 
 11711      626C6550 
 11711      70754669 
 11712              	.LASF194:
 11713 0451 666C6F61 		.ascii	"float\000"
 11713      7400
 11714              	.LASF103:
 11715 0457 63727970 		.ascii	"cryptoVersion\000"
 11715      746F5665 
 11715      7273696F 
 11715      6E00
 11716              	.LASF132:
 11717 0465 666C6173 		.ascii	"flashProgramDelay\000"
 11717      6850726F 
 11717      6772616D 
 11717      44656C61 
 11717      7900
 11718              	.LASF273:
 11719 0477 62617365 		.ascii	"base\000"
 11719      00
 11720              	.LASF191:
 11721 047c 50524F54 		.ascii	"PROT_MPU_MPU_STRUCT_Type\000"
 11721      5F4D5055 
 11721      5F4D5055 
 11721      5F535452 
 11721      5543545F 
ARM GAS  C:\Users\JC\AppData\Local\Temp\ccU1E72d.s 			page 261


 11722              	.LASF23:
 11723 0495 534C5F43 		.ascii	"SL_CTL\000"
 11723      544C00
 11724              	.LASF284:
 11725 049c 43795F50 		.ascii	"Cy_Prot_DisableSmpuSlaveStruct\000"
 11725      726F745F 
 11725      44697361 
 11725      626C6553 
 11725      6D707553 
 11726              	.LASF208:
 11727 04bb 43595F50 		.ascii	"CY_PROT_PERM_WX\000"
 11727      524F545F 
 11727      5045524D 
 11727      5F575800 
 11728              	.LASF159:
 11729 04cb 6770696F 		.ascii	"gpioPrtCfgInOffset\000"
 11729      50727443 
 11729      6667496E 
 11729      4F666673 
 11729      657400
 11730              	.LASF297:
 11731 04de 43795F50 		.ascii	"Cy_Prot_ConfigPpuFixedMasterAtt\000"
 11731      726F745F 
 11731      436F6E66 
 11731      69675070 
 11731      75466978 
 11732              	.LASF293:
 11733 04fe 43795F50 		.ascii	"Cy_Prot_ConfigPpuProgSlaveAddr\000"
 11733      726F745F 
 11733      436F6E66 
 11733      69675070 
 11733      7550726F 
 11734              	.LASF14:
 11735 051d 6C6F6E67 		.ascii	"long long unsigned int\000"
 11735      206C6F6E 
 11735      6720756E 
 11735      7369676E 
 11735      65642069 
 11736              	.LASF156:
 11737 0534 70657269 		.ascii	"periDiv24_5CtlOffset\000"
 11737      44697632 
 11737      345F3543 
 11737      746C4F66 
 11737      66736574 
 11738              	.LASF161:
 11739 0549 6770696F 		.ascii	"gpioPrtCfgSioOffset\000"
 11739      50727443 
 11739      66675369 
 11739      6F4F6666 
 11739      73657400 
 11740              	.LASF265:
 11741 055d 70726976 		.ascii	"privileged\000"
 11741      696C6567 
 11741      656400
 11742              	.LASF197:
 11743 0568 43595F50 		.ascii	"CY_PROT_BAD_PARAM\000"
 11743      524F545F 
ARM GAS  C:\Users\JC\AppData\Local\Temp\ccU1E72d.s 			page 262


 11743      4241445F 
 11743      50415241 
 11743      4D00
 11744              	.LASF115:
 11745 057a 63707573 		.ascii	"cpussIpc0Irq\000"
 11745      73497063 
 11745      30497271 
 11745      00
 11746              	.LASF144:
 11747 0587 64775374 		.ascii	"dwStatusChIdxMsk\000"
 11747      61747573 
 11747      43684964 
 11747      784D736B 
 11747      00
 11748              	.LASF302:
 11749 0598 43795F50 		.ascii	"Cy_Prot_DisablePpuProgMasterStruct\000"
 11749      726F745F 
 11749      44697361 
 11749      626C6550 
 11749      70755072 
 11750              	.LASF79:
 11751 05bb 4D533134 		.ascii	"MS14_CTL\000"
 11751      5F43544C 
 11751      00
 11752              	.LASF328:
 11753 05c4 50726F74 		.ascii	"Prot_IsPpuProgStructDisabled\000"
 11753      5F497350 
 11753      70755072 
 11753      6F675374 
 11753      72756374 
 11754              	.LASF124:
 11755 05e1 65704D6F 		.ascii	"epMonitorNr\000"
 11755      6E69746F 
 11755      724E7200 
 11756              	.LASF317:
 11757 05ed 43795F50 		.ascii	"Cy_Prot_EnablePpuFixedSlSlaveStruct\000"
 11757      726F745F 
 11757      456E6162 
 11757      6C655070 
 11757      75466978 
 11758              	.LASF8:
 11759 0611 5F5F7569 		.ascii	"__uint16_t\000"
 11759      6E743136 
 11759      5F7400
 11760              	.LASF244:
 11761 061c 43595F50 		.ascii	"CY_PROT_REQMODE_LOWPRIOR\000"
 11761      524F545F 
 11761      5245514D 
 11761      4F44455F 
 11761      4C4F5750 
 11762              	.LASF32:
 11763 0635 41545431 		.ascii	"ATT1\000"
 11763      00
 11764              	.LASF185:
 11765 063a 656E5F70 		.ascii	"en_prot_master_t\000"
 11765      726F745F 
 11765      6D617374 
ARM GAS  C:\Users\JC\AppData\Local\Temp\ccU1E72d.s 			page 263


 11765      65725F74 
 11765      00
 11766              	.LASF241:
 11767 064b 43595F50 		.ascii	"CY_PROT_SIZE_4GB\000"
 11767      524F545F 
 11767      53495A45 
 11767      5F344742 
 11767      00
 11768              	.LASF86:
 11769 065c 4D535F43 		.ascii	"MS_CTL_READ_MIR\000"
 11769      544C5F52 
 11769      4541445F 
 11769      4D495200 
 11770              	.LASF324:
 11771 066c 43795F50 		.ascii	"Cy_Prot_DisablePpuFixedRgSlaveStruct\000"
 11771      726F745F 
 11771      44697361 
 11771      626C6550 
 11771      70754669 
 11772              	.LASF219:
 11773 0691 43595F50 		.ascii	"CY_PROT_SIZE_1KB\000"
 11773      524F545F 
 11773      53495A45 
 11773      5F314B42 
 11773      00
 11774              	.LASF133:
 11775 06a2 666C6173 		.ascii	"flashEraseDelay\000"
 11775      68457261 
 11775      73654465 
 11775      6C617900 
 11776              	.LASF308:
 11777 06b2 43795F50 		.ascii	"Cy_Prot_ConfigPpuFixedGrSlaveStruct\000"
 11777      726F745F 
 11777      436F6E66 
 11777      69675070 
 11777      75466978 
 11778              	.LASF76:
 11779 06d6 4D533131 		.ascii	"MS11_CTL\000"
 11779      5F43544C 
 11779      00
 11780              	.LASF137:
 11781 06df 666C6173 		.ascii	"flashCtlMainWs3Freq\000"
 11781      6843746C 
 11781      4D61696E 
 11781      57733346 
 11781      72657100 
 11782              	.LASF119:
 11783 06f3 73727373 		.ascii	"srssNumPll\000"
 11783      4E756D50 
 11783      6C6C00
 11784              	.LASF43:
 11785 06fe 54525F43 		.ascii	"TR_CMD\000"
 11785      4D4400
 11786              	.LASF301:
 11787 0705 43795F50 		.ascii	"Cy_Prot_EnablePpuProgMasterStruct\000"
 11787      726F745F 
 11787      456E6162 
ARM GAS  C:\Users\JC\AppData\Local\Temp\ccU1E72d.s 			page 264


 11787      6C655070 
 11787      7550726F 
 11788              	.LASF227:
 11789 0727 43595F50 		.ascii	"CY_PROT_SIZE_256KB\000"
 11789      524F545F 
 11789      53495A45 
 11789      5F323536 
 11789      4B4200
 11790              	.LASF247:
 11791 073a 50455249 		.ascii	"PERI_MS_PPU_PR_Type\000"
 11791      5F4D535F 
 11791      5050555F 
 11791      50525F54 
 11791      79706500 
 11792              	.LASF300:
 11793 074e 43795F50 		.ascii	"Cy_Prot_ConfigPpuProgSlaveStruct\000"
 11793      726F745F 
 11793      436F6E66 
 11793      69675070 
 11793      7550726F 
 11794              	.LASF89:
 11795 076f 534D5055 		.ascii	"SMPU\000"
 11795      00
 11796              	.LASF130:
 11797 0774 666C6173 		.ascii	"flashPipeRequired\000"
 11797      68506970 
 11797      65526571 
 11797      75697265 
 11797      6400
 11798              	.LASF145:
 11799 0786 70657269 		.ascii	"periTrCmdOffset\000"
 11799      5472436D 
 11799      644F6666 
 11799      73657400 
 11800              	.LASF270:
 11801 0796 43795F50 		.ascii	"Cy_Prot_SetActivePC\000"
 11801      726F745F 
 11801      53657441 
 11801      63746976 
 11801      65504300 
 11802              	.LASF218:
 11803 07aa 43595F50 		.ascii	"CY_PROT_SIZE_512B\000"
 11803      524F545F 
 11803      53495A45 
 11803      5F353132 
 11803      4200
 11804              	.LASF332:
 11805 07bc 443A5C4F 		.ascii	"D:\\OneDrive - UNSW\\Documents\\thesis\\VDAC_Saw_Ex"
 11805      6E654472 
 11805      69766520 
 11805      2D20554E 
 11805      53575C44 
 11806 07eb 706F7274 		.ascii	"port.cydsn\000"
 11806      2E637964 
 11806      736E00
 11807              	.LASF255:
 11808 07f6 5F426F6F 		.ascii	"_Bool\000"
ARM GAS  C:\Users\JC\AppData\Local\Temp\ccU1E72d.s 			page 265


 11808      6C00
 11809              	.LASF290:
 11810 07fc 72656749 		.ascii	"regIdx\000"
 11810      647800
 11811              	.LASF272:
 11812 0803 43795F50 		.ascii	"Cy_Prot_ConfigMpuStruct\000"
 11812      726F745F 
 11812      436F6E66 
 11812      69674D70 
 11812      75537472 
 11813              	.LASF287:
 11814 081b 736D7075 		.ascii	"smpuIndex\000"
 11814      496E6465 
 11814      7800
 11815              	.LASF315:
 11816 0825 43795F50 		.ascii	"Cy_Prot_EnablePpuFixedSlMasterStruct\000"
 11816      726F745F 
 11816      456E6162 
 11816      6C655070 
 11816      75466978 
 11817              	.LASF234:
 11818 084a 43595F50 		.ascii	"CY_PROT_SIZE_32MB\000"
 11818      524F545F 
 11818      53495A45 
 11818      5F33324D 
 11818      4200
 11819              	.LASF134:
 11820 085c 666C6173 		.ascii	"flashCtlMainWs0Freq\000"
 11820      6843746C 
 11820      4D61696E 
 11820      57733046 
 11820      72657100 
 11821              	.LASF41:
 11822 0870 4449565F 		.ascii	"DIV_24_5_CTL\000"
 11822      32345F35 
 11822      5F43544C 
 11822      00
 11823              	.LASF57:
 11824 087d 4D535F53 		.ascii	"MS_SIZE\000"
 11824      495A4500 
 11825              	.LASF98:
 11826 0885 6770696F 		.ascii	"gpioBase\000"
 11826      42617365 
 11826      00
 11827              	.LASF258:
 11828 088e 70634D61 		.ascii	"pcMask\000"
 11828      736B00
 11829              	.LASF39:
 11830 0895 4449565F 		.ascii	"DIV_16_CTL\000"
 11830      31365F43 
 11830      544C00
 11831              	.LASF21:
 11832 08a0 434C4F43 		.ascii	"CLOCK_CTL\000"
 11832      4B5F4354 
 11832      4C00
 11833              	.LASF228:
 11834 08aa 43595F50 		.ascii	"CY_PROT_SIZE_512KB\000"
ARM GAS  C:\Users\JC\AppData\Local\Temp\ccU1E72d.s 			page 266


 11834      524F545F 
 11834      53495A45 
 11834      5F353132 
 11834      4B4200
 11835              	.LASF169:
 11836 08bd 63707573 		.ascii	"cpussSysTickCtlOffset\000"
 11836      73537973 
 11836      5469636B 
 11836      43746C4F 
 11836      66667365 
 11837              	.LASF125:
 11838 08d3 75646250 		.ascii	"udbPresent\000"
 11838      72657365 
 11838      6E7400
 11839              	.LASF143:
 11840 08de 64775374 		.ascii	"dwStatusChIdxPos\000"
 11840      61747573 
 11840      43684964 
 11840      78506F73 
 11840      00
 11841              	.LASF101:
 11842 08ef 63727970 		.ascii	"cryptoBase\000"
 11842      746F4261 
 11842      736500
 11843              	.LASF114:
 11844 08fa 63707573 		.ascii	"cpussFlashPaSize\000"
 11844      73466C61 
 11844      73685061 
 11844      53697A65 
 11844      00
 11845              	.LASF27:
 11846 090b 54525F4F 		.ascii	"TR_OUT_CTL\000"
 11846      55545F43 
 11846      544C00
 11847              	.LASF248:
 11848 0916 50455249 		.ascii	"PERI_MS_PPU_FX_Type\000"
 11848      5F4D535F 
 11848      5050555F 
 11848      46585F54 
 11848      79706500 
 11849              	.LASF45:
 11850 092a 54525F47 		.ascii	"TR_GR\000"
 11850      5200
 11851              	.LASF93:
 11852 0930 666C6173 		.ascii	"flashcBase\000"
 11852      68634261 
 11852      736500
 11853              	.LASF193:
 11854 093b 63686172 		.ascii	"char\000"
 11854      00
 11855              	.LASF275:
 11856 0940 61646472 		.ascii	"addrReg\000"
 11856      52656700 
 11857              	.LASF37:
 11858 0948 4449565F 		.ascii	"DIV_CMD\000"
 11858      434D4400 
 11859              	.LASF91:
ARM GAS  C:\Users\JC\AppData\Local\Temp\ccU1E72d.s 			page 267


 11860 0950 50524F54 		.ascii	"PROT_V1_Type\000"
 11860      5F56315F 
 11860      54797065 
 11860      00
 11861              	.LASF229:
 11862 095d 43595F50 		.ascii	"CY_PROT_SIZE_1MB\000"
 11862      524F545F 
 11862      53495A45 
 11862      5F314D42 
 11862      00
 11863              	.LASF246:
 11864 096e 63795F65 		.ascii	"cy_en_prot_req_mode_t\000"
 11864      6E5F7072 
 11864      6F745F72 
 11864      65715F6D 
 11864      6F64655F 
 11865              	.LASF126:
 11866 0984 73797350 		.ascii	"sysPmSimoPresent\000"
 11866      6D53696D 
 11866      6F507265 
 11866      73656E74 
 11866      00
 11867              	.LASF288:
 11868 0995 73746349 		.ascii	"stcIdx\000"
 11868      647800
 11869              	.LASF237:
 11870 099c 43595F50 		.ascii	"CY_PROT_SIZE_256MB\000"
 11870      524F545F 
 11870      53495A45 
 11870      5F323536 
 11870      4D4200
 11871              	.LASF88:
 11872 09af 50524F54 		.ascii	"PROT_MPU_V1_Type\000"
 11872      5F4D5055 
 11872      5F56315F 
 11872      54797065 
 11872      00
 11873              	.LASF217:
 11874 09c0 43595F50 		.ascii	"CY_PROT_SIZE_256B\000"
 11874      524F545F 
 11874      53495A45 
 11874      5F323536 
 11874      4200
 11875              	.LASF15:
 11876 09d2 75696E74 		.ascii	"uint8_t\000"
 11876      385F7400 
 11877              	.LASF266:
 11878 09da 73746174 		.ascii	"status\000"
 11878      757300
 11879              	.LASF149:
 11880 09e1 70657269 		.ascii	"periDivCmdDivSelMsk\000"
 11880      44697643 
 11880      6D644469 
 11880      7653656C 
 11880      4D736B00 
 11881              	.LASF210:
 11882 09f5 63795F65 		.ascii	"cy_en_prot_perm_t\000"
ARM GAS  C:\Users\JC\AppData\Local\Temp\ccU1E72d.s 			page 268


 11882      6E5F7072 
 11882      6F745F70 
 11882      65726D5F 
 11882      7400
 11883              	.LASF51:
 11884 0a07 534C5F53 		.ascii	"SL_SIZE\000"
 11884      495A4500 
 11885              	.LASF155:
 11886 0a0f 70657269 		.ascii	"periDiv16_5CtlOffset\000"
 11886      44697631 
 11886      365F3543 
 11886      746C4F66 
 11886      66736574 
 11887              	.LASF277:
 11888 0a24 43795F50 		.ascii	"Cy_Prot_EnableMpuStruct\000"
 11888      726F745F 
 11888      456E6162 
 11888      6C654D70 
 11888      75537472 
 11889              	.LASF319:
 11890 0a3c 43795F50 		.ascii	"Cy_Prot_ConfigPpuFixedRgMasterStruct\000"
 11890      726F745F 
 11890      436F6E66 
 11890      69675070 
 11890      75466978 
 11891              	.LASF173:
 11892 0a61 63707573 		.ascii	"cpussRam0Ctl0\000"
 11892      7352616D 
 11892      3043746C 
 11892      3000
 11893              	.LASF1:
 11894 0a6f 6C6F6E67 		.ascii	"long long int\000"
 11894      206C6F6E 
 11894      6720696E 
 11894      7400
 11895              	.LASF100:
 11896 0a7d 69706342 		.ascii	"ipcBase\000"
 11896      61736500 
 11897              	.LASF196:
 11898 0a85 43595F50 		.ascii	"CY_PROT_SUCCESS\000"
 11898      524F545F 
 11898      53554343 
 11898      45535300 
 11899              	.LASF199:
 11900 0a95 43595F50 		.ascii	"CY_PROT_FAILURE\000"
 11900      524F545F 
 11900      4641494C 
 11900      55524500 
 11901              	.LASF69:
 11902 0aa5 4D53345F 		.ascii	"MS4_CTL\000"
 11902      43544C00 
 11903              	.LASF294:
 11904 0aad 43795F50 		.ascii	"Cy_Prot_ConfigPpuProgSlaveAtt\000"
 11904      726F745F 
 11904      436F6E66 
 11904      69675070 
 11904      7550726F 
ARM GAS  C:\Users\JC\AppData\Local\Temp\ccU1E72d.s 			page 269


 11905              	.LASF238:
 11906 0acb 43595F50 		.ascii	"CY_PROT_SIZE_512MB\000"
 11906      524F545F 
 11906      53495A45 
 11906      5F353132 
 11906      4D4200
 11907              	.LASF131:
 11908 0ade 666C6173 		.ascii	"flashWriteDelay\000"
 11908      68577269 
 11908      74654465 
 11908      6C617900 
 11909              	.LASF311:
 11910 0aee 43795F50 		.ascii	"Cy_Prot_EnablePpuFixedGrSlaveStruct\000"
 11910      726F745F 
 11910      456E6162 
 11910      6C655070 
 11910      75466978 
 11911              	.LASF48:
 11912 0b12 5050555F 		.ascii	"PPU_GR\000"
 11912      475200
 11913              	.LASF235:
 11914 0b19 43595F50 		.ascii	"CY_PROT_SIZE_64MB\000"
 11914      524F545F 
 11914      53495A45 
 11914      5F36344D 
 11914      4200
 11915              	.LASF6:
 11916 0b2b 5F5F696E 		.ascii	"__int16_t\000"
 11916      7431365F 
 11916      7400
 11917              	.LASF136:
 11918 0b35 666C6173 		.ascii	"flashCtlMainWs2Freq\000"
 11918      6843746C 
 11918      4D61696E 
 11918      57733246 
 11918      72657100 
 11919              	.LASF190:
 11920 0b49 50524F54 		.ascii	"PROT_SMPU_SMPU_STRUCT_Type\000"
 11920      5F534D50 
 11920      555F534D 
 11920      50555F53 
 11920      54525543 
 11921              	.LASF97:
 11922 0b64 6873696F 		.ascii	"hsiomBase\000"
 11922      6D426173 
 11922      6500
 11923              	.LASF147:
 11924 0b6e 70657269 		.ascii	"periTrGrOffset\000"
 11924      54724772 
 11924      4F666673 
 11924      657400
 11925              	.LASF66:
 11926 0b7d 4D53315F 		.ascii	"MS1_CTL\000"
 11926      43544C00 
 11927              	.LASF278:
 11928 0b85 43795F50 		.ascii	"Cy_Prot_DisableMpuStruct\000"
 11928      726F745F 
ARM GAS  C:\Users\JC\AppData\Local\Temp\ccU1E72d.s 			page 270


 11928      44697361 
 11928      626C654D 
 11928      70755374 
 11929              	.LASF113:
 11930 0b9e 63707573 		.ascii	"cpussDwChNr\000"
 11930      73447743 
 11930      684E7200 
 11931              	.LASF56:
 11932 0baa 4D535F41 		.ascii	"MS_ADDR\000"
 11932      44445200 
 11933              	.LASF318:
 11934 0bb2 43795F50 		.ascii	"Cy_Prot_DisablePpuFixedSlSlaveStruct\000"
 11934      726F745F 
 11934      44697361 
 11934      626C6550 
 11934      70754669 
 11935              	.LASF245:
 11936 0bd7 43595F50 		.ascii	"CY_PROT_REQMODE_INDEX\000"
 11936      524F545F 
 11936      5245514D 
 11936      4F44455F 
 11936      494E4445 
 11937              	.LASF111:
 11938 0bed 63707573 		.ascii	"cpussIpcNr\000"
 11938      73497063 
 11938      4E7200
 11939              	.LASF63:
 11940 0bf8 50455249 		.ascii	"PERI_MS_PPU_FX_V2_Type\000"
 11940      5F4D535F 
 11940      5050555F 
 11940      46585F56 
 11940      325F5479 
 11941              	.LASF164:
 11942 0c0f 63707573 		.ascii	"cpussCm4StatusOffset\000"
 11942      73436D34 
 11942      53746174 
 11942      75734F66 
 11942      66736574 
 11943              	.LASF299:
 11944 0c24 43795F50 		.ascii	"Cy_Prot_ConfigPpuProgMasterStruct\000"
 11944      726F745F 
 11944      436F6E66 
 11944      69675070 
 11944      7550726F 
 11945              	.LASF123:
 11946 0c46 70617373 		.ascii	"passSarChannels\000"
 11946      53617243 
 11946      68616E6E 
 11946      656C7300 
 11947              	.LASF83:
 11948 0c56 41444452 		.ascii	"ADDR\000"
 11948      00
 11949              	.LASF175:
 11950 0c5b 63707573 		.ascii	"cpussRam2Ctl0\000"
 11950      7352616D 
 11950      3243746C 
 11950      3000
ARM GAS  C:\Users\JC\AppData\Local\Temp\ccU1E72d.s 			page 271


 11951              	.LASF263:
 11952 0c69 63795F73 		.ascii	"cy_stc_ppu_rg_cfg_t\000"
 11952      74635F70 
 11952      70755F72 
 11952      675F6366 
 11952      675F7400 
 11953              	.LASF251:
 11954 0c7d 73756272 		.ascii	"subregions\000"
 11954      6567696F 
 11954      6E7300
 11955              	.LASF189:
 11956 0c88 50455249 		.ascii	"PERI_GR_PPU_RG_Type\000"
 11956      5F47525F 
 11956      5050555F 
 11956      52475F54 
 11956      79706500 
 11957              	.LASF304:
 11958 0c9c 43795F50 		.ascii	"Cy_Prot_DisablePpuProgSlaveStruct\000"
 11958      726F745F 
 11958      44697361 
 11958      626C6550 
 11958      70755072 
 11959              	.LASF154:
 11960 0cbe 70657269 		.ascii	"periDiv16CtlOffset\000"
 11960      44697631 
 11960      3643746C 
 11960      4F666673 
 11960      657400
 11961              	.LASF257:
 11962 0cd1 70634D61 		.ascii	"pcMatch\000"
 11962      74636800 
 11963              	.LASF231:
 11964 0cd9 43595F50 		.ascii	"CY_PROT_SIZE_4MB\000"
 11964      524F545F 
 11964      53495A45 
 11964      5F344D42 
 11964      00
 11965              	.LASF316:
 11966 0cea 43795F50 		.ascii	"Cy_Prot_DisablePpuFixedSlMasterStruct\000"
 11966      726F745F 
 11966      44697361 
 11966      626C6550 
 11966      70754669 
 11967              	.LASF186:
 11968 0d10 50455249 		.ascii	"PERI_PPU_PR_Type\000"
 11968      5F505055 
 11968      5F50525F 
 11968      54797065 
 11968      00
 11969              	.LASF9:
 11970 0d21 73686F72 		.ascii	"short unsigned int\000"
 11970      7420756E 
 11970      7369676E 
 11970      65642069 
 11970      6E7400
 11971              	.LASF2:
 11972 0d34 6C6F6E67 		.ascii	"long double\000"
ARM GAS  C:\Users\JC\AppData\Local\Temp\ccU1E72d.s 			page 272


 11972      20646F75 
 11972      626C6500 
 11973              	.LASF17:
 11974 0d40 75696E74 		.ascii	"uint16_t\000"
 11974      31365F74 
 11974      00
 11975              	.LASF96:
 11976 0d49 70726F74 		.ascii	"protBase\000"
 11976      42617365 
 11976      00
 11977              	.LASF146:
 11978 0d52 70657269 		.ascii	"periTrCmdGrSelMsk\000"
 11978      5472436D 
 11978      64477253 
 11978      656C4D73 
 11978      6B00
 11979              	.LASF264:
 11980 0d64 6275734D 		.ascii	"busMaster\000"
 11980      61737465 
 11980      7200
 11981              	.LASF202:
 11982 0d6e 43595F50 		.ascii	"CY_PROT_PERM_DISABLED\000"
 11982      524F545F 
 11982      5045524D 
 11982      5F444953 
 11982      41424C45 
 11983              	.LASF120:
 11984 0d84 73727373 		.ascii	"srssNumHfroot\000"
 11984      4E756D48 
 11984      66726F6F 
 11984      7400
 11985              	.LASF142:
 11986 0d92 64774368 		.ascii	"dwChCtlPreemptablePos\000"
 11986      43746C50 
 11986      7265656D 
 11986      70746162 
 11986      6C65506F 
 11987              	.LASF223:
 11988 0da8 43595F50 		.ascii	"CY_PROT_SIZE_16KB\000"
 11988      524F545F 
 11988      53495A45 
 11988      5F31364B 
 11988      4200
 11989              	.LASF104:
 11990 0dba 64775665 		.ascii	"dwVersion\000"
 11990      7273696F 
 11990      6E00
 11991              	.LASF211:
 11992 0dc4 43595F50 		.ascii	"CY_PROT_SIZE_4B\000"
 11992      524F545F 
 11992      53495A45 
 11992      5F344200 
 11993              	.LASF274:
 11994 0dd4 636F6E66 		.ascii	"config\000"
 11994      696700
 11995              	.LASF20:
 11996 0ddb 73697A65 		.ascii	"sizetype\000"
ARM GAS  C:\Users\JC\AppData\Local\Temp\ccU1E72d.s 			page 273


 11996      74797065 
 11996      00
 11997              	.LASF171:
 11998 0de4 63707573 		.ascii	"cpussCm4NmiCtlOffset\000"
 11998      73436D34 
 11998      4E6D6943 
 11998      746C4F66 
 11998      66736574 
 11999              	.LASF165:
 12000 0df9 63707573 		.ascii	"cpussCm0StatusOffset\000"
 12000      73436D30 
 12000      53746174 
 12000      75734F66 
 12000      66736574 
 12001              	.LASF153:
 12002 0e0e 70657269 		.ascii	"periDiv8CtlOffset\000"
 12002      44697638 
 12002      43746C4F 
 12002      66667365 
 12002      7400
 12003              	.LASF42:
 12004 0e20 52455345 		.ascii	"RESERVED2\000"
 12004      52564544 
 12004      3200
 12005              	.LASF44:
 12006 0e2a 52455345 		.ascii	"RESERVED3\000"
 12006      52564544 
 12006      3300
 12007              	.LASF47:
 12008 0e34 52455345 		.ascii	"RESERVED4\000"
 12008      52564544 
 12008      3400
 12009              	.LASF7:
 12010 0e3e 73686F72 		.ascii	"short int\000"
 12010      7420696E 
 12010      7400
 12011              	.LASF240:
 12012 0e48 43595F50 		.ascii	"CY_PROT_SIZE_2GB\000"
 12012      524F545F 
 12012      53495A45 
 12012      5F324742 
 12012      00
 12013              	.LASF50:
 12014 0e59 534C5F41 		.ascii	"SL_ADDR\000"
 12014      44445200 
 12015              	.LASF260:
 12016 0e61 63795F73 		.ascii	"cy_stc_ppu_prog_cfg_t\000"
 12016      74635F70 
 12016      70755F70 
 12016      726F675F 
 12016      6366675F 
 12017              	.LASF85:
 12018 0e77 4D535F43 		.ascii	"MS_CTL\000"
 12018      544C00
 12019              	.LASF261:
 12020 0e7e 63795F73 		.ascii	"cy_stc_ppu_gr_cfg_t\000"
 12020      74635F70 
ARM GAS  C:\Users\JC\AppData\Local\Temp\ccU1E72d.s 			page 274


 12020      70755F67 
 12020      725F6366 
 12020      675F7400 
 12021              	.LASF11:
 12022 0e92 6C6F6E67 		.ascii	"long int\000"
 12022      20696E74 
 12022      00
 12023              	.LASF220:
 12024 0e9b 43595F50 		.ascii	"CY_PROT_SIZE_2KB\000"
 12024      524F545F 
 12024      53495A45 
 12024      5F324B42 
 12024      00
 12025              	.LASF102:
 12026 0eac 63707573 		.ascii	"cpussVersion\000"
 12026      73566572 
 12026      73696F6E 
 12026      00
 12027              	.LASF262:
 12028 0eb9 63795F73 		.ascii	"cy_stc_ppu_sl_cfg_t\000"
 12028      74635F70 
 12028      70755F73 
 12028      6C5F6366 
 12028      675F7400 
 12029              	.LASF224:
 12030 0ecd 43595F50 		.ascii	"CY_PROT_SIZE_32KB\000"
 12030      524F545F 
 12030      53495A45 
 12030      5F33324B 
 12030      4200
 12031              	.LASF105:
 12032 0edf 666C6173 		.ascii	"flashcVersion\000"
 12032      68635665 
 12032      7273696F 
 12032      6E00
 12033              	.LASF127:
 12034 0eed 70726F74 		.ascii	"protBusMasterMask\000"
 12034      4275734D 
 12034      61737465 
 12034      724D6173 
 12034      6B00
 12035              	.LASF250:
 12036 0eff 72656769 		.ascii	"regionSize\000"
 12036      6F6E5369 
 12036      7A6500
 12037              	.LASF289:
 12038 0f0a 746D704D 		.ascii	"tmpMask\000"
 12038      61736B00 
 12039              	.LASF331:
 12040 0f12 47656E65 		.ascii	"Generated_Source\\PSoC6\\pdl\\drivers\\peripheral\\"
 12040      72617465 
 12040      645F536F 
 12040      75726365 
 12040      5C50536F 
 12041 0f40 70726F74 		.ascii	"prot\\cy_prot.c\000"
 12041      5C63795F 
 12041      70726F74 
ARM GAS  C:\Users\JC\AppData\Local\Temp\ccU1E72d.s 			page 275


 12041      2E6300
 12042              	.LASF192:
 12043 0f4f 63686172 		.ascii	"char_t\000"
 12043      5F7400
 12044              	.LASF214:
 12045 0f56 43595F50 		.ascii	"CY_PROT_SIZE_32B\000"
 12045      524F545F 
 12045      53495A45 
 12045      5F333242 
 12045      00
 12046              	.LASF303:
 12047 0f67 43795F50 		.ascii	"Cy_Prot_EnablePpuProgSlaveStruct\000"
 12047      726F745F 
 12047      456E6162 
 12047      6C655070 
 12047      7550726F 
 12048              	.LASF243:
 12049 0f88 43595F50 		.ascii	"CY_PROT_REQMODE_HIGHPRIOR\000"
 12049      524F545F 
 12049      5245514D 
 12049      4F44455F 
 12049      48494748 
 12050              	.LASF200:
 12051 0fa2 43595F50 		.ascii	"CY_PROT_UNAVAILABLE\000"
 12051      524F545F 
 12051      554E4156 
 12051      41494C41 
 12051      424C4500 
 12052              	.LASF225:
 12053 0fb6 43595F50 		.ascii	"CY_PROT_SIZE_64KB\000"
 12053      524F545F 
 12053      53495A45 
 12053      5F36344B 
 12053      4200
 12054              	.LASF283:
 12055 0fc8 43795F50 		.ascii	"Cy_Prot_EnableSmpuSlaveStruct\000"
 12055      726F745F 
 12055      456E6162 
 12055      6C65536D 
 12055      7075536C 
 12056              	.LASF166:
 12057 0fe6 63707573 		.ascii	"cpussCm4PwrCtlOffset\000"
 12057      73436D34 
 12057      50777243 
 12057      746C4F66 
 12057      66736574 
 12058              	.LASF5:
 12059 0ffb 5F5F7569 		.ascii	"__uint8_t\000"
 12059      6E74385F 
 12059      7400
 12060              	.LASF180:
 12061 1005 43505553 		.ascii	"CPUSS_MS_ID_CRYPTO\000"
 12061      535F4D53 
 12061      5F49445F 
 12061      43525950 
 12061      544F00
 12062              	.LASF74:
ARM GAS  C:\Users\JC\AppData\Local\Temp\ccU1E72d.s 			page 276


 12063 1018 4D53395F 		.ascii	"MS9_CTL\000"
 12063      43544C00 
 12064              	.LASF157:
 12065 1020 6770696F 		.ascii	"gpioPrtIntrCfgOffset\000"
 12065      50727449 
 12065      6E747243 
 12065      66674F66 
 12065      66736574 
 12066              	.LASF215:
 12067 1035 43595F50 		.ascii	"CY_PROT_SIZE_64B\000"
 12067      524F545F 
 12067      53495A45 
 12067      5F363442 
 12067      00
 12068              	.LASF163:
 12069 1046 63707573 		.ascii	"cpussCm4ClockCtlOffset\000"
 12069      73436D34 
 12069      436C6F63 
 12069      6B43746C 
 12069      4F666673 
 12070              	.LASF182:
 12071 105d 43505553 		.ascii	"CPUSS_MS_ID_DW1\000"
 12071      535F4D53 
 12071      5F49445F 
 12071      44573100 
 12072              	.LASF87:
 12073 106d 4D50555F 		.ascii	"MPU_STRUCT\000"
 12073      53545255 
 12073      435400
 12074              	.LASF168:
 12075 1078 63707573 		.ascii	"cpussTrimRomCtlOffset\000"
 12075      73547269 
 12075      6D526F6D 
 12075      43746C4F 
 12075      66667365 
 12076              	.LASF233:
 12077 108e 43595F50 		.ascii	"CY_PROT_SIZE_16MB\000"
 12077      524F545F 
 12077      53495A45 
 12077      5F31364D 
 12077      4200
 12078              	.LASF35:
 12079 10a0 50455249 		.ascii	"PERI_GR_PPU_SL_V1_Type\000"
 12079      5F47525F 
 12079      5050555F 
 12079      534C5F56 
 12079      315F5479 
 12080              	.LASF107:
 12081 10b7 6873696F 		.ascii	"hsiomVersion\000"
 12081      6D566572 
 12081      73696F6E 
 12081      00
 12082              	.LASF13:
 12083 10c4 6C6F6E67 		.ascii	"long unsigned int\000"
 12083      20756E73 
 12083      69676E65 
 12083      6420696E 
ARM GAS  C:\Users\JC\AppData\Local\Temp\ccU1E72d.s 			page 277


 12083      7400
 12084              	.LASF249:
 12085 10d6 61646472 		.ascii	"address\000"
 12085      65737300 
 12086              	.LASF329:
 12087 10de 70707553 		.ascii	"ppuStcIndex\000"
 12087      7463496E 
 12087      64657800 
 12088              	.LASF172:
 12089 10ea 63707573 		.ascii	"cpussRomCtl\000"
 12089      73526F6D 
 12089      43746C00 
 12090              	.LASF203:
 12091 10f6 43595F50 		.ascii	"CY_PROT_PERM_R\000"
 12091      524F545F 
 12091      5045524D 
 12091      5F5200
 12092              	.LASF295:
 12093 1105 43795F50 		.ascii	"Cy_Prot_EnablePpuProgSlaveRegion\000"
 12093      726F745F 
 12093      456E6162 
 12093      6C655070 
 12093      7550726F 
 12094              	.LASF306:
 12095 1126 70707550 		.ascii	"ppuProgIndex\000"
 12095      726F6749 
 12095      6E646578 
 12095      00
 12096              	.LASF206:
 12097 1133 43595F50 		.ascii	"CY_PROT_PERM_X\000"
 12097      524F545F 
 12097      5045524D 
 12097      5F5800
 12098              	.LASF279:
 12099 1142 43795F50 		.ascii	"Cy_Prot_ConfigSmpuMasterStruct\000"
 12099      726F745F 
 12099      436F6E66 
 12099      6967536D 
 12099      70754D61 
 12100              	.LASF221:
 12101 1161 43595F50 		.ascii	"CY_PROT_SIZE_4KB\000"
 12101      524F545F 
 12101      53495A45 
 12101      5F344B42 
 12101      00
 12102              	.LASF71:
 12103 1172 4D53365F 		.ascii	"MS6_CTL\000"
 12103      43544C00 
 12104              	.LASF268:
 12105 117a 61646472 		.ascii	"addrMsCtl\000"
 12105      4D734374 
 12105      6C00
 12106              	.LASF198:
 12107 1184 43595F50 		.ascii	"CY_PROT_INVALID_STATE\000"
 12107      524F545F 
 12107      494E5641 
 12107      4C49445F 
ARM GAS  C:\Users\JC\AppData\Local\Temp\ccU1E72d.s 			page 278


 12107      53544154 
 12108              	.LASF312:
 12109 119a 43795F50 		.ascii	"Cy_Prot_DisablePpuFixedGrSlaveStruct\000"
 12109      726F745F 
 12109      44697361 
 12109      626C6550 
 12109      70754669 
 12110              	.LASF310:
 12111 11bf 43795F50 		.ascii	"Cy_Prot_DisablePpuFixedGrMasterStruct\000"
 12111      726F745F 
 12111      44697361 
 12111      626C6550 
 12111      70754669 
 12112              	.LASF216:
 12113 11e5 43595F50 		.ascii	"CY_PROT_SIZE_128B\000"
 12113      524F545F 
 12113      53495A45 
 12113      5F313238 
 12113      4200
 12114              	.LASF230:
 12115 11f7 43595F50 		.ascii	"CY_PROT_SIZE_2MB\000"
 12115      524F545F 
 12115      53495A45 
 12115      5F324D42 
 12115      00
 12116              	.LASF327:
 12117 1208 736D7075 		.ascii	"smpuStcIndex\000"
 12117      53746349 
 12117      6E646578 
 12117      00
 12118              	.LASF252:
 12119 1215 75736572 		.ascii	"userPermission\000"
 12119      5065726D 
 12119      69737369 
 12119      6F6E00
 12120              	.LASF90:
 12121 1224 43594D50 		.ascii	"CYMPU\000"
 12121      5500
 12122              	.LASF4:
 12123 122a 756E7369 		.ascii	"unsigned char\000"
 12123      676E6564 
 12123      20636861 
 12123      7200
 12124              	.LASF12:
 12125 1238 5F5F7569 		.ascii	"__uint32_t\000"
 12125      6E743332 
 12125      5F7400
 12126              	.LASF177:
 12127 1243 6970634C 		.ascii	"ipcLockStatusOffset\000"
 12127      6F636B53 
 12127      74617475 
 12127      734F6666 
 12127      73657400 
 12128              	.LASF321:
 12129 1257 43795F50 		.ascii	"Cy_Prot_EnablePpuFixedRgMasterStruct\000"
 12129      726F745F 
 12129      456E6162 
ARM GAS  C:\Users\JC\AppData\Local\Temp\ccU1E72d.s 			page 279


 12129      6C655070 
 12129      75466978 
 12130              	.LASF325:
 12131 127c 50726F74 		.ascii	"Prot_ConfigPpuAtt\000"
 12131      5F436F6E 
 12131      66696750 
 12131      70754174 
 12131      7400
 12132              	.LASF68:
 12133 128e 4D53335F 		.ascii	"MS3_CTL\000"
 12133      43544C00 
 12134              	.LASF209:
 12135 1296 43595F50 		.ascii	"CY_PROT_PERM_RWX\000"
 12135      524F545F 
 12135      5045524D 
 12135      5F525758 
 12135      00
 12136              	.LASF309:
 12137 12a7 43795F50 		.ascii	"Cy_Prot_EnablePpuFixedGrMasterStruct\000"
 12137      726F745F 
 12137      456E6162 
 12137      6C655070 
 12137      75466978 
 12138              	.LASF236:
 12139 12cc 43595F50 		.ascii	"CY_PROT_SIZE_128MB\000"
 12139      524F545F 
 12139      53495A45 
 12139      5F313238 
 12139      4D4200
 12140              	.LASF204:
 12141 12df 43595F50 		.ascii	"CY_PROT_PERM_W\000"
 12141      524F545F 
 12141      5045524D 
 12141      5F5700
 12142              	.LASF187:
 12143 12ee 50455249 		.ascii	"PERI_PPU_GR_Type\000"
 12143      5F505055 
 12143      5F47525F 
 12143      54797065 
 12143      00
 12144              	.LASF158:
 12145 12ff 6770696F 		.ascii	"gpioPrtCfgOffset\000"
 12145      50727443 
 12145      66674F66 
 12145      66736574 
 12145      00
 12146              	.LASF296:
 12147 1310 43795F50 		.ascii	"Cy_Prot_DisablePpuProgSlaveRegion\000"
 12147      726F745F 
 12147      44697361 
 12147      626C6550 
 12147      70755072 
 12148              	.LASF320:
 12149 1332 43795F50 		.ascii	"Cy_Prot_ConfigPpuFixedRgSlaveStruct\000"
 12149      726F745F 
 12149      436F6E66 
 12149      69675070 
ARM GAS  C:\Users\JC\AppData\Local\Temp\ccU1E72d.s 			page 280


 12149      75466978 
 12150              	.LASF259:
 12151 1356 63795F73 		.ascii	"cy_stc_smpu_cfg_t\000"
 12151      74635F73 
 12151      6D70755F 
 12151      6366675F 
 12151      7400
 12152              	.LASF129:
 12153 1368 666C6173 		.ascii	"flashRwwRequired\000"
 12153      68527777 
 12153      52657175 
 12153      69726564 
 12153      00
 12154              	.LASF65:
 12155 1379 4D53305F 		.ascii	"MS0_CTL\000"
 12155      43544C00 
 12156              	.LASF286:
 12157 1381 7265714D 		.ascii	"reqMode\000"
 12157      6F646500 
 12158              	.LASF256:
 12159 1389 63795F73 		.ascii	"cy_stc_mpu_cfg_t\000"
 12159      74635F6D 
 12159      70755F63 
 12159      66675F74 
 12159      00
 12160              	.LASF135:
 12161 139a 666C6173 		.ascii	"flashCtlMainWs1Freq\000"
 12161      6843746C 
 12161      4D61696E 
 12161      57733146 
 12161      72657100 
 12162              	.LASF205:
 12163 13ae 43595F50 		.ascii	"CY_PROT_PERM_RW\000"
 12163      524F545F 
 12163      5045524D 
 12163      5F525700 
 12164              	.LASF207:
 12165 13be 43595F50 		.ascii	"CY_PROT_PERM_RX\000"
 12165      524F545F 
 12165      5045524D 
 12165      5F525800 
 12166              	.LASF80:
 12167 13ce 4D533135 		.ascii	"MS15_CTL\000"
 12167      5F43544C 
 12167      00
 12168              	.LASF3:
 12169 13d7 7369676E 		.ascii	"signed char\000"
 12169      65642063 
 12169      68617200 
 12170              	.LASF213:
 12171 13e3 43595F50 		.ascii	"CY_PROT_SIZE_16B\000"
 12171      524F545F 
 12171      53495A45 
 12171      5F313642 
 12171      00
 12172              	.LASF201:
 12173 13f4 63795F65 		.ascii	"cy_en_prot_status_t\000"
ARM GAS  C:\Users\JC\AppData\Local\Temp\ccU1E72d.s 			page 281


 12173      6E5F7072 
 12173      6F745F73 
 12173      74617475 
 12173      735F7400 
 12174              	.LASF139:
 12175 1408 64774368 		.ascii	"dwChOffset\000"
 12175      4F666673 
 12175      657400
 12176              	.LASF212:
 12177 1413 43595F50 		.ascii	"CY_PROT_SIZE_8B\000"
 12177      524F545F 
 12177      53495A45 
 12177      5F384200 
 12178              	.LASF112:
 12179 1423 63707573 		.ascii	"cpussIpcIrqNr\000"
 12179      73497063 
 12179      4972714E 
 12179      7200
 12180              	.LASF58:
 12181 1431 4D535F41 		.ascii	"MS_ATT0\000"
 12181      54543000 
 12182              	.LASF59:
 12183 1439 4D535F41 		.ascii	"MS_ATT1\000"
 12183      54543100 
 12184              	.LASF60:
 12185 1441 4D535F41 		.ascii	"MS_ATT2\000"
 12185      54543200 
 12186              	.LASF61:
 12187 1449 4D535F41 		.ascii	"MS_ATT3\000"
 12187      54543300 
 12188              	.LASF330:
 12189 1451 474E5520 		.ascii	"GNU C11 5.4.1 20160609 (release) [ARM/embedded-5-br"
 12189      43313120 
 12189      352E342E 
 12189      31203230 
 12189      31363036 
 12190 1484 616E6368 		.ascii	"anch revision 237715] -mcpu=cortex-m0plus -mthumb -"
 12190      20726576 
 12190      6973696F 
 12190      6E203233 
 12190      37373135 
 12191 14b7 67202D4F 		.ascii	"g -O0 -ffunction-sections -ffat-lto-objects\000"
 12191      30202D66 
 12191      66756E63 
 12191      74696F6E 
 12191      2D736563 
 12192              	.LASF280:
 12193 14e3 43795F50 		.ascii	"Cy_Prot_ConfigSmpuSlaveStruct\000"
 12193      726F745F 
 12193      436F6E66 
 12193      6967536D 
 12193      7075536C 
 12194              	.LASF178:
 12195 1501 63795F73 		.ascii	"cy_stc_device_t\000"
 12195      74635F64 
 12195      65766963 
 12195      655F7400 
ARM GAS  C:\Users\JC\AppData\Local\Temp\ccU1E72d.s 			page 282


 12196              	.LASF184:
 12197 1511 43505553 		.ascii	"CPUSS_MS_ID_TC\000"
 12197      535F4D53 
 12197      5F49445F 
 12197      544300
 12198              	.LASF291:
 12199 1520 666C6449 		.ascii	"fldIdx\000"
 12199      647800
 12200              	.LASF29:
 12201 1527 41444452 		.ascii	"ADDR0\000"
 12201      3000
 12202              	.LASF31:
 12203 152d 41444452 		.ascii	"ADDR1\000"
 12203      3100
 12204              	.LASF109:
 12205 1533 70657269 		.ascii	"periVersion\000"
 12205      56657273 
 12205      696F6E00 
 12206              	.LASF195:
 12207 153f 646F7562 		.ascii	"double\000"
 12207      6C6500
 12208              	.LASF99:
 12209 1546 70617373 		.ascii	"passBase\000"
 12209      42617365 
 12209      00
 12210              	.LASF30:
 12211 154f 41545430 		.ascii	"ATT0\000"
 12211      00
 12212              	.LASF226:
 12213 1554 43595F50 		.ascii	"CY_PROT_SIZE_128KB\000"
 12213      524F545F 
 12213      53495A45 
 12213      5F313238 
 12213      4B4200
 12214              	.LASF25:
 12215 1567 52455345 		.ascii	"RESERVED1\000"
 12215      52564544 
 12215      3100
 12216              	.LASF118:
 12217 1571 73727373 		.ascii	"srssNumClkpath\000"
 12217      4E756D43 
 12217      6C6B7061 
 12217      746800
 12218              	.LASF26:
 12219 1580 50455249 		.ascii	"PERI_GR_V1_Type\000"
 12219      5F47525F 
 12219      56315F54 
 12219      79706500 
 12220              	.LASF77:
 12221 1590 4D533132 		.ascii	"MS12_CTL\000"
 12221      5F43544C 
 12221      00
 12222              	.LASF138:
 12223 1599 666C6173 		.ascii	"flashCtlMainWs4Freq\000"
 12223      6843746C 
 12223      4D61696E 
 12223      57733446 
ARM GAS  C:\Users\JC\AppData\Local\Temp\ccU1E72d.s 			page 283


 12223      72657100 
 12224              	.LASF24:
 12225 15ad 54494D45 		.ascii	"TIMEOUT_CTL\000"
 12225      4F55545F 
 12225      43544C00 
 12226              	.LASF305:
 12227 15b9 43795F50 		.ascii	"Cy_Prot_GetPpuProgStruct\000"
 12227      726F745F 
 12227      47657450 
 12227      70755072 
 12227      6F675374 
 12228              	.LASF292:
 12229 15d2 43795F50 		.ascii	"Cy_Prot_ConfigPpuProgMasterAtt\000"
 12229      726F745F 
 12229      436F6E66 
 12229      69675070 
 12229      7550726F 
 12230              	.LASF34:
 12231 15f1 50455249 		.ascii	"PERI_PPU_GR_V1_Type\000"
 12231      5F505055 
 12231      5F47525F 
 12231      56315F54 
 12231      79706500 
 12232              	.LASF188:
 12233 1605 50455249 		.ascii	"PERI_GR_PPU_SL_Type\000"
 12233      5F47525F 
 12233      5050555F 
 12233      534C5F54 
 12233      79706500 
 12234              	.LASF323:
 12235 1619 43795F50 		.ascii	"Cy_Prot_EnablePpuFixedRgSlaveStruct\000"
 12235      726F745F 
 12235      456E6162 
 12235      6C655070 
 12235      75466978 
 12236              	.LASF108:
 12237 163d 69706356 		.ascii	"ipcVersion\000"
 12237      65727369 
 12237      6F6E00
 12238              	.LASF298:
 12239 1648 43795F50 		.ascii	"Cy_Prot_ConfigPpuFixedSlaveAtt\000"
 12239      726F745F 
 12239      436F6E66 
 12239      69675070 
 12239      75466978 
 12240              	.LASF242:
 12241 1667 63795F65 		.ascii	"cy_en_prot_size_t\000"
 12241      6E5F7072 
 12241      6F745F73 
 12241      697A655F 
 12241      7400
 12242              	.LASF313:
 12243 1679 43795F50 		.ascii	"Cy_Prot_ConfigPpuFixedSlMasterStruct\000"
 12243      726F745F 
 12243      436F6E66 
 12243      69675070 
 12243      75466978 
ARM GAS  C:\Users\JC\AppData\Local\Temp\ccU1E72d.s 			page 284


 12244              		.ident	"GCC: (GNU Tools for ARM Embedded Processors) 5.4.1 20160609 (release) [ARM/embedded-5-bran
