ARM GAS  C:\Users\JC\AppData\Local\Temp\ccY7kCY2.s 			page 1


   1              		.syntax unified
   2              		.cpu cortex-m0plus
   3              		.fpu softvfp
   4              		.eabi_attribute 20, 1
   5              		.eabi_attribute 21, 1
   6              		.eabi_attribute 23, 3
   7              		.eabi_attribute 24, 1
   8              		.eabi_attribute 25, 1
   9              		.eabi_attribute 26, 1
  10              		.eabi_attribute 30, 6
  11              		.eabi_attribute 34, 0
  12              		.eabi_attribute 18, 4
  13              		.thumb
  14              		.syntax unified
  15              		.file	"cy_scb_i2c.c"
  16              		.text
  17              	.Ltext0:
  18              		.cfi_sections	.debug_frame
  19              		.section	.text.Cy_SCB_ReadRxFifo,"ax",%progbits
  20              		.align	2
  21              		.code	16
  22              		.thumb_func
  23              		.type	Cy_SCB_ReadRxFifo, %function
  24              	Cy_SCB_ReadRxFifo:
  25              	.LFB79:
  26              		.file 1 "Generated_Source\\PSoC6\\pdl\\drivers\\peripheral\\scb\\cy_scb_common.h"
   1:Generated_Source\PSoC6\pdl\drivers\peripheral\scb/cy_scb_common.h **** /***************************************************************************//**
   2:Generated_Source\PSoC6\pdl\drivers\peripheral\scb/cy_scb_common.h **** * \file cy_scb_common.h
   3:Generated_Source\PSoC6\pdl\drivers\peripheral\scb/cy_scb_common.h **** * \version 2.30
   4:Generated_Source\PSoC6\pdl\drivers\peripheral\scb/cy_scb_common.h **** *
   5:Generated_Source\PSoC6\pdl\drivers\peripheral\scb/cy_scb_common.h **** * Provides common API declarations of the SCB driver.
   6:Generated_Source\PSoC6\pdl\drivers\peripheral\scb/cy_scb_common.h **** *
   7:Generated_Source\PSoC6\pdl\drivers\peripheral\scb/cy_scb_common.h **** ********************************************************************************
   8:Generated_Source\PSoC6\pdl\drivers\peripheral\scb/cy_scb_common.h **** * \copyright
   9:Generated_Source\PSoC6\pdl\drivers\peripheral\scb/cy_scb_common.h **** * Copyright 2016-2021, Cypress Semiconductor Corporation.  All rights reserved.
  10:Generated_Source\PSoC6\pdl\drivers\peripheral\scb/cy_scb_common.h **** * You may use this file only in accordance with the license, terms, conditions,
  11:Generated_Source\PSoC6\pdl\drivers\peripheral\scb/cy_scb_common.h **** * disclaimers, and limitations in the end user license agreement accompanying
  12:Generated_Source\PSoC6\pdl\drivers\peripheral\scb/cy_scb_common.h **** * the software package with which this file was provided.
  13:Generated_Source\PSoC6\pdl\drivers\peripheral\scb/cy_scb_common.h **** *******************************************************************************/
  14:Generated_Source\PSoC6\pdl\drivers\peripheral\scb/cy_scb_common.h **** 
  15:Generated_Source\PSoC6\pdl\drivers\peripheral\scb/cy_scb_common.h **** /**
  16:Generated_Source\PSoC6\pdl\drivers\peripheral\scb/cy_scb_common.h **** * \addtogroup group_scb
  17:Generated_Source\PSoC6\pdl\drivers\peripheral\scb/cy_scb_common.h **** * \{
  18:Generated_Source\PSoC6\pdl\drivers\peripheral\scb/cy_scb_common.h **** * The Serial Communications Block (SCB) supports three serial communication
  19:Generated_Source\PSoC6\pdl\drivers\peripheral\scb/cy_scb_common.h **** * protocols: Serial Peripheral Interface (SPI), Universal Asynchronous Receiver
  20:Generated_Source\PSoC6\pdl\drivers\peripheral\scb/cy_scb_common.h **** * Transmitter (UART), and Inter Integrated Circuit (I2C or IIC). Only one of
  21:Generated_Source\PSoC6\pdl\drivers\peripheral\scb/cy_scb_common.h **** * the protocols is supported by an SCB at any given time.
  22:Generated_Source\PSoC6\pdl\drivers\peripheral\scb/cy_scb_common.h **** *
  23:Generated_Source\PSoC6\pdl\drivers\peripheral\scb/cy_scb_common.h **** * The functions and other declarations used in this driver are in cy_scb_spi.h,
  24:Generated_Source\PSoC6\pdl\drivers\peripheral\scb/cy_scb_common.h **** * cy_scb_uart.h, cy_scb_ezi2c.h, cy_scb_i2c.h respectively. Include cy_pdl.h
  25:Generated_Source\PSoC6\pdl\drivers\peripheral\scb/cy_scb_common.h **** * (ModusToolbox only) to get access to all functions and declarations in the PDL.
  26:Generated_Source\PSoC6\pdl\drivers\peripheral\scb/cy_scb_common.h **** 
  27:Generated_Source\PSoC6\pdl\drivers\peripheral\scb/cy_scb_common.h **** * \defgroup group_scb_common Common
  28:Generated_Source\PSoC6\pdl\drivers\peripheral\scb/cy_scb_common.h **** * \defgroup group_scb_ezi2c  EZI2C (SCB)
  29:Generated_Source\PSoC6\pdl\drivers\peripheral\scb/cy_scb_common.h **** * \defgroup group_scb_i2c    I2C (SCB)
  30:Generated_Source\PSoC6\pdl\drivers\peripheral\scb/cy_scb_common.h **** * \defgroup group_scb_spi    SPI (SCB)
  31:Generated_Source\PSoC6\pdl\drivers\peripheral\scb/cy_scb_common.h **** * \defgroup group_scb_uart   UART (SCB)
ARM GAS  C:\Users\JC\AppData\Local\Temp\ccY7kCY2.s 			page 2


  32:Generated_Source\PSoC6\pdl\drivers\peripheral\scb/cy_scb_common.h **** * \} */
  33:Generated_Source\PSoC6\pdl\drivers\peripheral\scb/cy_scb_common.h **** 
  34:Generated_Source\PSoC6\pdl\drivers\peripheral\scb/cy_scb_common.h **** /**
  35:Generated_Source\PSoC6\pdl\drivers\peripheral\scb/cy_scb_common.h **** * \addtogroup group_scb_common
  36:Generated_Source\PSoC6\pdl\drivers\peripheral\scb/cy_scb_common.h **** * \{
  37:Generated_Source\PSoC6\pdl\drivers\peripheral\scb/cy_scb_common.h **** *
  38:Generated_Source\PSoC6\pdl\drivers\peripheral\scb/cy_scb_common.h **** * Common API for the Serial Communication Block.
  39:Generated_Source\PSoC6\pdl\drivers\peripheral\scb/cy_scb_common.h **** *
  40:Generated_Source\PSoC6\pdl\drivers\peripheral\scb/cy_scb_common.h **** * This is the common API that provides an interface to the SCB hardware.
  41:Generated_Source\PSoC6\pdl\drivers\peripheral\scb/cy_scb_common.h **** * The I2C, SPI, and UART drivers use this common API.
  42:Generated_Source\PSoC6\pdl\drivers\peripheral\scb/cy_scb_common.h **** * Most users will use individual drivers and do not need to use the common
  43:Generated_Source\PSoC6\pdl\drivers\peripheral\scb/cy_scb_common.h **** * API for the SCB. However, you can use the common SCB API to implement
  44:Generated_Source\PSoC6\pdl\drivers\peripheral\scb/cy_scb_common.h **** * a custom driver based on the SCB hardware.
  45:Generated_Source\PSoC6\pdl\drivers\peripheral\scb/cy_scb_common.h **** *
  46:Generated_Source\PSoC6\pdl\drivers\peripheral\scb/cy_scb_common.h **** * The functions and other declarations used in this part of the driver are in
  47:Generated_Source\PSoC6\pdl\drivers\peripheral\scb/cy_scb_common.h **** * cy_scb_common.h. You can include either of cy_scb_spi.h, cy_scb_uart.h,
  48:Generated_Source\PSoC6\pdl\drivers\peripheral\scb/cy_scb_common.h **** * cy_scb_ezi2c.h, cy_scb_i2c.h depending on the desired functionality.
  49:Generated_Source\PSoC6\pdl\drivers\peripheral\scb/cy_scb_common.h **** * You can also include cy_pdl.h to get access to all functions and declarations
  50:Generated_Source\PSoC6\pdl\drivers\peripheral\scb/cy_scb_common.h **** * in the PDL.
  51:Generated_Source\PSoC6\pdl\drivers\peripheral\scb/cy_scb_common.h **** *
  52:Generated_Source\PSoC6\pdl\drivers\peripheral\scb/cy_scb_common.h **** *******************************************************************************
  53:Generated_Source\PSoC6\pdl\drivers\peripheral\scb/cy_scb_common.h **** * \section group_scb_common_configuration Configuration Considerations
  54:Generated_Source\PSoC6\pdl\drivers\peripheral\scb/cy_scb_common.h **** ********************************************************************************
  55:Generated_Source\PSoC6\pdl\drivers\peripheral\scb/cy_scb_common.h **** * This is not a driver and it does not require configuration.
  56:Generated_Source\PSoC6\pdl\drivers\peripheral\scb/cy_scb_common.h **** *
  57:Generated_Source\PSoC6\pdl\drivers\peripheral\scb/cy_scb_common.h **** *******************************************************************************
  58:Generated_Source\PSoC6\pdl\drivers\peripheral\scb/cy_scb_common.h **** * \section group_scb_common_more_information More Information
  59:Generated_Source\PSoC6\pdl\drivers\peripheral\scb/cy_scb_common.h **** *******************************************************************************
  60:Generated_Source\PSoC6\pdl\drivers\peripheral\scb/cy_scb_common.h **** * Refer to the SCB chapter of the technical reference manual (TRM).
  61:Generated_Source\PSoC6\pdl\drivers\peripheral\scb/cy_scb_common.h **** *
  62:Generated_Source\PSoC6\pdl\drivers\peripheral\scb/cy_scb_common.h **** *******************************************************************************
  63:Generated_Source\PSoC6\pdl\drivers\peripheral\scb/cy_scb_common.h **** * \section group_scb_common_MISRA MISRA-C Compliance
  64:Generated_Source\PSoC6\pdl\drivers\peripheral\scb/cy_scb_common.h **** *******************************************************************************
  65:Generated_Source\PSoC6\pdl\drivers\peripheral\scb/cy_scb_common.h **** * <table class="doxtable">
  66:Generated_Source\PSoC6\pdl\drivers\peripheral\scb/cy_scb_common.h **** *   <tr>
  67:Generated_Source\PSoC6\pdl\drivers\peripheral\scb/cy_scb_common.h **** *     <th>MISRA rule</th>
  68:Generated_Source\PSoC6\pdl\drivers\peripheral\scb/cy_scb_common.h **** *     <th>Rule Class (Required/Advisory)</th>
  69:Generated_Source\PSoC6\pdl\drivers\peripheral\scb/cy_scb_common.h **** *     <th>Rule Description</th>
  70:Generated_Source\PSoC6\pdl\drivers\peripheral\scb/cy_scb_common.h **** *     <th>Description of Deviation(s)</th>
  71:Generated_Source\PSoC6\pdl\drivers\peripheral\scb/cy_scb_common.h **** *   </tr>
  72:Generated_Source\PSoC6\pdl\drivers\peripheral\scb/cy_scb_common.h **** *   <tr>
  73:Generated_Source\PSoC6\pdl\drivers\peripheral\scb/cy_scb_common.h **** *     <td>11.4</td>
  74:Generated_Source\PSoC6\pdl\drivers\peripheral\scb/cy_scb_common.h **** *     <td>A</td>
  75:Generated_Source\PSoC6\pdl\drivers\peripheral\scb/cy_scb_common.h **** *     <td>A cast should not be performed between a pointer to object type and
  76:Generated_Source\PSoC6\pdl\drivers\peripheral\scb/cy_scb_common.h **** *         a different pointer to object type.</td>
  77:Generated_Source\PSoC6\pdl\drivers\peripheral\scb/cy_scb_common.h **** *     <td>The pointer to the buffer memory is void to allow handling of
  78:Generated_Source\PSoC6\pdl\drivers\peripheral\scb/cy_scb_common.h **** *         different data types: uint8_t (4-8 bits) or uint16_t (9-16 bits).
  79:Generated_Source\PSoC6\pdl\drivers\peripheral\scb/cy_scb_common.h **** *         The cast operation is safe because the configuration is verified
  80:Generated_Source\PSoC6\pdl\drivers\peripheral\scb/cy_scb_common.h **** *         before operation is performed.
  81:Generated_Source\PSoC6\pdl\drivers\peripheral\scb/cy_scb_common.h **** *         </td>
  82:Generated_Source\PSoC6\pdl\drivers\peripheral\scb/cy_scb_common.h **** *   </tr>
  83:Generated_Source\PSoC6\pdl\drivers\peripheral\scb/cy_scb_common.h **** * </table>
  84:Generated_Source\PSoC6\pdl\drivers\peripheral\scb/cy_scb_common.h **** *
  85:Generated_Source\PSoC6\pdl\drivers\peripheral\scb/cy_scb_common.h **** *******************************************************************************
  86:Generated_Source\PSoC6\pdl\drivers\peripheral\scb/cy_scb_common.h **** * \section group_scb_common_changelog Changelog
  87:Generated_Source\PSoC6\pdl\drivers\peripheral\scb/cy_scb_common.h **** *******************************************************************************
  88:Generated_Source\PSoC6\pdl\drivers\peripheral\scb/cy_scb_common.h **** * <table class="doxtable">
ARM GAS  C:\Users\JC\AppData\Local\Temp\ccY7kCY2.s 			page 3


  89:Generated_Source\PSoC6\pdl\drivers\peripheral\scb/cy_scb_common.h **** *   <tr><th>Version</th><th>Changes</th><th>Reason for Change</th></tr>
  90:Generated_Source\PSoC6\pdl\drivers\peripheral\scb/cy_scb_common.h **** *   <tr>
  91:Generated_Source\PSoC6\pdl\drivers\peripheral\scb/cy_scb_common.h **** *     <td rowspan="2">2.30</td>
  92:Generated_Source\PSoC6\pdl\drivers\peripheral\scb/cy_scb_common.h **** *     <td>Updated \ref Cy_SCB_I2C_SlaveInterrupt with check if address byte
  93:Generated_Source\PSoC6\pdl\drivers\peripheral\scb/cy_scb_common.h **** *           received.</td>
  94:Generated_Source\PSoC6\pdl\drivers\peripheral\scb/cy_scb_common.h **** *     <td>Fixed the issue of treating the address byte as data during a repeated start
  95:Generated_Source\PSoC6\pdl\drivers\peripheral\scb/cy_scb_common.h **** *         after a write transaction.</td>
  96:Generated_Source\PSoC6\pdl\drivers\peripheral\scb/cy_scb_common.h **** *   </tr>
  97:Generated_Source\PSoC6\pdl\drivers\peripheral\scb/cy_scb_common.h **** *   <tr>
  98:Generated_Source\PSoC6\pdl\drivers\peripheral\scb/cy_scb_common.h **** *     <td>Updated \ref Cy_SCB_UART_GetNumInRingBuffer to take the correct maximum
  99:Generated_Source\PSoC6\pdl\drivers\peripheral\scb/cy_scb_common.h **** *           size of the ring buffer.</td>
 100:Generated_Source\PSoC6\pdl\drivers\peripheral\scb/cy_scb_common.h **** *     <td>Fixed a possible incorrect return value due to an overflow.</td>
 101:Generated_Source\PSoC6\pdl\drivers\peripheral\scb/cy_scb_common.h **** *   </tr>
 102:Generated_Source\PSoC6\pdl\drivers\peripheral\scb/cy_scb_common.h **** *   <tr>
 103:Generated_Source\PSoC6\pdl\drivers\peripheral\scb/cy_scb_common.h **** *     <td rowspan="2">2.20</td>
 104:Generated_Source\PSoC6\pdl\drivers\peripheral\scb/cy_scb_common.h **** *     <td>Flattened the organization of the driver source code into the single
 105:Generated_Source\PSoC6\pdl\drivers\peripheral\scb/cy_scb_common.h **** *         source directory and the single include directory.
 106:Generated_Source\PSoC6\pdl\drivers\peripheral\scb/cy_scb_common.h **** *     </td>
 107:Generated_Source\PSoC6\pdl\drivers\peripheral\scb/cy_scb_common.h **** *     <td>Driver library directory-structure simplification.</td>
 108:Generated_Source\PSoC6\pdl\drivers\peripheral\scb/cy_scb_common.h **** *   </tr>
 109:Generated_Source\PSoC6\pdl\drivers\peripheral\scb/cy_scb_common.h **** *   <tr>
 110:Generated_Source\PSoC6\pdl\drivers\peripheral\scb/cy_scb_common.h **** *     <td>Added register access layer. Use register access macros instead
 111:Generated_Source\PSoC6\pdl\drivers\peripheral\scb/cy_scb_common.h **** *         of direct register access using dereferenced pointers.</td>
 112:Generated_Source\PSoC6\pdl\drivers\peripheral\scb/cy_scb_common.h **** *     <td>Makes register access device-independent, so that the PDL does
 113:Generated_Source\PSoC6\pdl\drivers\peripheral\scb/cy_scb_common.h **** *         not need to be recompiled for each supported part number.</td>
 114:Generated_Source\PSoC6\pdl\drivers\peripheral\scb/cy_scb_common.h **** *   </tr>
 115:Generated_Source\PSoC6\pdl\drivers\peripheral\scb/cy_scb_common.h **** *   <tr>
 116:Generated_Source\PSoC6\pdl\drivers\peripheral\scb/cy_scb_common.h **** *     <td>2.10</td>
 117:Generated_Source\PSoC6\pdl\drivers\peripheral\scb/cy_scb_common.h **** *     <td>None.</td>
 118:Generated_Source\PSoC6\pdl\drivers\peripheral\scb/cy_scb_common.h **** *     <td>SCB I2C driver updated.</td>
 119:Generated_Source\PSoC6\pdl\drivers\peripheral\scb/cy_scb_common.h **** *   </tr>
 120:Generated_Source\PSoC6\pdl\drivers\peripheral\scb/cy_scb_common.h **** *   <tr>
 121:Generated_Source\PSoC6\pdl\drivers\peripheral\scb/cy_scb_common.h **** *     <td rowspan="2"> 2.0</td>
 122:Generated_Source\PSoC6\pdl\drivers\peripheral\scb/cy_scb_common.h **** *     <td>Added parameters validation for public API.
 123:Generated_Source\PSoC6\pdl\drivers\peripheral\scb/cy_scb_common.h **** *     <td></td>
 124:Generated_Source\PSoC6\pdl\drivers\peripheral\scb/cy_scb_common.h **** *   </tr>
 125:Generated_Source\PSoC6\pdl\drivers\peripheral\scb/cy_scb_common.h **** *   <tr>
 126:Generated_Source\PSoC6\pdl\drivers\peripheral\scb/cy_scb_common.h **** *     <td>Fixed functions which return interrupt status to return only defined
 127:Generated_Source\PSoC6\pdl\drivers\peripheral\scb/cy_scb_common.h **** *         set of interrupt statuses.</td>
 128:Generated_Source\PSoC6\pdl\drivers\peripheral\scb/cy_scb_common.h **** *     <td></td>
 129:Generated_Source\PSoC6\pdl\drivers\peripheral\scb/cy_scb_common.h **** *   </tr>
 130:Generated_Source\PSoC6\pdl\drivers\peripheral\scb/cy_scb_common.h **** *   <tr>
 131:Generated_Source\PSoC6\pdl\drivers\peripheral\scb/cy_scb_common.h **** *     <td>1.0</td>
 132:Generated_Source\PSoC6\pdl\drivers\peripheral\scb/cy_scb_common.h **** *     <td>Initial version.</td>
 133:Generated_Source\PSoC6\pdl\drivers\peripheral\scb/cy_scb_common.h **** *     <td></td>
 134:Generated_Source\PSoC6\pdl\drivers\peripheral\scb/cy_scb_common.h **** *   </tr>
 135:Generated_Source\PSoC6\pdl\drivers\peripheral\scb/cy_scb_common.h **** * </table>
 136:Generated_Source\PSoC6\pdl\drivers\peripheral\scb/cy_scb_common.h **** *
 137:Generated_Source\PSoC6\pdl\drivers\peripheral\scb/cy_scb_common.h **** * \defgroup group_scb_common_macros Macros
 138:Generated_Source\PSoC6\pdl\drivers\peripheral\scb/cy_scb_common.h **** * \defgroup group_scb_common_functions Functions
 139:Generated_Source\PSoC6\pdl\drivers\peripheral\scb/cy_scb_common.h **** * \defgroup group_scb_common_data_structures Data Structures
 140:Generated_Source\PSoC6\pdl\drivers\peripheral\scb/cy_scb_common.h **** *
 141:Generated_Source\PSoC6\pdl\drivers\peripheral\scb/cy_scb_common.h **** */
 142:Generated_Source\PSoC6\pdl\drivers\peripheral\scb/cy_scb_common.h **** 
 143:Generated_Source\PSoC6\pdl\drivers\peripheral\scb/cy_scb_common.h **** #if !defined(CY_SCB_COMMON_H)
 144:Generated_Source\PSoC6\pdl\drivers\peripheral\scb/cy_scb_common.h **** #define CY_SCB_COMMON_H
 145:Generated_Source\PSoC6\pdl\drivers\peripheral\scb/cy_scb_common.h **** 
ARM GAS  C:\Users\JC\AppData\Local\Temp\ccY7kCY2.s 			page 4


 146:Generated_Source\PSoC6\pdl\drivers\peripheral\scb/cy_scb_common.h **** #include <stdint.h>
 147:Generated_Source\PSoC6\pdl\drivers\peripheral\scb/cy_scb_common.h **** #include <stddef.h>
 148:Generated_Source\PSoC6\pdl\drivers\peripheral\scb/cy_scb_common.h **** #include <stdbool.h>
 149:Generated_Source\PSoC6\pdl\drivers\peripheral\scb/cy_scb_common.h **** #include "cy_device.h"
 150:Generated_Source\PSoC6\pdl\drivers\peripheral\scb/cy_scb_common.h **** #include "cy_device_headers.h"
 151:Generated_Source\PSoC6\pdl\drivers\peripheral\scb/cy_scb_common.h **** #include "cy_syslib.h"
 152:Generated_Source\PSoC6\pdl\drivers\peripheral\scb/cy_scb_common.h **** #include "cy_syspm.h"
 153:Generated_Source\PSoC6\pdl\drivers\peripheral\scb/cy_scb_common.h **** 
 154:Generated_Source\PSoC6\pdl\drivers\peripheral\scb/cy_scb_common.h **** #ifdef CY_IP_MXSCB
 155:Generated_Source\PSoC6\pdl\drivers\peripheral\scb/cy_scb_common.h **** 
 156:Generated_Source\PSoC6\pdl\drivers\peripheral\scb/cy_scb_common.h **** #if defined(__cplusplus)
 157:Generated_Source\PSoC6\pdl\drivers\peripheral\scb/cy_scb_common.h **** extern "C" {
 158:Generated_Source\PSoC6\pdl\drivers\peripheral\scb/cy_scb_common.h **** #endif
 159:Generated_Source\PSoC6\pdl\drivers\peripheral\scb/cy_scb_common.h **** 
 160:Generated_Source\PSoC6\pdl\drivers\peripheral\scb/cy_scb_common.h **** 
 161:Generated_Source\PSoC6\pdl\drivers\peripheral\scb/cy_scb_common.h **** /*******************************************************************************
 162:Generated_Source\PSoC6\pdl\drivers\peripheral\scb/cy_scb_common.h **** *                            Function Prototypes
 163:Generated_Source\PSoC6\pdl\drivers\peripheral\scb/cy_scb_common.h **** *******************************************************************************/
 164:Generated_Source\PSoC6\pdl\drivers\peripheral\scb/cy_scb_common.h **** 
 165:Generated_Source\PSoC6\pdl\drivers\peripheral\scb/cy_scb_common.h **** /**
 166:Generated_Source\PSoC6\pdl\drivers\peripheral\scb/cy_scb_common.h **** * \addtogroup group_scb_common_functions
 167:Generated_Source\PSoC6\pdl\drivers\peripheral\scb/cy_scb_common.h **** * \{
 168:Generated_Source\PSoC6\pdl\drivers\peripheral\scb/cy_scb_common.h **** */
 169:Generated_Source\PSoC6\pdl\drivers\peripheral\scb/cy_scb_common.h **** __STATIC_INLINE uint32_t Cy_SCB_ReadRxFifo    (CySCB_Type const *base);
 170:Generated_Source\PSoC6\pdl\drivers\peripheral\scb/cy_scb_common.h **** __STATIC_INLINE void     Cy_SCB_SetRxFifoLevel(CySCB_Type *base, uint32_t level);
 171:Generated_Source\PSoC6\pdl\drivers\peripheral\scb/cy_scb_common.h **** __STATIC_INLINE uint32_t Cy_SCB_GetNumInRxFifo(CySCB_Type const *base);
 172:Generated_Source\PSoC6\pdl\drivers\peripheral\scb/cy_scb_common.h **** __STATIC_INLINE uint32_t Cy_SCB_GetRxSrValid  (CySCB_Type const *base);
 173:Generated_Source\PSoC6\pdl\drivers\peripheral\scb/cy_scb_common.h **** __STATIC_INLINE void     Cy_SCB_ClearRxFifo   (CySCB_Type *base);
 174:Generated_Source\PSoC6\pdl\drivers\peripheral\scb/cy_scb_common.h **** 
 175:Generated_Source\PSoC6\pdl\drivers\peripheral\scb/cy_scb_common.h **** __STATIC_INLINE void     Cy_SCB_WriteTxFifo   (CySCB_Type *base, uint32_t data);
 176:Generated_Source\PSoC6\pdl\drivers\peripheral\scb/cy_scb_common.h **** __STATIC_INLINE void     Cy_SCB_SetTxFifoLevel(CySCB_Type *base, uint32_t level);
 177:Generated_Source\PSoC6\pdl\drivers\peripheral\scb/cy_scb_common.h **** __STATIC_INLINE uint32_t Cy_SCB_GetNumInTxFifo(CySCB_Type const *base);
 178:Generated_Source\PSoC6\pdl\drivers\peripheral\scb/cy_scb_common.h **** __STATIC_INLINE uint32_t Cy_SCB_GetTxSrValid  (CySCB_Type const *base);
 179:Generated_Source\PSoC6\pdl\drivers\peripheral\scb/cy_scb_common.h **** __STATIC_INLINE bool     Cy_SCB_IsTxComplete  (CySCB_Type const *base);
 180:Generated_Source\PSoC6\pdl\drivers\peripheral\scb/cy_scb_common.h **** __STATIC_INLINE void     Cy_SCB_ClearTxFifo   (CySCB_Type *base);
 181:Generated_Source\PSoC6\pdl\drivers\peripheral\scb/cy_scb_common.h **** 
 182:Generated_Source\PSoC6\pdl\drivers\peripheral\scb/cy_scb_common.h **** __STATIC_INLINE void     Cy_SCB_SetByteMode(CySCB_Type *base, bool byteMode);
 183:Generated_Source\PSoC6\pdl\drivers\peripheral\scb/cy_scb_common.h **** 
 184:Generated_Source\PSoC6\pdl\drivers\peripheral\scb/cy_scb_common.h **** __STATIC_INLINE uint32_t Cy_SCB_GetInterruptCause(CySCB_Type const *base);
 185:Generated_Source\PSoC6\pdl\drivers\peripheral\scb/cy_scb_common.h **** 
 186:Generated_Source\PSoC6\pdl\drivers\peripheral\scb/cy_scb_common.h **** __STATIC_INLINE uint32_t Cy_SCB_GetRxInterruptStatus(CySCB_Type const *base);
 187:Generated_Source\PSoC6\pdl\drivers\peripheral\scb/cy_scb_common.h **** __STATIC_INLINE void     Cy_SCB_SetRxInterruptMask  (CySCB_Type *base, uint32_t interruptMask);
 188:Generated_Source\PSoC6\pdl\drivers\peripheral\scb/cy_scb_common.h **** __STATIC_INLINE uint32_t Cy_SCB_GetRxInterruptMask  (CySCB_Type const *base);
 189:Generated_Source\PSoC6\pdl\drivers\peripheral\scb/cy_scb_common.h **** __STATIC_INLINE uint32_t Cy_SCB_GetRxInterruptStatusMasked(CySCB_Type const *base);
 190:Generated_Source\PSoC6\pdl\drivers\peripheral\scb/cy_scb_common.h **** __STATIC_INLINE void     Cy_SCB_ClearRxInterrupt    (CySCB_Type *base, uint32_t interruptMask);
 191:Generated_Source\PSoC6\pdl\drivers\peripheral\scb/cy_scb_common.h **** __STATIC_INLINE void     Cy_SCB_SetRxInterrupt      (CySCB_Type *base, uint32_t interruptMask);
 192:Generated_Source\PSoC6\pdl\drivers\peripheral\scb/cy_scb_common.h **** 
 193:Generated_Source\PSoC6\pdl\drivers\peripheral\scb/cy_scb_common.h **** __STATIC_INLINE uint32_t Cy_SCB_GetTxInterruptStatus(CySCB_Type const *base);
 194:Generated_Source\PSoC6\pdl\drivers\peripheral\scb/cy_scb_common.h **** __STATIC_INLINE void     Cy_SCB_SetTxInterruptMask  (CySCB_Type *base, uint32_t interruptMask);
 195:Generated_Source\PSoC6\pdl\drivers\peripheral\scb/cy_scb_common.h **** __STATIC_INLINE uint32_t Cy_SCB_GetTxInterruptMask  (CySCB_Type const *base);
 196:Generated_Source\PSoC6\pdl\drivers\peripheral\scb/cy_scb_common.h **** __STATIC_INLINE uint32_t Cy_SCB_GetTxInterruptStatusMasked(CySCB_Type const *base);
 197:Generated_Source\PSoC6\pdl\drivers\peripheral\scb/cy_scb_common.h **** __STATIC_INLINE void     Cy_SCB_ClearTxInterrupt    (CySCB_Type *base, uint32_t interruptMask);
 198:Generated_Source\PSoC6\pdl\drivers\peripheral\scb/cy_scb_common.h **** __STATIC_INLINE void     Cy_SCB_SetTxInterrupt      (CySCB_Type *base, uint32_t interruptMask);
 199:Generated_Source\PSoC6\pdl\drivers\peripheral\scb/cy_scb_common.h **** 
 200:Generated_Source\PSoC6\pdl\drivers\peripheral\scb/cy_scb_common.h **** __STATIC_INLINE uint32_t Cy_SCB_GetMasterInterruptStatus(CySCB_Type const *base);
 201:Generated_Source\PSoC6\pdl\drivers\peripheral\scb/cy_scb_common.h **** __STATIC_INLINE void     Cy_SCB_SetMasterInterruptMask  (CySCB_Type *base, uint32_t interruptMask);
 202:Generated_Source\PSoC6\pdl\drivers\peripheral\scb/cy_scb_common.h **** __STATIC_INLINE uint32_t Cy_SCB_GetMasterInterruptMask  (CySCB_Type const *base);
ARM GAS  C:\Users\JC\AppData\Local\Temp\ccY7kCY2.s 			page 5


 203:Generated_Source\PSoC6\pdl\drivers\peripheral\scb/cy_scb_common.h **** __STATIC_INLINE uint32_t Cy_SCB_GetMasterInterruptStatusMasked(CySCB_Type const *base);
 204:Generated_Source\PSoC6\pdl\drivers\peripheral\scb/cy_scb_common.h **** __STATIC_INLINE void     Cy_SCB_ClearMasterInterrupt    (CySCB_Type *base, uint32_t interruptMask);
 205:Generated_Source\PSoC6\pdl\drivers\peripheral\scb/cy_scb_common.h **** __STATIC_INLINE void     Cy_SCB_SetMasterInterrupt      (CySCB_Type *base, uint32_t interruptMask);
 206:Generated_Source\PSoC6\pdl\drivers\peripheral\scb/cy_scb_common.h **** 
 207:Generated_Source\PSoC6\pdl\drivers\peripheral\scb/cy_scb_common.h **** __STATIC_INLINE uint32_t Cy_SCB_GetSlaveInterruptStatus(CySCB_Type const *base);
 208:Generated_Source\PSoC6\pdl\drivers\peripheral\scb/cy_scb_common.h **** __STATIC_INLINE void     Cy_SCB_SetSlaveInterruptMask  (CySCB_Type *base, uint32_t interruptMask);
 209:Generated_Source\PSoC6\pdl\drivers\peripheral\scb/cy_scb_common.h **** __STATIC_INLINE uint32_t Cy_SCB_GetSlaveInterruptMask  (CySCB_Type const *base);
 210:Generated_Source\PSoC6\pdl\drivers\peripheral\scb/cy_scb_common.h **** __STATIC_INLINE uint32_t Cy_SCB_GetSlaveInterruptStatusMasked(CySCB_Type const *base);
 211:Generated_Source\PSoC6\pdl\drivers\peripheral\scb/cy_scb_common.h **** __STATIC_INLINE void     Cy_SCB_ClearSlaveInterrupt    (CySCB_Type *base, uint32_t interruptMask);
 212:Generated_Source\PSoC6\pdl\drivers\peripheral\scb/cy_scb_common.h **** __STATIC_INLINE void     Cy_SCB_SetSlaveInterrupt      (CySCB_Type *base, uint32_t interruptMask);
 213:Generated_Source\PSoC6\pdl\drivers\peripheral\scb/cy_scb_common.h **** 
 214:Generated_Source\PSoC6\pdl\drivers\peripheral\scb/cy_scb_common.h **** __STATIC_INLINE uint32_t Cy_SCB_GetI2CInterruptStatus(CySCB_Type const *base);
 215:Generated_Source\PSoC6\pdl\drivers\peripheral\scb/cy_scb_common.h **** __STATIC_INLINE void     Cy_SCB_SetI2CInterruptMask  (CySCB_Type *base, uint32_t interruptMask);
 216:Generated_Source\PSoC6\pdl\drivers\peripheral\scb/cy_scb_common.h **** __STATIC_INLINE uint32_t Cy_SCB_GetI2CInterruptMask  (CySCB_Type const *base);
 217:Generated_Source\PSoC6\pdl\drivers\peripheral\scb/cy_scb_common.h **** __STATIC_INLINE uint32_t Cy_SCB_GetI2CInterruptStatusMasked(CySCB_Type const *base);
 218:Generated_Source\PSoC6\pdl\drivers\peripheral\scb/cy_scb_common.h **** __STATIC_INLINE void     Cy_SCB_ClearI2CInterrupt    (CySCB_Type *base, uint32_t interruptMask);
 219:Generated_Source\PSoC6\pdl\drivers\peripheral\scb/cy_scb_common.h **** 
 220:Generated_Source\PSoC6\pdl\drivers\peripheral\scb/cy_scb_common.h **** __STATIC_INLINE uint32_t Cy_SCB_GetSpiInterruptStatus(CySCB_Type const *base);
 221:Generated_Source\PSoC6\pdl\drivers\peripheral\scb/cy_scb_common.h **** __STATIC_INLINE void     Cy_SCB_SetSpiInterruptMask  (CySCB_Type *base, uint32_t interruptMask);
 222:Generated_Source\PSoC6\pdl\drivers\peripheral\scb/cy_scb_common.h **** __STATIC_INLINE uint32_t Cy_SCB_GetSpiInterruptMask  (CySCB_Type const *base);
 223:Generated_Source\PSoC6\pdl\drivers\peripheral\scb/cy_scb_common.h **** __STATIC_INLINE uint32_t Cy_SCB_GetSpiInterruptStatusMasked(CySCB_Type const *base);
 224:Generated_Source\PSoC6\pdl\drivers\peripheral\scb/cy_scb_common.h **** __STATIC_INLINE void     Cy_SCB_ClearSpiInterrupt    (CySCB_Type *base, uint32_t interruptMask);
 225:Generated_Source\PSoC6\pdl\drivers\peripheral\scb/cy_scb_common.h **** 
 226:Generated_Source\PSoC6\pdl\drivers\peripheral\scb/cy_scb_common.h **** 
 227:Generated_Source\PSoC6\pdl\drivers\peripheral\scb/cy_scb_common.h **** /*******************************************************************************
 228:Generated_Source\PSoC6\pdl\drivers\peripheral\scb/cy_scb_common.h **** *                         Internal Function Prototypes
 229:Generated_Source\PSoC6\pdl\drivers\peripheral\scb/cy_scb_common.h **** *******************************************************************************/
 230:Generated_Source\PSoC6\pdl\drivers\peripheral\scb/cy_scb_common.h **** 
 231:Generated_Source\PSoC6\pdl\drivers\peripheral\scb/cy_scb_common.h **** /** \cond INTERNAL */
 232:Generated_Source\PSoC6\pdl\drivers\peripheral\scb/cy_scb_common.h **** void     Cy_SCB_ReadArrayNoCheck  (CySCB_Type const *base, void *buffer, uint32_t size);
 233:Generated_Source\PSoC6\pdl\drivers\peripheral\scb/cy_scb_common.h **** uint32_t Cy_SCB_ReadArray         (CySCB_Type const *base, void *buffer, uint32_t size);
 234:Generated_Source\PSoC6\pdl\drivers\peripheral\scb/cy_scb_common.h **** void     Cy_SCB_ReadArrayBlocking (CySCB_Type const *base, void *buffer, uint32_t size);
 235:Generated_Source\PSoC6\pdl\drivers\peripheral\scb/cy_scb_common.h **** uint32_t Cy_SCB_Write             (CySCB_Type *base, uint32_t data);
 236:Generated_Source\PSoC6\pdl\drivers\peripheral\scb/cy_scb_common.h **** void     Cy_SCB_WriteArrayNoCheck (CySCB_Type *base, void *buffer, uint32_t size);
 237:Generated_Source\PSoC6\pdl\drivers\peripheral\scb/cy_scb_common.h **** uint32_t Cy_SCB_WriteArray        (CySCB_Type *base, void *buffer, uint32_t size);
 238:Generated_Source\PSoC6\pdl\drivers\peripheral\scb/cy_scb_common.h **** void     Cy_SCB_WriteArrayBlocking(CySCB_Type *base, void *buffer, uint32_t size);
 239:Generated_Source\PSoC6\pdl\drivers\peripheral\scb/cy_scb_common.h **** void     Cy_SCB_WriteString       (CySCB_Type *base, char_t const string[]);
 240:Generated_Source\PSoC6\pdl\drivers\peripheral\scb/cy_scb_common.h **** void     Cy_SCB_WriteDefaultArrayNoCheck(CySCB_Type *base, uint32_t txData, uint32_t size);
 241:Generated_Source\PSoC6\pdl\drivers\peripheral\scb/cy_scb_common.h **** uint32_t Cy_SCB_WriteDefaultArray (CySCB_Type *base, uint32_t txData, uint32_t size);
 242:Generated_Source\PSoC6\pdl\drivers\peripheral\scb/cy_scb_common.h **** 
 243:Generated_Source\PSoC6\pdl\drivers\peripheral\scb/cy_scb_common.h **** __STATIC_INLINE uint32_t Cy_SCB_GetFifoSize (CySCB_Type const *base);
 244:Generated_Source\PSoC6\pdl\drivers\peripheral\scb/cy_scb_common.h **** __STATIC_INLINE void     Cy_SCB_FwBlockReset(CySCB_Type *base);
 245:Generated_Source\PSoC6\pdl\drivers\peripheral\scb/cy_scb_common.h **** __STATIC_INLINE bool     Cy_SCB_IsRxDataWidthByte(CySCB_Type const *base);
 246:Generated_Source\PSoC6\pdl\drivers\peripheral\scb/cy_scb_common.h **** __STATIC_INLINE bool     Cy_SCB_IsTxDataWidthByte(CySCB_Type const *base);
 247:Generated_Source\PSoC6\pdl\drivers\peripheral\scb/cy_scb_common.h **** __STATIC_INLINE uint32_t Cy_SCB_GetRxFifoLevel   (CySCB_Type const *base);
 248:Generated_Source\PSoC6\pdl\drivers\peripheral\scb/cy_scb_common.h **** /** \endcond */
 249:Generated_Source\PSoC6\pdl\drivers\peripheral\scb/cy_scb_common.h **** 
 250:Generated_Source\PSoC6\pdl\drivers\peripheral\scb/cy_scb_common.h **** /** \} group_scb_common_functions */
 251:Generated_Source\PSoC6\pdl\drivers\peripheral\scb/cy_scb_common.h **** 
 252:Generated_Source\PSoC6\pdl\drivers\peripheral\scb/cy_scb_common.h **** 
 253:Generated_Source\PSoC6\pdl\drivers\peripheral\scb/cy_scb_common.h **** /*******************************************************************************
 254:Generated_Source\PSoC6\pdl\drivers\peripheral\scb/cy_scb_common.h **** *                        API Constants
 255:Generated_Source\PSoC6\pdl\drivers\peripheral\scb/cy_scb_common.h **** *******************************************************************************/
 256:Generated_Source\PSoC6\pdl\drivers\peripheral\scb/cy_scb_common.h **** 
 257:Generated_Source\PSoC6\pdl\drivers\peripheral\scb/cy_scb_common.h **** /**
 258:Generated_Source\PSoC6\pdl\drivers\peripheral\scb/cy_scb_common.h **** * \addtogroup group_scb_common_macros
 259:Generated_Source\PSoC6\pdl\drivers\peripheral\scb/cy_scb_common.h **** * \{
ARM GAS  C:\Users\JC\AppData\Local\Temp\ccY7kCY2.s 			page 6


 260:Generated_Source\PSoC6\pdl\drivers\peripheral\scb/cy_scb_common.h **** */
 261:Generated_Source\PSoC6\pdl\drivers\peripheral\scb/cy_scb_common.h **** 
 262:Generated_Source\PSoC6\pdl\drivers\peripheral\scb/cy_scb_common.h **** /** Driver major version */
 263:Generated_Source\PSoC6\pdl\drivers\peripheral\scb/cy_scb_common.h **** #define CY_SCB_DRV_VERSION_MAJOR    (2)
 264:Generated_Source\PSoC6\pdl\drivers\peripheral\scb/cy_scb_common.h **** 
 265:Generated_Source\PSoC6\pdl\drivers\peripheral\scb/cy_scb_common.h **** /** Driver minor version */
 266:Generated_Source\PSoC6\pdl\drivers\peripheral\scb/cy_scb_common.h **** #define CY_SCB_DRV_VERSION_MINOR    (30)
 267:Generated_Source\PSoC6\pdl\drivers\peripheral\scb/cy_scb_common.h **** 
 268:Generated_Source\PSoC6\pdl\drivers\peripheral\scb/cy_scb_common.h **** /** SCB driver identifier */
 269:Generated_Source\PSoC6\pdl\drivers\peripheral\scb/cy_scb_common.h **** #define CY_SCB_ID           CY_PDL_DRV_ID(0x2AU)
 270:Generated_Source\PSoC6\pdl\drivers\peripheral\scb/cy_scb_common.h **** 
 271:Generated_Source\PSoC6\pdl\drivers\peripheral\scb/cy_scb_common.h **** /** Position for SCB driver sub mode */
 272:Generated_Source\PSoC6\pdl\drivers\peripheral\scb/cy_scb_common.h **** #define CY_SCB_SUB_MODE_Pos (13UL)
 273:Generated_Source\PSoC6\pdl\drivers\peripheral\scb/cy_scb_common.h **** 
 274:Generated_Source\PSoC6\pdl\drivers\peripheral\scb/cy_scb_common.h **** /** EZI2C mode identifier */
 275:Generated_Source\PSoC6\pdl\drivers\peripheral\scb/cy_scb_common.h **** #define CY_SCB_EZI2C_ID     (0x0UL << CY_SCB_SUB_MODE_Pos)
 276:Generated_Source\PSoC6\pdl\drivers\peripheral\scb/cy_scb_common.h **** 
 277:Generated_Source\PSoC6\pdl\drivers\peripheral\scb/cy_scb_common.h **** /** EZI2C mode identifier */
 278:Generated_Source\PSoC6\pdl\drivers\peripheral\scb/cy_scb_common.h **** #define CY_SCB_I2C_ID       (0x1UL << CY_SCB_SUB_MODE_Pos)
 279:Generated_Source\PSoC6\pdl\drivers\peripheral\scb/cy_scb_common.h **** 
 280:Generated_Source\PSoC6\pdl\drivers\peripheral\scb/cy_scb_common.h **** /** EZI2C mode identifier */
 281:Generated_Source\PSoC6\pdl\drivers\peripheral\scb/cy_scb_common.h **** #define CY_SCB_SPI_ID       (0x2UL << CY_SCB_SUB_MODE_Pos)
 282:Generated_Source\PSoC6\pdl\drivers\peripheral\scb/cy_scb_common.h **** 
 283:Generated_Source\PSoC6\pdl\drivers\peripheral\scb/cy_scb_common.h **** /** EZI2C mode identifier */
 284:Generated_Source\PSoC6\pdl\drivers\peripheral\scb/cy_scb_common.h **** #define CY_SCB_UART_ID      (0x3UL << CY_SCB_SUB_MODE_Pos)
 285:Generated_Source\PSoC6\pdl\drivers\peripheral\scb/cy_scb_common.h **** 
 286:Generated_Source\PSoC6\pdl\drivers\peripheral\scb/cy_scb_common.h **** /**
 287:Generated_Source\PSoC6\pdl\drivers\peripheral\scb/cy_scb_common.h **** * \defgroup group_scb_common_macros_intr_cause SCB Interrupt Causes
 288:Generated_Source\PSoC6\pdl\drivers\peripheral\scb/cy_scb_common.h **** * \{
 289:Generated_Source\PSoC6\pdl\drivers\peripheral\scb/cy_scb_common.h **** */
 290:Generated_Source\PSoC6\pdl\drivers\peripheral\scb/cy_scb_common.h **** /** Interrupt from Master interrupt sources */
 291:Generated_Source\PSoC6\pdl\drivers\peripheral\scb/cy_scb_common.h **** #define CY_SCB_MASTER_INTR SCB_INTR_CAUSE_M_Msk
 292:Generated_Source\PSoC6\pdl\drivers\peripheral\scb/cy_scb_common.h **** 
 293:Generated_Source\PSoC6\pdl\drivers\peripheral\scb/cy_scb_common.h **** /** Interrupt from Slave interrupt sources  */
 294:Generated_Source\PSoC6\pdl\drivers\peripheral\scb/cy_scb_common.h **** #define CY_SCB_SLAVE_INTR  SCB_INTR_CAUSE_S_Msk
 295:Generated_Source\PSoC6\pdl\drivers\peripheral\scb/cy_scb_common.h **** 
 296:Generated_Source\PSoC6\pdl\drivers\peripheral\scb/cy_scb_common.h **** /** Interrupt from TX interrupt sources */
 297:Generated_Source\PSoC6\pdl\drivers\peripheral\scb/cy_scb_common.h **** #define CY_SCB_TX_INTR     SCB_INTR_CAUSE_TX_Msk
 298:Generated_Source\PSoC6\pdl\drivers\peripheral\scb/cy_scb_common.h **** 
 299:Generated_Source\PSoC6\pdl\drivers\peripheral\scb/cy_scb_common.h **** /** Interrupt from RX interrupt sources */
 300:Generated_Source\PSoC6\pdl\drivers\peripheral\scb/cy_scb_common.h **** #define CY_SCB_RX_INTR     SCB_INTR_CAUSE_RX_Msk
 301:Generated_Source\PSoC6\pdl\drivers\peripheral\scb/cy_scb_common.h **** 
 302:Generated_Source\PSoC6\pdl\drivers\peripheral\scb/cy_scb_common.h **** /** Interrupt from I2C externally clocked interrupt sources */
 303:Generated_Source\PSoC6\pdl\drivers\peripheral\scb/cy_scb_common.h **** #define CY_SCB_I2C_INTR    SCB_INTR_CAUSE_I2C_EC_Msk
 304:Generated_Source\PSoC6\pdl\drivers\peripheral\scb/cy_scb_common.h **** 
 305:Generated_Source\PSoC6\pdl\drivers\peripheral\scb/cy_scb_common.h **** /** Interrupt from SPI externally clocked interrupt sources */
 306:Generated_Source\PSoC6\pdl\drivers\peripheral\scb/cy_scb_common.h **** #define CY_SCB_SPI_INTR    SCB_INTR_CAUSE_SPI_EC_Msk
 307:Generated_Source\PSoC6\pdl\drivers\peripheral\scb/cy_scb_common.h **** /** \} group_scb_common_macros_intr_cause */
 308:Generated_Source\PSoC6\pdl\drivers\peripheral\scb/cy_scb_common.h **** 
 309:Generated_Source\PSoC6\pdl\drivers\peripheral\scb/cy_scb_common.h **** /**
 310:Generated_Source\PSoC6\pdl\drivers\peripheral\scb/cy_scb_common.h **** * \defgroup group_scb_common_macros_tx_intr TX Interrupt Statuses
 311:Generated_Source\PSoC6\pdl\drivers\peripheral\scb/cy_scb_common.h **** * \{
 312:Generated_Source\PSoC6\pdl\drivers\peripheral\scb/cy_scb_common.h **** */
 313:Generated_Source\PSoC6\pdl\drivers\peripheral\scb/cy_scb_common.h **** /**
 314:Generated_Source\PSoC6\pdl\drivers\peripheral\scb/cy_scb_common.h **** * The number of data elements in the TX FIFO is less than the value
 315:Generated_Source\PSoC6\pdl\drivers\peripheral\scb/cy_scb_common.h **** * of the TX FIFO level
 316:Generated_Source\PSoC6\pdl\drivers\peripheral\scb/cy_scb_common.h **** */
ARM GAS  C:\Users\JC\AppData\Local\Temp\ccY7kCY2.s 			page 7


 317:Generated_Source\PSoC6\pdl\drivers\peripheral\scb/cy_scb_common.h **** #define CY_SCB_TX_INTR_LEVEL           SCB_INTR_TX_TRIGGER_Msk
 318:Generated_Source\PSoC6\pdl\drivers\peripheral\scb/cy_scb_common.h **** 
 319:Generated_Source\PSoC6\pdl\drivers\peripheral\scb/cy_scb_common.h **** /** The TX FIFO is not full */
 320:Generated_Source\PSoC6\pdl\drivers\peripheral\scb/cy_scb_common.h **** #define CY_SCB_TX_INTR_NOT_FULL        SCB_INTR_TX_NOT_FULL_Msk
 321:Generated_Source\PSoC6\pdl\drivers\peripheral\scb/cy_scb_common.h **** 
 322:Generated_Source\PSoC6\pdl\drivers\peripheral\scb/cy_scb_common.h **** /** The TX FIFO is empty */
 323:Generated_Source\PSoC6\pdl\drivers\peripheral\scb/cy_scb_common.h **** #define CY_SCB_TX_INTR_EMPTY           SCB_INTR_TX_EMPTY_Msk
 324:Generated_Source\PSoC6\pdl\drivers\peripheral\scb/cy_scb_common.h **** 
 325:Generated_Source\PSoC6\pdl\drivers\peripheral\scb/cy_scb_common.h **** /** An attempt to write to a full TX FIFO */
 326:Generated_Source\PSoC6\pdl\drivers\peripheral\scb/cy_scb_common.h **** #define CY_SCB_TX_INTR_OVERFLOW        SCB_INTR_TX_OVERFLOW_Msk
 327:Generated_Source\PSoC6\pdl\drivers\peripheral\scb/cy_scb_common.h **** 
 328:Generated_Source\PSoC6\pdl\drivers\peripheral\scb/cy_scb_common.h **** /** An attempt to read from an empty TX FIFO */
 329:Generated_Source\PSoC6\pdl\drivers\peripheral\scb/cy_scb_common.h **** #define CY_SCB_TX_INTR_UNDERFLOW       SCB_INTR_TX_UNDERFLOW_Msk
 330:Generated_Source\PSoC6\pdl\drivers\peripheral\scb/cy_scb_common.h **** 
 331:Generated_Source\PSoC6\pdl\drivers\peripheral\scb/cy_scb_common.h **** /** The UART transfer is complete: all data elements from the TX FIFO are sent
 332:Generated_Source\PSoC6\pdl\drivers\peripheral\scb/cy_scb_common.h **** */
 333:Generated_Source\PSoC6\pdl\drivers\peripheral\scb/cy_scb_common.h **** #define CY_SCB_TX_INTR_UART_DONE       SCB_INTR_TX_UART_DONE_Msk
 334:Generated_Source\PSoC6\pdl\drivers\peripheral\scb/cy_scb_common.h **** 
 335:Generated_Source\PSoC6\pdl\drivers\peripheral\scb/cy_scb_common.h **** /** SmartCard only: UART received a NACK */
 336:Generated_Source\PSoC6\pdl\drivers\peripheral\scb/cy_scb_common.h **** #define CY_SCB_TX_INTR_UART_NACK       SCB_INTR_TX_UART_NACK_Msk
 337:Generated_Source\PSoC6\pdl\drivers\peripheral\scb/cy_scb_common.h **** 
 338:Generated_Source\PSoC6\pdl\drivers\peripheral\scb/cy_scb_common.h **** /**
 339:Generated_Source\PSoC6\pdl\drivers\peripheral\scb/cy_scb_common.h **** * SmartCard only: the value on the TX line of the UART does not match the
 340:Generated_Source\PSoC6\pdl\drivers\peripheral\scb/cy_scb_common.h **** * value on the RX line
 341:Generated_Source\PSoC6\pdl\drivers\peripheral\scb/cy_scb_common.h **** */
 342:Generated_Source\PSoC6\pdl\drivers\peripheral\scb/cy_scb_common.h **** #define CY_SCB_TX_INTR_UART_ARB_LOST   SCB_INTR_TX_UART_ARB_LOST_Msk
 343:Generated_Source\PSoC6\pdl\drivers\peripheral\scb/cy_scb_common.h **** /** \} group_scb_common_macros_tx_intr */
 344:Generated_Source\PSoC6\pdl\drivers\peripheral\scb/cy_scb_common.h **** 
 345:Generated_Source\PSoC6\pdl\drivers\peripheral\scb/cy_scb_common.h **** /**
 346:Generated_Source\PSoC6\pdl\drivers\peripheral\scb/cy_scb_common.h **** * \defgroup group_scb_common_macros_rx_intr RX Interrupt Statuses
 347:Generated_Source\PSoC6\pdl\drivers\peripheral\scb/cy_scb_common.h **** * \{
 348:Generated_Source\PSoC6\pdl\drivers\peripheral\scb/cy_scb_common.h **** */
 349:Generated_Source\PSoC6\pdl\drivers\peripheral\scb/cy_scb_common.h **** /**
 350:Generated_Source\PSoC6\pdl\drivers\peripheral\scb/cy_scb_common.h **** * The number of data elements in the RX FIFO is greater than the value of the
 351:Generated_Source\PSoC6\pdl\drivers\peripheral\scb/cy_scb_common.h **** * RX FIFO level
 352:Generated_Source\PSoC6\pdl\drivers\peripheral\scb/cy_scb_common.h **** */
 353:Generated_Source\PSoC6\pdl\drivers\peripheral\scb/cy_scb_common.h **** #define CY_SCB_RX_INTR_LEVEL             SCB_INTR_RX_TRIGGER_Msk
 354:Generated_Source\PSoC6\pdl\drivers\peripheral\scb/cy_scb_common.h **** 
 355:Generated_Source\PSoC6\pdl\drivers\peripheral\scb/cy_scb_common.h **** /** The RX FIFO is not empty */
 356:Generated_Source\PSoC6\pdl\drivers\peripheral\scb/cy_scb_common.h **** #define CY_SCB_RX_INTR_NOT_EMPTY         SCB_INTR_RX_NOT_EMPTY_Msk
 357:Generated_Source\PSoC6\pdl\drivers\peripheral\scb/cy_scb_common.h **** 
 358:Generated_Source\PSoC6\pdl\drivers\peripheral\scb/cy_scb_common.h **** /** The RX FIFO is full */
 359:Generated_Source\PSoC6\pdl\drivers\peripheral\scb/cy_scb_common.h **** #define CY_SCB_RX_INTR_FULL              SCB_INTR_RX_FULL_Msk
 360:Generated_Source\PSoC6\pdl\drivers\peripheral\scb/cy_scb_common.h **** 
 361:Generated_Source\PSoC6\pdl\drivers\peripheral\scb/cy_scb_common.h **** /** An attempt to write to a full RX FIFO */
 362:Generated_Source\PSoC6\pdl\drivers\peripheral\scb/cy_scb_common.h **** #define CY_SCB_RX_INTR_OVERFLOW          SCB_INTR_RX_OVERFLOW_Msk
 363:Generated_Source\PSoC6\pdl\drivers\peripheral\scb/cy_scb_common.h **** 
 364:Generated_Source\PSoC6\pdl\drivers\peripheral\scb/cy_scb_common.h **** /** An attempt to read from an empty RX FIFO */
 365:Generated_Source\PSoC6\pdl\drivers\peripheral\scb/cy_scb_common.h **** #define CY_SCB_RX_INTR_UNDERFLOW         SCB_INTR_RX_UNDERFLOW_Msk
 366:Generated_Source\PSoC6\pdl\drivers\peripheral\scb/cy_scb_common.h **** 
 367:Generated_Source\PSoC6\pdl\drivers\peripheral\scb/cy_scb_common.h **** /** A UART framing error detected */
 368:Generated_Source\PSoC6\pdl\drivers\peripheral\scb/cy_scb_common.h **** #define CY_SCB_RX_INTR_UART_FRAME_ERROR  SCB_INTR_RX_FRAME_ERROR_Msk
 369:Generated_Source\PSoC6\pdl\drivers\peripheral\scb/cy_scb_common.h **** 
 370:Generated_Source\PSoC6\pdl\drivers\peripheral\scb/cy_scb_common.h **** /** A UART parity error detected  */
 371:Generated_Source\PSoC6\pdl\drivers\peripheral\scb/cy_scb_common.h **** #define CY_SCB_RX_INTR_UART_PARITY_ERROR SCB_INTR_RX_PARITY_ERROR_Msk
 372:Generated_Source\PSoC6\pdl\drivers\peripheral\scb/cy_scb_common.h **** 
 373:Generated_Source\PSoC6\pdl\drivers\peripheral\scb/cy_scb_common.h **** /** A UART break detected */
ARM GAS  C:\Users\JC\AppData\Local\Temp\ccY7kCY2.s 			page 8


 374:Generated_Source\PSoC6\pdl\drivers\peripheral\scb/cy_scb_common.h **** #define CY_SCB_RX_INTR_UART_BREAK_DETECT SCB_INTR_RX_BREAK_DETECT_Msk
 375:Generated_Source\PSoC6\pdl\drivers\peripheral\scb/cy_scb_common.h **** /** \} group_scb_common_macros_rx_intr */
 376:Generated_Source\PSoC6\pdl\drivers\peripheral\scb/cy_scb_common.h **** 
 377:Generated_Source\PSoC6\pdl\drivers\peripheral\scb/cy_scb_common.h **** /**
 378:Generated_Source\PSoC6\pdl\drivers\peripheral\scb/cy_scb_common.h **** * \defgroup group_scb_common_macros_slave_intr Slave Interrupt Statuses
 379:Generated_Source\PSoC6\pdl\drivers\peripheral\scb/cy_scb_common.h **** * \{
 380:Generated_Source\PSoC6\pdl\drivers\peripheral\scb/cy_scb_common.h **** */
 381:Generated_Source\PSoC6\pdl\drivers\peripheral\scb/cy_scb_common.h **** /**
 382:Generated_Source\PSoC6\pdl\drivers\peripheral\scb/cy_scb_common.h **** * I2C slave lost arbitration: the value driven on the SDA line is not the same
 383:Generated_Source\PSoC6\pdl\drivers\peripheral\scb/cy_scb_common.h **** * as the value observed on the SDA line
 384:Generated_Source\PSoC6\pdl\drivers\peripheral\scb/cy_scb_common.h **** */
 385:Generated_Source\PSoC6\pdl\drivers\peripheral\scb/cy_scb_common.h **** #define CY_SCB_SLAVE_INTR_I2C_ARB_LOST      SCB_INTR_S_I2C_ARB_LOST_Msk
 386:Generated_Source\PSoC6\pdl\drivers\peripheral\scb/cy_scb_common.h **** 
 387:Generated_Source\PSoC6\pdl\drivers\peripheral\scb/cy_scb_common.h **** /** The I2C slave received a NAK */
 388:Generated_Source\PSoC6\pdl\drivers\peripheral\scb/cy_scb_common.h **** #define CY_SCB_SLAVE_INTR_I2C_NACK          SCB_INTR_S_I2C_NACK_Msk
 389:Generated_Source\PSoC6\pdl\drivers\peripheral\scb/cy_scb_common.h **** 
 390:Generated_Source\PSoC6\pdl\drivers\peripheral\scb/cy_scb_common.h **** /** The I2C slave received  an ACK */
 391:Generated_Source\PSoC6\pdl\drivers\peripheral\scb/cy_scb_common.h **** #define CY_SCB_SLAVE_INTR_I2C_ACK           SCB_INTR_S_I2C_ACK_Msk
 392:Generated_Source\PSoC6\pdl\drivers\peripheral\scb/cy_scb_common.h **** 
 393:Generated_Source\PSoC6\pdl\drivers\peripheral\scb/cy_scb_common.h **** /**
 394:Generated_Source\PSoC6\pdl\drivers\peripheral\scb/cy_scb_common.h **** * A Stop or Repeated Start event for a write transfer intended for this slave
 395:Generated_Source\PSoC6\pdl\drivers\peripheral\scb/cy_scb_common.h **** * was detected.
 396:Generated_Source\PSoC6\pdl\drivers\peripheral\scb/cy_scb_common.h **** */
 397:Generated_Source\PSoC6\pdl\drivers\peripheral\scb/cy_scb_common.h **** #define CY_SCB_SLAVE_INTR_I2C_WRITE_STOP    SCB_INTR_S_I2C_WRITE_STOP_Msk
 398:Generated_Source\PSoC6\pdl\drivers\peripheral\scb/cy_scb_common.h **** 
 399:Generated_Source\PSoC6\pdl\drivers\peripheral\scb/cy_scb_common.h **** /** A Stop or Repeated Start event intended for this slave was detected */
 400:Generated_Source\PSoC6\pdl\drivers\peripheral\scb/cy_scb_common.h **** #define CY_SCB_SLAVE_INTR_I2C_STOP          SCB_INTR_S_I2C_STOP_Msk
 401:Generated_Source\PSoC6\pdl\drivers\peripheral\scb/cy_scb_common.h **** 
 402:Generated_Source\PSoC6\pdl\drivers\peripheral\scb/cy_scb_common.h **** /** The I2C slave received a Start condition */
 403:Generated_Source\PSoC6\pdl\drivers\peripheral\scb/cy_scb_common.h **** #define CY_SCB_SLAVE_INTR_I2C_START         SCB_INTR_S_I2C_START_Msk
 404:Generated_Source\PSoC6\pdl\drivers\peripheral\scb/cy_scb_common.h **** 
 405:Generated_Source\PSoC6\pdl\drivers\peripheral\scb/cy_scb_common.h **** /** The I2C slave received the matching address */
 406:Generated_Source\PSoC6\pdl\drivers\peripheral\scb/cy_scb_common.h **** #define CY_SCB_SLAVE_INTR_I2C_ADDR_MATCH    SCB_INTR_S_I2C_ADDR_MATCH_Msk
 407:Generated_Source\PSoC6\pdl\drivers\peripheral\scb/cy_scb_common.h **** 
 408:Generated_Source\PSoC6\pdl\drivers\peripheral\scb/cy_scb_common.h **** /** The I2C Slave received the general call address */
 409:Generated_Source\PSoC6\pdl\drivers\peripheral\scb/cy_scb_common.h **** #define CY_SCB_SLAVE_INTR_I2C_GENERAL_ADDR  SCB_INTR_S_I2C_GENERAL_Msk
 410:Generated_Source\PSoC6\pdl\drivers\peripheral\scb/cy_scb_common.h **** 
 411:Generated_Source\PSoC6\pdl\drivers\peripheral\scb/cy_scb_common.h **** /** The I2C slave bus error (detection of unexpected Start or Stop condition) */
 412:Generated_Source\PSoC6\pdl\drivers\peripheral\scb/cy_scb_common.h **** #define CY_SCB_SLAVE_INTR_I2C_BUS_ERROR     SCB_INTR_S_I2C_BUS_ERROR_Msk
 413:Generated_Source\PSoC6\pdl\drivers\peripheral\scb/cy_scb_common.h **** 
 414:Generated_Source\PSoC6\pdl\drivers\peripheral\scb/cy_scb_common.h **** /**
 415:Generated_Source\PSoC6\pdl\drivers\peripheral\scb/cy_scb_common.h **** * The SPI slave select line is deselected at an expected time during an
 416:Generated_Source\PSoC6\pdl\drivers\peripheral\scb/cy_scb_common.h **** * SPI transfer.
 417:Generated_Source\PSoC6\pdl\drivers\peripheral\scb/cy_scb_common.h **** */
 418:Generated_Source\PSoC6\pdl\drivers\peripheral\scb/cy_scb_common.h **** #define CY_SCB_SLAVE_INTR_SPI_BUS_ERROR     SCB_INTR_S_SPI_BUS_ERROR_Msk
 419:Generated_Source\PSoC6\pdl\drivers\peripheral\scb/cy_scb_common.h **** /** \} group_scb_common_macros_slave_intr */
 420:Generated_Source\PSoC6\pdl\drivers\peripheral\scb/cy_scb_common.h **** 
 421:Generated_Source\PSoC6\pdl\drivers\peripheral\scb/cy_scb_common.h **** /**
 422:Generated_Source\PSoC6\pdl\drivers\peripheral\scb/cy_scb_common.h **** * \defgroup group_scb_common_macros_master_intr Master Interrupt Statuses
 423:Generated_Source\PSoC6\pdl\drivers\peripheral\scb/cy_scb_common.h **** * \{
 424:Generated_Source\PSoC6\pdl\drivers\peripheral\scb/cy_scb_common.h **** */
 425:Generated_Source\PSoC6\pdl\drivers\peripheral\scb/cy_scb_common.h **** /** The I2C master lost arbitration */
 426:Generated_Source\PSoC6\pdl\drivers\peripheral\scb/cy_scb_common.h **** #define CY_SCB_MASTER_INTR_I2C_ARB_LOST    SCB_INTR_M_I2C_ARB_LOST_Msk
 427:Generated_Source\PSoC6\pdl\drivers\peripheral\scb/cy_scb_common.h **** 
 428:Generated_Source\PSoC6\pdl\drivers\peripheral\scb/cy_scb_common.h **** /** The I2C master received a NACK */
 429:Generated_Source\PSoC6\pdl\drivers\peripheral\scb/cy_scb_common.h **** #define CY_SCB_MASTER_INTR_I2C_NACK        SCB_INTR_M_I2C_NACK_Msk
 430:Generated_Source\PSoC6\pdl\drivers\peripheral\scb/cy_scb_common.h **** 
ARM GAS  C:\Users\JC\AppData\Local\Temp\ccY7kCY2.s 			page 9


 431:Generated_Source\PSoC6\pdl\drivers\peripheral\scb/cy_scb_common.h **** /** The I2C master received an ACK */
 432:Generated_Source\PSoC6\pdl\drivers\peripheral\scb/cy_scb_common.h **** #define CY_SCB_MASTER_INTR_I2C_ACK         SCB_INTR_M_I2C_ACK_Msk
 433:Generated_Source\PSoC6\pdl\drivers\peripheral\scb/cy_scb_common.h **** 
 434:Generated_Source\PSoC6\pdl\drivers\peripheral\scb/cy_scb_common.h **** /** The I2C master generated a Stop */
 435:Generated_Source\PSoC6\pdl\drivers\peripheral\scb/cy_scb_common.h **** #define CY_SCB_MASTER_INTR_I2C_STOP        SCB_INTR_M_I2C_STOP_Msk
 436:Generated_Source\PSoC6\pdl\drivers\peripheral\scb/cy_scb_common.h **** 
 437:Generated_Source\PSoC6\pdl\drivers\peripheral\scb/cy_scb_common.h **** /** The I2C master bus error (detection of unexpected START or STOP condition)
 438:Generated_Source\PSoC6\pdl\drivers\peripheral\scb/cy_scb_common.h **** */
 439:Generated_Source\PSoC6\pdl\drivers\peripheral\scb/cy_scb_common.h **** #define CY_SCB_MASTER_INTR_I2C_BUS_ERROR   SCB_INTR_M_I2C_BUS_ERROR_Msk
 440:Generated_Source\PSoC6\pdl\drivers\peripheral\scb/cy_scb_common.h **** 
 441:Generated_Source\PSoC6\pdl\drivers\peripheral\scb/cy_scb_common.h **** /**
 442:Generated_Source\PSoC6\pdl\drivers\peripheral\scb/cy_scb_common.h **** * The SPI master transfer is complete: all data elements transferred from the
 443:Generated_Source\PSoC6\pdl\drivers\peripheral\scb/cy_scb_common.h **** * TX FIFO and TX shift register.
 444:Generated_Source\PSoC6\pdl\drivers\peripheral\scb/cy_scb_common.h **** */
 445:Generated_Source\PSoC6\pdl\drivers\peripheral\scb/cy_scb_common.h **** #define CY_SCB_MASTER_INTR_SPI_DONE        SCB_INTR_M_SPI_DONE_Msk
 446:Generated_Source\PSoC6\pdl\drivers\peripheral\scb/cy_scb_common.h **** /** \} group_scb_common_macros_master_intr */
 447:Generated_Source\PSoC6\pdl\drivers\peripheral\scb/cy_scb_common.h **** 
 448:Generated_Source\PSoC6\pdl\drivers\peripheral\scb/cy_scb_common.h **** /**
 449:Generated_Source\PSoC6\pdl\drivers\peripheral\scb/cy_scb_common.h **** * \defgroup group_scb_common_macros_i2c_intr I2C Interrupt Statuses
 450:Generated_Source\PSoC6\pdl\drivers\peripheral\scb/cy_scb_common.h **** * \{
 451:Generated_Source\PSoC6\pdl\drivers\peripheral\scb/cy_scb_common.h **** */
 452:Generated_Source\PSoC6\pdl\drivers\peripheral\scb/cy_scb_common.h **** /**
 453:Generated_Source\PSoC6\pdl\drivers\peripheral\scb/cy_scb_common.h **** * Wake up request: the I2C slave received the matching address.
 454:Generated_Source\PSoC6\pdl\drivers\peripheral\scb/cy_scb_common.h **** * Note that this interrupt source triggers in active mode.
 455:Generated_Source\PSoC6\pdl\drivers\peripheral\scb/cy_scb_common.h **** */
 456:Generated_Source\PSoC6\pdl\drivers\peripheral\scb/cy_scb_common.h **** #define CY_SCB_I2C_INTR_WAKEUP     SCB_INTR_I2C_EC_WAKE_UP_Msk
 457:Generated_Source\PSoC6\pdl\drivers\peripheral\scb/cy_scb_common.h **** /** \} group_scb_common_macros_i2c_intr */
 458:Generated_Source\PSoC6\pdl\drivers\peripheral\scb/cy_scb_common.h **** 
 459:Generated_Source\PSoC6\pdl\drivers\peripheral\scb/cy_scb_common.h **** /**
 460:Generated_Source\PSoC6\pdl\drivers\peripheral\scb/cy_scb_common.h **** * \defgroup group_scb_common_macros_SpiIntrStatuses SPI Interrupt Statuses
 461:Generated_Source\PSoC6\pdl\drivers\peripheral\scb/cy_scb_common.h **** * \{
 462:Generated_Source\PSoC6\pdl\drivers\peripheral\scb/cy_scb_common.h **** */
 463:Generated_Source\PSoC6\pdl\drivers\peripheral\scb/cy_scb_common.h **** /**
 464:Generated_Source\PSoC6\pdl\drivers\peripheral\scb/cy_scb_common.h **** * Wake up request: the SPI slave detects an active edge of the slave select
 465:Generated_Source\PSoC6\pdl\drivers\peripheral\scb/cy_scb_common.h **** * signal. Note that this interrupt source triggers in active mode.
 466:Generated_Source\PSoC6\pdl\drivers\peripheral\scb/cy_scb_common.h **** */
 467:Generated_Source\PSoC6\pdl\drivers\peripheral\scb/cy_scb_common.h **** #define CY_SCB_SPI_INTR_WAKEUP     SCB_INTR_SPI_EC_WAKE_UP_Msk
 468:Generated_Source\PSoC6\pdl\drivers\peripheral\scb/cy_scb_common.h **** /** \} group_scb_common_macros_SpiIntrStatuses */
 469:Generated_Source\PSoC6\pdl\drivers\peripheral\scb/cy_scb_common.h **** 
 470:Generated_Source\PSoC6\pdl\drivers\peripheral\scb/cy_scb_common.h **** 
 471:Generated_Source\PSoC6\pdl\drivers\peripheral\scb/cy_scb_common.h **** /*******************************************************************************
 472:Generated_Source\PSoC6\pdl\drivers\peripheral\scb/cy_scb_common.h **** *                           Internal Constants
 473:Generated_Source\PSoC6\pdl\drivers\peripheral\scb/cy_scb_common.h **** *******************************************************************************/
 474:Generated_Source\PSoC6\pdl\drivers\peripheral\scb/cy_scb_common.h **** 
 475:Generated_Source\PSoC6\pdl\drivers\peripheral\scb/cy_scb_common.h **** /** \cond INTERNAL */
 476:Generated_Source\PSoC6\pdl\drivers\peripheral\scb/cy_scb_common.h **** 
 477:Generated_Source\PSoC6\pdl\drivers\peripheral\scb/cy_scb_common.h **** /* Default registers values */
 478:Generated_Source\PSoC6\pdl\drivers\peripheral\scb/cy_scb_common.h **** #define CY_SCB_CTRL_DEF_VAL         (_VAL2FLD(SCB_CTRL_OVS, 15UL) | \
 479:Generated_Source\PSoC6\pdl\drivers\peripheral\scb/cy_scb_common.h ****                                      _VAL2FLD(SCB_CTRL_MODE, 3UL))
 480:Generated_Source\PSoC6\pdl\drivers\peripheral\scb/cy_scb_common.h **** 
 481:Generated_Source\PSoC6\pdl\drivers\peripheral\scb/cy_scb_common.h **** #define CY_SCB_I2C_CTRL_DEF_VAL     (_VAL2FLD(SCB_I2C_CTRL_HIGH_PHASE_OVS, 8UL)        | \
 482:Generated_Source\PSoC6\pdl\drivers\peripheral\scb/cy_scb_common.h ****                                      _VAL2FLD(SCB_I2C_CTRL_HIGH_PHASE_OVS, 8UL)        | \
 483:Generated_Source\PSoC6\pdl\drivers\peripheral\scb/cy_scb_common.h ****                                      _VAL2FLD(SCB_I2C_CTRL_M_READY_DATA_ACK, 1UL)      | \
 484:Generated_Source\PSoC6\pdl\drivers\peripheral\scb/cy_scb_common.h ****                                      _VAL2FLD(SCB_I2C_CTRL_M_NOT_READY_DATA_NACK, 1UL) | \
 485:Generated_Source\PSoC6\pdl\drivers\peripheral\scb/cy_scb_common.h ****                                      _VAL2FLD(SCB_I2C_CTRL_S_GENERAL_IGNORE, 1UL)      | \
 486:Generated_Source\PSoC6\pdl\drivers\peripheral\scb/cy_scb_common.h ****                                      _VAL2FLD(SCB_I2C_CTRL_S_READY_ADDR_ACK, 1UL)      | \
 487:Generated_Source\PSoC6\pdl\drivers\peripheral\scb/cy_scb_common.h ****                                      _VAL2FLD(SCB_I2C_CTRL_S_READY_DATA_ACK, 1UL)      | \
ARM GAS  C:\Users\JC\AppData\Local\Temp\ccY7kCY2.s 			page 10


 488:Generated_Source\PSoC6\pdl\drivers\peripheral\scb/cy_scb_common.h ****                                      _VAL2FLD(SCB_I2C_CTRL_S_NOT_READY_ADDR_NACK, 1UL) | \
 489:Generated_Source\PSoC6\pdl\drivers\peripheral\scb/cy_scb_common.h ****                                      _VAL2FLD(SCB_I2C_CTRL_S_NOT_READY_DATA_NACK, 1UL))
 490:Generated_Source\PSoC6\pdl\drivers\peripheral\scb/cy_scb_common.h **** 
 491:Generated_Source\PSoC6\pdl\drivers\peripheral\scb/cy_scb_common.h **** #define CY_SCB_I2C_CFG_DEF_VAL      (_VAL2FLD(SCB_I2C_CFG_SDA_IN_FILT_TRIM, 3UL)   | \
 492:Generated_Source\PSoC6\pdl\drivers\peripheral\scb/cy_scb_common.h ****                                      _VAL2FLD(SCB_I2C_CFG_SDA_IN_FILT_SEL, 1UL)    | \
 493:Generated_Source\PSoC6\pdl\drivers\peripheral\scb/cy_scb_common.h ****                                      _VAL2FLD(SCB_I2C_CFG_SCL_IN_FILT_SEL, 1UL)    | \
 494:Generated_Source\PSoC6\pdl\drivers\peripheral\scb/cy_scb_common.h ****                                      _VAL2FLD(SCB_I2C_CFG_SDA_OUT_FILT0_TRIM, 2UL) | \
 495:Generated_Source\PSoC6\pdl\drivers\peripheral\scb/cy_scb_common.h ****                                      _VAL2FLD(SCB_I2C_CFG_SDA_OUT_FILT1_TRIM, 2UL) | \
 496:Generated_Source\PSoC6\pdl\drivers\peripheral\scb/cy_scb_common.h ****                                      _VAL2FLD(SCB_I2C_CFG_SDA_OUT_FILT2_TRIM, 2UL))
 497:Generated_Source\PSoC6\pdl\drivers\peripheral\scb/cy_scb_common.h **** 
 498:Generated_Source\PSoC6\pdl\drivers\peripheral\scb/cy_scb_common.h **** #define CY_SCB_SPI_CTRL_DEF_VAL     _VAL2FLD(SCB_SPI_CTRL_MODE, 3UL)
 499:Generated_Source\PSoC6\pdl\drivers\peripheral\scb/cy_scb_common.h **** #define CY_SCB_UART_CTRL_DEF_VAL    _VAL2FLD(SCB_UART_CTRL_MODE, 3UL)
 500:Generated_Source\PSoC6\pdl\drivers\peripheral\scb/cy_scb_common.h **** 
 501:Generated_Source\PSoC6\pdl\drivers\peripheral\scb/cy_scb_common.h **** #define CY_SCB_UART_RX_CTRL_DEF_VAL (_VAL2FLD(SCB_UART_RX_CTRL_STOP_BITS, 2UL) | \
 502:Generated_Source\PSoC6\pdl\drivers\peripheral\scb/cy_scb_common.h ****                                      _VAL2FLD(SCB_UART_RX_CTRL_BREAK_WIDTH, 10UL))
 503:Generated_Source\PSoC6\pdl\drivers\peripheral\scb/cy_scb_common.h **** 
 504:Generated_Source\PSoC6\pdl\drivers\peripheral\scb/cy_scb_common.h **** #define CY_SCB_UART_TX_CTRL_DEF_VAL _VAL2FLD(SCB_UART_TX_CTRL_STOP_BITS, 2UL)
 505:Generated_Source\PSoC6\pdl\drivers\peripheral\scb/cy_scb_common.h **** 
 506:Generated_Source\PSoC6\pdl\drivers\peripheral\scb/cy_scb_common.h **** #define CY_SCB_RX_CTRL_DEF_VAL      (_VAL2FLD(SCB_RX_CTRL_DATA_WIDTH, 7UL) | \
 507:Generated_Source\PSoC6\pdl\drivers\peripheral\scb/cy_scb_common.h ****                                      _VAL2FLD(SCB_RX_CTRL_MSB_FIRST,  1UL))
 508:Generated_Source\PSoC6\pdl\drivers\peripheral\scb/cy_scb_common.h **** 
 509:Generated_Source\PSoC6\pdl\drivers\peripheral\scb/cy_scb_common.h **** #define CY_SCB_TX_CTRL_DEF_VAL      (_VAL2FLD(SCB_TX_CTRL_DATA_WIDTH, 7UL) | \
 510:Generated_Source\PSoC6\pdl\drivers\peripheral\scb/cy_scb_common.h ****                                      _VAL2FLD(SCB_TX_CTRL_MSB_FIRST,  1UL))
 511:Generated_Source\PSoC6\pdl\drivers\peripheral\scb/cy_scb_common.h **** 
 512:Generated_Source\PSoC6\pdl\drivers\peripheral\scb/cy_scb_common.h **** /* SCB CTRL modes */
 513:Generated_Source\PSoC6\pdl\drivers\peripheral\scb/cy_scb_common.h **** #define CY_SCB_CTRL_MODE_I2C   (0UL)
 514:Generated_Source\PSoC6\pdl\drivers\peripheral\scb/cy_scb_common.h **** #define CY_SCB_CTRL_MODE_SPI   (1UL)
 515:Generated_Source\PSoC6\pdl\drivers\peripheral\scb/cy_scb_common.h **** #define CY_SCB_CTRL_MODE_UART  (2UL)
 516:Generated_Source\PSoC6\pdl\drivers\peripheral\scb/cy_scb_common.h **** 
 517:Generated_Source\PSoC6\pdl\drivers\peripheral\scb/cy_scb_common.h **** /* The position and mask to set the I2C mode */
 518:Generated_Source\PSoC6\pdl\drivers\peripheral\scb/cy_scb_common.h **** #define CY_SCB_I2C_CTRL_MODE_Pos    SCB_I2C_CTRL_SLAVE_MODE_Pos
 519:Generated_Source\PSoC6\pdl\drivers\peripheral\scb/cy_scb_common.h **** #define CY_SCB_I2C_CTRL_MODE_Msk    (SCB_I2C_CTRL_SLAVE_MODE_Msk | \
 520:Generated_Source\PSoC6\pdl\drivers\peripheral\scb/cy_scb_common.h ****                                      SCB_I2C_CTRL_MASTER_MODE_Msk)
 521:Generated_Source\PSoC6\pdl\drivers\peripheral\scb/cy_scb_common.h **** 
 522:Generated_Source\PSoC6\pdl\drivers\peripheral\scb/cy_scb_common.h **** /* Cypress ID #282226:
 523:Generated_Source\PSoC6\pdl\drivers\peripheral\scb/cy_scb_common.h **** * SCB_I2C_CFG_SDA_IN_FILT_TRIM[1]: SCB clock enable (1), clock disable (0).
 524:Generated_Source\PSoC6\pdl\drivers\peripheral\scb/cy_scb_common.h **** */
 525:Generated_Source\PSoC6\pdl\drivers\peripheral\scb/cy_scb_common.h **** #define CY_SCB_I2C_CFG_CLK_ENABLE_Msk  (_VAL2FLD(SCB_I2C_CFG_SDA_IN_FILT_TRIM, 2UL))
 526:Generated_Source\PSoC6\pdl\drivers\peripheral\scb/cy_scb_common.h **** 
 527:Generated_Source\PSoC6\pdl\drivers\peripheral\scb/cy_scb_common.h **** /* I2C has fixed data width */
 528:Generated_Source\PSoC6\pdl\drivers\peripheral\scb/cy_scb_common.h **** #define CY_SCB_I2C_DATA_WIDTH   (7UL)
 529:Generated_Source\PSoC6\pdl\drivers\peripheral\scb/cy_scb_common.h **** 
 530:Generated_Source\PSoC6\pdl\drivers\peripheral\scb/cy_scb_common.h **** /* RX and TX control register values */
 531:Generated_Source\PSoC6\pdl\drivers\peripheral\scb/cy_scb_common.h **** #define CY_SCB_I2C_RX_CTRL      (_VAL2FLD(SCB_RX_CTRL_DATA_WIDTH, CY_SCB_I2C_DATA_WIDTH) | \
 532:Generated_Source\PSoC6\pdl\drivers\peripheral\scb/cy_scb_common.h ****                                  SCB_RX_CTRL_MSB_FIRST_Msk)
 533:Generated_Source\PSoC6\pdl\drivers\peripheral\scb/cy_scb_common.h **** #define CY_SCB_I2C_TX_CTRL      (_VAL2FLD(SCB_TX_CTRL_DATA_WIDTH, CY_SCB_I2C_DATA_WIDTH) | \
 534:Generated_Source\PSoC6\pdl\drivers\peripheral\scb/cy_scb_common.h ****                                  SCB_TX_CTRL_MSB_FIRST_Msk | SCB_TX_CTRL_OPEN_DRAIN_Msk)
 535:Generated_Source\PSoC6\pdl\drivers\peripheral\scb/cy_scb_common.h **** 
 536:Generated_Source\PSoC6\pdl\drivers\peripheral\scb/cy_scb_common.h **** /* The position and mask to make an address byte */
 537:Generated_Source\PSoC6\pdl\drivers\peripheral\scb/cy_scb_common.h **** #define CY_SCB_I2C_ADDRESS_Pos  (1UL)
 538:Generated_Source\PSoC6\pdl\drivers\peripheral\scb/cy_scb_common.h **** #define CY_SCB_I2C_ADDRESS_Msk  (0xFEUL)
 539:Generated_Source\PSoC6\pdl\drivers\peripheral\scb/cy_scb_common.h **** 
 540:Generated_Source\PSoC6\pdl\drivers\peripheral\scb/cy_scb_common.h **** /* SPI slave select polarity */
 541:Generated_Source\PSoC6\pdl\drivers\peripheral\scb/cy_scb_common.h **** #define CY_SCB_SPI_CTRL_SSEL_POLARITY_Pos   SCB_SPI_CTRL_SSEL_POLARITY0_Pos
 542:Generated_Source\PSoC6\pdl\drivers\peripheral\scb/cy_scb_common.h **** #define CY_SCB_SPI_CTRL_SSEL_POLARITY_Msk   (SCB_SPI_CTRL_SSEL_POLARITY0_Msk | \
 543:Generated_Source\PSoC6\pdl\drivers\peripheral\scb/cy_scb_common.h ****                                              SCB_SPI_CTRL_SSEL_POLARITY1_Msk | \
 544:Generated_Source\PSoC6\pdl\drivers\peripheral\scb/cy_scb_common.h ****                                              SCB_SPI_CTRL_SSEL_POLARITY2_Msk | \
ARM GAS  C:\Users\JC\AppData\Local\Temp\ccY7kCY2.s 			page 11


 545:Generated_Source\PSoC6\pdl\drivers\peripheral\scb/cy_scb_common.h ****                                              SCB_SPI_CTRL_SSEL_POLARITY3_Msk)
 546:Generated_Source\PSoC6\pdl\drivers\peripheral\scb/cy_scb_common.h **** 
 547:Generated_Source\PSoC6\pdl\drivers\peripheral\scb/cy_scb_common.h **** /* SPI clock modes: CPHA and CPOL */
 548:Generated_Source\PSoC6\pdl\drivers\peripheral\scb/cy_scb_common.h **** #define CY_SCB_SPI_CTRL_CLK_MODE_Pos    SCB_SPI_CTRL_CPHA_Pos
 549:Generated_Source\PSoC6\pdl\drivers\peripheral\scb/cy_scb_common.h **** #define CY_SCB_SPI_CTRL_CLK_MODE_Msk    (SCB_SPI_CTRL_CPHA_Msk | SCB_SPI_CTRL_CPOL_Msk)
 550:Generated_Source\PSoC6\pdl\drivers\peripheral\scb/cy_scb_common.h **** 
 551:Generated_Source\PSoC6\pdl\drivers\peripheral\scb/cy_scb_common.h **** /* UART parity and parity enable combination */
 552:Generated_Source\PSoC6\pdl\drivers\peripheral\scb/cy_scb_common.h **** #define CY_SCB_UART_RX_CTRL_SET_PARITY_Msk      (SCB_UART_RX_CTRL_PARITY_ENABLED_Msk | \
 553:Generated_Source\PSoC6\pdl\drivers\peripheral\scb/cy_scb_common.h ****                                                  SCB_UART_RX_CTRL_PARITY_Msk)
 554:Generated_Source\PSoC6\pdl\drivers\peripheral\scb/cy_scb_common.h **** #define CY_SCB_UART_RX_CTRL_SET_PARITY_Pos      SCB_UART_RX_CTRL_PARITY_Pos
 555:Generated_Source\PSoC6\pdl\drivers\peripheral\scb/cy_scb_common.h **** 
 556:Generated_Source\PSoC6\pdl\drivers\peripheral\scb/cy_scb_common.h **** #define CY_SCB_UART_TX_CTRL_SET_PARITY_Msk      (SCB_UART_TX_CTRL_PARITY_ENABLED_Msk | \
 557:Generated_Source\PSoC6\pdl\drivers\peripheral\scb/cy_scb_common.h ****                                                  SCB_UART_TX_CTRL_PARITY_Msk)
 558:Generated_Source\PSoC6\pdl\drivers\peripheral\scb/cy_scb_common.h **** #define CY_SCB_UART_TX_CTRL_SET_PARITY_Pos      SCB_UART_TX_CTRL_PARITY_Pos
 559:Generated_Source\PSoC6\pdl\drivers\peripheral\scb/cy_scb_common.h **** 
 560:Generated_Source\PSoC6\pdl\drivers\peripheral\scb/cy_scb_common.h **** /* Max number of bits for byte mode */
 561:Generated_Source\PSoC6\pdl\drivers\peripheral\scb/cy_scb_common.h **** #define CY_SCB_BYTE_WIDTH   (8UL)
 562:Generated_Source\PSoC6\pdl\drivers\peripheral\scb/cy_scb_common.h **** 
 563:Generated_Source\PSoC6\pdl\drivers\peripheral\scb/cy_scb_common.h **** /* Single unit to wait */
 564:Generated_Source\PSoC6\pdl\drivers\peripheral\scb/cy_scb_common.h **** #define CY_SCB_WAIT_1_UNIT  (1U)
 565:Generated_Source\PSoC6\pdl\drivers\peripheral\scb/cy_scb_common.h **** 
 566:Generated_Source\PSoC6\pdl\drivers\peripheral\scb/cy_scb_common.h **** /* Clear interrupt sources */
 567:Generated_Source\PSoC6\pdl\drivers\peripheral\scb/cy_scb_common.h **** #define CY_SCB_CLEAR_ALL_INTR_SRC   (0UL)
 568:Generated_Source\PSoC6\pdl\drivers\peripheral\scb/cy_scb_common.h **** 
 569:Generated_Source\PSoC6\pdl\drivers\peripheral\scb/cy_scb_common.h **** /* Hardware FIFO size: EZ_DATA_NR / 4 = (512 / 4) = 128 */
 570:Generated_Source\PSoC6\pdl\drivers\peripheral\scb/cy_scb_common.h **** #define CY_SCB_FIFO_SIZE            (128UL)
 571:Generated_Source\PSoC6\pdl\drivers\peripheral\scb/cy_scb_common.h **** 
 572:Generated_Source\PSoC6\pdl\drivers\peripheral\scb/cy_scb_common.h **** /* Provides a list of allowed sources */
 573:Generated_Source\PSoC6\pdl\drivers\peripheral\scb/cy_scb_common.h **** #define CY_SCB_TX_INTR_MASK     (CY_SCB_TX_INTR_LEVEL     | CY_SCB_TX_INTR_NOT_FULL  | CY_SCB_TX_IN
 574:Generated_Source\PSoC6\pdl\drivers\peripheral\scb/cy_scb_common.h ****                                  CY_SCB_TX_INTR_OVERFLOW  | CY_SCB_TX_INTR_UNDERFLOW | CY_SCB_TX_IN
 575:Generated_Source\PSoC6\pdl\drivers\peripheral\scb/cy_scb_common.h ****                                  CY_SCB_TX_INTR_UART_NACK | CY_SCB_TX_INTR_UART_ARB_LOST)
 576:Generated_Source\PSoC6\pdl\drivers\peripheral\scb/cy_scb_common.h **** 
 577:Generated_Source\PSoC6\pdl\drivers\peripheral\scb/cy_scb_common.h **** #define CY_SCB_RX_INTR_MASK     (CY_SCB_RX_INTR_LEVEL             | CY_SCB_RX_INTR_NOT_EMPTY | CY_S
 578:Generated_Source\PSoC6\pdl\drivers\peripheral\scb/cy_scb_common.h ****                                  CY_SCB_RX_INTR_OVERFLOW          | CY_SCB_RX_INTR_UNDERFLOW       
 579:Generated_Source\PSoC6\pdl\drivers\peripheral\scb/cy_scb_common.h ****                                  CY_SCB_RX_INTR_UART_FRAME_ERROR  | CY_SCB_RX_INTR_UART_PARITY_ERRO
 580:Generated_Source\PSoC6\pdl\drivers\peripheral\scb/cy_scb_common.h ****                                  CY_SCB_RX_INTR_UART_BREAK_DETECT)
 581:Generated_Source\PSoC6\pdl\drivers\peripheral\scb/cy_scb_common.h **** 
 582:Generated_Source\PSoC6\pdl\drivers\peripheral\scb/cy_scb_common.h **** 
 583:Generated_Source\PSoC6\pdl\drivers\peripheral\scb/cy_scb_common.h **** #define CY_SCB_SLAVE_INTR_MASK  (CY_SCB_SLAVE_INTR_I2C_ARB_LOST   | CY_SCB_SLAVE_INTR_I2C_NACK | CY
 584:Generated_Source\PSoC6\pdl\drivers\peripheral\scb/cy_scb_common.h ****                                  CY_SCB_SLAVE_INTR_I2C_WRITE_STOP | CY_SCB_SLAVE_INTR_I2C_STOP | CY
 585:Generated_Source\PSoC6\pdl\drivers\peripheral\scb/cy_scb_common.h ****                                  CY_SCB_SLAVE_INTR_I2C_ADDR_MATCH | CY_SCB_SLAVE_INTR_I2C_GENERAL_A
 586:Generated_Source\PSoC6\pdl\drivers\peripheral\scb/cy_scb_common.h ****                                  CY_SCB_SLAVE_INTR_I2C_BUS_ERROR  | CY_SCB_SLAVE_INTR_SPI_BUS_ERROR
 587:Generated_Source\PSoC6\pdl\drivers\peripheral\scb/cy_scb_common.h **** 
 588:Generated_Source\PSoC6\pdl\drivers\peripheral\scb/cy_scb_common.h **** #define CY_SCB_MASTER_INTR_MASK (CY_SCB_MASTER_INTR_I2C_ARB_LOST  | CY_SCB_MASTER_INTR_I2C_NACK | \
 589:Generated_Source\PSoC6\pdl\drivers\peripheral\scb/cy_scb_common.h ****                                  CY_SCB_MASTER_INTR_I2C_ACK       | CY_SCB_MASTER_INTR_I2C_STOP | \
 590:Generated_Source\PSoC6\pdl\drivers\peripheral\scb/cy_scb_common.h ****                                  CY_SCB_MASTER_INTR_I2C_BUS_ERROR | CY_SCB_MASTER_INTR_SPI_DONE)
 591:Generated_Source\PSoC6\pdl\drivers\peripheral\scb/cy_scb_common.h **** 
 592:Generated_Source\PSoC6\pdl\drivers\peripheral\scb/cy_scb_common.h **** #define CY_SCB_I2C_INTR_MASK    CY_SCB_I2C_INTR_WAKEUP
 593:Generated_Source\PSoC6\pdl\drivers\peripheral\scb/cy_scb_common.h **** 
 594:Generated_Source\PSoC6\pdl\drivers\peripheral\scb/cy_scb_common.h **** #define CY_SCB_SPI_INTR_MASK    CY_SCB_SPI_INTR_WAKEUP
 595:Generated_Source\PSoC6\pdl\drivers\peripheral\scb/cy_scb_common.h **** 
 596:Generated_Source\PSoC6\pdl\drivers\peripheral\scb/cy_scb_common.h **** #define CY_SCB_IS_INTR_VALID(intr, mask)            ( 0UL == ((intr) & ((uint32_t) ~(mask))) )
 597:Generated_Source\PSoC6\pdl\drivers\peripheral\scb/cy_scb_common.h **** #define CY_SCB_IS_TRIGGER_LEVEL_VALID(base, level)  ((level) < Cy_SCB_GetFifoSize(base))
 598:Generated_Source\PSoC6\pdl\drivers\peripheral\scb/cy_scb_common.h **** 
 599:Generated_Source\PSoC6\pdl\drivers\peripheral\scb/cy_scb_common.h **** #define CY_SCB_IS_I2C_ADDR_VALID(addr)              ( (0U == ((addr) & 0x80U)) )
 600:Generated_Source\PSoC6\pdl\drivers\peripheral\scb/cy_scb_common.h **** #define CY_SCB_IS_BUFFER_VALID(buffer, size)        ( (NULL != (buffer)) && ((size) > 0UL) )
 601:Generated_Source\PSoC6\pdl\drivers\peripheral\scb/cy_scb_common.h **** #define CY_SCB_IS_I2C_BUFFER_VALID(buffer, size)    ( (0UL == (size)) ? true : (NULL != (buffer)) )
ARM GAS  C:\Users\JC\AppData\Local\Temp\ccY7kCY2.s 			page 12


 602:Generated_Source\PSoC6\pdl\drivers\peripheral\scb/cy_scb_common.h **** /** \endcond */
 603:Generated_Source\PSoC6\pdl\drivers\peripheral\scb/cy_scb_common.h **** 
 604:Generated_Source\PSoC6\pdl\drivers\peripheral\scb/cy_scb_common.h **** /** \} group_scb_common_macros */
 605:Generated_Source\PSoC6\pdl\drivers\peripheral\scb/cy_scb_common.h **** 
 606:Generated_Source\PSoC6\pdl\drivers\peripheral\scb/cy_scb_common.h **** 
 607:Generated_Source\PSoC6\pdl\drivers\peripheral\scb/cy_scb_common.h **** /*******************************************************************************
 608:Generated_Source\PSoC6\pdl\drivers\peripheral\scb/cy_scb_common.h **** *                       In-line Function Implementation
 609:Generated_Source\PSoC6\pdl\drivers\peripheral\scb/cy_scb_common.h **** *******************************************************************************/
 610:Generated_Source\PSoC6\pdl\drivers\peripheral\scb/cy_scb_common.h **** 
 611:Generated_Source\PSoC6\pdl\drivers\peripheral\scb/cy_scb_common.h **** /**
 612:Generated_Source\PSoC6\pdl\drivers\peripheral\scb/cy_scb_common.h **** * \addtogroup group_scb_common_functions
 613:Generated_Source\PSoC6\pdl\drivers\peripheral\scb/cy_scb_common.h **** * \{
 614:Generated_Source\PSoC6\pdl\drivers\peripheral\scb/cy_scb_common.h **** */
 615:Generated_Source\PSoC6\pdl\drivers\peripheral\scb/cy_scb_common.h **** 
 616:Generated_Source\PSoC6\pdl\drivers\peripheral\scb/cy_scb_common.h **** /*******************************************************************************
 617:Generated_Source\PSoC6\pdl\drivers\peripheral\scb/cy_scb_common.h **** * Function Name: Cy_SCB_ReadRxFifo
 618:Generated_Source\PSoC6\pdl\drivers\peripheral\scb/cy_scb_common.h **** ****************************************************************************//**
 619:Generated_Source\PSoC6\pdl\drivers\peripheral\scb/cy_scb_common.h **** *
 620:Generated_Source\PSoC6\pdl\drivers\peripheral\scb/cy_scb_common.h **** * Reads a data element directly out of the RX FIFO.
 621:Generated_Source\PSoC6\pdl\drivers\peripheral\scb/cy_scb_common.h **** * This function does not check whether the RX FIFO has data before reading it.
 622:Generated_Source\PSoC6\pdl\drivers\peripheral\scb/cy_scb_common.h **** *
 623:Generated_Source\PSoC6\pdl\drivers\peripheral\scb/cy_scb_common.h **** * \param base
 624:Generated_Source\PSoC6\pdl\drivers\peripheral\scb/cy_scb_common.h **** * The pointer to the SCB instance.
 625:Generated_Source\PSoC6\pdl\drivers\peripheral\scb/cy_scb_common.h **** *
 626:Generated_Source\PSoC6\pdl\drivers\peripheral\scb/cy_scb_common.h **** * \return
 627:Generated_Source\PSoC6\pdl\drivers\peripheral\scb/cy_scb_common.h **** * Data from RX FIFO.
 628:Generated_Source\PSoC6\pdl\drivers\peripheral\scb/cy_scb_common.h **** *
 629:Generated_Source\PSoC6\pdl\drivers\peripheral\scb/cy_scb_common.h **** *******************************************************************************/
 630:Generated_Source\PSoC6\pdl\drivers\peripheral\scb/cy_scb_common.h **** __STATIC_INLINE uint32_t Cy_SCB_ReadRxFifo(CySCB_Type const *base)
 631:Generated_Source\PSoC6\pdl\drivers\peripheral\scb/cy_scb_common.h **** {
  27              		.loc 1 631 0
  28              		.cfi_startproc
  29              		@ args = 0, pretend = 0, frame = 8
  30              		@ frame_needed = 1, uses_anonymous_args = 0
  31 0000 80B5     		push	{r7, lr}
  32              		.cfi_def_cfa_offset 8
  33              		.cfi_offset 7, -8
  34              		.cfi_offset 14, -4
  35 0002 82B0     		sub	sp, sp, #8
  36              		.cfi_def_cfa_offset 16
  37 0004 00AF     		add	r7, sp, #0
  38              		.cfi_def_cfa_register 7
  39 0006 7860     		str	r0, [r7, #4]
 632:Generated_Source\PSoC6\pdl\drivers\peripheral\scb/cy_scb_common.h ****     return (SCB_RX_FIFO_RD(base));
  40              		.loc 1 632 0
  41 0008 7A68     		ldr	r2, [r7, #4]
  42 000a D023     		movs	r3, #208
  43 000c 9B00     		lsls	r3, r3, #2
  44 000e D358     		ldr	r3, [r2, r3]
 633:Generated_Source\PSoC6\pdl\drivers\peripheral\scb/cy_scb_common.h **** }
  45              		.loc 1 633 0
  46 0010 1800     		movs	r0, r3
  47 0012 BD46     		mov	sp, r7
  48 0014 02B0     		add	sp, sp, #8
  49              		@ sp needed
  50 0016 80BD     		pop	{r7, pc}
  51              		.cfi_endproc
ARM GAS  C:\Users\JC\AppData\Local\Temp\ccY7kCY2.s 			page 13


  52              	.LFE79:
  53              		.size	Cy_SCB_ReadRxFifo, .-Cy_SCB_ReadRxFifo
  54              		.section	.rodata
  55              		.align	2
  56              	.LC0:
  57 0000 47656E65 		.ascii	"Generated_Source\\PSoC6\\pdl\\drivers\\peripheral\\"
  57      72617465 
  57      645F536F 
  57      75726365 
  57      5C50536F 
  58 002e 7363625C 		.ascii	"scb\\cy_scb_common.h\000"
  58      63795F73 
  58      63625F63 
  58      6F6D6D6F 
  58      6E2E6800 
  59              		.section	.text.Cy_SCB_SetRxFifoLevel,"ax",%progbits
  60              		.align	2
  61              		.code	16
  62              		.thumb_func
  63              		.type	Cy_SCB_SetRxFifoLevel, %function
  64              	Cy_SCB_SetRxFifoLevel:
  65              	.LFB80:
 634:Generated_Source\PSoC6\pdl\drivers\peripheral\scb/cy_scb_common.h **** 
 635:Generated_Source\PSoC6\pdl\drivers\peripheral\scb/cy_scb_common.h **** /*******************************************************************************
 636:Generated_Source\PSoC6\pdl\drivers\peripheral\scb/cy_scb_common.h **** * Function Name: Cy_SCB_SetRxFifoLevel
 637:Generated_Source\PSoC6\pdl\drivers\peripheral\scb/cy_scb_common.h **** ****************************************************************************//**
 638:Generated_Source\PSoC6\pdl\drivers\peripheral\scb/cy_scb_common.h **** *
 639:Generated_Source\PSoC6\pdl\drivers\peripheral\scb/cy_scb_common.h **** * Sets the RX FIFO level. When there are more data elements in the RX FIFO than
 640:Generated_Source\PSoC6\pdl\drivers\peripheral\scb/cy_scb_common.h **** * this level, the RX FIFO level interrupt is triggered.
 641:Generated_Source\PSoC6\pdl\drivers\peripheral\scb/cy_scb_common.h **** *
 642:Generated_Source\PSoC6\pdl\drivers\peripheral\scb/cy_scb_common.h **** * \param base
 643:Generated_Source\PSoC6\pdl\drivers\peripheral\scb/cy_scb_common.h **** * The pointer to the SCB instance.
 644:Generated_Source\PSoC6\pdl\drivers\peripheral\scb/cy_scb_common.h **** *
 645:Generated_Source\PSoC6\pdl\drivers\peripheral\scb/cy_scb_common.h **** * \param level
 646:Generated_Source\PSoC6\pdl\drivers\peripheral\scb/cy_scb_common.h **** * When there are more data elements in the FIFO than this level, the RX level
 647:Generated_Source\PSoC6\pdl\drivers\peripheral\scb/cy_scb_common.h **** * interrupt is triggered.
 648:Generated_Source\PSoC6\pdl\drivers\peripheral\scb/cy_scb_common.h **** *
 649:Generated_Source\PSoC6\pdl\drivers\peripheral\scb/cy_scb_common.h **** *******************************************************************************/
 650:Generated_Source\PSoC6\pdl\drivers\peripheral\scb/cy_scb_common.h **** __STATIC_INLINE void Cy_SCB_SetRxFifoLevel(CySCB_Type *base, uint32_t level)
 651:Generated_Source\PSoC6\pdl\drivers\peripheral\scb/cy_scb_common.h **** {
  66              		.loc 1 651 0
  67              		.cfi_startproc
  68              		@ args = 0, pretend = 0, frame = 8
  69              		@ frame_needed = 1, uses_anonymous_args = 0
  70 0000 80B5     		push	{r7, lr}
  71              		.cfi_def_cfa_offset 8
  72              		.cfi_offset 7, -8
  73              		.cfi_offset 14, -4
  74 0002 82B0     		sub	sp, sp, #8
  75              		.cfi_def_cfa_offset 16
  76 0004 00AF     		add	r7, sp, #0
  77              		.cfi_def_cfa_register 7
  78 0006 7860     		str	r0, [r7, #4]
  79 0008 3960     		str	r1, [r7]
 652:Generated_Source\PSoC6\pdl\drivers\peripheral\scb/cy_scb_common.h ****     CY_ASSERT_L2(CY_SCB_IS_TRIGGER_LEVEL_VALID(base, level));
  80              		.loc 1 652 0
  81 000a 7B68     		ldr	r3, [r7, #4]
ARM GAS  C:\Users\JC\AppData\Local\Temp\ccY7kCY2.s 			page 14


  82 000c 1800     		movs	r0, r3
  83 000e FFF7FEFF 		bl	Cy_SCB_GetFifoSize
  84 0012 0200     		movs	r2, r0
  85 0014 3B68     		ldr	r3, [r7]
  86 0016 9A42     		cmp	r2, r3
  87 0018 06D8     		bhi	.L4
  88              		.loc 1 652 0 is_stmt 0 discriminator 1
  89 001a A323     		movs	r3, #163
  90 001c 9A00     		lsls	r2, r3, #2
  91 001e 0C4B     		ldr	r3, .L5
  92 0020 1100     		movs	r1, r2
  93 0022 1800     		movs	r0, r3
  94 0024 FFF7FEFF 		bl	Cy_SysLib_AssertFailed
  95              	.L4:
 653:Generated_Source\PSoC6\pdl\drivers\peripheral\scb/cy_scb_common.h **** 
 654:Generated_Source\PSoC6\pdl\drivers\peripheral\scb/cy_scb_common.h ****     CY_REG32_CLR_SET(SCB_RX_FIFO_CTRL(base), SCB_RX_FIFO_CTRL_TRIGGER_LEVEL, level);
  96              		.loc 1 654 0 is_stmt 1
  97 0028 7A68     		ldr	r2, [r7, #4]
  98 002a C123     		movs	r3, #193
  99 002c 9B00     		lsls	r3, r3, #2
 100 002e D358     		ldr	r3, [r2, r3]
 101 0030 FF22     		movs	r2, #255
 102 0032 9343     		bics	r3, r2
 103 0034 1A00     		movs	r2, r3
 104 0036 3B68     		ldr	r3, [r7]
 105 0038 FF21     		movs	r1, #255
 106 003a 0B40     		ands	r3, r1
 107 003c 1A43     		orrs	r2, r3
 108 003e 1100     		movs	r1, r2
 109 0040 7A68     		ldr	r2, [r7, #4]
 110 0042 C123     		movs	r3, #193
 111 0044 9B00     		lsls	r3, r3, #2
 112 0046 D150     		str	r1, [r2, r3]
 655:Generated_Source\PSoC6\pdl\drivers\peripheral\scb/cy_scb_common.h **** }
 113              		.loc 1 655 0
 114 0048 C046     		nop
 115 004a BD46     		mov	sp, r7
 116 004c 02B0     		add	sp, sp, #8
 117              		@ sp needed
 118 004e 80BD     		pop	{r7, pc}
 119              	.L6:
 120              		.align	2
 121              	.L5:
 122 0050 00000000 		.word	.LC0
 123              		.cfi_endproc
 124              	.LFE80:
 125              		.size	Cy_SCB_SetRxFifoLevel, .-Cy_SCB_SetRxFifoLevel
 126              		.section	.text.Cy_SCB_GetNumInRxFifo,"ax",%progbits
 127              		.align	2
 128              		.code	16
 129              		.thumb_func
 130              		.type	Cy_SCB_GetNumInRxFifo, %function
 131              	Cy_SCB_GetNumInRxFifo:
 132              	.LFB81:
 656:Generated_Source\PSoC6\pdl\drivers\peripheral\scb/cy_scb_common.h **** 
 657:Generated_Source\PSoC6\pdl\drivers\peripheral\scb/cy_scb_common.h **** 
 658:Generated_Source\PSoC6\pdl\drivers\peripheral\scb/cy_scb_common.h **** /*******************************************************************************
ARM GAS  C:\Users\JC\AppData\Local\Temp\ccY7kCY2.s 			page 15


 659:Generated_Source\PSoC6\pdl\drivers\peripheral\scb/cy_scb_common.h **** * Function Name: Cy_SCB_GetNumInRxFifo
 660:Generated_Source\PSoC6\pdl\drivers\peripheral\scb/cy_scb_common.h **** ****************************************************************************//**
 661:Generated_Source\PSoC6\pdl\drivers\peripheral\scb/cy_scb_common.h **** *
 662:Generated_Source\PSoC6\pdl\drivers\peripheral\scb/cy_scb_common.h **** * Returns the number of data elements currently in the RX FIFO.
 663:Generated_Source\PSoC6\pdl\drivers\peripheral\scb/cy_scb_common.h **** *
 664:Generated_Source\PSoC6\pdl\drivers\peripheral\scb/cy_scb_common.h **** * \param base
 665:Generated_Source\PSoC6\pdl\drivers\peripheral\scb/cy_scb_common.h **** * The pointer to the SCB instance.
 666:Generated_Source\PSoC6\pdl\drivers\peripheral\scb/cy_scb_common.h **** *
 667:Generated_Source\PSoC6\pdl\drivers\peripheral\scb/cy_scb_common.h **** * \return
 668:Generated_Source\PSoC6\pdl\drivers\peripheral\scb/cy_scb_common.h **** * The number or data elements in RX FIFO.
 669:Generated_Source\PSoC6\pdl\drivers\peripheral\scb/cy_scb_common.h **** *
 670:Generated_Source\PSoC6\pdl\drivers\peripheral\scb/cy_scb_common.h **** *******************************************************************************/
 671:Generated_Source\PSoC6\pdl\drivers\peripheral\scb/cy_scb_common.h **** __STATIC_INLINE uint32_t Cy_SCB_GetNumInRxFifo(CySCB_Type const *base)
 672:Generated_Source\PSoC6\pdl\drivers\peripheral\scb/cy_scb_common.h **** {
 133              		.loc 1 672 0
 134              		.cfi_startproc
 135              		@ args = 0, pretend = 0, frame = 8
 136              		@ frame_needed = 1, uses_anonymous_args = 0
 137 0000 80B5     		push	{r7, lr}
 138              		.cfi_def_cfa_offset 8
 139              		.cfi_offset 7, -8
 140              		.cfi_offset 14, -4
 141 0002 82B0     		sub	sp, sp, #8
 142              		.cfi_def_cfa_offset 16
 143 0004 00AF     		add	r7, sp, #0
 144              		.cfi_def_cfa_register 7
 145 0006 7860     		str	r0, [r7, #4]
 673:Generated_Source\PSoC6\pdl\drivers\peripheral\scb/cy_scb_common.h ****     return _FLD2VAL(SCB_RX_FIFO_STATUS_USED, SCB_RX_FIFO_STATUS(base));
 146              		.loc 1 673 0
 147 0008 7A68     		ldr	r2, [r7, #4]
 148 000a C223     		movs	r3, #194
 149 000c 9B00     		lsls	r3, r3, #2
 150 000e D358     		ldr	r3, [r2, r3]
 151 0010 DB05     		lsls	r3, r3, #23
 152 0012 DB0D     		lsrs	r3, r3, #23
 674:Generated_Source\PSoC6\pdl\drivers\peripheral\scb/cy_scb_common.h **** }
 153              		.loc 1 674 0
 154 0014 1800     		movs	r0, r3
 155 0016 BD46     		mov	sp, r7
 156 0018 02B0     		add	sp, sp, #8
 157              		@ sp needed
 158 001a 80BD     		pop	{r7, pc}
 159              		.cfi_endproc
 160              	.LFE81:
 161              		.size	Cy_SCB_GetNumInRxFifo, .-Cy_SCB_GetNumInRxFifo
 162              		.section	.text.Cy_SCB_ClearRxFifo,"ax",%progbits
 163              		.align	2
 164              		.code	16
 165              		.thumb_func
 166              		.type	Cy_SCB_ClearRxFifo, %function
 167              	Cy_SCB_ClearRxFifo:
 168              	.LFB83:
 675:Generated_Source\PSoC6\pdl\drivers\peripheral\scb/cy_scb_common.h **** 
 676:Generated_Source\PSoC6\pdl\drivers\peripheral\scb/cy_scb_common.h **** 
 677:Generated_Source\PSoC6\pdl\drivers\peripheral\scb/cy_scb_common.h **** /*******************************************************************************
 678:Generated_Source\PSoC6\pdl\drivers\peripheral\scb/cy_scb_common.h **** * Function Name: Cy_SCB_GetRxSrValid
 679:Generated_Source\PSoC6\pdl\drivers\peripheral\scb/cy_scb_common.h **** ****************************************************************************//**
ARM GAS  C:\Users\JC\AppData\Local\Temp\ccY7kCY2.s 			page 16


 680:Generated_Source\PSoC6\pdl\drivers\peripheral\scb/cy_scb_common.h **** *
 681:Generated_Source\PSoC6\pdl\drivers\peripheral\scb/cy_scb_common.h **** * Returns the status of the RX FIFO Shift Register valid bit.
 682:Generated_Source\PSoC6\pdl\drivers\peripheral\scb/cy_scb_common.h **** *
 683:Generated_Source\PSoC6\pdl\drivers\peripheral\scb/cy_scb_common.h **** * \param base
 684:Generated_Source\PSoC6\pdl\drivers\peripheral\scb/cy_scb_common.h **** * The pointer to the SCB instance.
 685:Generated_Source\PSoC6\pdl\drivers\peripheral\scb/cy_scb_common.h **** *
 686:Generated_Source\PSoC6\pdl\drivers\peripheral\scb/cy_scb_common.h **** * \return
 687:Generated_Source\PSoC6\pdl\drivers\peripheral\scb/cy_scb_common.h **** * 1 - RX shift register valid; 0 - RX shift register not valid.
 688:Generated_Source\PSoC6\pdl\drivers\peripheral\scb/cy_scb_common.h **** *
 689:Generated_Source\PSoC6\pdl\drivers\peripheral\scb/cy_scb_common.h **** *******************************************************************************/
 690:Generated_Source\PSoC6\pdl\drivers\peripheral\scb/cy_scb_common.h **** __STATIC_INLINE uint32_t Cy_SCB_GetRxSrValid(CySCB_Type const *base)
 691:Generated_Source\PSoC6\pdl\drivers\peripheral\scb/cy_scb_common.h **** {
 692:Generated_Source\PSoC6\pdl\drivers\peripheral\scb/cy_scb_common.h ****     return _FLD2VAL(SCB_RX_FIFO_STATUS_SR_VALID, SCB_RX_FIFO_STATUS(base));
 693:Generated_Source\PSoC6\pdl\drivers\peripheral\scb/cy_scb_common.h **** }
 694:Generated_Source\PSoC6\pdl\drivers\peripheral\scb/cy_scb_common.h **** 
 695:Generated_Source\PSoC6\pdl\drivers\peripheral\scb/cy_scb_common.h **** 
 696:Generated_Source\PSoC6\pdl\drivers\peripheral\scb/cy_scb_common.h **** /*******************************************************************************
 697:Generated_Source\PSoC6\pdl\drivers\peripheral\scb/cy_scb_common.h **** * Function Name: Cy_SCB_ClearRxFifo
 698:Generated_Source\PSoC6\pdl\drivers\peripheral\scb/cy_scb_common.h **** ****************************************************************************//**
 699:Generated_Source\PSoC6\pdl\drivers\peripheral\scb/cy_scb_common.h **** *
 700:Generated_Source\PSoC6\pdl\drivers\peripheral\scb/cy_scb_common.h **** * Clears the RX FIFO and shifter.
 701:Generated_Source\PSoC6\pdl\drivers\peripheral\scb/cy_scb_common.h **** *
 702:Generated_Source\PSoC6\pdl\drivers\peripheral\scb/cy_scb_common.h **** * \param base
 703:Generated_Source\PSoC6\pdl\drivers\peripheral\scb/cy_scb_common.h **** * The pointer to the SCB instance.
 704:Generated_Source\PSoC6\pdl\drivers\peripheral\scb/cy_scb_common.h **** *
 705:Generated_Source\PSoC6\pdl\drivers\peripheral\scb/cy_scb_common.h **** * \note
 706:Generated_Source\PSoC6\pdl\drivers\peripheral\scb/cy_scb_common.h **** * If there is partial data in the shifter, it is cleared and lost.
 707:Generated_Source\PSoC6\pdl\drivers\peripheral\scb/cy_scb_common.h **** *
 708:Generated_Source\PSoC6\pdl\drivers\peripheral\scb/cy_scb_common.h **** *******************************************************************************/
 709:Generated_Source\PSoC6\pdl\drivers\peripheral\scb/cy_scb_common.h **** __STATIC_INLINE void Cy_SCB_ClearRxFifo(CySCB_Type* base)
 710:Generated_Source\PSoC6\pdl\drivers\peripheral\scb/cy_scb_common.h **** {
 169              		.loc 1 710 0
 170              		.cfi_startproc
 171              		@ args = 0, pretend = 0, frame = 8
 172              		@ frame_needed = 1, uses_anonymous_args = 0
 173 0000 80B5     		push	{r7, lr}
 174              		.cfi_def_cfa_offset 8
 175              		.cfi_offset 7, -8
 176              		.cfi_offset 14, -4
 177 0002 82B0     		sub	sp, sp, #8
 178              		.cfi_def_cfa_offset 16
 179 0004 00AF     		add	r7, sp, #0
 180              		.cfi_def_cfa_register 7
 181 0006 7860     		str	r0, [r7, #4]
 711:Generated_Source\PSoC6\pdl\drivers\peripheral\scb/cy_scb_common.h ****     SCB_RX_FIFO_CTRL(base) |= (uint32_t)  SCB_RX_FIFO_CTRL_CLEAR_Msk;
 182              		.loc 1 711 0
 183 0008 7A68     		ldr	r2, [r7, #4]
 184 000a C123     		movs	r3, #193
 185 000c 9B00     		lsls	r3, r3, #2
 186 000e D358     		ldr	r3, [r2, r3]
 187 0010 8022     		movs	r2, #128
 188 0012 5202     		lsls	r2, r2, #9
 189 0014 1A43     		orrs	r2, r3
 190 0016 1100     		movs	r1, r2
 191 0018 7A68     		ldr	r2, [r7, #4]
 192 001a C123     		movs	r3, #193
 193 001c 9B00     		lsls	r3, r3, #2
ARM GAS  C:\Users\JC\AppData\Local\Temp\ccY7kCY2.s 			page 17


 194 001e D150     		str	r1, [r2, r3]
 712:Generated_Source\PSoC6\pdl\drivers\peripheral\scb/cy_scb_common.h ****     SCB_RX_FIFO_CTRL(base) &= (uint32_t) ~SCB_RX_FIFO_CTRL_CLEAR_Msk;
 195              		.loc 1 712 0
 196 0020 7A68     		ldr	r2, [r7, #4]
 197 0022 C123     		movs	r3, #193
 198 0024 9B00     		lsls	r3, r3, #2
 199 0026 D358     		ldr	r3, [r2, r3]
 200 0028 074A     		ldr	r2, .L10
 201 002a 1340     		ands	r3, r2
 202 002c 1900     		movs	r1, r3
 203 002e 7A68     		ldr	r2, [r7, #4]
 204 0030 C123     		movs	r3, #193
 205 0032 9B00     		lsls	r3, r3, #2
 206 0034 D150     		str	r1, [r2, r3]
 713:Generated_Source\PSoC6\pdl\drivers\peripheral\scb/cy_scb_common.h **** 
 714:Generated_Source\PSoC6\pdl\drivers\peripheral\scb/cy_scb_common.h ****     (void) SCB_RX_FIFO_CTRL(base);
 207              		.loc 1 714 0
 208 0036 7A68     		ldr	r2, [r7, #4]
 209 0038 C123     		movs	r3, #193
 210 003a 9B00     		lsls	r3, r3, #2
 211 003c D358     		ldr	r3, [r2, r3]
 715:Generated_Source\PSoC6\pdl\drivers\peripheral\scb/cy_scb_common.h **** }
 212              		.loc 1 715 0
 213 003e C046     		nop
 214 0040 BD46     		mov	sp, r7
 215 0042 02B0     		add	sp, sp, #8
 216              		@ sp needed
 217 0044 80BD     		pop	{r7, pc}
 218              	.L11:
 219 0046 C046     		.align	2
 220              	.L10:
 221 0048 FFFFFEFF 		.word	-65537
 222              		.cfi_endproc
 223              	.LFE83:
 224              		.size	Cy_SCB_ClearRxFifo, .-Cy_SCB_ClearRxFifo
 225              		.section	.text.Cy_SCB_WriteTxFifo,"ax",%progbits
 226              		.align	2
 227              		.code	16
 228              		.thumb_func
 229              		.type	Cy_SCB_WriteTxFifo, %function
 230              	Cy_SCB_WriteTxFifo:
 231              	.LFB84:
 716:Generated_Source\PSoC6\pdl\drivers\peripheral\scb/cy_scb_common.h **** 
 717:Generated_Source\PSoC6\pdl\drivers\peripheral\scb/cy_scb_common.h **** 
 718:Generated_Source\PSoC6\pdl\drivers\peripheral\scb/cy_scb_common.h **** /*******************************************************************************
 719:Generated_Source\PSoC6\pdl\drivers\peripheral\scb/cy_scb_common.h **** * Function Name: Cy_SCB_WriteTxFifo
 720:Generated_Source\PSoC6\pdl\drivers\peripheral\scb/cy_scb_common.h **** ****************************************************************************//**
 721:Generated_Source\PSoC6\pdl\drivers\peripheral\scb/cy_scb_common.h **** *
 722:Generated_Source\PSoC6\pdl\drivers\peripheral\scb/cy_scb_common.h **** * Writes data directly into the TX FIFO.
 723:Generated_Source\PSoC6\pdl\drivers\peripheral\scb/cy_scb_common.h **** * This function does not check whether the TX FIFO is not full before writing
 724:Generated_Source\PSoC6\pdl\drivers\peripheral\scb/cy_scb_common.h **** * into it.
 725:Generated_Source\PSoC6\pdl\drivers\peripheral\scb/cy_scb_common.h **** *
 726:Generated_Source\PSoC6\pdl\drivers\peripheral\scb/cy_scb_common.h **** * \param base
 727:Generated_Source\PSoC6\pdl\drivers\peripheral\scb/cy_scb_common.h **** * The pointer to the SCB instance.
 728:Generated_Source\PSoC6\pdl\drivers\peripheral\scb/cy_scb_common.h **** *
 729:Generated_Source\PSoC6\pdl\drivers\peripheral\scb/cy_scb_common.h **** * \param data
 730:Generated_Source\PSoC6\pdl\drivers\peripheral\scb/cy_scb_common.h **** * Data to write to the TX FIFO.
ARM GAS  C:\Users\JC\AppData\Local\Temp\ccY7kCY2.s 			page 18


 731:Generated_Source\PSoC6\pdl\drivers\peripheral\scb/cy_scb_common.h **** *
 732:Generated_Source\PSoC6\pdl\drivers\peripheral\scb/cy_scb_common.h **** *******************************************************************************/
 733:Generated_Source\PSoC6\pdl\drivers\peripheral\scb/cy_scb_common.h **** __STATIC_INLINE void Cy_SCB_WriteTxFifo(CySCB_Type* base, uint32_t data)
 734:Generated_Source\PSoC6\pdl\drivers\peripheral\scb/cy_scb_common.h **** {
 232              		.loc 1 734 0
 233              		.cfi_startproc
 234              		@ args = 0, pretend = 0, frame = 8
 235              		@ frame_needed = 1, uses_anonymous_args = 0
 236 0000 80B5     		push	{r7, lr}
 237              		.cfi_def_cfa_offset 8
 238              		.cfi_offset 7, -8
 239              		.cfi_offset 14, -4
 240 0002 82B0     		sub	sp, sp, #8
 241              		.cfi_def_cfa_offset 16
 242 0004 00AF     		add	r7, sp, #0
 243              		.cfi_def_cfa_register 7
 244 0006 7860     		str	r0, [r7, #4]
 245 0008 3960     		str	r1, [r7]
 735:Generated_Source\PSoC6\pdl\drivers\peripheral\scb/cy_scb_common.h ****     SCB_TX_FIFO_WR(base) = data;
 246              		.loc 1 735 0
 247 000a 7A68     		ldr	r2, [r7, #4]
 248 000c 9023     		movs	r3, #144
 249 000e 9B00     		lsls	r3, r3, #2
 250 0010 3968     		ldr	r1, [r7]
 251 0012 D150     		str	r1, [r2, r3]
 736:Generated_Source\PSoC6\pdl\drivers\peripheral\scb/cy_scb_common.h **** }
 252              		.loc 1 736 0
 253 0014 C046     		nop
 254 0016 BD46     		mov	sp, r7
 255 0018 02B0     		add	sp, sp, #8
 256              		@ sp needed
 257 001a 80BD     		pop	{r7, pc}
 258              		.cfi_endproc
 259              	.LFE84:
 260              		.size	Cy_SCB_WriteTxFifo, .-Cy_SCB_WriteTxFifo
 261              		.section	.text.Cy_SCB_SetTxFifoLevel,"ax",%progbits
 262              		.align	2
 263              		.code	16
 264              		.thumb_func
 265              		.type	Cy_SCB_SetTxFifoLevel, %function
 266              	Cy_SCB_SetTxFifoLevel:
 267              	.LFB85:
 737:Generated_Source\PSoC6\pdl\drivers\peripheral\scb/cy_scb_common.h **** 
 738:Generated_Source\PSoC6\pdl\drivers\peripheral\scb/cy_scb_common.h **** 
 739:Generated_Source\PSoC6\pdl\drivers\peripheral\scb/cy_scb_common.h **** /*******************************************************************************
 740:Generated_Source\PSoC6\pdl\drivers\peripheral\scb/cy_scb_common.h **** * Function Name: Cy_SCB_SetTxFifoLevel
 741:Generated_Source\PSoC6\pdl\drivers\peripheral\scb/cy_scb_common.h **** ****************************************************************************//**
 742:Generated_Source\PSoC6\pdl\drivers\peripheral\scb/cy_scb_common.h **** *
 743:Generated_Source\PSoC6\pdl\drivers\peripheral\scb/cy_scb_common.h **** * Sets the TX FIFO level. When there are fewer data elements in the TX FIFO than
 744:Generated_Source\PSoC6\pdl\drivers\peripheral\scb/cy_scb_common.h **** * this level, the TX FIFO level interrupt is triggered.
 745:Generated_Source\PSoC6\pdl\drivers\peripheral\scb/cy_scb_common.h **** *
 746:Generated_Source\PSoC6\pdl\drivers\peripheral\scb/cy_scb_common.h **** * \param base
 747:Generated_Source\PSoC6\pdl\drivers\peripheral\scb/cy_scb_common.h **** * The pointer to the SCB instance.
 748:Generated_Source\PSoC6\pdl\drivers\peripheral\scb/cy_scb_common.h **** *
 749:Generated_Source\PSoC6\pdl\drivers\peripheral\scb/cy_scb_common.h **** * \param level
 750:Generated_Source\PSoC6\pdl\drivers\peripheral\scb/cy_scb_common.h **** * When there are fewer data elements in the FIFO than this level, the TX level
 751:Generated_Source\PSoC6\pdl\drivers\peripheral\scb/cy_scb_common.h **** * interrupt is triggered.
ARM GAS  C:\Users\JC\AppData\Local\Temp\ccY7kCY2.s 			page 19


 752:Generated_Source\PSoC6\pdl\drivers\peripheral\scb/cy_scb_common.h **** *
 753:Generated_Source\PSoC6\pdl\drivers\peripheral\scb/cy_scb_common.h **** *******************************************************************************/
 754:Generated_Source\PSoC6\pdl\drivers\peripheral\scb/cy_scb_common.h **** __STATIC_INLINE void Cy_SCB_SetTxFifoLevel(CySCB_Type *base, uint32_t level)
 755:Generated_Source\PSoC6\pdl\drivers\peripheral\scb/cy_scb_common.h **** {
 268              		.loc 1 755 0
 269              		.cfi_startproc
 270              		@ args = 0, pretend = 0, frame = 8
 271              		@ frame_needed = 1, uses_anonymous_args = 0
 272 0000 80B5     		push	{r7, lr}
 273              		.cfi_def_cfa_offset 8
 274              		.cfi_offset 7, -8
 275              		.cfi_offset 14, -4
 276 0002 82B0     		sub	sp, sp, #8
 277              		.cfi_def_cfa_offset 16
 278 0004 00AF     		add	r7, sp, #0
 279              		.cfi_def_cfa_register 7
 280 0006 7860     		str	r0, [r7, #4]
 281 0008 3960     		str	r1, [r7]
 756:Generated_Source\PSoC6\pdl\drivers\peripheral\scb/cy_scb_common.h ****     CY_ASSERT_L2(CY_SCB_IS_TRIGGER_LEVEL_VALID(base, level));
 282              		.loc 1 756 0
 283 000a 7B68     		ldr	r3, [r7, #4]
 284 000c 1800     		movs	r0, r3
 285 000e FFF7FEFF 		bl	Cy_SCB_GetFifoSize
 286 0012 0200     		movs	r2, r0
 287 0014 3B68     		ldr	r3, [r7]
 288 0016 9A42     		cmp	r2, r3
 289 0018 06D8     		bhi	.L14
 290              		.loc 1 756 0 is_stmt 0 discriminator 1
 291 001a BD23     		movs	r3, #189
 292 001c 9A00     		lsls	r2, r3, #2
 293 001e 0C4B     		ldr	r3, .L15
 294 0020 1100     		movs	r1, r2
 295 0022 1800     		movs	r0, r3
 296 0024 FFF7FEFF 		bl	Cy_SysLib_AssertFailed
 297              	.L14:
 757:Generated_Source\PSoC6\pdl\drivers\peripheral\scb/cy_scb_common.h **** 
 758:Generated_Source\PSoC6\pdl\drivers\peripheral\scb/cy_scb_common.h ****     CY_REG32_CLR_SET(SCB_TX_FIFO_CTRL(base), SCB_TX_FIFO_CTRL_TRIGGER_LEVEL, level);
 298              		.loc 1 758 0 is_stmt 1
 299 0028 7A68     		ldr	r2, [r7, #4]
 300 002a 8123     		movs	r3, #129
 301 002c 9B00     		lsls	r3, r3, #2
 302 002e D358     		ldr	r3, [r2, r3]
 303 0030 FF22     		movs	r2, #255
 304 0032 9343     		bics	r3, r2
 305 0034 1A00     		movs	r2, r3
 306 0036 3B68     		ldr	r3, [r7]
 307 0038 FF21     		movs	r1, #255
 308 003a 0B40     		ands	r3, r1
 309 003c 1A43     		orrs	r2, r3
 310 003e 1100     		movs	r1, r2
 311 0040 7A68     		ldr	r2, [r7, #4]
 312 0042 8123     		movs	r3, #129
 313 0044 9B00     		lsls	r3, r3, #2
 314 0046 D150     		str	r1, [r2, r3]
 759:Generated_Source\PSoC6\pdl\drivers\peripheral\scb/cy_scb_common.h **** }
 315              		.loc 1 759 0
 316 0048 C046     		nop
ARM GAS  C:\Users\JC\AppData\Local\Temp\ccY7kCY2.s 			page 20


 317 004a BD46     		mov	sp, r7
 318 004c 02B0     		add	sp, sp, #8
 319              		@ sp needed
 320 004e 80BD     		pop	{r7, pc}
 321              	.L16:
 322              		.align	2
 323              	.L15:
 324 0050 00000000 		.word	.LC0
 325              		.cfi_endproc
 326              	.LFE85:
 327              		.size	Cy_SCB_SetTxFifoLevel, .-Cy_SCB_SetTxFifoLevel
 328              		.section	.text.Cy_SCB_GetNumInTxFifo,"ax",%progbits
 329              		.align	2
 330              		.code	16
 331              		.thumb_func
 332              		.type	Cy_SCB_GetNumInTxFifo, %function
 333              	Cy_SCB_GetNumInTxFifo:
 334              	.LFB86:
 760:Generated_Source\PSoC6\pdl\drivers\peripheral\scb/cy_scb_common.h **** 
 761:Generated_Source\PSoC6\pdl\drivers\peripheral\scb/cy_scb_common.h **** 
 762:Generated_Source\PSoC6\pdl\drivers\peripheral\scb/cy_scb_common.h **** /*******************************************************************************
 763:Generated_Source\PSoC6\pdl\drivers\peripheral\scb/cy_scb_common.h **** * Function Name: Cy_SCB_GetNumInTxFifo
 764:Generated_Source\PSoC6\pdl\drivers\peripheral\scb/cy_scb_common.h **** ****************************************************************************//**
 765:Generated_Source\PSoC6\pdl\drivers\peripheral\scb/cy_scb_common.h **** *
 766:Generated_Source\PSoC6\pdl\drivers\peripheral\scb/cy_scb_common.h **** * Returns the number of data elements currently in the TX FIFO.
 767:Generated_Source\PSoC6\pdl\drivers\peripheral\scb/cy_scb_common.h **** *
 768:Generated_Source\PSoC6\pdl\drivers\peripheral\scb/cy_scb_common.h **** * \param base
 769:Generated_Source\PSoC6\pdl\drivers\peripheral\scb/cy_scb_common.h **** * The pointer to the SCB instance.
 770:Generated_Source\PSoC6\pdl\drivers\peripheral\scb/cy_scb_common.h **** *
 771:Generated_Source\PSoC6\pdl\drivers\peripheral\scb/cy_scb_common.h **** * \return
 772:Generated_Source\PSoC6\pdl\drivers\peripheral\scb/cy_scb_common.h **** * The number or data elements in the TX FIFO.
 773:Generated_Source\PSoC6\pdl\drivers\peripheral\scb/cy_scb_common.h **** *
 774:Generated_Source\PSoC6\pdl\drivers\peripheral\scb/cy_scb_common.h **** *******************************************************************************/
 775:Generated_Source\PSoC6\pdl\drivers\peripheral\scb/cy_scb_common.h **** __STATIC_INLINE uint32_t Cy_SCB_GetNumInTxFifo(CySCB_Type const *base)
 776:Generated_Source\PSoC6\pdl\drivers\peripheral\scb/cy_scb_common.h **** {
 335              		.loc 1 776 0
 336              		.cfi_startproc
 337              		@ args = 0, pretend = 0, frame = 8
 338              		@ frame_needed = 1, uses_anonymous_args = 0
 339 0000 80B5     		push	{r7, lr}
 340              		.cfi_def_cfa_offset 8
 341              		.cfi_offset 7, -8
 342              		.cfi_offset 14, -4
 343 0002 82B0     		sub	sp, sp, #8
 344              		.cfi_def_cfa_offset 16
 345 0004 00AF     		add	r7, sp, #0
 346              		.cfi_def_cfa_register 7
 347 0006 7860     		str	r0, [r7, #4]
 777:Generated_Source\PSoC6\pdl\drivers\peripheral\scb/cy_scb_common.h ****     return _FLD2VAL(SCB_TX_FIFO_STATUS_USED, SCB_TX_FIFO_STATUS(base));
 348              		.loc 1 777 0
 349 0008 7A68     		ldr	r2, [r7, #4]
 350 000a 8223     		movs	r3, #130
 351 000c 9B00     		lsls	r3, r3, #2
 352 000e D358     		ldr	r3, [r2, r3]
 353 0010 DB05     		lsls	r3, r3, #23
 354 0012 DB0D     		lsrs	r3, r3, #23
 778:Generated_Source\PSoC6\pdl\drivers\peripheral\scb/cy_scb_common.h **** }
ARM GAS  C:\Users\JC\AppData\Local\Temp\ccY7kCY2.s 			page 21


 355              		.loc 1 778 0
 356 0014 1800     		movs	r0, r3
 357 0016 BD46     		mov	sp, r7
 358 0018 02B0     		add	sp, sp, #8
 359              		@ sp needed
 360 001a 80BD     		pop	{r7, pc}
 361              		.cfi_endproc
 362              	.LFE86:
 363              		.size	Cy_SCB_GetNumInTxFifo, .-Cy_SCB_GetNumInTxFifo
 364              		.section	.text.Cy_SCB_GetTxSrValid,"ax",%progbits
 365              		.align	2
 366              		.code	16
 367              		.thumb_func
 368              		.type	Cy_SCB_GetTxSrValid, %function
 369              	Cy_SCB_GetTxSrValid:
 370              	.LFB87:
 779:Generated_Source\PSoC6\pdl\drivers\peripheral\scb/cy_scb_common.h **** 
 780:Generated_Source\PSoC6\pdl\drivers\peripheral\scb/cy_scb_common.h **** 
 781:Generated_Source\PSoC6\pdl\drivers\peripheral\scb/cy_scb_common.h **** /*******************************************************************************
 782:Generated_Source\PSoC6\pdl\drivers\peripheral\scb/cy_scb_common.h **** * Function Name: Cy_SCB_GetTxSrValid
 783:Generated_Source\PSoC6\pdl\drivers\peripheral\scb/cy_scb_common.h **** ****************************************************************************//**
 784:Generated_Source\PSoC6\pdl\drivers\peripheral\scb/cy_scb_common.h **** *
 785:Generated_Source\PSoC6\pdl\drivers\peripheral\scb/cy_scb_common.h **** * Returns the status of the TX FIFO Shift Register valid bit.
 786:Generated_Source\PSoC6\pdl\drivers\peripheral\scb/cy_scb_common.h **** *
 787:Generated_Source\PSoC6\pdl\drivers\peripheral\scb/cy_scb_common.h **** * \param base
 788:Generated_Source\PSoC6\pdl\drivers\peripheral\scb/cy_scb_common.h **** * The pointer to the SCB instance.
 789:Generated_Source\PSoC6\pdl\drivers\peripheral\scb/cy_scb_common.h **** *
 790:Generated_Source\PSoC6\pdl\drivers\peripheral\scb/cy_scb_common.h **** * \return
 791:Generated_Source\PSoC6\pdl\drivers\peripheral\scb/cy_scb_common.h **** * 1 - TX shift register valid; 0 - TX shift register not valid.
 792:Generated_Source\PSoC6\pdl\drivers\peripheral\scb/cy_scb_common.h **** *
 793:Generated_Source\PSoC6\pdl\drivers\peripheral\scb/cy_scb_common.h **** *******************************************************************************/
 794:Generated_Source\PSoC6\pdl\drivers\peripheral\scb/cy_scb_common.h **** __STATIC_INLINE uint32_t Cy_SCB_GetTxSrValid(CySCB_Type const *base)
 795:Generated_Source\PSoC6\pdl\drivers\peripheral\scb/cy_scb_common.h **** {
 371              		.loc 1 795 0
 372              		.cfi_startproc
 373              		@ args = 0, pretend = 0, frame = 8
 374              		@ frame_needed = 1, uses_anonymous_args = 0
 375 0000 80B5     		push	{r7, lr}
 376              		.cfi_def_cfa_offset 8
 377              		.cfi_offset 7, -8
 378              		.cfi_offset 14, -4
 379 0002 82B0     		sub	sp, sp, #8
 380              		.cfi_def_cfa_offset 16
 381 0004 00AF     		add	r7, sp, #0
 382              		.cfi_def_cfa_register 7
 383 0006 7860     		str	r0, [r7, #4]
 796:Generated_Source\PSoC6\pdl\drivers\peripheral\scb/cy_scb_common.h ****     return _FLD2VAL(SCB_TX_FIFO_STATUS_SR_VALID, SCB_TX_FIFO_STATUS(base));
 384              		.loc 1 796 0
 385 0008 7A68     		ldr	r2, [r7, #4]
 386 000a 8223     		movs	r3, #130
 387 000c 9B00     		lsls	r3, r3, #2
 388 000e D258     		ldr	r2, [r2, r3]
 389 0010 8023     		movs	r3, #128
 390 0012 1B02     		lsls	r3, r3, #8
 391 0014 1340     		ands	r3, r2
 392 0016 DB0B     		lsrs	r3, r3, #15
 797:Generated_Source\PSoC6\pdl\drivers\peripheral\scb/cy_scb_common.h **** }
ARM GAS  C:\Users\JC\AppData\Local\Temp\ccY7kCY2.s 			page 22


 393              		.loc 1 797 0
 394 0018 1800     		movs	r0, r3
 395 001a BD46     		mov	sp, r7
 396 001c 02B0     		add	sp, sp, #8
 397              		@ sp needed
 398 001e 80BD     		pop	{r7, pc}
 399              		.cfi_endproc
 400              	.LFE87:
 401              		.size	Cy_SCB_GetTxSrValid, .-Cy_SCB_GetTxSrValid
 402              		.section	.text.Cy_SCB_ClearTxFifo,"ax",%progbits
 403              		.align	2
 404              		.code	16
 405              		.thumb_func
 406              		.type	Cy_SCB_ClearTxFifo, %function
 407              	Cy_SCB_ClearTxFifo:
 408              	.LFB89:
 798:Generated_Source\PSoC6\pdl\drivers\peripheral\scb/cy_scb_common.h **** 
 799:Generated_Source\PSoC6\pdl\drivers\peripheral\scb/cy_scb_common.h **** 
 800:Generated_Source\PSoC6\pdl\drivers\peripheral\scb/cy_scb_common.h **** /*******************************************************************************
 801:Generated_Source\PSoC6\pdl\drivers\peripheral\scb/cy_scb_common.h **** * Function Name: Cy_SCB_IsTxComplete
 802:Generated_Source\PSoC6\pdl\drivers\peripheral\scb/cy_scb_common.h **** ****************************************************************************//**
 803:Generated_Source\PSoC6\pdl\drivers\peripheral\scb/cy_scb_common.h **** *
 804:Generated_Source\PSoC6\pdl\drivers\peripheral\scb/cy_scb_common.h **** * Checks whether the TX FIFO and Shifter are empty and there is no more data to send.
 805:Generated_Source\PSoC6\pdl\drivers\peripheral\scb/cy_scb_common.h **** *
 806:Generated_Source\PSoC6\pdl\drivers\peripheral\scb/cy_scb_common.h **** * \param base
 807:Generated_Source\PSoC6\pdl\drivers\peripheral\scb/cy_scb_common.h **** * Pointer to SPI the SCB instance.
 808:Generated_Source\PSoC6\pdl\drivers\peripheral\scb/cy_scb_common.h **** *
 809:Generated_Source\PSoC6\pdl\drivers\peripheral\scb/cy_scb_common.h **** * \return
 810:Generated_Source\PSoC6\pdl\drivers\peripheral\scb/cy_scb_common.h **** * If true, transmission complete. If false, transmission is not complete.
 811:Generated_Source\PSoC6\pdl\drivers\peripheral\scb/cy_scb_common.h **** *
 812:Generated_Source\PSoC6\pdl\drivers\peripheral\scb/cy_scb_common.h **** *******************************************************************************/
 813:Generated_Source\PSoC6\pdl\drivers\peripheral\scb/cy_scb_common.h **** __STATIC_INLINE bool Cy_SCB_IsTxComplete(CySCB_Type const *base)
 814:Generated_Source\PSoC6\pdl\drivers\peripheral\scb/cy_scb_common.h **** {
 815:Generated_Source\PSoC6\pdl\drivers\peripheral\scb/cy_scb_common.h ****      return (0UL == (Cy_SCB_GetNumInTxFifo(base) + Cy_SCB_GetTxSrValid(base)));
 816:Generated_Source\PSoC6\pdl\drivers\peripheral\scb/cy_scb_common.h **** }
 817:Generated_Source\PSoC6\pdl\drivers\peripheral\scb/cy_scb_common.h **** 
 818:Generated_Source\PSoC6\pdl\drivers\peripheral\scb/cy_scb_common.h **** 
 819:Generated_Source\PSoC6\pdl\drivers\peripheral\scb/cy_scb_common.h **** /*******************************************************************************
 820:Generated_Source\PSoC6\pdl\drivers\peripheral\scb/cy_scb_common.h **** * Function Name: Cy_SCB_ClearTxFifo
 821:Generated_Source\PSoC6\pdl\drivers\peripheral\scb/cy_scb_common.h **** ****************************************************************************//**
 822:Generated_Source\PSoC6\pdl\drivers\peripheral\scb/cy_scb_common.h **** *
 823:Generated_Source\PSoC6\pdl\drivers\peripheral\scb/cy_scb_common.h **** * Clears the TX FIFO.
 824:Generated_Source\PSoC6\pdl\drivers\peripheral\scb/cy_scb_common.h **** *
 825:Generated_Source\PSoC6\pdl\drivers\peripheral\scb/cy_scb_common.h **** * \param base
 826:Generated_Source\PSoC6\pdl\drivers\peripheral\scb/cy_scb_common.h **** * The pointer to the SCB instance.
 827:Generated_Source\PSoC6\pdl\drivers\peripheral\scb/cy_scb_common.h **** *
 828:Generated_Source\PSoC6\pdl\drivers\peripheral\scb/cy_scb_common.h **** * \note
 829:Generated_Source\PSoC6\pdl\drivers\peripheral\scb/cy_scb_common.h **** * The TX FIFO clear operation also clears the shift register. Thus the shifter
 830:Generated_Source\PSoC6\pdl\drivers\peripheral\scb/cy_scb_common.h **** * could be cleared in the middle of a data element transfer. Thia results in
 831:Generated_Source\PSoC6\pdl\drivers\peripheral\scb/cy_scb_common.h **** * "ones" being sent on the bus for the remainder of the transfer.
 832:Generated_Source\PSoC6\pdl\drivers\peripheral\scb/cy_scb_common.h **** *
 833:Generated_Source\PSoC6\pdl\drivers\peripheral\scb/cy_scb_common.h **** *******************************************************************************/
 834:Generated_Source\PSoC6\pdl\drivers\peripheral\scb/cy_scb_common.h **** __STATIC_INLINE void Cy_SCB_ClearTxFifo(CySCB_Type *base)
 835:Generated_Source\PSoC6\pdl\drivers\peripheral\scb/cy_scb_common.h **** {
 409              		.loc 1 835 0
 410              		.cfi_startproc
 411              		@ args = 0, pretend = 0, frame = 8
ARM GAS  C:\Users\JC\AppData\Local\Temp\ccY7kCY2.s 			page 23


 412              		@ frame_needed = 1, uses_anonymous_args = 0
 413 0000 80B5     		push	{r7, lr}
 414              		.cfi_def_cfa_offset 8
 415              		.cfi_offset 7, -8
 416              		.cfi_offset 14, -4
 417 0002 82B0     		sub	sp, sp, #8
 418              		.cfi_def_cfa_offset 16
 419 0004 00AF     		add	r7, sp, #0
 420              		.cfi_def_cfa_register 7
 421 0006 7860     		str	r0, [r7, #4]
 836:Generated_Source\PSoC6\pdl\drivers\peripheral\scb/cy_scb_common.h ****     SCB_TX_FIFO_CTRL(base) |= (uint32_t)  SCB_TX_FIFO_CTRL_CLEAR_Msk;
 422              		.loc 1 836 0
 423 0008 7A68     		ldr	r2, [r7, #4]
 424 000a 8123     		movs	r3, #129
 425 000c 9B00     		lsls	r3, r3, #2
 426 000e D358     		ldr	r3, [r2, r3]
 427 0010 8022     		movs	r2, #128
 428 0012 5202     		lsls	r2, r2, #9
 429 0014 1A43     		orrs	r2, r3
 430 0016 1100     		movs	r1, r2
 431 0018 7A68     		ldr	r2, [r7, #4]
 432 001a 8123     		movs	r3, #129
 433 001c 9B00     		lsls	r3, r3, #2
 434 001e D150     		str	r1, [r2, r3]
 837:Generated_Source\PSoC6\pdl\drivers\peripheral\scb/cy_scb_common.h ****     SCB_TX_FIFO_CTRL(base) &= (uint32_t) ~SCB_TX_FIFO_CTRL_CLEAR_Msk;
 435              		.loc 1 837 0
 436 0020 7A68     		ldr	r2, [r7, #4]
 437 0022 8123     		movs	r3, #129
 438 0024 9B00     		lsls	r3, r3, #2
 439 0026 D358     		ldr	r3, [r2, r3]
 440 0028 074A     		ldr	r2, .L22
 441 002a 1340     		ands	r3, r2
 442 002c 1900     		movs	r1, r3
 443 002e 7A68     		ldr	r2, [r7, #4]
 444 0030 8123     		movs	r3, #129
 445 0032 9B00     		lsls	r3, r3, #2
 446 0034 D150     		str	r1, [r2, r3]
 838:Generated_Source\PSoC6\pdl\drivers\peripheral\scb/cy_scb_common.h **** 
 839:Generated_Source\PSoC6\pdl\drivers\peripheral\scb/cy_scb_common.h ****     (void) SCB_TX_FIFO_CTRL(base);
 447              		.loc 1 839 0
 448 0036 7A68     		ldr	r2, [r7, #4]
 449 0038 8123     		movs	r3, #129
 450 003a 9B00     		lsls	r3, r3, #2
 451 003c D358     		ldr	r3, [r2, r3]
 840:Generated_Source\PSoC6\pdl\drivers\peripheral\scb/cy_scb_common.h **** }
 452              		.loc 1 840 0
 453 003e C046     		nop
 454 0040 BD46     		mov	sp, r7
 455 0042 02B0     		add	sp, sp, #8
 456              		@ sp needed
 457 0044 80BD     		pop	{r7, pc}
 458              	.L23:
 459 0046 C046     		.align	2
 460              	.L22:
 461 0048 FFFFFEFF 		.word	-65537
 462              		.cfi_endproc
 463              	.LFE89:
ARM GAS  C:\Users\JC\AppData\Local\Temp\ccY7kCY2.s 			page 24


 464              		.size	Cy_SCB_ClearTxFifo, .-Cy_SCB_ClearTxFifo
 465              		.section	.text.Cy_SCB_GetInterruptCause,"ax",%progbits
 466              		.align	2
 467              		.code	16
 468              		.thumb_func
 469              		.type	Cy_SCB_GetInterruptCause, %function
 470              	Cy_SCB_GetInterruptCause:
 471              	.LFB91:
 841:Generated_Source\PSoC6\pdl\drivers\peripheral\scb/cy_scb_common.h **** 
 842:Generated_Source\PSoC6\pdl\drivers\peripheral\scb/cy_scb_common.h **** 
 843:Generated_Source\PSoC6\pdl\drivers\peripheral\scb/cy_scb_common.h **** /*******************************************************************************
 844:Generated_Source\PSoC6\pdl\drivers\peripheral\scb/cy_scb_common.h **** * Function Name: Cy_SCB_SetByteMode
 845:Generated_Source\PSoC6\pdl\drivers\peripheral\scb/cy_scb_common.h **** ****************************************************************************//**
 846:Generated_Source\PSoC6\pdl\drivers\peripheral\scb/cy_scb_common.h **** *
 847:Generated_Source\PSoC6\pdl\drivers\peripheral\scb/cy_scb_common.h **** * Sets whether the RX and TX FIFOs are in byte mode.
 848:Generated_Source\PSoC6\pdl\drivers\peripheral\scb/cy_scb_common.h **** * The FIFOs are either 16-bit wide or 8-bit wide (byte mode).
 849:Generated_Source\PSoC6\pdl\drivers\peripheral\scb/cy_scb_common.h **** * When the FIFO is in byte mode it is twice as deep. See the device datasheet
 850:Generated_Source\PSoC6\pdl\drivers\peripheral\scb/cy_scb_common.h **** * for FIFO depths.
 851:Generated_Source\PSoC6\pdl\drivers\peripheral\scb/cy_scb_common.h **** *
 852:Generated_Source\PSoC6\pdl\drivers\peripheral\scb/cy_scb_common.h **** * \param base
 853:Generated_Source\PSoC6\pdl\drivers\peripheral\scb/cy_scb_common.h **** * The pointer to the SCB instance.
 854:Generated_Source\PSoC6\pdl\drivers\peripheral\scb/cy_scb_common.h **** *
 855:Generated_Source\PSoC6\pdl\drivers\peripheral\scb/cy_scb_common.h **** * \param byteMode
 856:Generated_Source\PSoC6\pdl\drivers\peripheral\scb/cy_scb_common.h **** * If true, TX and RX FIFOs are 8-bit wide. If false, the FIFOs are 16-bit wide.
 857:Generated_Source\PSoC6\pdl\drivers\peripheral\scb/cy_scb_common.h **** *
 858:Generated_Source\PSoC6\pdl\drivers\peripheral\scb/cy_scb_common.h **** *******************************************************************************/
 859:Generated_Source\PSoC6\pdl\drivers\peripheral\scb/cy_scb_common.h **** __STATIC_INLINE void Cy_SCB_SetByteMode(CySCB_Type *base, bool byteMode)
 860:Generated_Source\PSoC6\pdl\drivers\peripheral\scb/cy_scb_common.h **** {
 861:Generated_Source\PSoC6\pdl\drivers\peripheral\scb/cy_scb_common.h ****     if (byteMode)
 862:Generated_Source\PSoC6\pdl\drivers\peripheral\scb/cy_scb_common.h ****     {
 863:Generated_Source\PSoC6\pdl\drivers\peripheral\scb/cy_scb_common.h ****         SCB_CTRL(base) |=  SCB_CTRL_BYTE_MODE_Msk;
 864:Generated_Source\PSoC6\pdl\drivers\peripheral\scb/cy_scb_common.h ****     }
 865:Generated_Source\PSoC6\pdl\drivers\peripheral\scb/cy_scb_common.h ****     else
 866:Generated_Source\PSoC6\pdl\drivers\peripheral\scb/cy_scb_common.h ****     {
 867:Generated_Source\PSoC6\pdl\drivers\peripheral\scb/cy_scb_common.h ****         SCB_CTRL(base) &= ~SCB_CTRL_BYTE_MODE_Msk;
 868:Generated_Source\PSoC6\pdl\drivers\peripheral\scb/cy_scb_common.h ****     }
 869:Generated_Source\PSoC6\pdl\drivers\peripheral\scb/cy_scb_common.h **** }
 870:Generated_Source\PSoC6\pdl\drivers\peripheral\scb/cy_scb_common.h **** 
 871:Generated_Source\PSoC6\pdl\drivers\peripheral\scb/cy_scb_common.h **** 
 872:Generated_Source\PSoC6\pdl\drivers\peripheral\scb/cy_scb_common.h **** /*******************************************************************************
 873:Generated_Source\PSoC6\pdl\drivers\peripheral\scb/cy_scb_common.h **** * Function Name: Cy_SCB_GetInterruptCause
 874:Generated_Source\PSoC6\pdl\drivers\peripheral\scb/cy_scb_common.h **** ****************************************************************************//**
 875:Generated_Source\PSoC6\pdl\drivers\peripheral\scb/cy_scb_common.h **** *
 876:Generated_Source\PSoC6\pdl\drivers\peripheral\scb/cy_scb_common.h **** * Returns the mask of bits showing the source of the current triggered
 877:Generated_Source\PSoC6\pdl\drivers\peripheral\scb/cy_scb_common.h **** * interrupt. This is useful for modes of operation where an interrupt can
 878:Generated_Source\PSoC6\pdl\drivers\peripheral\scb/cy_scb_common.h **** * be generated by conditions in multiple interrupt source registers.
 879:Generated_Source\PSoC6\pdl\drivers\peripheral\scb/cy_scb_common.h **** *
 880:Generated_Source\PSoC6\pdl\drivers\peripheral\scb/cy_scb_common.h **** * \param base
 881:Generated_Source\PSoC6\pdl\drivers\peripheral\scb/cy_scb_common.h **** * The pointer to the SCB instance.
 882:Generated_Source\PSoC6\pdl\drivers\peripheral\scb/cy_scb_common.h **** *
 883:Generated_Source\PSoC6\pdl\drivers\peripheral\scb/cy_scb_common.h **** * \return
 884:Generated_Source\PSoC6\pdl\drivers\peripheral\scb/cy_scb_common.h **** * The mask with the OR of the following conditions that have been triggered.
 885:Generated_Source\PSoC6\pdl\drivers\peripheral\scb/cy_scb_common.h **** * See \ref group_scb_common_macros_intr_cause for the set of constants.
 886:Generated_Source\PSoC6\pdl\drivers\peripheral\scb/cy_scb_common.h **** *
 887:Generated_Source\PSoC6\pdl\drivers\peripheral\scb/cy_scb_common.h **** *******************************************************************************/
 888:Generated_Source\PSoC6\pdl\drivers\peripheral\scb/cy_scb_common.h **** __STATIC_INLINE uint32_t Cy_SCB_GetInterruptCause(CySCB_Type const *base)
 889:Generated_Source\PSoC6\pdl\drivers\peripheral\scb/cy_scb_common.h **** {
ARM GAS  C:\Users\JC\AppData\Local\Temp\ccY7kCY2.s 			page 25


 472              		.loc 1 889 0
 473              		.cfi_startproc
 474              		@ args = 0, pretend = 0, frame = 8
 475              		@ frame_needed = 1, uses_anonymous_args = 0
 476 0000 80B5     		push	{r7, lr}
 477              		.cfi_def_cfa_offset 8
 478              		.cfi_offset 7, -8
 479              		.cfi_offset 14, -4
 480 0002 82B0     		sub	sp, sp, #8
 481              		.cfi_def_cfa_offset 16
 482 0004 00AF     		add	r7, sp, #0
 483              		.cfi_def_cfa_register 7
 484 0006 7860     		str	r0, [r7, #4]
 890:Generated_Source\PSoC6\pdl\drivers\peripheral\scb/cy_scb_common.h ****     return (SCB_INTR_CAUSE(base));
 485              		.loc 1 890 0
 486 0008 7A68     		ldr	r2, [r7, #4]
 487 000a E023     		movs	r3, #224
 488 000c 1B01     		lsls	r3, r3, #4
 489 000e D358     		ldr	r3, [r2, r3]
 891:Generated_Source\PSoC6\pdl\drivers\peripheral\scb/cy_scb_common.h **** }
 490              		.loc 1 891 0
 491 0010 1800     		movs	r0, r3
 492 0012 BD46     		mov	sp, r7
 493 0014 02B0     		add	sp, sp, #8
 494              		@ sp needed
 495 0016 80BD     		pop	{r7, pc}
 496              		.cfi_endproc
 497              	.LFE91:
 498              		.size	Cy_SCB_GetInterruptCause, .-Cy_SCB_GetInterruptCause
 499              		.section	.text.Cy_SCB_GetRxInterruptStatus,"ax",%progbits
 500              		.align	2
 501              		.code	16
 502              		.thumb_func
 503              		.type	Cy_SCB_GetRxInterruptStatus, %function
 504              	Cy_SCB_GetRxInterruptStatus:
 505              	.LFB92:
 892:Generated_Source\PSoC6\pdl\drivers\peripheral\scb/cy_scb_common.h **** 
 893:Generated_Source\PSoC6\pdl\drivers\peripheral\scb/cy_scb_common.h **** 
 894:Generated_Source\PSoC6\pdl\drivers\peripheral\scb/cy_scb_common.h **** /*******************************************************************************
 895:Generated_Source\PSoC6\pdl\drivers\peripheral\scb/cy_scb_common.h **** * Function Name: Cy_SCB_GetRxInterruptStatus
 896:Generated_Source\PSoC6\pdl\drivers\peripheral\scb/cy_scb_common.h **** ****************************************************************************//**
 897:Generated_Source\PSoC6\pdl\drivers\peripheral\scb/cy_scb_common.h **** *
 898:Generated_Source\PSoC6\pdl\drivers\peripheral\scb/cy_scb_common.h **** * Returns the RX interrupt request register. This register contains the current
 899:Generated_Source\PSoC6\pdl\drivers\peripheral\scb/cy_scb_common.h **** * status of the RX interrupt sources.
 900:Generated_Source\PSoC6\pdl\drivers\peripheral\scb/cy_scb_common.h **** *
 901:Generated_Source\PSoC6\pdl\drivers\peripheral\scb/cy_scb_common.h **** * \param base
 902:Generated_Source\PSoC6\pdl\drivers\peripheral\scb/cy_scb_common.h **** * The pointer to the SCB instance.
 903:Generated_Source\PSoC6\pdl\drivers\peripheral\scb/cy_scb_common.h **** *
 904:Generated_Source\PSoC6\pdl\drivers\peripheral\scb/cy_scb_common.h **** * \return
 905:Generated_Source\PSoC6\pdl\drivers\peripheral\scb/cy_scb_common.h **** * The current status of the RX interrupt sources. Each constant is a bit field
 906:Generated_Source\PSoC6\pdl\drivers\peripheral\scb/cy_scb_common.h **** * value. The value returned may have multiple bits set to indicate the
 907:Generated_Source\PSoC6\pdl\drivers\peripheral\scb/cy_scb_common.h **** * current status.
 908:Generated_Source\PSoC6\pdl\drivers\peripheral\scb/cy_scb_common.h **** * See \ref group_scb_common_macros_rx_intr for the set of constants.
 909:Generated_Source\PSoC6\pdl\drivers\peripheral\scb/cy_scb_common.h **** *
 910:Generated_Source\PSoC6\pdl\drivers\peripheral\scb/cy_scb_common.h **** *******************************************************************************/
 911:Generated_Source\PSoC6\pdl\drivers\peripheral\scb/cy_scb_common.h **** __STATIC_INLINE uint32_t Cy_SCB_GetRxInterruptStatus(CySCB_Type const *base)
 912:Generated_Source\PSoC6\pdl\drivers\peripheral\scb/cy_scb_common.h **** {
ARM GAS  C:\Users\JC\AppData\Local\Temp\ccY7kCY2.s 			page 26


 506              		.loc 1 912 0
 507              		.cfi_startproc
 508              		@ args = 0, pretend = 0, frame = 8
 509              		@ frame_needed = 1, uses_anonymous_args = 0
 510 0000 80B5     		push	{r7, lr}
 511              		.cfi_def_cfa_offset 8
 512              		.cfi_offset 7, -8
 513              		.cfi_offset 14, -4
 514 0002 82B0     		sub	sp, sp, #8
 515              		.cfi_def_cfa_offset 16
 516 0004 00AF     		add	r7, sp, #0
 517              		.cfi_def_cfa_register 7
 518 0006 7860     		str	r0, [r7, #4]
 913:Generated_Source\PSoC6\pdl\drivers\peripheral\scb/cy_scb_common.h ****     return (SCB_INTR_RX(base) & CY_SCB_RX_INTR_MASK);
 519              		.loc 1 913 0
 520 0008 7A68     		ldr	r2, [r7, #4]
 521 000a FC23     		movs	r3, #252
 522 000c 1B01     		lsls	r3, r3, #4
 523 000e D358     		ldr	r3, [r2, r3]
 524 0010 024A     		ldr	r2, .L28
 525 0012 1340     		ands	r3, r2
 914:Generated_Source\PSoC6\pdl\drivers\peripheral\scb/cy_scb_common.h **** }
 526              		.loc 1 914 0
 527 0014 1800     		movs	r0, r3
 528 0016 BD46     		mov	sp, r7
 529 0018 02B0     		add	sp, sp, #8
 530              		@ sp needed
 531 001a 80BD     		pop	{r7, pc}
 532              	.L29:
 533              		.align	2
 534              	.L28:
 535 001c 6D0B0000 		.word	2925
 536              		.cfi_endproc
 537              	.LFE92:
 538              		.size	Cy_SCB_GetRxInterruptStatus, .-Cy_SCB_GetRxInterruptStatus
 539              		.section	.text.Cy_SCB_SetRxInterruptMask,"ax",%progbits
 540              		.align	2
 541              		.code	16
 542              		.thumb_func
 543              		.type	Cy_SCB_SetRxInterruptMask, %function
 544              	Cy_SCB_SetRxInterruptMask:
 545              	.LFB93:
 915:Generated_Source\PSoC6\pdl\drivers\peripheral\scb/cy_scb_common.h **** 
 916:Generated_Source\PSoC6\pdl\drivers\peripheral\scb/cy_scb_common.h **** 
 917:Generated_Source\PSoC6\pdl\drivers\peripheral\scb/cy_scb_common.h **** /*******************************************************************************
 918:Generated_Source\PSoC6\pdl\drivers\peripheral\scb/cy_scb_common.h **** * Function Name: Cy_SCB_SetRxInterruptMask
 919:Generated_Source\PSoC6\pdl\drivers\peripheral\scb/cy_scb_common.h **** ****************************************************************************//**
 920:Generated_Source\PSoC6\pdl\drivers\peripheral\scb/cy_scb_common.h **** *
 921:Generated_Source\PSoC6\pdl\drivers\peripheral\scb/cy_scb_common.h **** * Writes the RX interrupt mask register. This register configures which bits
 922:Generated_Source\PSoC6\pdl\drivers\peripheral\scb/cy_scb_common.h **** * from the RX interrupt request register can trigger an interrupt event.
 923:Generated_Source\PSoC6\pdl\drivers\peripheral\scb/cy_scb_common.h **** *
 924:Generated_Source\PSoC6\pdl\drivers\peripheral\scb/cy_scb_common.h **** * \param base
 925:Generated_Source\PSoC6\pdl\drivers\peripheral\scb/cy_scb_common.h **** * The pointer to the SCB instance.
 926:Generated_Source\PSoC6\pdl\drivers\peripheral\scb/cy_scb_common.h **** *
 927:Generated_Source\PSoC6\pdl\drivers\peripheral\scb/cy_scb_common.h **** * \param interruptMask
 928:Generated_Source\PSoC6\pdl\drivers\peripheral\scb/cy_scb_common.h **** * Enabled RX interrupt sources.
 929:Generated_Source\PSoC6\pdl\drivers\peripheral\scb/cy_scb_common.h **** * See \ref group_scb_common_macros_rx_intr.
ARM GAS  C:\Users\JC\AppData\Local\Temp\ccY7kCY2.s 			page 27


 930:Generated_Source\PSoC6\pdl\drivers\peripheral\scb/cy_scb_common.h **** *
 931:Generated_Source\PSoC6\pdl\drivers\peripheral\scb/cy_scb_common.h **** *******************************************************************************/
 932:Generated_Source\PSoC6\pdl\drivers\peripheral\scb/cy_scb_common.h **** __STATIC_INLINE void Cy_SCB_SetRxInterruptMask(CySCB_Type *base, uint32_t interruptMask)
 933:Generated_Source\PSoC6\pdl\drivers\peripheral\scb/cy_scb_common.h **** {
 546              		.loc 1 933 0
 547              		.cfi_startproc
 548              		@ args = 0, pretend = 0, frame = 8
 549              		@ frame_needed = 1, uses_anonymous_args = 0
 550 0000 80B5     		push	{r7, lr}
 551              		.cfi_def_cfa_offset 8
 552              		.cfi_offset 7, -8
 553              		.cfi_offset 14, -4
 554 0002 82B0     		sub	sp, sp, #8
 555              		.cfi_def_cfa_offset 16
 556 0004 00AF     		add	r7, sp, #0
 557              		.cfi_def_cfa_register 7
 558 0006 7860     		str	r0, [r7, #4]
 559 0008 3960     		str	r1, [r7]
 934:Generated_Source\PSoC6\pdl\drivers\peripheral\scb/cy_scb_common.h ****     CY_ASSERT_L2(CY_SCB_IS_INTR_VALID(interruptMask, CY_SCB_RX_INTR_MASK));
 560              		.loc 1 934 0
 561 000a 3B68     		ldr	r3, [r7]
 562 000c 084A     		ldr	r2, .L32
 563 000e 1340     		ands	r3, r2
 564 0010 05D0     		beq	.L31
 565              		.loc 1 934 0 is_stmt 0 discriminator 1
 566 0012 084A     		ldr	r2, .L32+4
 567 0014 084B     		ldr	r3, .L32+8
 568 0016 1100     		movs	r1, r2
 569 0018 1800     		movs	r0, r3
 570 001a FFF7FEFF 		bl	Cy_SysLib_AssertFailed
 571              	.L31:
 935:Generated_Source\PSoC6\pdl\drivers\peripheral\scb/cy_scb_common.h **** 
 936:Generated_Source\PSoC6\pdl\drivers\peripheral\scb/cy_scb_common.h ****     SCB_INTR_RX_MASK(base) = interruptMask;
 572              		.loc 1 936 0 is_stmt 1
 573 001e 7B68     		ldr	r3, [r7, #4]
 574 0020 0649     		ldr	r1, .L32+12
 575 0022 3A68     		ldr	r2, [r7]
 576 0024 5A50     		str	r2, [r3, r1]
 937:Generated_Source\PSoC6\pdl\drivers\peripheral\scb/cy_scb_common.h **** }
 577              		.loc 1 937 0
 578 0026 C046     		nop
 579 0028 BD46     		mov	sp, r7
 580 002a 02B0     		add	sp, sp, #8
 581              		@ sp needed
 582 002c 80BD     		pop	{r7, pc}
 583              	.L33:
 584 002e C046     		.align	2
 585              	.L32:
 586 0030 92F4FFFF 		.word	-2926
 587 0034 A6030000 		.word	934
 588 0038 00000000 		.word	.LC0
 589 003c C80F0000 		.word	4040
 590              		.cfi_endproc
 591              	.LFE93:
 592              		.size	Cy_SCB_SetRxInterruptMask, .-Cy_SCB_SetRxInterruptMask
 593              		.section	.text.Cy_SCB_GetRxInterruptStatusMasked,"ax",%progbits
 594              		.align	2
ARM GAS  C:\Users\JC\AppData\Local\Temp\ccY7kCY2.s 			page 28


 595              		.code	16
 596              		.thumb_func
 597              		.type	Cy_SCB_GetRxInterruptStatusMasked, %function
 598              	Cy_SCB_GetRxInterruptStatusMasked:
 599              	.LFB95:
 938:Generated_Source\PSoC6\pdl\drivers\peripheral\scb/cy_scb_common.h **** 
 939:Generated_Source\PSoC6\pdl\drivers\peripheral\scb/cy_scb_common.h **** 
 940:Generated_Source\PSoC6\pdl\drivers\peripheral\scb/cy_scb_common.h **** /*******************************************************************************
 941:Generated_Source\PSoC6\pdl\drivers\peripheral\scb/cy_scb_common.h **** * Function Name: Cy_SCB_GetRxInterruptMask
 942:Generated_Source\PSoC6\pdl\drivers\peripheral\scb/cy_scb_common.h **** ****************************************************************************//**
 943:Generated_Source\PSoC6\pdl\drivers\peripheral\scb/cy_scb_common.h **** *
 944:Generated_Source\PSoC6\pdl\drivers\peripheral\scb/cy_scb_common.h **** * Returns the RX interrupt mask register. This register specifies which bits
 945:Generated_Source\PSoC6\pdl\drivers\peripheral\scb/cy_scb_common.h **** * from the RX interrupt request register trigger can an interrupt event.
 946:Generated_Source\PSoC6\pdl\drivers\peripheral\scb/cy_scb_common.h **** *
 947:Generated_Source\PSoC6\pdl\drivers\peripheral\scb/cy_scb_common.h **** * \param base
 948:Generated_Source\PSoC6\pdl\drivers\peripheral\scb/cy_scb_common.h **** * The pointer to the SCB instance.
 949:Generated_Source\PSoC6\pdl\drivers\peripheral\scb/cy_scb_common.h **** *
 950:Generated_Source\PSoC6\pdl\drivers\peripheral\scb/cy_scb_common.h **** * \return
 951:Generated_Source\PSoC6\pdl\drivers\peripheral\scb/cy_scb_common.h **** * Enabled RX interrupt sources.
 952:Generated_Source\PSoC6\pdl\drivers\peripheral\scb/cy_scb_common.h **** * See \ref group_scb_common_macros_rx_intr for the set of constants.
 953:Generated_Source\PSoC6\pdl\drivers\peripheral\scb/cy_scb_common.h **** *
 954:Generated_Source\PSoC6\pdl\drivers\peripheral\scb/cy_scb_common.h **** *******************************************************************************/
 955:Generated_Source\PSoC6\pdl\drivers\peripheral\scb/cy_scb_common.h **** __STATIC_INLINE uint32_t Cy_SCB_GetRxInterruptMask(CySCB_Type const *base)
 956:Generated_Source\PSoC6\pdl\drivers\peripheral\scb/cy_scb_common.h **** {
 957:Generated_Source\PSoC6\pdl\drivers\peripheral\scb/cy_scb_common.h ****     return (SCB_INTR_RX_MASK(base));
 958:Generated_Source\PSoC6\pdl\drivers\peripheral\scb/cy_scb_common.h **** }
 959:Generated_Source\PSoC6\pdl\drivers\peripheral\scb/cy_scb_common.h **** 
 960:Generated_Source\PSoC6\pdl\drivers\peripheral\scb/cy_scb_common.h **** 
 961:Generated_Source\PSoC6\pdl\drivers\peripheral\scb/cy_scb_common.h **** /*******************************************************************************
 962:Generated_Source\PSoC6\pdl\drivers\peripheral\scb/cy_scb_common.h **** * Function Name: Cy_SCB_GetRxInterruptStatusMasked
 963:Generated_Source\PSoC6\pdl\drivers\peripheral\scb/cy_scb_common.h **** ****************************************************************************//**
 964:Generated_Source\PSoC6\pdl\drivers\peripheral\scb/cy_scb_common.h **** *
 965:Generated_Source\PSoC6\pdl\drivers\peripheral\scb/cy_scb_common.h **** * Returns the RX interrupt masked request register. This register contains
 966:Generated_Source\PSoC6\pdl\drivers\peripheral\scb/cy_scb_common.h **** * a logical AND of corresponding bits from the RX interrupt request and
 967:Generated_Source\PSoC6\pdl\drivers\peripheral\scb/cy_scb_common.h **** * mask registers.
 968:Generated_Source\PSoC6\pdl\drivers\peripheral\scb/cy_scb_common.h **** * This function is intended to be used in the interrupt service routine to
 969:Generated_Source\PSoC6\pdl\drivers\peripheral\scb/cy_scb_common.h **** * identify which of the enabled RX interrupt sources caused the interrupt event.
 970:Generated_Source\PSoC6\pdl\drivers\peripheral\scb/cy_scb_common.h **** *
 971:Generated_Source\PSoC6\pdl\drivers\peripheral\scb/cy_scb_common.h **** * \param base
 972:Generated_Source\PSoC6\pdl\drivers\peripheral\scb/cy_scb_common.h **** * The pointer to the SCB instance.
 973:Generated_Source\PSoC6\pdl\drivers\peripheral\scb/cy_scb_common.h **** *
 974:Generated_Source\PSoC6\pdl\drivers\peripheral\scb/cy_scb_common.h **** * \return
 975:Generated_Source\PSoC6\pdl\drivers\peripheral\scb/cy_scb_common.h **** * The current status of enabled RX interrupt sources.
 976:Generated_Source\PSoC6\pdl\drivers\peripheral\scb/cy_scb_common.h **** * See \ref group_scb_common_macros_rx_intr for the set of constants.
 977:Generated_Source\PSoC6\pdl\drivers\peripheral\scb/cy_scb_common.h **** *
 978:Generated_Source\PSoC6\pdl\drivers\peripheral\scb/cy_scb_common.h **** *******************************************************************************/
 979:Generated_Source\PSoC6\pdl\drivers\peripheral\scb/cy_scb_common.h **** __STATIC_INLINE uint32_t Cy_SCB_GetRxInterruptStatusMasked(CySCB_Type const *base)
 980:Generated_Source\PSoC6\pdl\drivers\peripheral\scb/cy_scb_common.h **** {
 600              		.loc 1 980 0
 601              		.cfi_startproc
 602              		@ args = 0, pretend = 0, frame = 8
 603              		@ frame_needed = 1, uses_anonymous_args = 0
 604 0000 80B5     		push	{r7, lr}
 605              		.cfi_def_cfa_offset 8
 606              		.cfi_offset 7, -8
 607              		.cfi_offset 14, -4
 608 0002 82B0     		sub	sp, sp, #8
ARM GAS  C:\Users\JC\AppData\Local\Temp\ccY7kCY2.s 			page 29


 609              		.cfi_def_cfa_offset 16
 610 0004 00AF     		add	r7, sp, #0
 611              		.cfi_def_cfa_register 7
 612 0006 7860     		str	r0, [r7, #4]
 981:Generated_Source\PSoC6\pdl\drivers\peripheral\scb/cy_scb_common.h ****     return (SCB_INTR_RX_MASKED(base));
 613              		.loc 1 981 0
 614 0008 7B68     		ldr	r3, [r7, #4]
 615 000a 034A     		ldr	r2, .L36
 616 000c 9B58     		ldr	r3, [r3, r2]
 982:Generated_Source\PSoC6\pdl\drivers\peripheral\scb/cy_scb_common.h **** }
 617              		.loc 1 982 0
 618 000e 1800     		movs	r0, r3
 619 0010 BD46     		mov	sp, r7
 620 0012 02B0     		add	sp, sp, #8
 621              		@ sp needed
 622 0014 80BD     		pop	{r7, pc}
 623              	.L37:
 624 0016 C046     		.align	2
 625              	.L36:
 626 0018 CC0F0000 		.word	4044
 627              		.cfi_endproc
 628              	.LFE95:
 629              		.size	Cy_SCB_GetRxInterruptStatusMasked, .-Cy_SCB_GetRxInterruptStatusMasked
 630              		.section	.text.Cy_SCB_ClearRxInterrupt,"ax",%progbits
 631              		.align	2
 632              		.code	16
 633              		.thumb_func
 634              		.type	Cy_SCB_ClearRxInterrupt, %function
 635              	Cy_SCB_ClearRxInterrupt:
 636              	.LFB96:
 983:Generated_Source\PSoC6\pdl\drivers\peripheral\scb/cy_scb_common.h **** 
 984:Generated_Source\PSoC6\pdl\drivers\peripheral\scb/cy_scb_common.h **** 
 985:Generated_Source\PSoC6\pdl\drivers\peripheral\scb/cy_scb_common.h **** /*******************************************************************************
 986:Generated_Source\PSoC6\pdl\drivers\peripheral\scb/cy_scb_common.h **** * Function Name: Cy_SCB_ClearRxInterrupt
 987:Generated_Source\PSoC6\pdl\drivers\peripheral\scb/cy_scb_common.h **** ****************************************************************************//**
 988:Generated_Source\PSoC6\pdl\drivers\peripheral\scb/cy_scb_common.h **** *
 989:Generated_Source\PSoC6\pdl\drivers\peripheral\scb/cy_scb_common.h **** * Clears the RX interrupt sources in the interrupt request register.
 990:Generated_Source\PSoC6\pdl\drivers\peripheral\scb/cy_scb_common.h **** *
 991:Generated_Source\PSoC6\pdl\drivers\peripheral\scb/cy_scb_common.h **** * \param base
 992:Generated_Source\PSoC6\pdl\drivers\peripheral\scb/cy_scb_common.h **** * The pointer to the SCB instance.
 993:Generated_Source\PSoC6\pdl\drivers\peripheral\scb/cy_scb_common.h **** *
 994:Generated_Source\PSoC6\pdl\drivers\peripheral\scb/cy_scb_common.h **** * \param interruptMask
 995:Generated_Source\PSoC6\pdl\drivers\peripheral\scb/cy_scb_common.h **** * The RX interrupt sources to be cleared.
 996:Generated_Source\PSoC6\pdl\drivers\peripheral\scb/cy_scb_common.h **** * See \ref group_scb_common_macros_rx_intr for the set of constants.
 997:Generated_Source\PSoC6\pdl\drivers\peripheral\scb/cy_scb_common.h **** *
 998:Generated_Source\PSoC6\pdl\drivers\peripheral\scb/cy_scb_common.h **** * \note
 999:Generated_Source\PSoC6\pdl\drivers\peripheral\scb/cy_scb_common.h **** *  - CY_SCB_INTR_RX_FIFO_LEVEL interrupt source is not cleared when
1000:Generated_Source\PSoC6\pdl\drivers\peripheral\scb/cy_scb_common.h **** *    the RX FIFO has more entries than the level.
1001:Generated_Source\PSoC6\pdl\drivers\peripheral\scb/cy_scb_common.h **** *  - CY_SCB_INTR_RX_NOT_EMPTY interrupt source is not cleared when the
1002:Generated_Source\PSoC6\pdl\drivers\peripheral\scb/cy_scb_common.h **** *    RX FIFO is not empty.
1003:Generated_Source\PSoC6\pdl\drivers\peripheral\scb/cy_scb_common.h **** *  - CY_SCB_INTR_RX_FULL interrupt source is not cleared when the
1004:Generated_Source\PSoC6\pdl\drivers\peripheral\scb/cy_scb_common.h **** *    RX FIFO is full.
1005:Generated_Source\PSoC6\pdl\drivers\peripheral\scb/cy_scb_common.h **** *
1006:Generated_Source\PSoC6\pdl\drivers\peripheral\scb/cy_scb_common.h **** *******************************************************************************/
1007:Generated_Source\PSoC6\pdl\drivers\peripheral\scb/cy_scb_common.h **** __STATIC_INLINE void Cy_SCB_ClearRxInterrupt(CySCB_Type *base, uint32_t interruptMask)
1008:Generated_Source\PSoC6\pdl\drivers\peripheral\scb/cy_scb_common.h **** {
 637              		.loc 1 1008 0
ARM GAS  C:\Users\JC\AppData\Local\Temp\ccY7kCY2.s 			page 30


 638              		.cfi_startproc
 639              		@ args = 0, pretend = 0, frame = 8
 640              		@ frame_needed = 1, uses_anonymous_args = 0
 641 0000 80B5     		push	{r7, lr}
 642              		.cfi_def_cfa_offset 8
 643              		.cfi_offset 7, -8
 644              		.cfi_offset 14, -4
 645 0002 82B0     		sub	sp, sp, #8
 646              		.cfi_def_cfa_offset 16
 647 0004 00AF     		add	r7, sp, #0
 648              		.cfi_def_cfa_register 7
 649 0006 7860     		str	r0, [r7, #4]
 650 0008 3960     		str	r1, [r7]
1009:Generated_Source\PSoC6\pdl\drivers\peripheral\scb/cy_scb_common.h ****     CY_ASSERT_L2(CY_SCB_IS_INTR_VALID(interruptMask, CY_SCB_RX_INTR_MASK));
 651              		.loc 1 1009 0
 652 000a 3B68     		ldr	r3, [r7]
 653 000c 0A4A     		ldr	r2, .L40
 654 000e 1340     		ands	r3, r2
 655 0010 05D0     		beq	.L39
 656              		.loc 1 1009 0 is_stmt 0 discriminator 1
 657 0012 0A4A     		ldr	r2, .L40+4
 658 0014 0A4B     		ldr	r3, .L40+8
 659 0016 1100     		movs	r1, r2
 660 0018 1800     		movs	r0, r3
 661 001a FFF7FEFF 		bl	Cy_SysLib_AssertFailed
 662              	.L39:
1010:Generated_Source\PSoC6\pdl\drivers\peripheral\scb/cy_scb_common.h **** 
1011:Generated_Source\PSoC6\pdl\drivers\peripheral\scb/cy_scb_common.h ****     SCB_INTR_RX(base) = interruptMask;
 663              		.loc 1 1011 0 is_stmt 1
 664 001e 7A68     		ldr	r2, [r7, #4]
 665 0020 FC23     		movs	r3, #252
 666 0022 1B01     		lsls	r3, r3, #4
 667 0024 3968     		ldr	r1, [r7]
 668 0026 D150     		str	r1, [r2, r3]
1012:Generated_Source\PSoC6\pdl\drivers\peripheral\scb/cy_scb_common.h ****     (void) SCB_INTR_RX(base);
 669              		.loc 1 1012 0
 670 0028 7A68     		ldr	r2, [r7, #4]
 671 002a FC23     		movs	r3, #252
 672 002c 1B01     		lsls	r3, r3, #4
 673 002e D358     		ldr	r3, [r2, r3]
1013:Generated_Source\PSoC6\pdl\drivers\peripheral\scb/cy_scb_common.h **** }
 674              		.loc 1 1013 0
 675 0030 C046     		nop
 676 0032 BD46     		mov	sp, r7
 677 0034 02B0     		add	sp, sp, #8
 678              		@ sp needed
 679 0036 80BD     		pop	{r7, pc}
 680              	.L41:
 681              		.align	2
 682              	.L40:
 683 0038 92F4FFFF 		.word	-2926
 684 003c F1030000 		.word	1009
 685 0040 00000000 		.word	.LC0
 686              		.cfi_endproc
 687              	.LFE96:
 688              		.size	Cy_SCB_ClearRxInterrupt, .-Cy_SCB_ClearRxInterrupt
 689              		.section	.text.Cy_SCB_SetRxInterrupt,"ax",%progbits
ARM GAS  C:\Users\JC\AppData\Local\Temp\ccY7kCY2.s 			page 31


 690              		.align	2
 691              		.code	16
 692              		.thumb_func
 693              		.type	Cy_SCB_SetRxInterrupt, %function
 694              	Cy_SCB_SetRxInterrupt:
 695              	.LFB97:
1014:Generated_Source\PSoC6\pdl\drivers\peripheral\scb/cy_scb_common.h **** 
1015:Generated_Source\PSoC6\pdl\drivers\peripheral\scb/cy_scb_common.h **** 
1016:Generated_Source\PSoC6\pdl\drivers\peripheral\scb/cy_scb_common.h **** /*******************************************************************************
1017:Generated_Source\PSoC6\pdl\drivers\peripheral\scb/cy_scb_common.h **** * Function Name: Cy_SCB_SetRxInterrupt
1018:Generated_Source\PSoC6\pdl\drivers\peripheral\scb/cy_scb_common.h **** ****************************************************************************//**
1019:Generated_Source\PSoC6\pdl\drivers\peripheral\scb/cy_scb_common.h **** *
1020:Generated_Source\PSoC6\pdl\drivers\peripheral\scb/cy_scb_common.h **** * Sets the RX interrupt sources in the interrupt request register.
1021:Generated_Source\PSoC6\pdl\drivers\peripheral\scb/cy_scb_common.h **** *
1022:Generated_Source\PSoC6\pdl\drivers\peripheral\scb/cy_scb_common.h **** * \param base
1023:Generated_Source\PSoC6\pdl\drivers\peripheral\scb/cy_scb_common.h **** * The pointer to the SCB instance.
1024:Generated_Source\PSoC6\pdl\drivers\peripheral\scb/cy_scb_common.h **** *
1025:Generated_Source\PSoC6\pdl\drivers\peripheral\scb/cy_scb_common.h **** * \param interruptMask
1026:Generated_Source\PSoC6\pdl\drivers\peripheral\scb/cy_scb_common.h **** * The RX interrupt sources to set in the RX interrupt request register.
1027:Generated_Source\PSoC6\pdl\drivers\peripheral\scb/cy_scb_common.h **** * See \ref group_scb_common_macros_rx_intr for the set of constants.
1028:Generated_Source\PSoC6\pdl\drivers\peripheral\scb/cy_scb_common.h **** *
1029:Generated_Source\PSoC6\pdl\drivers\peripheral\scb/cy_scb_common.h **** *******************************************************************************/
1030:Generated_Source\PSoC6\pdl\drivers\peripheral\scb/cy_scb_common.h **** __STATIC_INLINE void Cy_SCB_SetRxInterrupt(CySCB_Type *base, uint32_t interruptMask)
1031:Generated_Source\PSoC6\pdl\drivers\peripheral\scb/cy_scb_common.h **** {
 696              		.loc 1 1031 0
 697              		.cfi_startproc
 698              		@ args = 0, pretend = 0, frame = 8
 699              		@ frame_needed = 1, uses_anonymous_args = 0
 700 0000 80B5     		push	{r7, lr}
 701              		.cfi_def_cfa_offset 8
 702              		.cfi_offset 7, -8
 703              		.cfi_offset 14, -4
 704 0002 82B0     		sub	sp, sp, #8
 705              		.cfi_def_cfa_offset 16
 706 0004 00AF     		add	r7, sp, #0
 707              		.cfi_def_cfa_register 7
 708 0006 7860     		str	r0, [r7, #4]
 709 0008 3960     		str	r1, [r7]
1032:Generated_Source\PSoC6\pdl\drivers\peripheral\scb/cy_scb_common.h ****     CY_ASSERT_L2(CY_SCB_IS_INTR_VALID(interruptMask, CY_SCB_RX_INTR_MASK));
 710              		.loc 1 1032 0
 711 000a 3B68     		ldr	r3, [r7]
 712 000c 084A     		ldr	r2, .L44
 713 000e 1340     		ands	r3, r2
 714 0010 06D0     		beq	.L43
 715              		.loc 1 1032 0 is_stmt 0 discriminator 1
 716 0012 8123     		movs	r3, #129
 717 0014 DA00     		lsls	r2, r3, #3
 718 0016 074B     		ldr	r3, .L44+4
 719 0018 1100     		movs	r1, r2
 720 001a 1800     		movs	r0, r3
 721 001c FFF7FEFF 		bl	Cy_SysLib_AssertFailed
 722              	.L43:
1033:Generated_Source\PSoC6\pdl\drivers\peripheral\scb/cy_scb_common.h **** 
1034:Generated_Source\PSoC6\pdl\drivers\peripheral\scb/cy_scb_common.h ****     SCB_INTR_RX_SET(base) = interruptMask;
 723              		.loc 1 1034 0 is_stmt 1
 724 0020 7B68     		ldr	r3, [r7, #4]
 725 0022 0549     		ldr	r1, .L44+8
ARM GAS  C:\Users\JC\AppData\Local\Temp\ccY7kCY2.s 			page 32


 726 0024 3A68     		ldr	r2, [r7]
 727 0026 5A50     		str	r2, [r3, r1]
1035:Generated_Source\PSoC6\pdl\drivers\peripheral\scb/cy_scb_common.h **** }
 728              		.loc 1 1035 0
 729 0028 C046     		nop
 730 002a BD46     		mov	sp, r7
 731 002c 02B0     		add	sp, sp, #8
 732              		@ sp needed
 733 002e 80BD     		pop	{r7, pc}
 734              	.L45:
 735              		.align	2
 736              	.L44:
 737 0030 92F4FFFF 		.word	-2926
 738 0034 00000000 		.word	.LC0
 739 0038 C40F0000 		.word	4036
 740              		.cfi_endproc
 741              	.LFE97:
 742              		.size	Cy_SCB_SetRxInterrupt, .-Cy_SCB_SetRxInterrupt
 743              		.section	.text.Cy_SCB_SetTxInterruptMask,"ax",%progbits
 744              		.align	2
 745              		.code	16
 746              		.thumb_func
 747              		.type	Cy_SCB_SetTxInterruptMask, %function
 748              	Cy_SCB_SetTxInterruptMask:
 749              	.LFB99:
1036:Generated_Source\PSoC6\pdl\drivers\peripheral\scb/cy_scb_common.h **** 
1037:Generated_Source\PSoC6\pdl\drivers\peripheral\scb/cy_scb_common.h **** 
1038:Generated_Source\PSoC6\pdl\drivers\peripheral\scb/cy_scb_common.h **** /*******************************************************************************
1039:Generated_Source\PSoC6\pdl\drivers\peripheral\scb/cy_scb_common.h **** * Function Name: Cy_SCB_GetTxInterruptStatus
1040:Generated_Source\PSoC6\pdl\drivers\peripheral\scb/cy_scb_common.h **** ****************************************************************************//**
1041:Generated_Source\PSoC6\pdl\drivers\peripheral\scb/cy_scb_common.h **** *
1042:Generated_Source\PSoC6\pdl\drivers\peripheral\scb/cy_scb_common.h **** * Returns the TX interrupt request register. This register contains the current
1043:Generated_Source\PSoC6\pdl\drivers\peripheral\scb/cy_scb_common.h **** * status of the TX interrupt sources.
1044:Generated_Source\PSoC6\pdl\drivers\peripheral\scb/cy_scb_common.h **** *
1045:Generated_Source\PSoC6\pdl\drivers\peripheral\scb/cy_scb_common.h **** * \param base
1046:Generated_Source\PSoC6\pdl\drivers\peripheral\scb/cy_scb_common.h **** * The pointer to the SCB instance.
1047:Generated_Source\PSoC6\pdl\drivers\peripheral\scb/cy_scb_common.h **** *
1048:Generated_Source\PSoC6\pdl\drivers\peripheral\scb/cy_scb_common.h **** * \return
1049:Generated_Source\PSoC6\pdl\drivers\peripheral\scb/cy_scb_common.h **** * The current status of TX interrupt sources.
1050:Generated_Source\PSoC6\pdl\drivers\peripheral\scb/cy_scb_common.h **** * Each constant is a bit field value. The value returned may have multiple
1051:Generated_Source\PSoC6\pdl\drivers\peripheral\scb/cy_scb_common.h **** * bits set to indicate the current status.
1052:Generated_Source\PSoC6\pdl\drivers\peripheral\scb/cy_scb_common.h **** * See \ref group_scb_common_macros_tx_intr for the set of constants.
1053:Generated_Source\PSoC6\pdl\drivers\peripheral\scb/cy_scb_common.h **** *
1054:Generated_Source\PSoC6\pdl\drivers\peripheral\scb/cy_scb_common.h **** *******************************************************************************/
1055:Generated_Source\PSoC6\pdl\drivers\peripheral\scb/cy_scb_common.h **** __STATIC_INLINE uint32_t Cy_SCB_GetTxInterruptStatus(CySCB_Type const *base)
1056:Generated_Source\PSoC6\pdl\drivers\peripheral\scb/cy_scb_common.h **** {
1057:Generated_Source\PSoC6\pdl\drivers\peripheral\scb/cy_scb_common.h ****     return (SCB_INTR_TX(base) & CY_SCB_TX_INTR_MASK);
1058:Generated_Source\PSoC6\pdl\drivers\peripheral\scb/cy_scb_common.h **** }
1059:Generated_Source\PSoC6\pdl\drivers\peripheral\scb/cy_scb_common.h **** 
1060:Generated_Source\PSoC6\pdl\drivers\peripheral\scb/cy_scb_common.h **** 
1061:Generated_Source\PSoC6\pdl\drivers\peripheral\scb/cy_scb_common.h **** /*******************************************************************************
1062:Generated_Source\PSoC6\pdl\drivers\peripheral\scb/cy_scb_common.h **** * Function Name: Cy_SCB_SetTxInterruptMask
1063:Generated_Source\PSoC6\pdl\drivers\peripheral\scb/cy_scb_common.h **** ****************************************************************************//**
1064:Generated_Source\PSoC6\pdl\drivers\peripheral\scb/cy_scb_common.h **** *
1065:Generated_Source\PSoC6\pdl\drivers\peripheral\scb/cy_scb_common.h **** * Writes the TX interrupt mask register. This register configures which bits
1066:Generated_Source\PSoC6\pdl\drivers\peripheral\scb/cy_scb_common.h **** * from the TX interrupt request register can trigger an interrupt event.
1067:Generated_Source\PSoC6\pdl\drivers\peripheral\scb/cy_scb_common.h **** *
ARM GAS  C:\Users\JC\AppData\Local\Temp\ccY7kCY2.s 			page 33


1068:Generated_Source\PSoC6\pdl\drivers\peripheral\scb/cy_scb_common.h **** * \param base
1069:Generated_Source\PSoC6\pdl\drivers\peripheral\scb/cy_scb_common.h **** * The pointer to the SCB instance.
1070:Generated_Source\PSoC6\pdl\drivers\peripheral\scb/cy_scb_common.h **** *
1071:Generated_Source\PSoC6\pdl\drivers\peripheral\scb/cy_scb_common.h **** * \param interruptMask
1072:Generated_Source\PSoC6\pdl\drivers\peripheral\scb/cy_scb_common.h **** * Enabled TX interrupt sources.
1073:Generated_Source\PSoC6\pdl\drivers\peripheral\scb/cy_scb_common.h **** * See \ref group_scb_common_macros_tx_intr for the set of constants.
1074:Generated_Source\PSoC6\pdl\drivers\peripheral\scb/cy_scb_common.h **** *
1075:Generated_Source\PSoC6\pdl\drivers\peripheral\scb/cy_scb_common.h **** *******************************************************************************/
1076:Generated_Source\PSoC6\pdl\drivers\peripheral\scb/cy_scb_common.h **** __STATIC_INLINE void Cy_SCB_SetTxInterruptMask(CySCB_Type *base, uint32_t interruptMask)
1077:Generated_Source\PSoC6\pdl\drivers\peripheral\scb/cy_scb_common.h **** {
 750              		.loc 1 1077 0
 751              		.cfi_startproc
 752              		@ args = 0, pretend = 0, frame = 8
 753              		@ frame_needed = 1, uses_anonymous_args = 0
 754 0000 80B5     		push	{r7, lr}
 755              		.cfi_def_cfa_offset 8
 756              		.cfi_offset 7, -8
 757              		.cfi_offset 14, -4
 758 0002 82B0     		sub	sp, sp, #8
 759              		.cfi_def_cfa_offset 16
 760 0004 00AF     		add	r7, sp, #0
 761              		.cfi_def_cfa_register 7
 762 0006 7860     		str	r0, [r7, #4]
 763 0008 3960     		str	r1, [r7]
1078:Generated_Source\PSoC6\pdl\drivers\peripheral\scb/cy_scb_common.h ****     CY_ASSERT_L2(CY_SCB_IS_INTR_VALID(interruptMask, CY_SCB_TX_INTR_MASK));
 764              		.loc 1 1078 0
 765 000a 3B68     		ldr	r3, [r7]
 766 000c 084A     		ldr	r2, .L48
 767 000e 1340     		ands	r3, r2
 768 0010 05D0     		beq	.L47
 769              		.loc 1 1078 0 is_stmt 0 discriminator 1
 770 0012 084A     		ldr	r2, .L48+4
 771 0014 084B     		ldr	r3, .L48+8
 772 0016 1100     		movs	r1, r2
 773 0018 1800     		movs	r0, r3
 774 001a FFF7FEFF 		bl	Cy_SysLib_AssertFailed
 775              	.L47:
1079:Generated_Source\PSoC6\pdl\drivers\peripheral\scb/cy_scb_common.h **** 
1080:Generated_Source\PSoC6\pdl\drivers\peripheral\scb/cy_scb_common.h ****     SCB_INTR_TX_MASK(base) = interruptMask;
 776              		.loc 1 1080 0 is_stmt 1
 777 001e 7B68     		ldr	r3, [r7, #4]
 778 0020 0649     		ldr	r1, .L48+12
 779 0022 3A68     		ldr	r2, [r7]
 780 0024 5A50     		str	r2, [r3, r1]
1081:Generated_Source\PSoC6\pdl\drivers\peripheral\scb/cy_scb_common.h **** }
 781              		.loc 1 1081 0
 782 0026 C046     		nop
 783 0028 BD46     		mov	sp, r7
 784 002a 02B0     		add	sp, sp, #8
 785              		@ sp needed
 786 002c 80BD     		pop	{r7, pc}
 787              	.L49:
 788 002e C046     		.align	2
 789              	.L48:
 790 0030 8CF8FFFF 		.word	-1908
 791 0034 36040000 		.word	1078
 792 0038 00000000 		.word	.LC0
ARM GAS  C:\Users\JC\AppData\Local\Temp\ccY7kCY2.s 			page 34


 793 003c 880F0000 		.word	3976
 794              		.cfi_endproc
 795              	.LFE99:
 796              		.size	Cy_SCB_SetTxInterruptMask, .-Cy_SCB_SetTxInterruptMask
 797              		.section	.text.Cy_SCB_GetTxInterruptStatusMasked,"ax",%progbits
 798              		.align	2
 799              		.code	16
 800              		.thumb_func
 801              		.type	Cy_SCB_GetTxInterruptStatusMasked, %function
 802              	Cy_SCB_GetTxInterruptStatusMasked:
 803              	.LFB101:
1082:Generated_Source\PSoC6\pdl\drivers\peripheral\scb/cy_scb_common.h **** 
1083:Generated_Source\PSoC6\pdl\drivers\peripheral\scb/cy_scb_common.h **** 
1084:Generated_Source\PSoC6\pdl\drivers\peripheral\scb/cy_scb_common.h **** /*******************************************************************************
1085:Generated_Source\PSoC6\pdl\drivers\peripheral\scb/cy_scb_common.h **** * Function Name: Cy_SCB_GetTxInterruptMask
1086:Generated_Source\PSoC6\pdl\drivers\peripheral\scb/cy_scb_common.h **** ****************************************************************************//**
1087:Generated_Source\PSoC6\pdl\drivers\peripheral\scb/cy_scb_common.h **** *
1088:Generated_Source\PSoC6\pdl\drivers\peripheral\scb/cy_scb_common.h **** * Returns the TX interrupt mask register. This register specifies which
1089:Generated_Source\PSoC6\pdl\drivers\peripheral\scb/cy_scb_common.h **** * bits from the TX interrupt request register can trigger an interrupt event.
1090:Generated_Source\PSoC6\pdl\drivers\peripheral\scb/cy_scb_common.h **** *
1091:Generated_Source\PSoC6\pdl\drivers\peripheral\scb/cy_scb_common.h **** * \param base
1092:Generated_Source\PSoC6\pdl\drivers\peripheral\scb/cy_scb_common.h **** * The pointer to the SCB instance.
1093:Generated_Source\PSoC6\pdl\drivers\peripheral\scb/cy_scb_common.h **** *
1094:Generated_Source\PSoC6\pdl\drivers\peripheral\scb/cy_scb_common.h **** * \return
1095:Generated_Source\PSoC6\pdl\drivers\peripheral\scb/cy_scb_common.h **** * Enabled TX interrupt sources.
1096:Generated_Source\PSoC6\pdl\drivers\peripheral\scb/cy_scb_common.h **** * See \ref group_scb_common_macros_tx_intr for the set of constants.
1097:Generated_Source\PSoC6\pdl\drivers\peripheral\scb/cy_scb_common.h **** *
1098:Generated_Source\PSoC6\pdl\drivers\peripheral\scb/cy_scb_common.h **** *******************************************************************************/
1099:Generated_Source\PSoC6\pdl\drivers\peripheral\scb/cy_scb_common.h **** __STATIC_INLINE uint32_t Cy_SCB_GetTxInterruptMask(CySCB_Type const *base)
1100:Generated_Source\PSoC6\pdl\drivers\peripheral\scb/cy_scb_common.h **** {
1101:Generated_Source\PSoC6\pdl\drivers\peripheral\scb/cy_scb_common.h ****     return (SCB_INTR_TX_MASK(base));
1102:Generated_Source\PSoC6\pdl\drivers\peripheral\scb/cy_scb_common.h **** }
1103:Generated_Source\PSoC6\pdl\drivers\peripheral\scb/cy_scb_common.h **** 
1104:Generated_Source\PSoC6\pdl\drivers\peripheral\scb/cy_scb_common.h **** 
1105:Generated_Source\PSoC6\pdl\drivers\peripheral\scb/cy_scb_common.h **** /*******************************************************************************
1106:Generated_Source\PSoC6\pdl\drivers\peripheral\scb/cy_scb_common.h **** * Function Name: Cy_SCB_GetTxInterruptStatusMasked
1107:Generated_Source\PSoC6\pdl\drivers\peripheral\scb/cy_scb_common.h **** ****************************************************************************//**
1108:Generated_Source\PSoC6\pdl\drivers\peripheral\scb/cy_scb_common.h **** *
1109:Generated_Source\PSoC6\pdl\drivers\peripheral\scb/cy_scb_common.h **** * Returns the TX interrupt masked request register. This register contains
1110:Generated_Source\PSoC6\pdl\drivers\peripheral\scb/cy_scb_common.h **** * a logical AND of corresponding bits from the TX interrupt request and
1111:Generated_Source\PSoC6\pdl\drivers\peripheral\scb/cy_scb_common.h **** * mask registers.
1112:Generated_Source\PSoC6\pdl\drivers\peripheral\scb/cy_scb_common.h **** * This function is intended to be used in the interrupt service routine to
1113:Generated_Source\PSoC6\pdl\drivers\peripheral\scb/cy_scb_common.h **** * identify which of enabled TX interrupt sources caused the interrupt event.
1114:Generated_Source\PSoC6\pdl\drivers\peripheral\scb/cy_scb_common.h **** *
1115:Generated_Source\PSoC6\pdl\drivers\peripheral\scb/cy_scb_common.h **** * \param base
1116:Generated_Source\PSoC6\pdl\drivers\peripheral\scb/cy_scb_common.h **** * The pointer to the SCB instance.
1117:Generated_Source\PSoC6\pdl\drivers\peripheral\scb/cy_scb_common.h **** *
1118:Generated_Source\PSoC6\pdl\drivers\peripheral\scb/cy_scb_common.h **** * \return
1119:Generated_Source\PSoC6\pdl\drivers\peripheral\scb/cy_scb_common.h **** * The current status of enabled TX interrupt sources.
1120:Generated_Source\PSoC6\pdl\drivers\peripheral\scb/cy_scb_common.h **** * See \ref group_scb_common_macros_tx_intr for the set of constants.
1121:Generated_Source\PSoC6\pdl\drivers\peripheral\scb/cy_scb_common.h **** *
1122:Generated_Source\PSoC6\pdl\drivers\peripheral\scb/cy_scb_common.h **** *******************************************************************************/
1123:Generated_Source\PSoC6\pdl\drivers\peripheral\scb/cy_scb_common.h **** __STATIC_INLINE uint32_t Cy_SCB_GetTxInterruptStatusMasked(CySCB_Type const *base)
1124:Generated_Source\PSoC6\pdl\drivers\peripheral\scb/cy_scb_common.h **** {
 804              		.loc 1 1124 0
 805              		.cfi_startproc
 806              		@ args = 0, pretend = 0, frame = 8
ARM GAS  C:\Users\JC\AppData\Local\Temp\ccY7kCY2.s 			page 35


 807              		@ frame_needed = 1, uses_anonymous_args = 0
 808 0000 80B5     		push	{r7, lr}
 809              		.cfi_def_cfa_offset 8
 810              		.cfi_offset 7, -8
 811              		.cfi_offset 14, -4
 812 0002 82B0     		sub	sp, sp, #8
 813              		.cfi_def_cfa_offset 16
 814 0004 00AF     		add	r7, sp, #0
 815              		.cfi_def_cfa_register 7
 816 0006 7860     		str	r0, [r7, #4]
1125:Generated_Source\PSoC6\pdl\drivers\peripheral\scb/cy_scb_common.h ****     return (SCB_INTR_TX_MASKED(base));
 817              		.loc 1 1125 0
 818 0008 7B68     		ldr	r3, [r7, #4]
 819 000a 034A     		ldr	r2, .L52
 820 000c 9B58     		ldr	r3, [r3, r2]
1126:Generated_Source\PSoC6\pdl\drivers\peripheral\scb/cy_scb_common.h **** }
 821              		.loc 1 1126 0
 822 000e 1800     		movs	r0, r3
 823 0010 BD46     		mov	sp, r7
 824 0012 02B0     		add	sp, sp, #8
 825              		@ sp needed
 826 0014 80BD     		pop	{r7, pc}
 827              	.L53:
 828 0016 C046     		.align	2
 829              	.L52:
 830 0018 8C0F0000 		.word	3980
 831              		.cfi_endproc
 832              	.LFE101:
 833              		.size	Cy_SCB_GetTxInterruptStatusMasked, .-Cy_SCB_GetTxInterruptStatusMasked
 834              		.section	.text.Cy_SCB_ClearTxInterrupt,"ax",%progbits
 835              		.align	2
 836              		.code	16
 837              		.thumb_func
 838              		.type	Cy_SCB_ClearTxInterrupt, %function
 839              	Cy_SCB_ClearTxInterrupt:
 840              	.LFB102:
1127:Generated_Source\PSoC6\pdl\drivers\peripheral\scb/cy_scb_common.h **** 
1128:Generated_Source\PSoC6\pdl\drivers\peripheral\scb/cy_scb_common.h **** 
1129:Generated_Source\PSoC6\pdl\drivers\peripheral\scb/cy_scb_common.h **** /*******************************************************************************
1130:Generated_Source\PSoC6\pdl\drivers\peripheral\scb/cy_scb_common.h **** * Function Name: Cy_SCB_ClearTxInterrupt
1131:Generated_Source\PSoC6\pdl\drivers\peripheral\scb/cy_scb_common.h **** ****************************************************************************//**
1132:Generated_Source\PSoC6\pdl\drivers\peripheral\scb/cy_scb_common.h **** *
1133:Generated_Source\PSoC6\pdl\drivers\peripheral\scb/cy_scb_common.h **** * Clears the TX interrupt sources in the interrupt request register.
1134:Generated_Source\PSoC6\pdl\drivers\peripheral\scb/cy_scb_common.h **** *
1135:Generated_Source\PSoC6\pdl\drivers\peripheral\scb/cy_scb_common.h **** * \param base
1136:Generated_Source\PSoC6\pdl\drivers\peripheral\scb/cy_scb_common.h **** * The pointer to the SCB instance.
1137:Generated_Source\PSoC6\pdl\drivers\peripheral\scb/cy_scb_common.h **** *
1138:Generated_Source\PSoC6\pdl\drivers\peripheral\scb/cy_scb_common.h **** * \param interruptMask
1139:Generated_Source\PSoC6\pdl\drivers\peripheral\scb/cy_scb_common.h **** * The TX interrupt sources to be cleared.
1140:Generated_Source\PSoC6\pdl\drivers\peripheral\scb/cy_scb_common.h **** * See \ref group_scb_common_macros_tx_intr for the set of constants.
1141:Generated_Source\PSoC6\pdl\drivers\peripheral\scb/cy_scb_common.h **** *
1142:Generated_Source\PSoC6\pdl\drivers\peripheral\scb/cy_scb_common.h **** * \note
1143:Generated_Source\PSoC6\pdl\drivers\peripheral\scb/cy_scb_common.h **** *  - CY_SCB_INTR_TX_FIFO_LEVEL interrupt source is not cleared when the
1144:Generated_Source\PSoC6\pdl\drivers\peripheral\scb/cy_scb_common.h **** *    TX FIFO has fewer entries than the TX level.
1145:Generated_Source\PSoC6\pdl\drivers\peripheral\scb/cy_scb_common.h **** *  - CY_SCB_INTR_TX_NOT_FULL interrupt source is not cleared when the
1146:Generated_Source\PSoC6\pdl\drivers\peripheral\scb/cy_scb_common.h **** *    TX FIFO has empty entries in the TX FIFO.
1147:Generated_Source\PSoC6\pdl\drivers\peripheral\scb/cy_scb_common.h **** *  - CY_SCB_INTR_TX_EMPTY interrupt source is not cleared when the
ARM GAS  C:\Users\JC\AppData\Local\Temp\ccY7kCY2.s 			page 36


1148:Generated_Source\PSoC6\pdl\drivers\peripheral\scb/cy_scb_common.h **** *    TX FIFO is empty.
1149:Generated_Source\PSoC6\pdl\drivers\peripheral\scb/cy_scb_common.h **** *  - CY_SCB_INTR_TX_UNDERFLOW interrupt source is not cleared when the
1150:Generated_Source\PSoC6\pdl\drivers\peripheral\scb/cy_scb_common.h **** *    TX FIFO is empty. Put data into the TX FIFO before clearing it.
1151:Generated_Source\PSoC6\pdl\drivers\peripheral\scb/cy_scb_common.h **** *
1152:Generated_Source\PSoC6\pdl\drivers\peripheral\scb/cy_scb_common.h **** *******************************************************************************/
1153:Generated_Source\PSoC6\pdl\drivers\peripheral\scb/cy_scb_common.h **** __STATIC_INLINE void Cy_SCB_ClearTxInterrupt(CySCB_Type *base, uint32_t interruptMask)
1154:Generated_Source\PSoC6\pdl\drivers\peripheral\scb/cy_scb_common.h **** {
 841              		.loc 1 1154 0
 842              		.cfi_startproc
 843              		@ args = 0, pretend = 0, frame = 8
 844              		@ frame_needed = 1, uses_anonymous_args = 0
 845 0000 80B5     		push	{r7, lr}
 846              		.cfi_def_cfa_offset 8
 847              		.cfi_offset 7, -8
 848              		.cfi_offset 14, -4
 849 0002 82B0     		sub	sp, sp, #8
 850              		.cfi_def_cfa_offset 16
 851 0004 00AF     		add	r7, sp, #0
 852              		.cfi_def_cfa_register 7
 853 0006 7860     		str	r0, [r7, #4]
 854 0008 3960     		str	r1, [r7]
1155:Generated_Source\PSoC6\pdl\drivers\peripheral\scb/cy_scb_common.h ****     CY_ASSERT_L2(CY_SCB_IS_INTR_VALID(interruptMask, CY_SCB_TX_INTR_MASK));
 855              		.loc 1 1155 0
 856 000a 3B68     		ldr	r3, [r7]
 857 000c 0A4A     		ldr	r2, .L56
 858 000e 1340     		ands	r3, r2
 859 0010 05D0     		beq	.L55
 860              		.loc 1 1155 0 is_stmt 0 discriminator 1
 861 0012 0A4A     		ldr	r2, .L56+4
 862 0014 0A4B     		ldr	r3, .L56+8
 863 0016 1100     		movs	r1, r2
 864 0018 1800     		movs	r0, r3
 865 001a FFF7FEFF 		bl	Cy_SysLib_AssertFailed
 866              	.L55:
1156:Generated_Source\PSoC6\pdl\drivers\peripheral\scb/cy_scb_common.h **** 
1157:Generated_Source\PSoC6\pdl\drivers\peripheral\scb/cy_scb_common.h ****     SCB_INTR_TX(base) = interruptMask;
 867              		.loc 1 1157 0 is_stmt 1
 868 001e 7A68     		ldr	r2, [r7, #4]
 869 0020 F823     		movs	r3, #248
 870 0022 1B01     		lsls	r3, r3, #4
 871 0024 3968     		ldr	r1, [r7]
 872 0026 D150     		str	r1, [r2, r3]
1158:Generated_Source\PSoC6\pdl\drivers\peripheral\scb/cy_scb_common.h ****     (void) SCB_INTR_TX(base);
 873              		.loc 1 1158 0
 874 0028 7A68     		ldr	r2, [r7, #4]
 875 002a F823     		movs	r3, #248
 876 002c 1B01     		lsls	r3, r3, #4
 877 002e D358     		ldr	r3, [r2, r3]
1159:Generated_Source\PSoC6\pdl\drivers\peripheral\scb/cy_scb_common.h **** }
 878              		.loc 1 1159 0
 879 0030 C046     		nop
 880 0032 BD46     		mov	sp, r7
 881 0034 02B0     		add	sp, sp, #8
 882              		@ sp needed
 883 0036 80BD     		pop	{r7, pc}
 884              	.L57:
 885              		.align	2
ARM GAS  C:\Users\JC\AppData\Local\Temp\ccY7kCY2.s 			page 37


 886              	.L56:
 887 0038 8CF8FFFF 		.word	-1908
 888 003c 83040000 		.word	1155
 889 0040 00000000 		.word	.LC0
 890              		.cfi_endproc
 891              	.LFE102:
 892              		.size	Cy_SCB_ClearTxInterrupt, .-Cy_SCB_ClearTxInterrupt
 893              		.section	.text.Cy_SCB_GetMasterInterruptStatus,"ax",%progbits
 894              		.align	2
 895              		.code	16
 896              		.thumb_func
 897              		.type	Cy_SCB_GetMasterInterruptStatus, %function
 898              	Cy_SCB_GetMasterInterruptStatus:
 899              	.LFB104:
1160:Generated_Source\PSoC6\pdl\drivers\peripheral\scb/cy_scb_common.h **** 
1161:Generated_Source\PSoC6\pdl\drivers\peripheral\scb/cy_scb_common.h **** 
1162:Generated_Source\PSoC6\pdl\drivers\peripheral\scb/cy_scb_common.h **** /*******************************************************************************
1163:Generated_Source\PSoC6\pdl\drivers\peripheral\scb/cy_scb_common.h **** * Function Name: Cy_SCB_SetTxInterrupt
1164:Generated_Source\PSoC6\pdl\drivers\peripheral\scb/cy_scb_common.h **** ****************************************************************************//**
1165:Generated_Source\PSoC6\pdl\drivers\peripheral\scb/cy_scb_common.h **** *
1166:Generated_Source\PSoC6\pdl\drivers\peripheral\scb/cy_scb_common.h **** * Sets TX interrupt sources in the interrupt request register.
1167:Generated_Source\PSoC6\pdl\drivers\peripheral\scb/cy_scb_common.h **** *
1168:Generated_Source\PSoC6\pdl\drivers\peripheral\scb/cy_scb_common.h **** * \param base
1169:Generated_Source\PSoC6\pdl\drivers\peripheral\scb/cy_scb_common.h **** * The pointer to the SCB instance.
1170:Generated_Source\PSoC6\pdl\drivers\peripheral\scb/cy_scb_common.h **** *
1171:Generated_Source\PSoC6\pdl\drivers\peripheral\scb/cy_scb_common.h **** * \param interruptMask
1172:Generated_Source\PSoC6\pdl\drivers\peripheral\scb/cy_scb_common.h **** * The TX interrupt sources to set in the TX interrupt request register.
1173:Generated_Source\PSoC6\pdl\drivers\peripheral\scb/cy_scb_common.h **** * See \ref group_scb_common_macros_tx_intr for the set of constants.
1174:Generated_Source\PSoC6\pdl\drivers\peripheral\scb/cy_scb_common.h **** *
1175:Generated_Source\PSoC6\pdl\drivers\peripheral\scb/cy_scb_common.h **** *******************************************************************************/
1176:Generated_Source\PSoC6\pdl\drivers\peripheral\scb/cy_scb_common.h **** __STATIC_INLINE void Cy_SCB_SetTxInterrupt(CySCB_Type *base, uint32_t interruptMask)
1177:Generated_Source\PSoC6\pdl\drivers\peripheral\scb/cy_scb_common.h **** {
1178:Generated_Source\PSoC6\pdl\drivers\peripheral\scb/cy_scb_common.h ****     CY_ASSERT_L2(CY_SCB_IS_INTR_VALID(interruptMask, CY_SCB_TX_INTR_MASK));
1179:Generated_Source\PSoC6\pdl\drivers\peripheral\scb/cy_scb_common.h **** 
1180:Generated_Source\PSoC6\pdl\drivers\peripheral\scb/cy_scb_common.h ****     SCB_INTR_TX_SET(base) = interruptMask;
1181:Generated_Source\PSoC6\pdl\drivers\peripheral\scb/cy_scb_common.h **** }
1182:Generated_Source\PSoC6\pdl\drivers\peripheral\scb/cy_scb_common.h **** 
1183:Generated_Source\PSoC6\pdl\drivers\peripheral\scb/cy_scb_common.h **** 
1184:Generated_Source\PSoC6\pdl\drivers\peripheral\scb/cy_scb_common.h **** /*******************************************************************************
1185:Generated_Source\PSoC6\pdl\drivers\peripheral\scb/cy_scb_common.h **** * Function Name: Cy_SCB_GetMasterInterruptStatus
1186:Generated_Source\PSoC6\pdl\drivers\peripheral\scb/cy_scb_common.h **** ****************************************************************************//**
1187:Generated_Source\PSoC6\pdl\drivers\peripheral\scb/cy_scb_common.h **** *
1188:Generated_Source\PSoC6\pdl\drivers\peripheral\scb/cy_scb_common.h **** * Returns the master interrupt request register. This register contains the current
1189:Generated_Source\PSoC6\pdl\drivers\peripheral\scb/cy_scb_common.h **** * status of the master interrupt sources.
1190:Generated_Source\PSoC6\pdl\drivers\peripheral\scb/cy_scb_common.h **** *
1191:Generated_Source\PSoC6\pdl\drivers\peripheral\scb/cy_scb_common.h **** * \param base
1192:Generated_Source\PSoC6\pdl\drivers\peripheral\scb/cy_scb_common.h **** * The pointer to the SCB instance.
1193:Generated_Source\PSoC6\pdl\drivers\peripheral\scb/cy_scb_common.h **** *
1194:Generated_Source\PSoC6\pdl\drivers\peripheral\scb/cy_scb_common.h **** * \return
1195:Generated_Source\PSoC6\pdl\drivers\peripheral\scb/cy_scb_common.h **** * The current status of the master interrupt sources.
1196:Generated_Source\PSoC6\pdl\drivers\peripheral\scb/cy_scb_common.h **** * Each constant is a bit field value. The value returned may have multiple
1197:Generated_Source\PSoC6\pdl\drivers\peripheral\scb/cy_scb_common.h **** * bits set to indicate the current status.
1198:Generated_Source\PSoC6\pdl\drivers\peripheral\scb/cy_scb_common.h **** * See \ref group_scb_common_macros_master_intr for the set of constants.
1199:Generated_Source\PSoC6\pdl\drivers\peripheral\scb/cy_scb_common.h **** *
1200:Generated_Source\PSoC6\pdl\drivers\peripheral\scb/cy_scb_common.h **** *******************************************************************************/
1201:Generated_Source\PSoC6\pdl\drivers\peripheral\scb/cy_scb_common.h **** __STATIC_INLINE uint32_t Cy_SCB_GetMasterInterruptStatus(CySCB_Type const *base)
1202:Generated_Source\PSoC6\pdl\drivers\peripheral\scb/cy_scb_common.h **** {
ARM GAS  C:\Users\JC\AppData\Local\Temp\ccY7kCY2.s 			page 38


 900              		.loc 1 1202 0
 901              		.cfi_startproc
 902              		@ args = 0, pretend = 0, frame = 8
 903              		@ frame_needed = 1, uses_anonymous_args = 0
 904 0000 80B5     		push	{r7, lr}
 905              		.cfi_def_cfa_offset 8
 906              		.cfi_offset 7, -8
 907              		.cfi_offset 14, -4
 908 0002 82B0     		sub	sp, sp, #8
 909              		.cfi_def_cfa_offset 16
 910 0004 00AF     		add	r7, sp, #0
 911              		.cfi_def_cfa_register 7
 912 0006 7860     		str	r0, [r7, #4]
1203:Generated_Source\PSoC6\pdl\drivers\peripheral\scb/cy_scb_common.h ****     return (SCB_INTR_M(base) & CY_SCB_MASTER_INTR_MASK);
 913              		.loc 1 1203 0
 914 0008 7A68     		ldr	r2, [r7, #4]
 915 000a F023     		movs	r3, #240
 916 000c 1B01     		lsls	r3, r3, #4
 917 000e D358     		ldr	r3, [r2, r3]
 918 0010 024A     		ldr	r2, .L60
 919 0012 1340     		ands	r3, r2
1204:Generated_Source\PSoC6\pdl\drivers\peripheral\scb/cy_scb_common.h **** }
 920              		.loc 1 1204 0
 921 0014 1800     		movs	r0, r3
 922 0016 BD46     		mov	sp, r7
 923 0018 02B0     		add	sp, sp, #8
 924              		@ sp needed
 925 001a 80BD     		pop	{r7, pc}
 926              	.L61:
 927              		.align	2
 928              	.L60:
 929 001c 17030000 		.word	791
 930              		.cfi_endproc
 931              	.LFE104:
 932              		.size	Cy_SCB_GetMasterInterruptStatus, .-Cy_SCB_GetMasterInterruptStatus
 933              		.section	.text.Cy_SCB_SetMasterInterruptMask,"ax",%progbits
 934              		.align	2
 935              		.code	16
 936              		.thumb_func
 937              		.type	Cy_SCB_SetMasterInterruptMask, %function
 938              	Cy_SCB_SetMasterInterruptMask:
 939              	.LFB105:
1205:Generated_Source\PSoC6\pdl\drivers\peripheral\scb/cy_scb_common.h **** 
1206:Generated_Source\PSoC6\pdl\drivers\peripheral\scb/cy_scb_common.h **** 
1207:Generated_Source\PSoC6\pdl\drivers\peripheral\scb/cy_scb_common.h **** /*******************************************************************************
1208:Generated_Source\PSoC6\pdl\drivers\peripheral\scb/cy_scb_common.h **** * Function Name: Cy_SCB_SetMasterInterruptMask
1209:Generated_Source\PSoC6\pdl\drivers\peripheral\scb/cy_scb_common.h **** ****************************************************************************//**
1210:Generated_Source\PSoC6\pdl\drivers\peripheral\scb/cy_scb_common.h **** *
1211:Generated_Source\PSoC6\pdl\drivers\peripheral\scb/cy_scb_common.h **** * Writes the master interrupt mask register. This register specifies which bits
1212:Generated_Source\PSoC6\pdl\drivers\peripheral\scb/cy_scb_common.h **** * from the master interrupt request register can trigger an interrupt event.
1213:Generated_Source\PSoC6\pdl\drivers\peripheral\scb/cy_scb_common.h **** *
1214:Generated_Source\PSoC6\pdl\drivers\peripheral\scb/cy_scb_common.h **** * \param base
1215:Generated_Source\PSoC6\pdl\drivers\peripheral\scb/cy_scb_common.h **** * The pointer to the SCB instance.
1216:Generated_Source\PSoC6\pdl\drivers\peripheral\scb/cy_scb_common.h **** *
1217:Generated_Source\PSoC6\pdl\drivers\peripheral\scb/cy_scb_common.h **** * \param interruptMask
1218:Generated_Source\PSoC6\pdl\drivers\peripheral\scb/cy_scb_common.h **** * The master interrupt sources to be enable.
1219:Generated_Source\PSoC6\pdl\drivers\peripheral\scb/cy_scb_common.h **** * See \ref group_scb_common_macros_master_intr for the set of constants.
ARM GAS  C:\Users\JC\AppData\Local\Temp\ccY7kCY2.s 			page 39


1220:Generated_Source\PSoC6\pdl\drivers\peripheral\scb/cy_scb_common.h **** *
1221:Generated_Source\PSoC6\pdl\drivers\peripheral\scb/cy_scb_common.h **** *******************************************************************************/
1222:Generated_Source\PSoC6\pdl\drivers\peripheral\scb/cy_scb_common.h **** __STATIC_INLINE void Cy_SCB_SetMasterInterruptMask(CySCB_Type *base, uint32_t interruptMask)
1223:Generated_Source\PSoC6\pdl\drivers\peripheral\scb/cy_scb_common.h **** {
 940              		.loc 1 1223 0
 941              		.cfi_startproc
 942              		@ args = 0, pretend = 0, frame = 8
 943              		@ frame_needed = 1, uses_anonymous_args = 0
 944 0000 80B5     		push	{r7, lr}
 945              		.cfi_def_cfa_offset 8
 946              		.cfi_offset 7, -8
 947              		.cfi_offset 14, -4
 948 0002 82B0     		sub	sp, sp, #8
 949              		.cfi_def_cfa_offset 16
 950 0004 00AF     		add	r7, sp, #0
 951              		.cfi_def_cfa_register 7
 952 0006 7860     		str	r0, [r7, #4]
 953 0008 3960     		str	r1, [r7]
1224:Generated_Source\PSoC6\pdl\drivers\peripheral\scb/cy_scb_common.h ****     CY_ASSERT_L2(CY_SCB_IS_INTR_VALID(interruptMask, CY_SCB_MASTER_INTR_MASK));
 954              		.loc 1 1224 0
 955 000a 3B68     		ldr	r3, [r7]
 956 000c 084A     		ldr	r2, .L64
 957 000e 1340     		ands	r3, r2
 958 0010 06D0     		beq	.L63
 959              		.loc 1 1224 0 is_stmt 0 discriminator 1
 960 0012 9923     		movs	r3, #153
 961 0014 DA00     		lsls	r2, r3, #3
 962 0016 074B     		ldr	r3, .L64+4
 963 0018 1100     		movs	r1, r2
 964 001a 1800     		movs	r0, r3
 965 001c FFF7FEFF 		bl	Cy_SysLib_AssertFailed
 966              	.L63:
1225:Generated_Source\PSoC6\pdl\drivers\peripheral\scb/cy_scb_common.h **** 
1226:Generated_Source\PSoC6\pdl\drivers\peripheral\scb/cy_scb_common.h ****     SCB_INTR_M_MASK(base) = interruptMask;
 967              		.loc 1 1226 0 is_stmt 1
 968 0020 7B68     		ldr	r3, [r7, #4]
 969 0022 0549     		ldr	r1, .L64+8
 970 0024 3A68     		ldr	r2, [r7]
 971 0026 5A50     		str	r2, [r3, r1]
1227:Generated_Source\PSoC6\pdl\drivers\peripheral\scb/cy_scb_common.h **** }
 972              		.loc 1 1227 0
 973 0028 C046     		nop
 974 002a BD46     		mov	sp, r7
 975 002c 02B0     		add	sp, sp, #8
 976              		@ sp needed
 977 002e 80BD     		pop	{r7, pc}
 978              	.L65:
 979              		.align	2
 980              	.L64:
 981 0030 E8FCFFFF 		.word	-792
 982 0034 00000000 		.word	.LC0
 983 0038 080F0000 		.word	3848
 984              		.cfi_endproc
 985              	.LFE105:
 986              		.size	Cy_SCB_SetMasterInterruptMask, .-Cy_SCB_SetMasterInterruptMask
 987              		.section	.text.Cy_SCB_GetMasterInterruptStatusMasked,"ax",%progbits
 988              		.align	2
ARM GAS  C:\Users\JC\AppData\Local\Temp\ccY7kCY2.s 			page 40


 989              		.code	16
 990              		.thumb_func
 991              		.type	Cy_SCB_GetMasterInterruptStatusMasked, %function
 992              	Cy_SCB_GetMasterInterruptStatusMasked:
 993              	.LFB107:
1228:Generated_Source\PSoC6\pdl\drivers\peripheral\scb/cy_scb_common.h **** 
1229:Generated_Source\PSoC6\pdl\drivers\peripheral\scb/cy_scb_common.h **** 
1230:Generated_Source\PSoC6\pdl\drivers\peripheral\scb/cy_scb_common.h **** /*******************************************************************************
1231:Generated_Source\PSoC6\pdl\drivers\peripheral\scb/cy_scb_common.h **** * Function Name: Cy_SCB_GetMasterInterruptMask
1232:Generated_Source\PSoC6\pdl\drivers\peripheral\scb/cy_scb_common.h **** ****************************************************************************//**
1233:Generated_Source\PSoC6\pdl\drivers\peripheral\scb/cy_scb_common.h **** *
1234:Generated_Source\PSoC6\pdl\drivers\peripheral\scb/cy_scb_common.h **** * Returns the master interrupt mask register. This register specifies which bits
1235:Generated_Source\PSoC6\pdl\drivers\peripheral\scb/cy_scb_common.h **** * from the master interrupt request register can trigger an interrupt event.
1236:Generated_Source\PSoC6\pdl\drivers\peripheral\scb/cy_scb_common.h **** *
1237:Generated_Source\PSoC6\pdl\drivers\peripheral\scb/cy_scb_common.h **** * \param base
1238:Generated_Source\PSoC6\pdl\drivers\peripheral\scb/cy_scb_common.h **** * The pointer to the SCB instance.
1239:Generated_Source\PSoC6\pdl\drivers\peripheral\scb/cy_scb_common.h **** *
1240:Generated_Source\PSoC6\pdl\drivers\peripheral\scb/cy_scb_common.h **** * \return
1241:Generated_Source\PSoC6\pdl\drivers\peripheral\scb/cy_scb_common.h **** * Enabled master interrupt sources.
1242:Generated_Source\PSoC6\pdl\drivers\peripheral\scb/cy_scb_common.h **** * See \ref group_scb_common_macros_master_intr for the set of constants.
1243:Generated_Source\PSoC6\pdl\drivers\peripheral\scb/cy_scb_common.h **** *
1244:Generated_Source\PSoC6\pdl\drivers\peripheral\scb/cy_scb_common.h **** *******************************************************************************/
1245:Generated_Source\PSoC6\pdl\drivers\peripheral\scb/cy_scb_common.h **** __STATIC_INLINE uint32_t Cy_SCB_GetMasterInterruptMask(CySCB_Type const *base)
1246:Generated_Source\PSoC6\pdl\drivers\peripheral\scb/cy_scb_common.h **** {
1247:Generated_Source\PSoC6\pdl\drivers\peripheral\scb/cy_scb_common.h ****     return (SCB_INTR_M_MASK(base));
1248:Generated_Source\PSoC6\pdl\drivers\peripheral\scb/cy_scb_common.h **** }
1249:Generated_Source\PSoC6\pdl\drivers\peripheral\scb/cy_scb_common.h **** 
1250:Generated_Source\PSoC6\pdl\drivers\peripheral\scb/cy_scb_common.h **** 
1251:Generated_Source\PSoC6\pdl\drivers\peripheral\scb/cy_scb_common.h **** /*******************************************************************************
1252:Generated_Source\PSoC6\pdl\drivers\peripheral\scb/cy_scb_common.h **** * Function Name: Cy_SCB_GetMasterInterruptStatusMasked
1253:Generated_Source\PSoC6\pdl\drivers\peripheral\scb/cy_scb_common.h **** ****************************************************************************//**
1254:Generated_Source\PSoC6\pdl\drivers\peripheral\scb/cy_scb_common.h **** *
1255:Generated_Source\PSoC6\pdl\drivers\peripheral\scb/cy_scb_common.h **** * Returns the master interrupt masked request register. This register contains a
1256:Generated_Source\PSoC6\pdl\drivers\peripheral\scb/cy_scb_common.h **** * logical AND of corresponding bits from the master interrupt request and mask
1257:Generated_Source\PSoC6\pdl\drivers\peripheral\scb/cy_scb_common.h **** * registers.
1258:Generated_Source\PSoC6\pdl\drivers\peripheral\scb/cy_scb_common.h **** * This function is intended to be used in the interrupt service routine to
1259:Generated_Source\PSoC6\pdl\drivers\peripheral\scb/cy_scb_common.h **** * identify which of the enabled master interrupt sources caused the interrupt
1260:Generated_Source\PSoC6\pdl\drivers\peripheral\scb/cy_scb_common.h **** * event.
1261:Generated_Source\PSoC6\pdl\drivers\peripheral\scb/cy_scb_common.h **** *
1262:Generated_Source\PSoC6\pdl\drivers\peripheral\scb/cy_scb_common.h **** * \param base
1263:Generated_Source\PSoC6\pdl\drivers\peripheral\scb/cy_scb_common.h **** * The pointer to the SCB instance.
1264:Generated_Source\PSoC6\pdl\drivers\peripheral\scb/cy_scb_common.h **** *
1265:Generated_Source\PSoC6\pdl\drivers\peripheral\scb/cy_scb_common.h **** * \return
1266:Generated_Source\PSoC6\pdl\drivers\peripheral\scb/cy_scb_common.h **** * The current status of enabled master interrupt sources.
1267:Generated_Source\PSoC6\pdl\drivers\peripheral\scb/cy_scb_common.h **** * See \ref group_scb_common_macros_master_intr for the set of constants.
1268:Generated_Source\PSoC6\pdl\drivers\peripheral\scb/cy_scb_common.h **** *
1269:Generated_Source\PSoC6\pdl\drivers\peripheral\scb/cy_scb_common.h **** *******************************************************************************/
1270:Generated_Source\PSoC6\pdl\drivers\peripheral\scb/cy_scb_common.h **** __STATIC_INLINE uint32_t Cy_SCB_GetMasterInterruptStatusMasked(CySCB_Type const *base)
1271:Generated_Source\PSoC6\pdl\drivers\peripheral\scb/cy_scb_common.h **** {
 994              		.loc 1 1271 0
 995              		.cfi_startproc
 996              		@ args = 0, pretend = 0, frame = 8
 997              		@ frame_needed = 1, uses_anonymous_args = 0
 998 0000 80B5     		push	{r7, lr}
 999              		.cfi_def_cfa_offset 8
 1000              		.cfi_offset 7, -8
 1001              		.cfi_offset 14, -4
ARM GAS  C:\Users\JC\AppData\Local\Temp\ccY7kCY2.s 			page 41


 1002 0002 82B0     		sub	sp, sp, #8
 1003              		.cfi_def_cfa_offset 16
 1004 0004 00AF     		add	r7, sp, #0
 1005              		.cfi_def_cfa_register 7
 1006 0006 7860     		str	r0, [r7, #4]
1272:Generated_Source\PSoC6\pdl\drivers\peripheral\scb/cy_scb_common.h ****     return (SCB_INTR_M_MASKED(base));
 1007              		.loc 1 1272 0
 1008 0008 7B68     		ldr	r3, [r7, #4]
 1009 000a 034A     		ldr	r2, .L68
 1010 000c 9B58     		ldr	r3, [r3, r2]
1273:Generated_Source\PSoC6\pdl\drivers\peripheral\scb/cy_scb_common.h **** }
 1011              		.loc 1 1273 0
 1012 000e 1800     		movs	r0, r3
 1013 0010 BD46     		mov	sp, r7
 1014 0012 02B0     		add	sp, sp, #8
 1015              		@ sp needed
 1016 0014 80BD     		pop	{r7, pc}
 1017              	.L69:
 1018 0016 C046     		.align	2
 1019              	.L68:
 1020 0018 0C0F0000 		.word	3852
 1021              		.cfi_endproc
 1022              	.LFE107:
 1023              		.size	Cy_SCB_GetMasterInterruptStatusMasked, .-Cy_SCB_GetMasterInterruptStatusMasked
 1024              		.section	.text.Cy_SCB_ClearMasterInterrupt,"ax",%progbits
 1025              		.align	2
 1026              		.code	16
 1027              		.thumb_func
 1028              		.type	Cy_SCB_ClearMasterInterrupt, %function
 1029              	Cy_SCB_ClearMasterInterrupt:
 1030              	.LFB108:
1274:Generated_Source\PSoC6\pdl\drivers\peripheral\scb/cy_scb_common.h **** 
1275:Generated_Source\PSoC6\pdl\drivers\peripheral\scb/cy_scb_common.h **** 
1276:Generated_Source\PSoC6\pdl\drivers\peripheral\scb/cy_scb_common.h **** /*******************************************************************************
1277:Generated_Source\PSoC6\pdl\drivers\peripheral\scb/cy_scb_common.h **** * Function Name: Cy_SCB_ClearMasterInterrupt
1278:Generated_Source\PSoC6\pdl\drivers\peripheral\scb/cy_scb_common.h **** ****************************************************************************//**
1279:Generated_Source\PSoC6\pdl\drivers\peripheral\scb/cy_scb_common.h **** *
1280:Generated_Source\PSoC6\pdl\drivers\peripheral\scb/cy_scb_common.h **** * Clears master interrupt sources in the interrupt request register.
1281:Generated_Source\PSoC6\pdl\drivers\peripheral\scb/cy_scb_common.h **** *
1282:Generated_Source\PSoC6\pdl\drivers\peripheral\scb/cy_scb_common.h **** * \param base
1283:Generated_Source\PSoC6\pdl\drivers\peripheral\scb/cy_scb_common.h **** * The pointer to the SCB instance.
1284:Generated_Source\PSoC6\pdl\drivers\peripheral\scb/cy_scb_common.h **** *
1285:Generated_Source\PSoC6\pdl\drivers\peripheral\scb/cy_scb_common.h **** * \param interruptMask
1286:Generated_Source\PSoC6\pdl\drivers\peripheral\scb/cy_scb_common.h **** * The master interrupt sources to be cleared.
1287:Generated_Source\PSoC6\pdl\drivers\peripheral\scb/cy_scb_common.h **** * See \ref group_scb_common_macros_master_intr for the set of constants.
1288:Generated_Source\PSoC6\pdl\drivers\peripheral\scb/cy_scb_common.h **** *
1289:Generated_Source\PSoC6\pdl\drivers\peripheral\scb/cy_scb_common.h **** *******************************************************************************/
1290:Generated_Source\PSoC6\pdl\drivers\peripheral\scb/cy_scb_common.h **** __STATIC_INLINE void Cy_SCB_ClearMasterInterrupt(CySCB_Type *base, uint32_t interruptMask)
1291:Generated_Source\PSoC6\pdl\drivers\peripheral\scb/cy_scb_common.h **** {
 1031              		.loc 1 1291 0
 1032              		.cfi_startproc
 1033              		@ args = 0, pretend = 0, frame = 8
 1034              		@ frame_needed = 1, uses_anonymous_args = 0
 1035 0000 80B5     		push	{r7, lr}
 1036              		.cfi_def_cfa_offset 8
 1037              		.cfi_offset 7, -8
 1038              		.cfi_offset 14, -4
ARM GAS  C:\Users\JC\AppData\Local\Temp\ccY7kCY2.s 			page 42


 1039 0002 82B0     		sub	sp, sp, #8
 1040              		.cfi_def_cfa_offset 16
 1041 0004 00AF     		add	r7, sp, #0
 1042              		.cfi_def_cfa_register 7
 1043 0006 7860     		str	r0, [r7, #4]
 1044 0008 3960     		str	r1, [r7]
1292:Generated_Source\PSoC6\pdl\drivers\peripheral\scb/cy_scb_common.h ****     CY_ASSERT_L2(CY_SCB_IS_INTR_VALID(interruptMask, CY_SCB_MASTER_INTR_MASK));
 1045              		.loc 1 1292 0
 1046 000a 3B68     		ldr	r3, [r7]
 1047 000c 0A4A     		ldr	r2, .L72
 1048 000e 1340     		ands	r3, r2
 1049 0010 05D0     		beq	.L71
 1050              		.loc 1 1292 0 is_stmt 0 discriminator 1
 1051 0012 0A4A     		ldr	r2, .L72+4
 1052 0014 0A4B     		ldr	r3, .L72+8
 1053 0016 1100     		movs	r1, r2
 1054 0018 1800     		movs	r0, r3
 1055 001a FFF7FEFF 		bl	Cy_SysLib_AssertFailed
 1056              	.L71:
1293:Generated_Source\PSoC6\pdl\drivers\peripheral\scb/cy_scb_common.h **** 
1294:Generated_Source\PSoC6\pdl\drivers\peripheral\scb/cy_scb_common.h ****     SCB_INTR_M(base) = interruptMask;
 1057              		.loc 1 1294 0 is_stmt 1
 1058 001e 7A68     		ldr	r2, [r7, #4]
 1059 0020 F023     		movs	r3, #240
 1060 0022 1B01     		lsls	r3, r3, #4
 1061 0024 3968     		ldr	r1, [r7]
 1062 0026 D150     		str	r1, [r2, r3]
1295:Generated_Source\PSoC6\pdl\drivers\peripheral\scb/cy_scb_common.h ****     (void) SCB_INTR_M(base);
 1063              		.loc 1 1295 0
 1064 0028 7A68     		ldr	r2, [r7, #4]
 1065 002a F023     		movs	r3, #240
 1066 002c 1B01     		lsls	r3, r3, #4
 1067 002e D358     		ldr	r3, [r2, r3]
1296:Generated_Source\PSoC6\pdl\drivers\peripheral\scb/cy_scb_common.h **** }
 1068              		.loc 1 1296 0
 1069 0030 C046     		nop
 1070 0032 BD46     		mov	sp, r7
 1071 0034 02B0     		add	sp, sp, #8
 1072              		@ sp needed
 1073 0036 80BD     		pop	{r7, pc}
 1074              	.L73:
 1075              		.align	2
 1076              	.L72:
 1077 0038 E8FCFFFF 		.word	-792
 1078 003c 0C050000 		.word	1292
 1079 0040 00000000 		.word	.LC0
 1080              		.cfi_endproc
 1081              	.LFE108:
 1082              		.size	Cy_SCB_ClearMasterInterrupt, .-Cy_SCB_ClearMasterInterrupt
 1083              		.section	.text.Cy_SCB_GetSlaveInterruptStatus,"ax",%progbits
 1084              		.align	2
 1085              		.code	16
 1086              		.thumb_func
 1087              		.type	Cy_SCB_GetSlaveInterruptStatus, %function
 1088              	Cy_SCB_GetSlaveInterruptStatus:
 1089              	.LFB110:
1297:Generated_Source\PSoC6\pdl\drivers\peripheral\scb/cy_scb_common.h **** 
ARM GAS  C:\Users\JC\AppData\Local\Temp\ccY7kCY2.s 			page 43


1298:Generated_Source\PSoC6\pdl\drivers\peripheral\scb/cy_scb_common.h **** 
1299:Generated_Source\PSoC6\pdl\drivers\peripheral\scb/cy_scb_common.h **** /*******************************************************************************
1300:Generated_Source\PSoC6\pdl\drivers\peripheral\scb/cy_scb_common.h **** * Function Name: Cy_SCB_SetMasterInterrupt
1301:Generated_Source\PSoC6\pdl\drivers\peripheral\scb/cy_scb_common.h **** ****************************************************************************//**
1302:Generated_Source\PSoC6\pdl\drivers\peripheral\scb/cy_scb_common.h **** *
1303:Generated_Source\PSoC6\pdl\drivers\peripheral\scb/cy_scb_common.h **** * Sets master interrupt sources in the interrupt request register.
1304:Generated_Source\PSoC6\pdl\drivers\peripheral\scb/cy_scb_common.h **** *
1305:Generated_Source\PSoC6\pdl\drivers\peripheral\scb/cy_scb_common.h **** * \param base
1306:Generated_Source\PSoC6\pdl\drivers\peripheral\scb/cy_scb_common.h **** * The pointer to the SCB instance.
1307:Generated_Source\PSoC6\pdl\drivers\peripheral\scb/cy_scb_common.h **** *
1308:Generated_Source\PSoC6\pdl\drivers\peripheral\scb/cy_scb_common.h **** * \param interruptMask
1309:Generated_Source\PSoC6\pdl\drivers\peripheral\scb/cy_scb_common.h **** * The master interrupt sources to set in the master interrupt request register.
1310:Generated_Source\PSoC6\pdl\drivers\peripheral\scb/cy_scb_common.h **** * See \ref group_scb_common_macros_master_intr for the set of constants.
1311:Generated_Source\PSoC6\pdl\drivers\peripheral\scb/cy_scb_common.h **** *
1312:Generated_Source\PSoC6\pdl\drivers\peripheral\scb/cy_scb_common.h **** *******************************************************************************/
1313:Generated_Source\PSoC6\pdl\drivers\peripheral\scb/cy_scb_common.h **** __STATIC_INLINE void Cy_SCB_SetMasterInterrupt(CySCB_Type *base, uint32_t interruptMask)
1314:Generated_Source\PSoC6\pdl\drivers\peripheral\scb/cy_scb_common.h **** {
1315:Generated_Source\PSoC6\pdl\drivers\peripheral\scb/cy_scb_common.h ****     CY_ASSERT_L2(CY_SCB_IS_INTR_VALID(interruptMask, CY_SCB_MASTER_INTR_MASK));
1316:Generated_Source\PSoC6\pdl\drivers\peripheral\scb/cy_scb_common.h **** 
1317:Generated_Source\PSoC6\pdl\drivers\peripheral\scb/cy_scb_common.h ****     SCB_INTR_M_SET(base) = interruptMask;
1318:Generated_Source\PSoC6\pdl\drivers\peripheral\scb/cy_scb_common.h **** }
1319:Generated_Source\PSoC6\pdl\drivers\peripheral\scb/cy_scb_common.h **** 
1320:Generated_Source\PSoC6\pdl\drivers\peripheral\scb/cy_scb_common.h **** 
1321:Generated_Source\PSoC6\pdl\drivers\peripheral\scb/cy_scb_common.h **** /*******************************************************************************
1322:Generated_Source\PSoC6\pdl\drivers\peripheral\scb/cy_scb_common.h **** * Function Name: Cy_SCB_GetSlaveInterruptStatus
1323:Generated_Source\PSoC6\pdl\drivers\peripheral\scb/cy_scb_common.h **** ****************************************************************************//**
1324:Generated_Source\PSoC6\pdl\drivers\peripheral\scb/cy_scb_common.h **** *
1325:Generated_Source\PSoC6\pdl\drivers\peripheral\scb/cy_scb_common.h **** * Returns the slave interrupt request register. This register contains the current
1326:Generated_Source\PSoC6\pdl\drivers\peripheral\scb/cy_scb_common.h **** * status of the slave interrupt sources.
1327:Generated_Source\PSoC6\pdl\drivers\peripheral\scb/cy_scb_common.h **** *
1328:Generated_Source\PSoC6\pdl\drivers\peripheral\scb/cy_scb_common.h **** * \param base
1329:Generated_Source\PSoC6\pdl\drivers\peripheral\scb/cy_scb_common.h **** * The pointer to the SCB instance.
1330:Generated_Source\PSoC6\pdl\drivers\peripheral\scb/cy_scb_common.h **** *
1331:Generated_Source\PSoC6\pdl\drivers\peripheral\scb/cy_scb_common.h **** * \return
1332:Generated_Source\PSoC6\pdl\drivers\peripheral\scb/cy_scb_common.h **** * The current status of the slave interrupt sources.
1333:Generated_Source\PSoC6\pdl\drivers\peripheral\scb/cy_scb_common.h **** * Each constant is a bit field value. The value returned may have multiple
1334:Generated_Source\PSoC6\pdl\drivers\peripheral\scb/cy_scb_common.h **** * bits set to indicate the current status.
1335:Generated_Source\PSoC6\pdl\drivers\peripheral\scb/cy_scb_common.h **** * See \ref group_scb_common_macros_slave_intr for the set of constants.
1336:Generated_Source\PSoC6\pdl\drivers\peripheral\scb/cy_scb_common.h **** *
1337:Generated_Source\PSoC6\pdl\drivers\peripheral\scb/cy_scb_common.h **** *******************************************************************************/
1338:Generated_Source\PSoC6\pdl\drivers\peripheral\scb/cy_scb_common.h **** __STATIC_INLINE uint32_t Cy_SCB_GetSlaveInterruptStatus(CySCB_Type const *base)
1339:Generated_Source\PSoC6\pdl\drivers\peripheral\scb/cy_scb_common.h **** {
 1090              		.loc 1 1339 0
 1091              		.cfi_startproc
 1092              		@ args = 0, pretend = 0, frame = 8
 1093              		@ frame_needed = 1, uses_anonymous_args = 0
 1094 0000 80B5     		push	{r7, lr}
 1095              		.cfi_def_cfa_offset 8
 1096              		.cfi_offset 7, -8
 1097              		.cfi_offset 14, -4
 1098 0002 82B0     		sub	sp, sp, #8
 1099              		.cfi_def_cfa_offset 16
 1100 0004 00AF     		add	r7, sp, #0
 1101              		.cfi_def_cfa_register 7
 1102 0006 7860     		str	r0, [r7, #4]
1340:Generated_Source\PSoC6\pdl\drivers\peripheral\scb/cy_scb_common.h ****     return (SCB_INTR_S(base) & CY_SCB_SLAVE_INTR_MASK);
 1103              		.loc 1 1340 0
ARM GAS  C:\Users\JC\AppData\Local\Temp\ccY7kCY2.s 			page 44


 1104 0008 7A68     		ldr	r2, [r7, #4]
 1105 000a F423     		movs	r3, #244
 1106 000c 1B01     		lsls	r3, r3, #4
 1107 000e D358     		ldr	r3, [r2, r3]
 1108 0010 024A     		ldr	r2, .L76
 1109 0012 1340     		ands	r3, r2
1341:Generated_Source\PSoC6\pdl\drivers\peripheral\scb/cy_scb_common.h **** }
 1110              		.loc 1 1341 0
 1111 0014 1800     		movs	r0, r3
 1112 0016 BD46     		mov	sp, r7
 1113 0018 02B0     		add	sp, sp, #8
 1114              		@ sp needed
 1115 001a 80BD     		pop	{r7, pc}
 1116              	.L77:
 1117              		.align	2
 1118              	.L76:
 1119 001c FF090000 		.word	2559
 1120              		.cfi_endproc
 1121              	.LFE110:
 1122              		.size	Cy_SCB_GetSlaveInterruptStatus, .-Cy_SCB_GetSlaveInterruptStatus
 1123              		.section	.text.Cy_SCB_SetSlaveInterruptMask,"ax",%progbits
 1124              		.align	2
 1125              		.code	16
 1126              		.thumb_func
 1127              		.type	Cy_SCB_SetSlaveInterruptMask, %function
 1128              	Cy_SCB_SetSlaveInterruptMask:
 1129              	.LFB111:
1342:Generated_Source\PSoC6\pdl\drivers\peripheral\scb/cy_scb_common.h **** 
1343:Generated_Source\PSoC6\pdl\drivers\peripheral\scb/cy_scb_common.h **** 
1344:Generated_Source\PSoC6\pdl\drivers\peripheral\scb/cy_scb_common.h **** /*******************************************************************************
1345:Generated_Source\PSoC6\pdl\drivers\peripheral\scb/cy_scb_common.h **** * Function Name: Cy_SCB_SetSlaveInterruptMask
1346:Generated_Source\PSoC6\pdl\drivers\peripheral\scb/cy_scb_common.h **** ****************************************************************************//**
1347:Generated_Source\PSoC6\pdl\drivers\peripheral\scb/cy_scb_common.h **** *
1348:Generated_Source\PSoC6\pdl\drivers\peripheral\scb/cy_scb_common.h **** * Writes slave interrupt mask register.
1349:Generated_Source\PSoC6\pdl\drivers\peripheral\scb/cy_scb_common.h **** * This register specifies which bits from the slave interrupt request register
1350:Generated_Source\PSoC6\pdl\drivers\peripheral\scb/cy_scb_common.h **** * can trigger an interrupt event.
1351:Generated_Source\PSoC6\pdl\drivers\peripheral\scb/cy_scb_common.h **** *
1352:Generated_Source\PSoC6\pdl\drivers\peripheral\scb/cy_scb_common.h **** * \param base
1353:Generated_Source\PSoC6\pdl\drivers\peripheral\scb/cy_scb_common.h **** * The pointer to the SCB instance.
1354:Generated_Source\PSoC6\pdl\drivers\peripheral\scb/cy_scb_common.h **** *
1355:Generated_Source\PSoC6\pdl\drivers\peripheral\scb/cy_scb_common.h **** * \param interruptMask
1356:Generated_Source\PSoC6\pdl\drivers\peripheral\scb/cy_scb_common.h **** * Enabled slave interrupt sources.
1357:Generated_Source\PSoC6\pdl\drivers\peripheral\scb/cy_scb_common.h **** * See \ref group_scb_common_macros_slave_intr for the set of constants.
1358:Generated_Source\PSoC6\pdl\drivers\peripheral\scb/cy_scb_common.h **** *
1359:Generated_Source\PSoC6\pdl\drivers\peripheral\scb/cy_scb_common.h **** *******************************************************************************/
1360:Generated_Source\PSoC6\pdl\drivers\peripheral\scb/cy_scb_common.h **** __STATIC_INLINE void Cy_SCB_SetSlaveInterruptMask(CySCB_Type *base, uint32_t interruptMask)
1361:Generated_Source\PSoC6\pdl\drivers\peripheral\scb/cy_scb_common.h **** {
 1130              		.loc 1 1361 0
 1131              		.cfi_startproc
 1132              		@ args = 0, pretend = 0, frame = 8
 1133              		@ frame_needed = 1, uses_anonymous_args = 0
 1134 0000 80B5     		push	{r7, lr}
 1135              		.cfi_def_cfa_offset 8
 1136              		.cfi_offset 7, -8
 1137              		.cfi_offset 14, -4
 1138 0002 82B0     		sub	sp, sp, #8
 1139              		.cfi_def_cfa_offset 16
ARM GAS  C:\Users\JC\AppData\Local\Temp\ccY7kCY2.s 			page 45


 1140 0004 00AF     		add	r7, sp, #0
 1141              		.cfi_def_cfa_register 7
 1142 0006 7860     		str	r0, [r7, #4]
 1143 0008 3960     		str	r1, [r7]
1362:Generated_Source\PSoC6\pdl\drivers\peripheral\scb/cy_scb_common.h ****     CY_ASSERT_L2(CY_SCB_IS_INTR_VALID(interruptMask, CY_SCB_SLAVE_INTR_MASK));
 1144              		.loc 1 1362 0
 1145 000a 3B68     		ldr	r3, [r7]
 1146 000c 084A     		ldr	r2, .L80
 1147 000e 1340     		ands	r3, r2
 1148 0010 05D0     		beq	.L79
 1149              		.loc 1 1362 0 is_stmt 0 discriminator 1
 1150 0012 084A     		ldr	r2, .L80+4
 1151 0014 084B     		ldr	r3, .L80+8
 1152 0016 1100     		movs	r1, r2
 1153 0018 1800     		movs	r0, r3
 1154 001a FFF7FEFF 		bl	Cy_SysLib_AssertFailed
 1155              	.L79:
1363:Generated_Source\PSoC6\pdl\drivers\peripheral\scb/cy_scb_common.h **** 
1364:Generated_Source\PSoC6\pdl\drivers\peripheral\scb/cy_scb_common.h ****     SCB_INTR_S_MASK(base) = interruptMask;
 1156              		.loc 1 1364 0 is_stmt 1
 1157 001e 7B68     		ldr	r3, [r7, #4]
 1158 0020 0649     		ldr	r1, .L80+12
 1159 0022 3A68     		ldr	r2, [r7]
 1160 0024 5A50     		str	r2, [r3, r1]
1365:Generated_Source\PSoC6\pdl\drivers\peripheral\scb/cy_scb_common.h **** }
 1161              		.loc 1 1365 0
 1162 0026 C046     		nop
 1163 0028 BD46     		mov	sp, r7
 1164 002a 02B0     		add	sp, sp, #8
 1165              		@ sp needed
 1166 002c 80BD     		pop	{r7, pc}
 1167              	.L81:
 1168 002e C046     		.align	2
 1169              	.L80:
 1170 0030 00F6FFFF 		.word	-2560
 1171 0034 52050000 		.word	1362
 1172 0038 00000000 		.word	.LC0
 1173 003c 480F0000 		.word	3912
 1174              		.cfi_endproc
 1175              	.LFE111:
 1176              		.size	Cy_SCB_SetSlaveInterruptMask, .-Cy_SCB_SetSlaveInterruptMask
 1177              		.section	.text.Cy_SCB_GetSlaveInterruptStatusMasked,"ax",%progbits
 1178              		.align	2
 1179              		.code	16
 1180              		.thumb_func
 1181              		.type	Cy_SCB_GetSlaveInterruptStatusMasked, %function
 1182              	Cy_SCB_GetSlaveInterruptStatusMasked:
 1183              	.LFB113:
1366:Generated_Source\PSoC6\pdl\drivers\peripheral\scb/cy_scb_common.h **** 
1367:Generated_Source\PSoC6\pdl\drivers\peripheral\scb/cy_scb_common.h **** 
1368:Generated_Source\PSoC6\pdl\drivers\peripheral\scb/cy_scb_common.h **** /*******************************************************************************
1369:Generated_Source\PSoC6\pdl\drivers\peripheral\scb/cy_scb_common.h **** * Function Name: Cy_SCB_GetSlaveInterruptMask
1370:Generated_Source\PSoC6\pdl\drivers\peripheral\scb/cy_scb_common.h **** ****************************************************************************//**
1371:Generated_Source\PSoC6\pdl\drivers\peripheral\scb/cy_scb_common.h **** *
1372:Generated_Source\PSoC6\pdl\drivers\peripheral\scb/cy_scb_common.h **** * Returns the slave interrupt mask register.
1373:Generated_Source\PSoC6\pdl\drivers\peripheral\scb/cy_scb_common.h **** * This register specifies which bits from the slave interrupt request register
1374:Generated_Source\PSoC6\pdl\drivers\peripheral\scb/cy_scb_common.h **** * can trigger an interrupt event.
ARM GAS  C:\Users\JC\AppData\Local\Temp\ccY7kCY2.s 			page 46


1375:Generated_Source\PSoC6\pdl\drivers\peripheral\scb/cy_scb_common.h **** *
1376:Generated_Source\PSoC6\pdl\drivers\peripheral\scb/cy_scb_common.h **** * \param base
1377:Generated_Source\PSoC6\pdl\drivers\peripheral\scb/cy_scb_common.h **** * The pointer to the SCB instance.
1378:Generated_Source\PSoC6\pdl\drivers\peripheral\scb/cy_scb_common.h **** *
1379:Generated_Source\PSoC6\pdl\drivers\peripheral\scb/cy_scb_common.h **** * \return
1380:Generated_Source\PSoC6\pdl\drivers\peripheral\scb/cy_scb_common.h **** * Enabled slave interrupt sources.
1381:Generated_Source\PSoC6\pdl\drivers\peripheral\scb/cy_scb_common.h **** * See \ref group_scb_common_macros_slave_intr for the set of constants.
1382:Generated_Source\PSoC6\pdl\drivers\peripheral\scb/cy_scb_common.h **** *
1383:Generated_Source\PSoC6\pdl\drivers\peripheral\scb/cy_scb_common.h **** *******************************************************************************/
1384:Generated_Source\PSoC6\pdl\drivers\peripheral\scb/cy_scb_common.h **** __STATIC_INLINE uint32_t Cy_SCB_GetSlaveInterruptMask(CySCB_Type const *base)
1385:Generated_Source\PSoC6\pdl\drivers\peripheral\scb/cy_scb_common.h **** {
1386:Generated_Source\PSoC6\pdl\drivers\peripheral\scb/cy_scb_common.h ****     return (SCB_INTR_S_MASK(base));
1387:Generated_Source\PSoC6\pdl\drivers\peripheral\scb/cy_scb_common.h **** }
1388:Generated_Source\PSoC6\pdl\drivers\peripheral\scb/cy_scb_common.h **** 
1389:Generated_Source\PSoC6\pdl\drivers\peripheral\scb/cy_scb_common.h **** 
1390:Generated_Source\PSoC6\pdl\drivers\peripheral\scb/cy_scb_common.h **** /*******************************************************************************
1391:Generated_Source\PSoC6\pdl\drivers\peripheral\scb/cy_scb_common.h **** * Function Name: Cy_SCB_GetSlaveInterruptStatusMasked
1392:Generated_Source\PSoC6\pdl\drivers\peripheral\scb/cy_scb_common.h **** ****************************************************************************//**
1393:Generated_Source\PSoC6\pdl\drivers\peripheral\scb/cy_scb_common.h **** *
1394:Generated_Source\PSoC6\pdl\drivers\peripheral\scb/cy_scb_common.h **** * Returns the slave interrupt masked request register. This register contains a
1395:Generated_Source\PSoC6\pdl\drivers\peripheral\scb/cy_scb_common.h **** * logical AND of corresponding bits from the slave interrupt request and mask
1396:Generated_Source\PSoC6\pdl\drivers\peripheral\scb/cy_scb_common.h **** * registers.
1397:Generated_Source\PSoC6\pdl\drivers\peripheral\scb/cy_scb_common.h **** * This function is intended to be used in the interrupt service routine to
1398:Generated_Source\PSoC6\pdl\drivers\peripheral\scb/cy_scb_common.h **** * identify which of enabled slave interrupt sources caused the interrupt
1399:Generated_Source\PSoC6\pdl\drivers\peripheral\scb/cy_scb_common.h **** * event.
1400:Generated_Source\PSoC6\pdl\drivers\peripheral\scb/cy_scb_common.h **** *
1401:Generated_Source\PSoC6\pdl\drivers\peripheral\scb/cy_scb_common.h **** * \param base
1402:Generated_Source\PSoC6\pdl\drivers\peripheral\scb/cy_scb_common.h **** * The pointer to the SCB instance.
1403:Generated_Source\PSoC6\pdl\drivers\peripheral\scb/cy_scb_common.h **** *
1404:Generated_Source\PSoC6\pdl\drivers\peripheral\scb/cy_scb_common.h **** * \return
1405:Generated_Source\PSoC6\pdl\drivers\peripheral\scb/cy_scb_common.h **** * The current status of enabled slave interrupt sources.
1406:Generated_Source\PSoC6\pdl\drivers\peripheral\scb/cy_scb_common.h **** * See \ref group_scb_common_macros_slave_intr for the set of constants.
1407:Generated_Source\PSoC6\pdl\drivers\peripheral\scb/cy_scb_common.h **** *
1408:Generated_Source\PSoC6\pdl\drivers\peripheral\scb/cy_scb_common.h **** *******************************************************************************/
1409:Generated_Source\PSoC6\pdl\drivers\peripheral\scb/cy_scb_common.h **** __STATIC_INLINE uint32_t Cy_SCB_GetSlaveInterruptStatusMasked(CySCB_Type const *base)
1410:Generated_Source\PSoC6\pdl\drivers\peripheral\scb/cy_scb_common.h **** {
 1184              		.loc 1 1410 0
 1185              		.cfi_startproc
 1186              		@ args = 0, pretend = 0, frame = 8
 1187              		@ frame_needed = 1, uses_anonymous_args = 0
 1188 0000 80B5     		push	{r7, lr}
 1189              		.cfi_def_cfa_offset 8
 1190              		.cfi_offset 7, -8
 1191              		.cfi_offset 14, -4
 1192 0002 82B0     		sub	sp, sp, #8
 1193              		.cfi_def_cfa_offset 16
 1194 0004 00AF     		add	r7, sp, #0
 1195              		.cfi_def_cfa_register 7
 1196 0006 7860     		str	r0, [r7, #4]
1411:Generated_Source\PSoC6\pdl\drivers\peripheral\scb/cy_scb_common.h ****     return (SCB_INTR_S_MASKED(base));
 1197              		.loc 1 1411 0
 1198 0008 7B68     		ldr	r3, [r7, #4]
 1199 000a 034A     		ldr	r2, .L84
 1200 000c 9B58     		ldr	r3, [r3, r2]
1412:Generated_Source\PSoC6\pdl\drivers\peripheral\scb/cy_scb_common.h **** }
 1201              		.loc 1 1412 0
 1202 000e 1800     		movs	r0, r3
ARM GAS  C:\Users\JC\AppData\Local\Temp\ccY7kCY2.s 			page 47


 1203 0010 BD46     		mov	sp, r7
 1204 0012 02B0     		add	sp, sp, #8
 1205              		@ sp needed
 1206 0014 80BD     		pop	{r7, pc}
 1207              	.L85:
 1208 0016 C046     		.align	2
 1209              	.L84:
 1210 0018 4C0F0000 		.word	3916
 1211              		.cfi_endproc
 1212              	.LFE113:
 1213              		.size	Cy_SCB_GetSlaveInterruptStatusMasked, .-Cy_SCB_GetSlaveInterruptStatusMasked
 1214              		.section	.text.Cy_SCB_ClearSlaveInterrupt,"ax",%progbits
 1215              		.align	2
 1216              		.code	16
 1217              		.thumb_func
 1218              		.type	Cy_SCB_ClearSlaveInterrupt, %function
 1219              	Cy_SCB_ClearSlaveInterrupt:
 1220              	.LFB114:
1413:Generated_Source\PSoC6\pdl\drivers\peripheral\scb/cy_scb_common.h **** 
1414:Generated_Source\PSoC6\pdl\drivers\peripheral\scb/cy_scb_common.h **** 
1415:Generated_Source\PSoC6\pdl\drivers\peripheral\scb/cy_scb_common.h **** /*******************************************************************************
1416:Generated_Source\PSoC6\pdl\drivers\peripheral\scb/cy_scb_common.h **** * Function Name: Cy_SCB_ClearSlaveInterrupt
1417:Generated_Source\PSoC6\pdl\drivers\peripheral\scb/cy_scb_common.h **** ****************************************************************************//**
1418:Generated_Source\PSoC6\pdl\drivers\peripheral\scb/cy_scb_common.h **** *
1419:Generated_Source\PSoC6\pdl\drivers\peripheral\scb/cy_scb_common.h **** * Clears the slave interrupt sources in the interrupt request register.
1420:Generated_Source\PSoC6\pdl\drivers\peripheral\scb/cy_scb_common.h **** *
1421:Generated_Source\PSoC6\pdl\drivers\peripheral\scb/cy_scb_common.h **** * \param base
1422:Generated_Source\PSoC6\pdl\drivers\peripheral\scb/cy_scb_common.h **** * The pointer to the SCB instance.
1423:Generated_Source\PSoC6\pdl\drivers\peripheral\scb/cy_scb_common.h **** *
1424:Generated_Source\PSoC6\pdl\drivers\peripheral\scb/cy_scb_common.h **** * \param interruptMask
1425:Generated_Source\PSoC6\pdl\drivers\peripheral\scb/cy_scb_common.h **** * Slave interrupt sources to be cleared.
1426:Generated_Source\PSoC6\pdl\drivers\peripheral\scb/cy_scb_common.h **** * See \ref group_scb_common_macros_slave_intr for the set of constants.
1427:Generated_Source\PSoC6\pdl\drivers\peripheral\scb/cy_scb_common.h **** *
1428:Generated_Source\PSoC6\pdl\drivers\peripheral\scb/cy_scb_common.h **** *******************************************************************************/
1429:Generated_Source\PSoC6\pdl\drivers\peripheral\scb/cy_scb_common.h **** __STATIC_INLINE void Cy_SCB_ClearSlaveInterrupt(CySCB_Type *base, uint32_t interruptMask)
1430:Generated_Source\PSoC6\pdl\drivers\peripheral\scb/cy_scb_common.h **** {
 1221              		.loc 1 1430 0
 1222              		.cfi_startproc
 1223              		@ args = 0, pretend = 0, frame = 8
 1224              		@ frame_needed = 1, uses_anonymous_args = 0
 1225 0000 80B5     		push	{r7, lr}
 1226              		.cfi_def_cfa_offset 8
 1227              		.cfi_offset 7, -8
 1228              		.cfi_offset 14, -4
 1229 0002 82B0     		sub	sp, sp, #8
 1230              		.cfi_def_cfa_offset 16
 1231 0004 00AF     		add	r7, sp, #0
 1232              		.cfi_def_cfa_register 7
 1233 0006 7860     		str	r0, [r7, #4]
 1234 0008 3960     		str	r1, [r7]
1431:Generated_Source\PSoC6\pdl\drivers\peripheral\scb/cy_scb_common.h ****     CY_ASSERT_L2(CY_SCB_IS_INTR_VALID(interruptMask, CY_SCB_SLAVE_INTR_MASK));
 1235              		.loc 1 1431 0
 1236 000a 3B68     		ldr	r3, [r7]
 1237 000c 0A4A     		ldr	r2, .L88
 1238 000e 1340     		ands	r3, r2
 1239 0010 05D0     		beq	.L87
 1240              		.loc 1 1431 0 is_stmt 0 discriminator 1
ARM GAS  C:\Users\JC\AppData\Local\Temp\ccY7kCY2.s 			page 48


 1241 0012 0A4A     		ldr	r2, .L88+4
 1242 0014 0A4B     		ldr	r3, .L88+8
 1243 0016 1100     		movs	r1, r2
 1244 0018 1800     		movs	r0, r3
 1245 001a FFF7FEFF 		bl	Cy_SysLib_AssertFailed
 1246              	.L87:
1432:Generated_Source\PSoC6\pdl\drivers\peripheral\scb/cy_scb_common.h **** 
1433:Generated_Source\PSoC6\pdl\drivers\peripheral\scb/cy_scb_common.h ****     SCB_INTR_S(base) = interruptMask;
 1247              		.loc 1 1433 0 is_stmt 1
 1248 001e 7A68     		ldr	r2, [r7, #4]
 1249 0020 F423     		movs	r3, #244
 1250 0022 1B01     		lsls	r3, r3, #4
 1251 0024 3968     		ldr	r1, [r7]
 1252 0026 D150     		str	r1, [r2, r3]
1434:Generated_Source\PSoC6\pdl\drivers\peripheral\scb/cy_scb_common.h ****     (void) SCB_INTR_S(base);
 1253              		.loc 1 1434 0
 1254 0028 7A68     		ldr	r2, [r7, #4]
 1255 002a F423     		movs	r3, #244
 1256 002c 1B01     		lsls	r3, r3, #4
 1257 002e D358     		ldr	r3, [r2, r3]
1435:Generated_Source\PSoC6\pdl\drivers\peripheral\scb/cy_scb_common.h **** }
 1258              		.loc 1 1435 0
 1259 0030 C046     		nop
 1260 0032 BD46     		mov	sp, r7
 1261 0034 02B0     		add	sp, sp, #8
 1262              		@ sp needed
 1263 0036 80BD     		pop	{r7, pc}
 1264              	.L89:
 1265              		.align	2
 1266              	.L88:
 1267 0038 00F6FFFF 		.word	-2560
 1268 003c 97050000 		.word	1431
 1269 0040 00000000 		.word	.LC0
 1270              		.cfi_endproc
 1271              	.LFE114:
 1272              		.size	Cy_SCB_ClearSlaveInterrupt, .-Cy_SCB_ClearSlaveInterrupt
 1273              		.section	.text.Cy_SCB_SetI2CInterruptMask,"ax",%progbits
 1274              		.align	2
 1275              		.code	16
 1276              		.thumb_func
 1277              		.type	Cy_SCB_SetI2CInterruptMask, %function
 1278              	Cy_SCB_SetI2CInterruptMask:
 1279              	.LFB117:
1436:Generated_Source\PSoC6\pdl\drivers\peripheral\scb/cy_scb_common.h **** 
1437:Generated_Source\PSoC6\pdl\drivers\peripheral\scb/cy_scb_common.h **** 
1438:Generated_Source\PSoC6\pdl\drivers\peripheral\scb/cy_scb_common.h **** /*******************************************************************************
1439:Generated_Source\PSoC6\pdl\drivers\peripheral\scb/cy_scb_common.h **** * Function Name: Cy_SCB_SetSlaveInterrupt
1440:Generated_Source\PSoC6\pdl\drivers\peripheral\scb/cy_scb_common.h **** ****************************************************************************//**
1441:Generated_Source\PSoC6\pdl\drivers\peripheral\scb/cy_scb_common.h **** *
1442:Generated_Source\PSoC6\pdl\drivers\peripheral\scb/cy_scb_common.h **** * Sets slave interrupt sources in the interrupt request register.
1443:Generated_Source\PSoC6\pdl\drivers\peripheral\scb/cy_scb_common.h **** *
1444:Generated_Source\PSoC6\pdl\drivers\peripheral\scb/cy_scb_common.h **** * \param base
1445:Generated_Source\PSoC6\pdl\drivers\peripheral\scb/cy_scb_common.h **** * The pointer to the SCB instance.
1446:Generated_Source\PSoC6\pdl\drivers\peripheral\scb/cy_scb_common.h **** *
1447:Generated_Source\PSoC6\pdl\drivers\peripheral\scb/cy_scb_common.h **** * \param interruptMask
1448:Generated_Source\PSoC6\pdl\drivers\peripheral\scb/cy_scb_common.h **** * The slave interrupt sources to set in the slave interrupt request register
1449:Generated_Source\PSoC6\pdl\drivers\peripheral\scb/cy_scb_common.h **** * See \ref group_scb_common_macros_slave_intr for the set of constants.
ARM GAS  C:\Users\JC\AppData\Local\Temp\ccY7kCY2.s 			page 49


1450:Generated_Source\PSoC6\pdl\drivers\peripheral\scb/cy_scb_common.h **** *
1451:Generated_Source\PSoC6\pdl\drivers\peripheral\scb/cy_scb_common.h **** *******************************************************************************/
1452:Generated_Source\PSoC6\pdl\drivers\peripheral\scb/cy_scb_common.h **** __STATIC_INLINE void Cy_SCB_SetSlaveInterrupt(CySCB_Type *base, uint32_t interruptMask)
1453:Generated_Source\PSoC6\pdl\drivers\peripheral\scb/cy_scb_common.h **** {
1454:Generated_Source\PSoC6\pdl\drivers\peripheral\scb/cy_scb_common.h ****     CY_ASSERT_L2(CY_SCB_IS_INTR_VALID(interruptMask, CY_SCB_SLAVE_INTR_MASK));
1455:Generated_Source\PSoC6\pdl\drivers\peripheral\scb/cy_scb_common.h **** 
1456:Generated_Source\PSoC6\pdl\drivers\peripheral\scb/cy_scb_common.h ****     SCB_INTR_S_SET(base) = interruptMask;
1457:Generated_Source\PSoC6\pdl\drivers\peripheral\scb/cy_scb_common.h **** }
1458:Generated_Source\PSoC6\pdl\drivers\peripheral\scb/cy_scb_common.h **** 
1459:Generated_Source\PSoC6\pdl\drivers\peripheral\scb/cy_scb_common.h **** 
1460:Generated_Source\PSoC6\pdl\drivers\peripheral\scb/cy_scb_common.h **** /*******************************************************************************
1461:Generated_Source\PSoC6\pdl\drivers\peripheral\scb/cy_scb_common.h **** * Function Name: Cy_SCB_GetI2CInterruptStatus
1462:Generated_Source\PSoC6\pdl\drivers\peripheral\scb/cy_scb_common.h **** ****************************************************************************//**
1463:Generated_Source\PSoC6\pdl\drivers\peripheral\scb/cy_scb_common.h **** *
1464:Generated_Source\PSoC6\pdl\drivers\peripheral\scb/cy_scb_common.h **** * Returns the I2C interrupt request register. This register contains the
1465:Generated_Source\PSoC6\pdl\drivers\peripheral\scb/cy_scb_common.h **** * current status of the I2C interrupt sources.
1466:Generated_Source\PSoC6\pdl\drivers\peripheral\scb/cy_scb_common.h **** *
1467:Generated_Source\PSoC6\pdl\drivers\peripheral\scb/cy_scb_common.h **** * \param base
1468:Generated_Source\PSoC6\pdl\drivers\peripheral\scb/cy_scb_common.h **** * The pointer to the SCB instance.
1469:Generated_Source\PSoC6\pdl\drivers\peripheral\scb/cy_scb_common.h **** *
1470:Generated_Source\PSoC6\pdl\drivers\peripheral\scb/cy_scb_common.h **** * \return
1471:Generated_Source\PSoC6\pdl\drivers\peripheral\scb/cy_scb_common.h **** * The current status of the I2C interrupt sources. Each constant is a bit
1472:Generated_Source\PSoC6\pdl\drivers\peripheral\scb/cy_scb_common.h **** * field value.
1473:Generated_Source\PSoC6\pdl\drivers\peripheral\scb/cy_scb_common.h **** * The value returned may have multiple bits set to indicate the current status.
1474:Generated_Source\PSoC6\pdl\drivers\peripheral\scb/cy_scb_common.h **** * See \ref group_scb_common_macros_slave_intr for the set of constants.
1475:Generated_Source\PSoC6\pdl\drivers\peripheral\scb/cy_scb_common.h **** *
1476:Generated_Source\PSoC6\pdl\drivers\peripheral\scb/cy_scb_common.h **** *******************************************************************************/
1477:Generated_Source\PSoC6\pdl\drivers\peripheral\scb/cy_scb_common.h **** __STATIC_INLINE uint32_t Cy_SCB_GetI2CInterruptStatus(CySCB_Type const *base)
1478:Generated_Source\PSoC6\pdl\drivers\peripheral\scb/cy_scb_common.h **** {
1479:Generated_Source\PSoC6\pdl\drivers\peripheral\scb/cy_scb_common.h ****     return (SCB_INTR_I2C_EC(base) & CY_SCB_I2C_INTR_MASK);
1480:Generated_Source\PSoC6\pdl\drivers\peripheral\scb/cy_scb_common.h **** }
1481:Generated_Source\PSoC6\pdl\drivers\peripheral\scb/cy_scb_common.h **** 
1482:Generated_Source\PSoC6\pdl\drivers\peripheral\scb/cy_scb_common.h **** 
1483:Generated_Source\PSoC6\pdl\drivers\peripheral\scb/cy_scb_common.h **** /*******************************************************************************
1484:Generated_Source\PSoC6\pdl\drivers\peripheral\scb/cy_scb_common.h **** * Function Name: Cy_SCB_SetI2CInterruptMask
1485:Generated_Source\PSoC6\pdl\drivers\peripheral\scb/cy_scb_common.h **** ****************************************************************************//**
1486:Generated_Source\PSoC6\pdl\drivers\peripheral\scb/cy_scb_common.h **** *
1487:Generated_Source\PSoC6\pdl\drivers\peripheral\scb/cy_scb_common.h **** * Writes the I2C interrupt mask register. This register specifies which bits
1488:Generated_Source\PSoC6\pdl\drivers\peripheral\scb/cy_scb_common.h **** * from the I2C interrupt request register can trigger an interrupt event.
1489:Generated_Source\PSoC6\pdl\drivers\peripheral\scb/cy_scb_common.h **** *
1490:Generated_Source\PSoC6\pdl\drivers\peripheral\scb/cy_scb_common.h **** * \param base
1491:Generated_Source\PSoC6\pdl\drivers\peripheral\scb/cy_scb_common.h **** * The pointer to the SCB instance.
1492:Generated_Source\PSoC6\pdl\drivers\peripheral\scb/cy_scb_common.h **** *
1493:Generated_Source\PSoC6\pdl\drivers\peripheral\scb/cy_scb_common.h **** * \param interruptMask
1494:Generated_Source\PSoC6\pdl\drivers\peripheral\scb/cy_scb_common.h **** * Enabled I2C interrupt sources.
1495:Generated_Source\PSoC6\pdl\drivers\peripheral\scb/cy_scb_common.h **** * See \ref group_scb_common_macros_i2c_intr for the set of constants.
1496:Generated_Source\PSoC6\pdl\drivers\peripheral\scb/cy_scb_common.h **** *
1497:Generated_Source\PSoC6\pdl\drivers\peripheral\scb/cy_scb_common.h **** *******************************************************************************/
1498:Generated_Source\PSoC6\pdl\drivers\peripheral\scb/cy_scb_common.h **** __STATIC_INLINE void Cy_SCB_SetI2CInterruptMask(CySCB_Type *base, uint32_t interruptMask)
1499:Generated_Source\PSoC6\pdl\drivers\peripheral\scb/cy_scb_common.h **** {
 1280              		.loc 1 1499 0
 1281              		.cfi_startproc
 1282              		@ args = 0, pretend = 0, frame = 8
 1283              		@ frame_needed = 1, uses_anonymous_args = 0
 1284 0000 80B5     		push	{r7, lr}
 1285              		.cfi_def_cfa_offset 8
 1286              		.cfi_offset 7, -8
ARM GAS  C:\Users\JC\AppData\Local\Temp\ccY7kCY2.s 			page 50


 1287              		.cfi_offset 14, -4
 1288 0002 82B0     		sub	sp, sp, #8
 1289              		.cfi_def_cfa_offset 16
 1290 0004 00AF     		add	r7, sp, #0
 1291              		.cfi_def_cfa_register 7
 1292 0006 7860     		str	r0, [r7, #4]
 1293 0008 3960     		str	r1, [r7]
1500:Generated_Source\PSoC6\pdl\drivers\peripheral\scb/cy_scb_common.h ****     CY_ASSERT_L2(CY_SCB_IS_INTR_VALID(interruptMask, CY_SCB_I2C_INTR_MASK));
 1294              		.loc 1 1500 0
 1295 000a 3B68     		ldr	r3, [r7]
 1296 000c 0122     		movs	r2, #1
 1297 000e 9343     		bics	r3, r2
 1298 0010 05D0     		beq	.L91
 1299              		.loc 1 1500 0 is_stmt 0 discriminator 1
 1300 0012 074A     		ldr	r2, .L92
 1301 0014 074B     		ldr	r3, .L92+4
 1302 0016 1100     		movs	r1, r2
 1303 0018 1800     		movs	r0, r3
 1304 001a FFF7FEFF 		bl	Cy_SysLib_AssertFailed
 1305              	.L91:
1501:Generated_Source\PSoC6\pdl\drivers\peripheral\scb/cy_scb_common.h **** 
1502:Generated_Source\PSoC6\pdl\drivers\peripheral\scb/cy_scb_common.h ****     SCB_INTR_I2C_EC_MASK(base) = interruptMask;
 1306              		.loc 1 1502 0 is_stmt 1
 1307 001e 7B68     		ldr	r3, [r7, #4]
 1308 0020 0549     		ldr	r1, .L92+8
 1309 0022 3A68     		ldr	r2, [r7]
 1310 0024 5A50     		str	r2, [r3, r1]
1503:Generated_Source\PSoC6\pdl\drivers\peripheral\scb/cy_scb_common.h **** }
 1311              		.loc 1 1503 0
 1312 0026 C046     		nop
 1313 0028 BD46     		mov	sp, r7
 1314 002a 02B0     		add	sp, sp, #8
 1315              		@ sp needed
 1316 002c 80BD     		pop	{r7, pc}
 1317              	.L93:
 1318 002e C046     		.align	2
 1319              	.L92:
 1320 0030 DC050000 		.word	1500
 1321 0034 00000000 		.word	.LC0
 1322 0038 880E0000 		.word	3720
 1323              		.cfi_endproc
 1324              	.LFE117:
 1325              		.size	Cy_SCB_SetI2CInterruptMask, .-Cy_SCB_SetI2CInterruptMask
 1326              		.section	.text.Cy_SCB_GetI2CInterruptStatusMasked,"ax",%progbits
 1327              		.align	2
 1328              		.code	16
 1329              		.thumb_func
 1330              		.type	Cy_SCB_GetI2CInterruptStatusMasked, %function
 1331              	Cy_SCB_GetI2CInterruptStatusMasked:
 1332              	.LFB119:
1504:Generated_Source\PSoC6\pdl\drivers\peripheral\scb/cy_scb_common.h **** 
1505:Generated_Source\PSoC6\pdl\drivers\peripheral\scb/cy_scb_common.h **** 
1506:Generated_Source\PSoC6\pdl\drivers\peripheral\scb/cy_scb_common.h **** /*******************************************************************************
1507:Generated_Source\PSoC6\pdl\drivers\peripheral\scb/cy_scb_common.h **** * Function Name: Cy_SCB_GetI2CInterruptMask
1508:Generated_Source\PSoC6\pdl\drivers\peripheral\scb/cy_scb_common.h **** ****************************************************************************//**
1509:Generated_Source\PSoC6\pdl\drivers\peripheral\scb/cy_scb_common.h **** *
1510:Generated_Source\PSoC6\pdl\drivers\peripheral\scb/cy_scb_common.h **** * Returns the I2C interrupt mask register. This register specifies which bits
ARM GAS  C:\Users\JC\AppData\Local\Temp\ccY7kCY2.s 			page 51


1511:Generated_Source\PSoC6\pdl\drivers\peripheral\scb/cy_scb_common.h **** * from the I2C interrupt request register can trigger an interrupt event.
1512:Generated_Source\PSoC6\pdl\drivers\peripheral\scb/cy_scb_common.h **** *
1513:Generated_Source\PSoC6\pdl\drivers\peripheral\scb/cy_scb_common.h **** * \param base
1514:Generated_Source\PSoC6\pdl\drivers\peripheral\scb/cy_scb_common.h **** * The pointer to the SCB instance.
1515:Generated_Source\PSoC6\pdl\drivers\peripheral\scb/cy_scb_common.h **** *
1516:Generated_Source\PSoC6\pdl\drivers\peripheral\scb/cy_scb_common.h **** * \return
1517:Generated_Source\PSoC6\pdl\drivers\peripheral\scb/cy_scb_common.h **** * Enabled I2C interrupt sources.
1518:Generated_Source\PSoC6\pdl\drivers\peripheral\scb/cy_scb_common.h **** * See \ref group_scb_common_macros_i2c_intr.
1519:Generated_Source\PSoC6\pdl\drivers\peripheral\scb/cy_scb_common.h **** *
1520:Generated_Source\PSoC6\pdl\drivers\peripheral\scb/cy_scb_common.h **** *******************************************************************************/
1521:Generated_Source\PSoC6\pdl\drivers\peripheral\scb/cy_scb_common.h **** __STATIC_INLINE uint32_t Cy_SCB_GetI2CInterruptMask(CySCB_Type const *base)
1522:Generated_Source\PSoC6\pdl\drivers\peripheral\scb/cy_scb_common.h **** {
1523:Generated_Source\PSoC6\pdl\drivers\peripheral\scb/cy_scb_common.h ****     return (SCB_INTR_I2C_EC_MASK(base));
1524:Generated_Source\PSoC6\pdl\drivers\peripheral\scb/cy_scb_common.h **** }
1525:Generated_Source\PSoC6\pdl\drivers\peripheral\scb/cy_scb_common.h **** 
1526:Generated_Source\PSoC6\pdl\drivers\peripheral\scb/cy_scb_common.h **** 
1527:Generated_Source\PSoC6\pdl\drivers\peripheral\scb/cy_scb_common.h **** /*******************************************************************************
1528:Generated_Source\PSoC6\pdl\drivers\peripheral\scb/cy_scb_common.h **** * Function Name: Cy_SCB_GetI2CInterruptStatusMasked
1529:Generated_Source\PSoC6\pdl\drivers\peripheral\scb/cy_scb_common.h **** ****************************************************************************//**
1530:Generated_Source\PSoC6\pdl\drivers\peripheral\scb/cy_scb_common.h **** *
1531:Generated_Source\PSoC6\pdl\drivers\peripheral\scb/cy_scb_common.h **** * Returns the I2C interrupt masked request register. This register contains
1532:Generated_Source\PSoC6\pdl\drivers\peripheral\scb/cy_scb_common.h **** * a logical AND of corresponding bits from I2C interrupt request and mask
1533:Generated_Source\PSoC6\pdl\drivers\peripheral\scb/cy_scb_common.h **** * registers.
1534:Generated_Source\PSoC6\pdl\drivers\peripheral\scb/cy_scb_common.h **** * This function is intended to be used in the interrupt service routine to
1535:Generated_Source\PSoC6\pdl\drivers\peripheral\scb/cy_scb_common.h **** * identify which of enabled I2C interrupt sources caused the interrupt event.
1536:Generated_Source\PSoC6\pdl\drivers\peripheral\scb/cy_scb_common.h **** *
1537:Generated_Source\PSoC6\pdl\drivers\peripheral\scb/cy_scb_common.h **** * \param base
1538:Generated_Source\PSoC6\pdl\drivers\peripheral\scb/cy_scb_common.h **** * The pointer to the SCB instance.
1539:Generated_Source\PSoC6\pdl\drivers\peripheral\scb/cy_scb_common.h **** *
1540:Generated_Source\PSoC6\pdl\drivers\peripheral\scb/cy_scb_common.h **** * \return
1541:Generated_Source\PSoC6\pdl\drivers\peripheral\scb/cy_scb_common.h **** * The current status of enabled I2C interrupt sources.
1542:Generated_Source\PSoC6\pdl\drivers\peripheral\scb/cy_scb_common.h **** * See \ref group_scb_common_macros_i2c_intr for the set of constants.
1543:Generated_Source\PSoC6\pdl\drivers\peripheral\scb/cy_scb_common.h **** *
1544:Generated_Source\PSoC6\pdl\drivers\peripheral\scb/cy_scb_common.h **** *******************************************************************************/
1545:Generated_Source\PSoC6\pdl\drivers\peripheral\scb/cy_scb_common.h **** __STATIC_INLINE uint32_t Cy_SCB_GetI2CInterruptStatusMasked(CySCB_Type const *base)
1546:Generated_Source\PSoC6\pdl\drivers\peripheral\scb/cy_scb_common.h **** {
 1333              		.loc 1 1546 0
 1334              		.cfi_startproc
 1335              		@ args = 0, pretend = 0, frame = 8
 1336              		@ frame_needed = 1, uses_anonymous_args = 0
 1337 0000 80B5     		push	{r7, lr}
 1338              		.cfi_def_cfa_offset 8
 1339              		.cfi_offset 7, -8
 1340              		.cfi_offset 14, -4
 1341 0002 82B0     		sub	sp, sp, #8
 1342              		.cfi_def_cfa_offset 16
 1343 0004 00AF     		add	r7, sp, #0
 1344              		.cfi_def_cfa_register 7
 1345 0006 7860     		str	r0, [r7, #4]
1547:Generated_Source\PSoC6\pdl\drivers\peripheral\scb/cy_scb_common.h ****     return (SCB_INTR_I2C_EC_MASKED(base));
 1346              		.loc 1 1547 0
 1347 0008 7B68     		ldr	r3, [r7, #4]
 1348 000a 034A     		ldr	r2, .L96
 1349 000c 9B58     		ldr	r3, [r3, r2]
1548:Generated_Source\PSoC6\pdl\drivers\peripheral\scb/cy_scb_common.h **** }
 1350              		.loc 1 1548 0
 1351 000e 1800     		movs	r0, r3
ARM GAS  C:\Users\JC\AppData\Local\Temp\ccY7kCY2.s 			page 52


 1352 0010 BD46     		mov	sp, r7
 1353 0012 02B0     		add	sp, sp, #8
 1354              		@ sp needed
 1355 0014 80BD     		pop	{r7, pc}
 1356              	.L97:
 1357 0016 C046     		.align	2
 1358              	.L96:
 1359 0018 8C0E0000 		.word	3724
 1360              		.cfi_endproc
 1361              	.LFE119:
 1362              		.size	Cy_SCB_GetI2CInterruptStatusMasked, .-Cy_SCB_GetI2CInterruptStatusMasked
 1363              		.section	.text.Cy_SCB_ClearI2CInterrupt,"ax",%progbits
 1364              		.align	2
 1365              		.code	16
 1366              		.thumb_func
 1367              		.type	Cy_SCB_ClearI2CInterrupt, %function
 1368              	Cy_SCB_ClearI2CInterrupt:
 1369              	.LFB120:
1549:Generated_Source\PSoC6\pdl\drivers\peripheral\scb/cy_scb_common.h **** 
1550:Generated_Source\PSoC6\pdl\drivers\peripheral\scb/cy_scb_common.h **** 
1551:Generated_Source\PSoC6\pdl\drivers\peripheral\scb/cy_scb_common.h **** /*******************************************************************************
1552:Generated_Source\PSoC6\pdl\drivers\peripheral\scb/cy_scb_common.h **** * Function Name: Cy_SCB_ClearI2CInterrupt
1553:Generated_Source\PSoC6\pdl\drivers\peripheral\scb/cy_scb_common.h **** ****************************************************************************//**
1554:Generated_Source\PSoC6\pdl\drivers\peripheral\scb/cy_scb_common.h **** *
1555:Generated_Source\PSoC6\pdl\drivers\peripheral\scb/cy_scb_common.h **** * Clears I2C interrupt sources in the interrupt request register.
1556:Generated_Source\PSoC6\pdl\drivers\peripheral\scb/cy_scb_common.h **** *
1557:Generated_Source\PSoC6\pdl\drivers\peripheral\scb/cy_scb_common.h **** * \param base
1558:Generated_Source\PSoC6\pdl\drivers\peripheral\scb/cy_scb_common.h **** * The pointer to the SCB instance.
1559:Generated_Source\PSoC6\pdl\drivers\peripheral\scb/cy_scb_common.h **** *
1560:Generated_Source\PSoC6\pdl\drivers\peripheral\scb/cy_scb_common.h **** * \param interruptMask
1561:Generated_Source\PSoC6\pdl\drivers\peripheral\scb/cy_scb_common.h **** * The I2C interrupt sources to be cleared.
1562:Generated_Source\PSoC6\pdl\drivers\peripheral\scb/cy_scb_common.h **** * See \ref group_scb_common_macros_i2c_intr for the set of constants.
1563:Generated_Source\PSoC6\pdl\drivers\peripheral\scb/cy_scb_common.h **** *
1564:Generated_Source\PSoC6\pdl\drivers\peripheral\scb/cy_scb_common.h **** *******************************************************************************/
1565:Generated_Source\PSoC6\pdl\drivers\peripheral\scb/cy_scb_common.h **** __STATIC_INLINE void Cy_SCB_ClearI2CInterrupt(CySCB_Type *base, uint32_t interruptMask)
1566:Generated_Source\PSoC6\pdl\drivers\peripheral\scb/cy_scb_common.h **** {
 1370              		.loc 1 1566 0
 1371              		.cfi_startproc
 1372              		@ args = 0, pretend = 0, frame = 8
 1373              		@ frame_needed = 1, uses_anonymous_args = 0
 1374 0000 80B5     		push	{r7, lr}
 1375              		.cfi_def_cfa_offset 8
 1376              		.cfi_offset 7, -8
 1377              		.cfi_offset 14, -4
 1378 0002 82B0     		sub	sp, sp, #8
 1379              		.cfi_def_cfa_offset 16
 1380 0004 00AF     		add	r7, sp, #0
 1381              		.cfi_def_cfa_register 7
 1382 0006 7860     		str	r0, [r7, #4]
 1383 0008 3960     		str	r1, [r7]
1567:Generated_Source\PSoC6\pdl\drivers\peripheral\scb/cy_scb_common.h ****     CY_ASSERT_L2(CY_SCB_IS_INTR_VALID(interruptMask, CY_SCB_I2C_INTR_MASK));
 1384              		.loc 1 1567 0
 1385 000a 3B68     		ldr	r3, [r7]
 1386 000c 0122     		movs	r2, #1
 1387 000e 9343     		bics	r3, r2
 1388 0010 05D0     		beq	.L99
 1389              		.loc 1 1567 0 is_stmt 0 discriminator 1
ARM GAS  C:\Users\JC\AppData\Local\Temp\ccY7kCY2.s 			page 53


 1390 0012 094A     		ldr	r2, .L100
 1391 0014 094B     		ldr	r3, .L100+4
 1392 0016 1100     		movs	r1, r2
 1393 0018 1800     		movs	r0, r3
 1394 001a FFF7FEFF 		bl	Cy_SysLib_AssertFailed
 1395              	.L99:
1568:Generated_Source\PSoC6\pdl\drivers\peripheral\scb/cy_scb_common.h **** 
1569:Generated_Source\PSoC6\pdl\drivers\peripheral\scb/cy_scb_common.h ****     SCB_INTR_I2C_EC(base) = interruptMask;
 1396              		.loc 1 1569 0 is_stmt 1
 1397 001e 7A68     		ldr	r2, [r7, #4]
 1398 0020 E823     		movs	r3, #232
 1399 0022 1B01     		lsls	r3, r3, #4
 1400 0024 3968     		ldr	r1, [r7]
 1401 0026 D150     		str	r1, [r2, r3]
1570:Generated_Source\PSoC6\pdl\drivers\peripheral\scb/cy_scb_common.h ****     (void) SCB_INTR_I2C_EC(base);
 1402              		.loc 1 1570 0
 1403 0028 7A68     		ldr	r2, [r7, #4]
 1404 002a E823     		movs	r3, #232
 1405 002c 1B01     		lsls	r3, r3, #4
 1406 002e D358     		ldr	r3, [r2, r3]
1571:Generated_Source\PSoC6\pdl\drivers\peripheral\scb/cy_scb_common.h **** }
 1407              		.loc 1 1571 0
 1408 0030 C046     		nop
 1409 0032 BD46     		mov	sp, r7
 1410 0034 02B0     		add	sp, sp, #8
 1411              		@ sp needed
 1412 0036 80BD     		pop	{r7, pc}
 1413              	.L101:
 1414              		.align	2
 1415              	.L100:
 1416 0038 1F060000 		.word	1567
 1417 003c 00000000 		.word	.LC0
 1418              		.cfi_endproc
 1419              	.LFE120:
 1420              		.size	Cy_SCB_ClearI2CInterrupt, .-Cy_SCB_ClearI2CInterrupt
 1421              		.section	.text.Cy_SCB_GetFifoSize,"ax",%progbits
 1422              		.align	2
 1423              		.code	16
 1424              		.thumb_func
 1425              		.type	Cy_SCB_GetFifoSize, %function
 1426              	Cy_SCB_GetFifoSize:
 1427              	.LFB126:
1572:Generated_Source\PSoC6\pdl\drivers\peripheral\scb/cy_scb_common.h **** 
1573:Generated_Source\PSoC6\pdl\drivers\peripheral\scb/cy_scb_common.h **** 
1574:Generated_Source\PSoC6\pdl\drivers\peripheral\scb/cy_scb_common.h **** /*******************************************************************************
1575:Generated_Source\PSoC6\pdl\drivers\peripheral\scb/cy_scb_common.h **** * Function Name: Cy_SCB_GetSpiInterruptStatus
1576:Generated_Source\PSoC6\pdl\drivers\peripheral\scb/cy_scb_common.h **** ****************************************************************************//**
1577:Generated_Source\PSoC6\pdl\drivers\peripheral\scb/cy_scb_common.h **** *
1578:Generated_Source\PSoC6\pdl\drivers\peripheral\scb/cy_scb_common.h **** * Returns the SPI interrupt request register. This register contains the current
1579:Generated_Source\PSoC6\pdl\drivers\peripheral\scb/cy_scb_common.h **** * status of the SPI interrupt sources.
1580:Generated_Source\PSoC6\pdl\drivers\peripheral\scb/cy_scb_common.h **** *
1581:Generated_Source\PSoC6\pdl\drivers\peripheral\scb/cy_scb_common.h **** * \param base
1582:Generated_Source\PSoC6\pdl\drivers\peripheral\scb/cy_scb_common.h **** * The pointer to the SCB instance.
1583:Generated_Source\PSoC6\pdl\drivers\peripheral\scb/cy_scb_common.h **** *
1584:Generated_Source\PSoC6\pdl\drivers\peripheral\scb/cy_scb_common.h **** * \return
1585:Generated_Source\PSoC6\pdl\drivers\peripheral\scb/cy_scb_common.h **** * The current status of SPI interrupt sources. Each constant is a bit field value.
1586:Generated_Source\PSoC6\pdl\drivers\peripheral\scb/cy_scb_common.h **** * The value returned may have multiple bits set to indicate the current status
ARM GAS  C:\Users\JC\AppData\Local\Temp\ccY7kCY2.s 			page 54


1587:Generated_Source\PSoC6\pdl\drivers\peripheral\scb/cy_scb_common.h **** * See \ref group_scb_common_macros_SpiIntrStatuses for the set of constants.
1588:Generated_Source\PSoC6\pdl\drivers\peripheral\scb/cy_scb_common.h **** *
1589:Generated_Source\PSoC6\pdl\drivers\peripheral\scb/cy_scb_common.h **** *******************************************************************************/
1590:Generated_Source\PSoC6\pdl\drivers\peripheral\scb/cy_scb_common.h **** __STATIC_INLINE uint32_t Cy_SCB_GetSpiInterruptStatus(CySCB_Type const *base)
1591:Generated_Source\PSoC6\pdl\drivers\peripheral\scb/cy_scb_common.h **** {
1592:Generated_Source\PSoC6\pdl\drivers\peripheral\scb/cy_scb_common.h ****     return (SCB_INTR_SPI_EC(base) & CY_SCB_SPI_INTR_MASK);
1593:Generated_Source\PSoC6\pdl\drivers\peripheral\scb/cy_scb_common.h **** }
1594:Generated_Source\PSoC6\pdl\drivers\peripheral\scb/cy_scb_common.h **** 
1595:Generated_Source\PSoC6\pdl\drivers\peripheral\scb/cy_scb_common.h **** 
1596:Generated_Source\PSoC6\pdl\drivers\peripheral\scb/cy_scb_common.h **** /*******************************************************************************
1597:Generated_Source\PSoC6\pdl\drivers\peripheral\scb/cy_scb_common.h **** * Function Name: Cy_SCB_SetSpiInterruptMask
1598:Generated_Source\PSoC6\pdl\drivers\peripheral\scb/cy_scb_common.h **** ****************************************************************************//**
1599:Generated_Source\PSoC6\pdl\drivers\peripheral\scb/cy_scb_common.h **** *
1600:Generated_Source\PSoC6\pdl\drivers\peripheral\scb/cy_scb_common.h **** * Writes the SPI interrupt mask register. This register specifies which
1601:Generated_Source\PSoC6\pdl\drivers\peripheral\scb/cy_scb_common.h **** * bits from the SPI interrupt request register can trigger an interrupt event.
1602:Generated_Source\PSoC6\pdl\drivers\peripheral\scb/cy_scb_common.h **** *
1603:Generated_Source\PSoC6\pdl\drivers\peripheral\scb/cy_scb_common.h **** * \param base
1604:Generated_Source\PSoC6\pdl\drivers\peripheral\scb/cy_scb_common.h **** * The pointer to the SCB instance.
1605:Generated_Source\PSoC6\pdl\drivers\peripheral\scb/cy_scb_common.h **** *
1606:Generated_Source\PSoC6\pdl\drivers\peripheral\scb/cy_scb_common.h **** * \param interruptMask
1607:Generated_Source\PSoC6\pdl\drivers\peripheral\scb/cy_scb_common.h **** * Enabled SPI interrupt sources.
1608:Generated_Source\PSoC6\pdl\drivers\peripheral\scb/cy_scb_common.h **** * See \ref group_scb_common_macros_SpiIntrStatuses for the set of constants.
1609:Generated_Source\PSoC6\pdl\drivers\peripheral\scb/cy_scb_common.h **** *
1610:Generated_Source\PSoC6\pdl\drivers\peripheral\scb/cy_scb_common.h **** *******************************************************************************/
1611:Generated_Source\PSoC6\pdl\drivers\peripheral\scb/cy_scb_common.h **** __STATIC_INLINE void Cy_SCB_SetSpiInterruptMask(CySCB_Type *base, uint32_t interruptMask)
1612:Generated_Source\PSoC6\pdl\drivers\peripheral\scb/cy_scb_common.h **** {
1613:Generated_Source\PSoC6\pdl\drivers\peripheral\scb/cy_scb_common.h ****     CY_ASSERT_L2(CY_SCB_IS_INTR_VALID(interruptMask, CY_SCB_SPI_INTR_MASK));
1614:Generated_Source\PSoC6\pdl\drivers\peripheral\scb/cy_scb_common.h **** 
1615:Generated_Source\PSoC6\pdl\drivers\peripheral\scb/cy_scb_common.h ****     SCB_INTR_SPI_EC_MASK(base) = interruptMask;
1616:Generated_Source\PSoC6\pdl\drivers\peripheral\scb/cy_scb_common.h **** }
1617:Generated_Source\PSoC6\pdl\drivers\peripheral\scb/cy_scb_common.h **** 
1618:Generated_Source\PSoC6\pdl\drivers\peripheral\scb/cy_scb_common.h **** 
1619:Generated_Source\PSoC6\pdl\drivers\peripheral\scb/cy_scb_common.h **** /*******************************************************************************
1620:Generated_Source\PSoC6\pdl\drivers\peripheral\scb/cy_scb_common.h **** * Function Name: Cy_SCB_GetSpiInterruptMask
1621:Generated_Source\PSoC6\pdl\drivers\peripheral\scb/cy_scb_common.h **** ****************************************************************************//**
1622:Generated_Source\PSoC6\pdl\drivers\peripheral\scb/cy_scb_common.h **** *
1623:Generated_Source\PSoC6\pdl\drivers\peripheral\scb/cy_scb_common.h **** * Returns the SPI interrupt mask register. This register specifies which bits
1624:Generated_Source\PSoC6\pdl\drivers\peripheral\scb/cy_scb_common.h **** * from the SPI interrupt request register can trigger an interrupt event.
1625:Generated_Source\PSoC6\pdl\drivers\peripheral\scb/cy_scb_common.h **** *
1626:Generated_Source\PSoC6\pdl\drivers\peripheral\scb/cy_scb_common.h **** * \param base
1627:Generated_Source\PSoC6\pdl\drivers\peripheral\scb/cy_scb_common.h **** * The pointer to the SCB instance.
1628:Generated_Source\PSoC6\pdl\drivers\peripheral\scb/cy_scb_common.h **** *
1629:Generated_Source\PSoC6\pdl\drivers\peripheral\scb/cy_scb_common.h **** * \return
1630:Generated_Source\PSoC6\pdl\drivers\peripheral\scb/cy_scb_common.h **** * Enabled SPI interrupt sources.
1631:Generated_Source\PSoC6\pdl\drivers\peripheral\scb/cy_scb_common.h **** * See \ref group_scb_common_macros_SpiIntrStatuses for the set of constants.
1632:Generated_Source\PSoC6\pdl\drivers\peripheral\scb/cy_scb_common.h **** *
1633:Generated_Source\PSoC6\pdl\drivers\peripheral\scb/cy_scb_common.h **** *******************************************************************************/
1634:Generated_Source\PSoC6\pdl\drivers\peripheral\scb/cy_scb_common.h **** __STATIC_INLINE uint32_t Cy_SCB_GetSpiInterruptMask(CySCB_Type const *base)
1635:Generated_Source\PSoC6\pdl\drivers\peripheral\scb/cy_scb_common.h **** {
1636:Generated_Source\PSoC6\pdl\drivers\peripheral\scb/cy_scb_common.h ****     return (SCB_INTR_SPI_EC_MASK(base));
1637:Generated_Source\PSoC6\pdl\drivers\peripheral\scb/cy_scb_common.h **** }
1638:Generated_Source\PSoC6\pdl\drivers\peripheral\scb/cy_scb_common.h **** 
1639:Generated_Source\PSoC6\pdl\drivers\peripheral\scb/cy_scb_common.h **** 
1640:Generated_Source\PSoC6\pdl\drivers\peripheral\scb/cy_scb_common.h **** /*******************************************************************************
1641:Generated_Source\PSoC6\pdl\drivers\peripheral\scb/cy_scb_common.h **** * Function Name: Cy_SCB_GetSpiInterruptStatusMasked
1642:Generated_Source\PSoC6\pdl\drivers\peripheral\scb/cy_scb_common.h **** ****************************************************************************//**
1643:Generated_Source\PSoC6\pdl\drivers\peripheral\scb/cy_scb_common.h **** *
ARM GAS  C:\Users\JC\AppData\Local\Temp\ccY7kCY2.s 			page 55


1644:Generated_Source\PSoC6\pdl\drivers\peripheral\scb/cy_scb_common.h **** * Returns the SPI interrupt masked request register. This register contains
1645:Generated_Source\PSoC6\pdl\drivers\peripheral\scb/cy_scb_common.h **** * a logical AND of corresponding bits from the SPI interrupt request and
1646:Generated_Source\PSoC6\pdl\drivers\peripheral\scb/cy_scb_common.h **** * mask registers.
1647:Generated_Source\PSoC6\pdl\drivers\peripheral\scb/cy_scb_common.h **** * This function is intended to be used in the interrupt service routine to
1648:Generated_Source\PSoC6\pdl\drivers\peripheral\scb/cy_scb_common.h **** * identify which of enabled SPI interrupt sources caused the interrupt event.
1649:Generated_Source\PSoC6\pdl\drivers\peripheral\scb/cy_scb_common.h **** *
1650:Generated_Source\PSoC6\pdl\drivers\peripheral\scb/cy_scb_common.h **** * \param base
1651:Generated_Source\PSoC6\pdl\drivers\peripheral\scb/cy_scb_common.h **** * The pointer to the SCB instance.
1652:Generated_Source\PSoC6\pdl\drivers\peripheral\scb/cy_scb_common.h **** *
1653:Generated_Source\PSoC6\pdl\drivers\peripheral\scb/cy_scb_common.h **** * \return
1654:Generated_Source\PSoC6\pdl\drivers\peripheral\scb/cy_scb_common.h **** * The current status of enabled SPI interrupt sources.
1655:Generated_Source\PSoC6\pdl\drivers\peripheral\scb/cy_scb_common.h **** * See \ref group_scb_common_macros_SpiIntrStatuses for the set of constants.
1656:Generated_Source\PSoC6\pdl\drivers\peripheral\scb/cy_scb_common.h **** *
1657:Generated_Source\PSoC6\pdl\drivers\peripheral\scb/cy_scb_common.h **** *******************************************************************************/
1658:Generated_Source\PSoC6\pdl\drivers\peripheral\scb/cy_scb_common.h **** __STATIC_INLINE uint32_t Cy_SCB_GetSpiInterruptStatusMasked(CySCB_Type const *base)
1659:Generated_Source\PSoC6\pdl\drivers\peripheral\scb/cy_scb_common.h **** {
1660:Generated_Source\PSoC6\pdl\drivers\peripheral\scb/cy_scb_common.h ****     return (SCB_INTR_SPI_EC_MASKED(base));
1661:Generated_Source\PSoC6\pdl\drivers\peripheral\scb/cy_scb_common.h **** }
1662:Generated_Source\PSoC6\pdl\drivers\peripheral\scb/cy_scb_common.h **** 
1663:Generated_Source\PSoC6\pdl\drivers\peripheral\scb/cy_scb_common.h **** 
1664:Generated_Source\PSoC6\pdl\drivers\peripheral\scb/cy_scb_common.h **** /*******************************************************************************
1665:Generated_Source\PSoC6\pdl\drivers\peripheral\scb/cy_scb_common.h **** * Function Name: Cy_SCB_ClearSpiInterrupt
1666:Generated_Source\PSoC6\pdl\drivers\peripheral\scb/cy_scb_common.h **** ****************************************************************************//**
1667:Generated_Source\PSoC6\pdl\drivers\peripheral\scb/cy_scb_common.h **** *
1668:Generated_Source\PSoC6\pdl\drivers\peripheral\scb/cy_scb_common.h **** * Clears SPI interrupt sources in the interrupt request register.
1669:Generated_Source\PSoC6\pdl\drivers\peripheral\scb/cy_scb_common.h **** *
1670:Generated_Source\PSoC6\pdl\drivers\peripheral\scb/cy_scb_common.h **** * \param base
1671:Generated_Source\PSoC6\pdl\drivers\peripheral\scb/cy_scb_common.h **** * The pointer to the SCB instance.
1672:Generated_Source\PSoC6\pdl\drivers\peripheral\scb/cy_scb_common.h **** *
1673:Generated_Source\PSoC6\pdl\drivers\peripheral\scb/cy_scb_common.h **** * \param interruptMask
1674:Generated_Source\PSoC6\pdl\drivers\peripheral\scb/cy_scb_common.h **** * The SPI interrupt sources to be cleared.
