ARM GAS  C:\Users\JC\AppData\Local\Temp\ccz6CrFf.s 			page 1


   1              		.syntax unified
   2              		.cpu cortex-m0plus
   3              		.fpu softvfp
   4              		.eabi_attribute 20, 1
   5              		.eabi_attribute 21, 1
   6              		.eabi_attribute 23, 3
   7              		.eabi_attribute 24, 1
   8              		.eabi_attribute 25, 1
   9              		.eabi_attribute 26, 1
  10              		.eabi_attribute 30, 6
  11              		.eabi_attribute 34, 0
  12              		.eabi_attribute 18, 4
  13              		.thumb
  14              		.syntax unified
  15              		.file	"cy_trigmux.c"
  16              		.text
  17              	.Ltext0:
  18              		.cfi_sections	.debug_frame
  19              		.section	.rodata
  20              		.align	2
  21              	.LC0:
  22 0000 47656E65 		.ascii	"Generated_Source\\PSoC6\\pdl\\drivers\\peripheral\\"
  22      72617465 
  22      645F536F 
  22      75726365 
  22      5C50536F 
  23 002e 74726967 		.ascii	"trigmux\\cy_trigmux.c\000"
  23      6D75785C 
  23      63795F74 
  23      7269676D 
  23      75782E63 
  24              		.section	.text.Cy_TrigMux_Connect,"ax",%progbits
  25              		.align	2
  26              		.global	Cy_TrigMux_Connect
  27              		.code	16
  28              		.thumb_func
  29              		.type	Cy_TrigMux_Connect, %function
  30              	Cy_TrigMux_Connect:
  31              	.LFB45:
  32              		.file 1 "Generated_Source\\PSoC6\\pdl\\drivers\\peripheral\\trigmux\\cy_trigmux.c"
   1:Generated_Source\PSoC6\pdl\drivers\peripheral\trigmux/cy_trigmux.c **** /***************************************************************************//**
   2:Generated_Source\PSoC6\pdl\drivers\peripheral\trigmux/cy_trigmux.c **** * \file cy_trigmux.c
   3:Generated_Source\PSoC6\pdl\drivers\peripheral\trigmux/cy_trigmux.c **** * \version 1.20
   4:Generated_Source\PSoC6\pdl\drivers\peripheral\trigmux/cy_trigmux.c **** *
   5:Generated_Source\PSoC6\pdl\drivers\peripheral\trigmux/cy_trigmux.c **** * \brief Trigger mux API.
   6:Generated_Source\PSoC6\pdl\drivers\peripheral\trigmux/cy_trigmux.c **** *
   7:Generated_Source\PSoC6\pdl\drivers\peripheral\trigmux/cy_trigmux.c **** ********************************************************************************
   8:Generated_Source\PSoC6\pdl\drivers\peripheral\trigmux/cy_trigmux.c **** * \copyright
   9:Generated_Source\PSoC6\pdl\drivers\peripheral\trigmux/cy_trigmux.c **** * Copyright 2016-2018, Cypress Semiconductor Corporation.  All rights reserved.
  10:Generated_Source\PSoC6\pdl\drivers\peripheral\trigmux/cy_trigmux.c **** * You may use this file only in accordance with the license, terms, conditions,
  11:Generated_Source\PSoC6\pdl\drivers\peripheral\trigmux/cy_trigmux.c **** * disclaimers, and limitations in the end user license agreement accompanying
  12:Generated_Source\PSoC6\pdl\drivers\peripheral\trigmux/cy_trigmux.c **** * the software package with which this file was provided.
  13:Generated_Source\PSoC6\pdl\drivers\peripheral\trigmux/cy_trigmux.c **** *******************************************************************************/
  14:Generated_Source\PSoC6\pdl\drivers\peripheral\trigmux/cy_trigmux.c **** 
  15:Generated_Source\PSoC6\pdl\drivers\peripheral\trigmux/cy_trigmux.c **** #include "cy_trigmux.h"
  16:Generated_Source\PSoC6\pdl\drivers\peripheral\trigmux/cy_trigmux.c **** #include "cy_device.h"
  17:Generated_Source\PSoC6\pdl\drivers\peripheral\trigmux/cy_trigmux.c **** 
ARM GAS  C:\Users\JC\AppData\Local\Temp\ccz6CrFf.s 			page 2


  18:Generated_Source\PSoC6\pdl\drivers\peripheral\trigmux/cy_trigmux.c **** 
  19:Generated_Source\PSoC6\pdl\drivers\peripheral\trigmux/cy_trigmux.c **** #define CY_TRIGMUX_IS_TRIGTYPE_VALID(trigType)  (((trigType) == TRIGGER_TYPE_EDGE) || \
  20:Generated_Source\PSoC6\pdl\drivers\peripheral\trigmux/cy_trigmux.c ****                                                  ((trigType) == TRIGGER_TYPE_LEVEL))
  21:Generated_Source\PSoC6\pdl\drivers\peripheral\trigmux/cy_trigmux.c **** 
  22:Generated_Source\PSoC6\pdl\drivers\peripheral\trigmux/cy_trigmux.c **** #define CY_TRIGMUX_V1_IS_CYCLES_VALID(cycles)   (CY_TRIGGER_INFINITE >= (cycles))
  23:Generated_Source\PSoC6\pdl\drivers\peripheral\trigmux/cy_trigmux.c **** #define CY_TRIGMUX_V2_IS_CYCLES_VALID(cycles)   ((CY_TRIGGER_DEACTIVATE == (cycles)) || \
  24:Generated_Source\PSoC6\pdl\drivers\peripheral\trigmux/cy_trigmux.c ****                                                  (CY_TRIGGER_TWO_CYCLES == (cycles)) || \
  25:Generated_Source\PSoC6\pdl\drivers\peripheral\trigmux/cy_trigmux.c ****                                                  (CY_TRIGGER_INFINITE   == (cycles)))
  26:Generated_Source\PSoC6\pdl\drivers\peripheral\trigmux/cy_trigmux.c **** #define CY_TRIGMUX_IS_CYCLES_VALID(cycles)      ((CY_PERI_V1 && CY_TRIGMUX_V1_IS_CYCLES_VALID(cycle
  27:Generated_Source\PSoC6\pdl\drivers\peripheral\trigmux/cy_trigmux.c ****                                                                 CY_TRIGMUX_V2_IS_CYCLES_VALID(cycle
  28:Generated_Source\PSoC6\pdl\drivers\peripheral\trigmux/cy_trigmux.c **** 
  29:Generated_Source\PSoC6\pdl\drivers\peripheral\trigmux/cy_trigmux.c **** #define CY_TRIGMUX_INTRIG_MASK                  (PERI_TR_CMD_GROUP_SEL_Msk | PERI_TR_GR_TR_OUT_CTL_
  30:Generated_Source\PSoC6\pdl\drivers\peripheral\trigmux/cy_trigmux.c **** #define CY_TRIGMUX_IS_INTRIG_VALID(inTrg)       (0UL == ((inTrg) & (uint32_t)~CY_TRIGMUX_INTRIG_MAS
  31:Generated_Source\PSoC6\pdl\drivers\peripheral\trigmux/cy_trigmux.c **** 
  32:Generated_Source\PSoC6\pdl\drivers\peripheral\trigmux/cy_trigmux.c **** #define CY_TRIGMUX_OUTTRIG_MASK                 (PERI_TR_CMD_OUT_SEL_Msk | PERI_TR_CMD_GROUP_SEL_Ms
  33:Generated_Source\PSoC6\pdl\drivers\peripheral\trigmux/cy_trigmux.c **** #define CY_TRIGMUX_IS_OUTTRIG_VALID(outTrg)     ((0UL == ((outTrg) & (uint32_t)~CY_TRIGMUX_OUTTRIG_
  34:Generated_Source\PSoC6\pdl\drivers\peripheral\trigmux/cy_trigmux.c ****                                                  (0UL != ((outTrg) & PERI_TR_CMD_OUT_SEL_Msk)))
  35:Generated_Source\PSoC6\pdl\drivers\peripheral\trigmux/cy_trigmux.c **** 
  36:Generated_Source\PSoC6\pdl\drivers\peripheral\trigmux/cy_trigmux.c **** #define CY_TRIGMUX_ONETRIG_MASK                 (PERI_V2_TR_CMD_OUT_SEL_Msk | PERI_V2_TR_CMD_GROUP_
  37:Generated_Source\PSoC6\pdl\drivers\peripheral\trigmux/cy_trigmux.c **** #define CY_TRIGMUX_IS_ONETRIG_VALID(oneTrg)     ((0UL == ((oneTrg) & (uint32_t)~CY_TRIGMUX_ONETRIG_
  38:Generated_Source\PSoC6\pdl\drivers\peripheral\trigmux/cy_trigmux.c ****                                                  (0UL != ((oneTrg) & PERI_V2_TR_CMD_OUT_SEL_Msk)) &
  39:Generated_Source\PSoC6\pdl\drivers\peripheral\trigmux/cy_trigmux.c ****                                                  (0UL != ((oneTrg) & (PERI_V2_TR_CMD_GROUP_SEL_Msk 
  40:Generated_Source\PSoC6\pdl\drivers\peripheral\trigmux/cy_trigmux.c **** 
  41:Generated_Source\PSoC6\pdl\drivers\peripheral\trigmux/cy_trigmux.c **** #define CY_TRIGMUX_TRIGLINE_MASK                (PERI_TR_CMD_OUT_SEL_Msk | CY_PERI_TR_CMD_GROUP_SEL
  42:Generated_Source\PSoC6\pdl\drivers\peripheral\trigmux/cy_trigmux.c **** #define CY_TRIGMUX_IS_TRIGLINE_VALID(trgLn)     (0U == ((trgLn) & (uint32_t)~CY_TRIGMUX_TRIGLINE_MA
  43:Generated_Source\PSoC6\pdl\drivers\peripheral\trigmux/cy_trigmux.c **** 
  44:Generated_Source\PSoC6\pdl\drivers\peripheral\trigmux/cy_trigmux.c **** #define CY_TRIGMUX_TR_CTL(outTrig)              (PERI_TR_GR_TR_CTL(_FLD2VAL(CY_PERI_TR_CMD_GROUP_SE
  45:Generated_Source\PSoC6\pdl\drivers\peripheral\trigmux/cy_trigmux.c ****                                                                    _FLD2VAL(CY_PERI_TR_CTL_SEL,    
  46:Generated_Source\PSoC6\pdl\drivers\peripheral\trigmux/cy_trigmux.c **** 
  47:Generated_Source\PSoC6\pdl\drivers\peripheral\trigmux/cy_trigmux.c **** 
  48:Generated_Source\PSoC6\pdl\drivers\peripheral\trigmux/cy_trigmux.c **** /*******************************************************************************
  49:Generated_Source\PSoC6\pdl\drivers\peripheral\trigmux/cy_trigmux.c **** * Function Name: Cy_TrigMux_Connect
  50:Generated_Source\PSoC6\pdl\drivers\peripheral\trigmux/cy_trigmux.c **** ****************************************************************************//**
  51:Generated_Source\PSoC6\pdl\drivers\peripheral\trigmux/cy_trigmux.c **** *
  52:Generated_Source\PSoC6\pdl\drivers\peripheral\trigmux/cy_trigmux.c **** * Connects an input trigger source and output trigger.
  53:Generated_Source\PSoC6\pdl\drivers\peripheral\trigmux/cy_trigmux.c **** *
  54:Generated_Source\PSoC6\pdl\drivers\peripheral\trigmux/cy_trigmux.c **** * \param inTrig
  55:Generated_Source\PSoC6\pdl\drivers\peripheral\trigmux/cy_trigmux.c **** * An input selection for the trigger mux.
  56:Generated_Source\PSoC6\pdl\drivers\peripheral\trigmux/cy_trigmux.c **** * - Bit 30 should be cleared.
  57:Generated_Source\PSoC6\pdl\drivers\peripheral\trigmux/cy_trigmux.c **** * - Bit 12 should be cleared.
  58:Generated_Source\PSoC6\pdl\drivers\peripheral\trigmux/cy_trigmux.c **** * - Bits 11:8 represent the trigger group selection.
  59:Generated_Source\PSoC6\pdl\drivers\peripheral\trigmux/cy_trigmux.c **** * - Bits 7:0 select the input trigger signal for the specified trigger multiplexer.
  60:Generated_Source\PSoC6\pdl\drivers\peripheral\trigmux/cy_trigmux.c **** *
  61:Generated_Source\PSoC6\pdl\drivers\peripheral\trigmux/cy_trigmux.c **** * \param outTrig
  62:Generated_Source\PSoC6\pdl\drivers\peripheral\trigmux/cy_trigmux.c **** * The output of the trigger mux. This refers to the consumer of the trigger mux.
  63:Generated_Source\PSoC6\pdl\drivers\peripheral\trigmux/cy_trigmux.c **** * - Bit 30 should be set.
  64:Generated_Source\PSoC6\pdl\drivers\peripheral\trigmux/cy_trigmux.c **** * - Bit 12 should be cleared.
  65:Generated_Source\PSoC6\pdl\drivers\peripheral\trigmux/cy_trigmux.c **** * - Bits 11:8 represent the trigger group selection.<br>
  66:Generated_Source\PSoC6\pdl\drivers\peripheral\trigmux/cy_trigmux.c **** *  For PERI_ver1:
  67:Generated_Source\PSoC6\pdl\drivers\peripheral\trigmux/cy_trigmux.c **** * - Bits 6:0 select the output trigger number in the trigger group.<br>
  68:Generated_Source\PSoC6\pdl\drivers\peripheral\trigmux/cy_trigmux.c **** *  For PERI_ver2:
  69:Generated_Source\PSoC6\pdl\drivers\peripheral\trigmux/cy_trigmux.c **** * - Bits 7:0 select the output trigger number in the trigger group.
  70:Generated_Source\PSoC6\pdl\drivers\peripheral\trigmux/cy_trigmux.c **** *
  71:Generated_Source\PSoC6\pdl\drivers\peripheral\trigmux/cy_trigmux.c **** * \param invert
  72:Generated_Source\PSoC6\pdl\drivers\peripheral\trigmux/cy_trigmux.c **** * - true: The output trigger is inverted.
  73:Generated_Source\PSoC6\pdl\drivers\peripheral\trigmux/cy_trigmux.c **** * - false: The output trigger is not inverted.
  74:Generated_Source\PSoC6\pdl\drivers\peripheral\trigmux/cy_trigmux.c **** *
ARM GAS  C:\Users\JC\AppData\Local\Temp\ccz6CrFf.s 			page 3


  75:Generated_Source\PSoC6\pdl\drivers\peripheral\trigmux/cy_trigmux.c **** * \param trigType The trigger signal type.
  76:Generated_Source\PSoC6\pdl\drivers\peripheral\trigmux/cy_trigmux.c **** * - TRIGGER_TYPE_EDGE: The trigger is synchronized to the consumer blocks clock
  77:Generated_Source\PSoC6\pdl\drivers\peripheral\trigmux/cy_trigmux.c **** *   and a two-cycle pulse is generated on this clock.
  78:Generated_Source\PSoC6\pdl\drivers\peripheral\trigmux/cy_trigmux.c **** * - TRIGGER_TYPE_LEVEL: The trigger is a simple level output.
  79:Generated_Source\PSoC6\pdl\drivers\peripheral\trigmux/cy_trigmux.c **** *
  80:Generated_Source\PSoC6\pdl\drivers\peripheral\trigmux/cy_trigmux.c **** * \return status:
  81:Generated_Source\PSoC6\pdl\drivers\peripheral\trigmux/cy_trigmux.c **** * - CY_TRIGMUX_SUCCESS: The connection is made successfully.
  82:Generated_Source\PSoC6\pdl\drivers\peripheral\trigmux/cy_trigmux.c **** * - CY_TRIGMUX_BAD_PARAM: Some parameter is invalid.
  83:Generated_Source\PSoC6\pdl\drivers\peripheral\trigmux/cy_trigmux.c **** *
  84:Generated_Source\PSoC6\pdl\drivers\peripheral\trigmux/cy_trigmux.c **** * \funcusage
  85:Generated_Source\PSoC6\pdl\drivers\peripheral\trigmux/cy_trigmux.c **** * \snippet trigmux\1.20\snippet\main.c snippet_Cy_TrigMux_Connect
  86:Generated_Source\PSoC6\pdl\drivers\peripheral\trigmux/cy_trigmux.c **** *  
  87:Generated_Source\PSoC6\pdl\drivers\peripheral\trigmux/cy_trigmux.c **** *******************************************************************************/
  88:Generated_Source\PSoC6\pdl\drivers\peripheral\trigmux/cy_trigmux.c **** cy_en_trigmux_status_t Cy_TrigMux_Connect(uint32_t inTrig, uint32_t outTrig, bool invert, en_trig_t
  89:Generated_Source\PSoC6\pdl\drivers\peripheral\trigmux/cy_trigmux.c **** {
  33              		.loc 1 89 0
  34              		.cfi_startproc
  35              		@ args = 0, pretend = 0, frame = 24
  36              		@ frame_needed = 1, uses_anonymous_args = 0
  37 0000 B0B5     		push	{r4, r5, r7, lr}
  38              		.cfi_def_cfa_offset 16
  39              		.cfi_offset 4, -16
  40              		.cfi_offset 5, -12
  41              		.cfi_offset 7, -8
  42              		.cfi_offset 14, -4
  43 0002 86B0     		sub	sp, sp, #24
  44              		.cfi_def_cfa_offset 40
  45 0004 00AF     		add	r7, sp, #0
  46              		.cfi_def_cfa_register 7
  47 0006 F860     		str	r0, [r7, #12]
  48 0008 B960     		str	r1, [r7, #8]
  49 000a 1900     		movs	r1, r3
  50 000c FB1D     		adds	r3, r7, #7
  51 000e 1A70     		strb	r2, [r3]
  52 0010 BB1D     		adds	r3, r7, #6
  53 0012 0A1C     		adds	r2, r1, #0
  54 0014 1A70     		strb	r2, [r3]
  90:Generated_Source\PSoC6\pdl\drivers\peripheral\trigmux/cy_trigmux.c ****     cy_en_trigmux_status_t retVal = CY_TRIGMUX_BAD_PARAM;
  55              		.loc 1 90 0
  56 0016 504B     		ldr	r3, .L10
  57 0018 7B61     		str	r3, [r7, #20]
  91:Generated_Source\PSoC6\pdl\drivers\peripheral\trigmux/cy_trigmux.c ****     CY_ASSERT_L3(CY_TRIGMUX_IS_TRIGTYPE_VALID(trigType));
  58              		.loc 1 91 0
  59 001a BB1D     		adds	r3, r7, #6
  60 001c 1B78     		ldrb	r3, [r3]
  61 001e 012B     		cmp	r3, #1
  62 0020 08D0     		beq	.L2
  63              		.loc 1 91 0 is_stmt 0 discriminator 1
  64 0022 BB1D     		adds	r3, r7, #6
  65 0024 1B78     		ldrb	r3, [r3]
  66 0026 002B     		cmp	r3, #0
  67 0028 04D0     		beq	.L2
  68              		.loc 1 91 0 discriminator 2
  69 002a 4C4B     		ldr	r3, .L10+4
  70 002c 5B21     		movs	r1, #91
  71 002e 1800     		movs	r0, r3
  72 0030 FFF7FEFF 		bl	Cy_SysLib_AssertFailed
ARM GAS  C:\Users\JC\AppData\Local\Temp\ccz6CrFf.s 			page 4


  73              	.L2:
  92:Generated_Source\PSoC6\pdl\drivers\peripheral\trigmux/cy_trigmux.c ****     CY_ASSERT_L2(CY_TRIGMUX_IS_INTRIG_VALID(inTrig));
  74              		.loc 1 92 0 is_stmt 1
  75 0034 FB68     		ldr	r3, [r7, #12]
  76 0036 1B0B     		lsrs	r3, r3, #12
  77 0038 1B03     		lsls	r3, r3, #12
  78 003a 04D0     		beq	.L3
  79              		.loc 1 92 0 is_stmt 0 discriminator 1
  80 003c 474B     		ldr	r3, .L10+4
  81 003e 5C21     		movs	r1, #92
  82 0040 1800     		movs	r0, r3
  83 0042 FFF7FEFF 		bl	Cy_SysLib_AssertFailed
  84              	.L3:
  93:Generated_Source\PSoC6\pdl\drivers\peripheral\trigmux/cy_trigmux.c ****     CY_ASSERT_L2(CY_TRIGMUX_IS_OUTTRIG_VALID(outTrig));
  85              		.loc 1 93 0 is_stmt 1
  86 0046 464B     		ldr	r3, .L10+8
  87 0048 1B68     		ldr	r3, [r3]
  88 004a 6E22     		movs	r2, #110
  89 004c 9B5A     		ldrh	r3, [r3, r2]
  90 004e 9B08     		lsrs	r3, r3, #2
  91 0050 9BB2     		uxth	r3, r3
  92 0052 013B     		subs	r3, r3, #1
  93 0054 434A     		ldr	r2, .L10+12
  94 0056 1343     		orrs	r3, r2
  95 0058 DB43     		mvns	r3, r3
  96 005a BA68     		ldr	r2, [r7, #8]
  97 005c 1340     		ands	r3, r2
  98 005e 04D1     		bne	.L4
  99              		.loc 1 93 0 is_stmt 0 discriminator 2
 100 0060 BA68     		ldr	r2, [r7, #8]
 101 0062 8023     		movs	r3, #128
 102 0064 DB05     		lsls	r3, r3, #23
 103 0066 1340     		ands	r3, r2
 104 0068 04D1     		bne	.L5
 105              	.L4:
 106              		.loc 1 93 0 discriminator 3
 107 006a 3C4B     		ldr	r3, .L10+4
 108 006c 5D21     		movs	r1, #93
 109 006e 1800     		movs	r0, r3
 110 0070 FFF7FEFF 		bl	Cy_SysLib_AssertFailed
 111              	.L5:
  94:Generated_Source\PSoC6\pdl\drivers\peripheral\trigmux/cy_trigmux.c **** 
  95:Generated_Source\PSoC6\pdl\drivers\peripheral\trigmux/cy_trigmux.c ****     /* inTrig and outTrig should be in the same group */
  96:Generated_Source\PSoC6\pdl\drivers\peripheral\trigmux/cy_trigmux.c ****     if ((inTrig & PERI_TR_CMD_GROUP_SEL_Msk) == (outTrig & PERI_TR_CMD_GROUP_SEL_Msk))
 112              		.loc 1 96 0 is_stmt 1
 113 0074 FA68     		ldr	r2, [r7, #12]
 114 0076 BB68     		ldr	r3, [r7, #8]
 115 0078 5A40     		eors	r2, r3
 116 007a F023     		movs	r3, #240
 117 007c 1B01     		lsls	r3, r3, #4
 118 007e 1340     		ands	r3, r2
 119 0080 64D1     		bne	.L6
 120              	.LBB2:
  97:Generated_Source\PSoC6\pdl\drivers\peripheral\trigmux/cy_trigmux.c ****     {
  98:Generated_Source\PSoC6\pdl\drivers\peripheral\trigmux/cy_trigmux.c ****         uint32_t interruptState = Cy_SysLib_EnterCriticalSection();
 121              		.loc 1 98 0
 122 0082 FFF7FEFF 		bl	Cy_SysLib_EnterCriticalSection
ARM GAS  C:\Users\JC\AppData\Local\Temp\ccz6CrFf.s 			page 5


 123 0086 0300     		movs	r3, r0
 124 0088 3B61     		str	r3, [r7, #16]
  99:Generated_Source\PSoC6\pdl\drivers\peripheral\trigmux/cy_trigmux.c **** 
 100:Generated_Source\PSoC6\pdl\drivers\peripheral\trigmux/cy_trigmux.c ****         CY_TRIGMUX_TR_CTL(outTrig) = (CY_TRIGMUX_TR_CTL(outTrig) &
 125              		.loc 1 100 0
 126 008a 354B     		ldr	r3, .L10+8
 127 008c 1B68     		ldr	r3, [r3]
 128 008e 9A68     		ldr	r2, [r3, #8]
 129 0090 334B     		ldr	r3, .L10+8
 130 0092 1B68     		ldr	r3, [r3]
 131 0094 6C21     		movs	r1, #108
 132 0096 5B5A     		ldrh	r3, [r3, r1]
 133 0098 D218     		adds	r2, r2, r3
 134 009a 314B     		ldr	r3, .L10+8
 135 009c 1B68     		ldr	r3, [r3]
 136 009e 6E21     		movs	r1, #110
 137 00a0 5B5A     		ldrh	r3, [r3, r1]
 138 00a2 9B08     		lsrs	r3, r3, #2
 139 00a4 9BB2     		uxth	r3, r3
 140 00a6 013B     		subs	r3, r3, #1
 141 00a8 B968     		ldr	r1, [r7, #8]
 142 00aa 0B40     		ands	r3, r1
 143 00ac 9900     		lsls	r1, r3, #2
 144 00ae 2C4B     		ldr	r3, .L10+8
 145 00b0 1B68     		ldr	r3, [r3]
 146 00b2 6A20     		movs	r0, #106
 147 00b4 1B5A     		ldrh	r3, [r3, r0]
 148 00b6 1800     		movs	r0, r3
 149 00b8 BB68     		ldr	r3, [r7, #8]
 150 00ba 0340     		ands	r3, r0
 151 00bc 180A     		lsrs	r0, r3, #8
 152 00be 284B     		ldr	r3, .L10+8
 153 00c0 1B68     		ldr	r3, [r3]
 154 00c2 6E24     		movs	r4, #110
 155 00c4 1B5B     		ldrh	r3, [r3, r4]
 156 00c6 4343     		muls	r3, r0
 157 00c8 CB18     		adds	r3, r1, r3
 158 00ca D318     		adds	r3, r2, r3
 159 00cc 1A00     		movs	r2, r3
 160 00ce 244B     		ldr	r3, .L10+8
 161 00d0 1B68     		ldr	r3, [r3]
 162 00d2 9968     		ldr	r1, [r3, #8]
 163 00d4 224B     		ldr	r3, .L10+8
 164 00d6 1B68     		ldr	r3, [r3]
 165 00d8 6C20     		movs	r0, #108
 166 00da 1B5A     		ldrh	r3, [r3, r0]
 167 00dc C918     		adds	r1, r1, r3
 168 00de 204B     		ldr	r3, .L10+8
 169 00e0 1B68     		ldr	r3, [r3]
 170 00e2 6E20     		movs	r0, #110
 171 00e4 1B5A     		ldrh	r3, [r3, r0]
 172 00e6 9B08     		lsrs	r3, r3, #2
 173 00e8 9BB2     		uxth	r3, r3
 174 00ea 013B     		subs	r3, r3, #1
 175 00ec B868     		ldr	r0, [r7, #8]
 176 00ee 0340     		ands	r3, r0
 177 00f0 9800     		lsls	r0, r3, #2
ARM GAS  C:\Users\JC\AppData\Local\Temp\ccz6CrFf.s 			page 6


 178 00f2 1B4B     		ldr	r3, .L10+8
 179 00f4 1B68     		ldr	r3, [r3]
 180 00f6 6A24     		movs	r4, #106
 181 00f8 1B5B     		ldrh	r3, [r3, r4]
 182 00fa 1C00     		movs	r4, r3
 183 00fc BB68     		ldr	r3, [r7, #8]
 184 00fe 2340     		ands	r3, r4
 185 0100 1C0A     		lsrs	r4, r3, #8
 186 0102 174B     		ldr	r3, .L10+8
 187 0104 1B68     		ldr	r3, [r3]
 188 0106 6E25     		movs	r5, #110
 189 0108 5B5B     		ldrh	r3, [r3, r5]
 190 010a 6343     		muls	r3, r4
 191 010c C318     		adds	r3, r0, r3
 192 010e CB18     		adds	r3, r1, r3
 193 0110 1B68     		ldr	r3, [r3]
 194 0112 9B0A     		lsrs	r3, r3, #10
 195 0114 9902     		lsls	r1, r3, #10
 101:Generated_Source\PSoC6\pdl\drivers\peripheral\trigmux/cy_trigmux.c ****                                       (uint32_t)~(PERI_TR_GR_TR_OUT_CTL_TR_SEL_Msk |
 102:Generated_Source\PSoC6\pdl\drivers\peripheral\trigmux/cy_trigmux.c ****                                                   PERI_TR_GR_TR_OUT_CTL_TR_INV_Msk |
 103:Generated_Source\PSoC6\pdl\drivers\peripheral\trigmux/cy_trigmux.c ****                                                   PERI_TR_GR_TR_OUT_CTL_TR_EDGE_Msk)) |
 104:Generated_Source\PSoC6\pdl\drivers\peripheral\trigmux/cy_trigmux.c ****                                         (_VAL2FLD(PERI_TR_GR_TR_OUT_CTL_TR_SEL, inTrig) |
 196              		.loc 1 104 0
 197 0116 FB68     		ldr	r3, [r7, #12]
 198 0118 FF20     		movs	r0, #255
 199 011a 1840     		ands	r0, r3
 105:Generated_Source\PSoC6\pdl\drivers\peripheral\trigmux/cy_trigmux.c ****                                         _BOOL2FLD(PERI_TR_GR_TR_OUT_CTL_TR_INV, invert) |
 200              		.loc 1 105 0
 201 011c FB1D     		adds	r3, r7, #7
 202 011e 1B78     		ldrb	r3, [r3]
 203 0120 002B     		cmp	r3, #0
 204 0122 02D0     		beq	.L7
 205              		.loc 1 105 0 is_stmt 0 discriminator 1
 206 0124 8023     		movs	r3, #128
 207 0126 5B00     		lsls	r3, r3, #1
 208 0128 00E0     		b	.L8
 209              	.L7:
 210              		.loc 1 105 0 discriminator 2
 211 012a 0023     		movs	r3, #0
 212              	.L8:
 104:Generated_Source\PSoC6\pdl\drivers\peripheral\trigmux/cy_trigmux.c ****                                         _BOOL2FLD(PERI_TR_GR_TR_OUT_CTL_TR_INV, invert) |
 213              		.loc 1 104 0 is_stmt 1
 214 012c 1843     		orrs	r0, r3
 106:Generated_Source\PSoC6\pdl\drivers\peripheral\trigmux/cy_trigmux.c ****                                          _VAL2FLD(PERI_TR_GR_TR_OUT_CTL_TR_EDGE, trigType));
 215              		.loc 1 106 0
 216 012e BB1D     		adds	r3, r7, #6
 217 0130 1B78     		ldrb	r3, [r3]
 218 0132 5C02     		lsls	r4, r3, #9
 219 0134 8023     		movs	r3, #128
 220 0136 9B00     		lsls	r3, r3, #2
 221 0138 2340     		ands	r3, r4
 105:Generated_Source\PSoC6\pdl\drivers\peripheral\trigmux/cy_trigmux.c ****                                         _BOOL2FLD(PERI_TR_GR_TR_OUT_CTL_TR_INV, invert) |
 222              		.loc 1 105 0
 223 013a 0343     		orrs	r3, r0
 103:Generated_Source\PSoC6\pdl\drivers\peripheral\trigmux/cy_trigmux.c ****                                         (_VAL2FLD(PERI_TR_GR_TR_OUT_CTL_TR_SEL, inTrig) |
 224              		.loc 1 103 0
 225 013c 0B43     		orrs	r3, r1
ARM GAS  C:\Users\JC\AppData\Local\Temp\ccz6CrFf.s 			page 7


 100:Generated_Source\PSoC6\pdl\drivers\peripheral\trigmux/cy_trigmux.c ****                                       (uint32_t)~(PERI_TR_GR_TR_OUT_CTL_TR_SEL_Msk |
 226              		.loc 1 100 0
 227 013e 1360     		str	r3, [r2]
 107:Generated_Source\PSoC6\pdl\drivers\peripheral\trigmux/cy_trigmux.c **** 
 108:Generated_Source\PSoC6\pdl\drivers\peripheral\trigmux/cy_trigmux.c ****         Cy_SysLib_ExitCriticalSection(interruptState);
 228              		.loc 1 108 0
 229 0140 3B69     		ldr	r3, [r7, #16]
 230 0142 1800     		movs	r0, r3
 231 0144 FFF7FEFF 		bl	Cy_SysLib_ExitCriticalSection
 109:Generated_Source\PSoC6\pdl\drivers\peripheral\trigmux/cy_trigmux.c **** 
 110:Generated_Source\PSoC6\pdl\drivers\peripheral\trigmux/cy_trigmux.c ****         retVal = CY_TRIGMUX_SUCCESS;
 232              		.loc 1 110 0
 233 0148 0023     		movs	r3, #0
 234 014a 7B61     		str	r3, [r7, #20]
 235              	.L6:
 236              	.LBE2:
 111:Generated_Source\PSoC6\pdl\drivers\peripheral\trigmux/cy_trigmux.c ****     }
 112:Generated_Source\PSoC6\pdl\drivers\peripheral\trigmux/cy_trigmux.c **** 
 113:Generated_Source\PSoC6\pdl\drivers\peripheral\trigmux/cy_trigmux.c ****     return retVal;
 237              		.loc 1 113 0
 238 014c 7B69     		ldr	r3, [r7, #20]
 114:Generated_Source\PSoC6\pdl\drivers\peripheral\trigmux/cy_trigmux.c **** }
 239              		.loc 1 114 0
 240 014e 1800     		movs	r0, r3
 241 0150 BD46     		mov	sp, r7
 242 0152 06B0     		add	sp, sp, #24
 243              		@ sp needed
 244 0154 B0BD     		pop	{r4, r5, r7, pc}
 245              	.L11:
 246 0156 C046     		.align	2
 247              	.L10:
 248 0158 0100CE00 		.word	13500417
 249 015c 00000000 		.word	.LC0
 250 0160 00000000 		.word	cy_device
 251 0164 000F0040 		.word	1073745664
 252              		.cfi_endproc
 253              	.LFE45:
 254              		.size	Cy_TrigMux_Connect, .-Cy_TrigMux_Connect
 255              		.section	.text.Cy_TrigMux_Select,"ax",%progbits
 256              		.align	2
 257              		.global	Cy_TrigMux_Select
 258              		.code	16
 259              		.thumb_func
 260              		.type	Cy_TrigMux_Select, %function
 261              	Cy_TrigMux_Select:
 262              	.LFB46:
 115:Generated_Source\PSoC6\pdl\drivers\peripheral\trigmux/cy_trigmux.c **** 
 116:Generated_Source\PSoC6\pdl\drivers\peripheral\trigmux/cy_trigmux.c **** 
 117:Generated_Source\PSoC6\pdl\drivers\peripheral\trigmux/cy_trigmux.c **** /*******************************************************************************
 118:Generated_Source\PSoC6\pdl\drivers\peripheral\trigmux/cy_trigmux.c **** * Function Name: Cy_TrigMux_Select
 119:Generated_Source\PSoC6\pdl\drivers\peripheral\trigmux/cy_trigmux.c **** ****************************************************************************//**
 120:Generated_Source\PSoC6\pdl\drivers\peripheral\trigmux/cy_trigmux.c **** *
 121:Generated_Source\PSoC6\pdl\drivers\peripheral\trigmux/cy_trigmux.c **** * Enables and configures the specified 1-to-1 trigger line. For PERI_ver2 only.
 122:Generated_Source\PSoC6\pdl\drivers\peripheral\trigmux/cy_trigmux.c **** *
 123:Generated_Source\PSoC6\pdl\drivers\peripheral\trigmux/cy_trigmux.c **** * \param outTrig
 124:Generated_Source\PSoC6\pdl\drivers\peripheral\trigmux/cy_trigmux.c **** * The 1to1 trigger line.
 125:Generated_Source\PSoC6\pdl\drivers\peripheral\trigmux/cy_trigmux.c **** * - Bit 30 should be set.
ARM GAS  C:\Users\JC\AppData\Local\Temp\ccz6CrFf.s 			page 8


 126:Generated_Source\PSoC6\pdl\drivers\peripheral\trigmux/cy_trigmux.c **** * - Bit 12 should be set.
 127:Generated_Source\PSoC6\pdl\drivers\peripheral\trigmux/cy_trigmux.c **** * - Bits 11:8 represent the 1-to-1 trigger group selection.
 128:Generated_Source\PSoC6\pdl\drivers\peripheral\trigmux/cy_trigmux.c **** * - Bits 7:0 select the trigger line number in the trigger group.
 129:Generated_Source\PSoC6\pdl\drivers\peripheral\trigmux/cy_trigmux.c **** *
 130:Generated_Source\PSoC6\pdl\drivers\peripheral\trigmux/cy_trigmux.c **** * \param invert
 131:Generated_Source\PSoC6\pdl\drivers\peripheral\trigmux/cy_trigmux.c **** * - true: The trigger signal is inverted.
 132:Generated_Source\PSoC6\pdl\drivers\peripheral\trigmux/cy_trigmux.c **** * - false: The trigger signal is not inverted.
 133:Generated_Source\PSoC6\pdl\drivers\peripheral\trigmux/cy_trigmux.c **** *
 134:Generated_Source\PSoC6\pdl\drivers\peripheral\trigmux/cy_trigmux.c **** * \param trigType The trigger signal type.
 135:Generated_Source\PSoC6\pdl\drivers\peripheral\trigmux/cy_trigmux.c **** * - TRIGGER_TYPE_EDGE: The trigger is synchronized to the consumer blocks clock
 136:Generated_Source\PSoC6\pdl\drivers\peripheral\trigmux/cy_trigmux.c **** *   and a two-cycle pulse is generated on this clock.
 137:Generated_Source\PSoC6\pdl\drivers\peripheral\trigmux/cy_trigmux.c **** * - TRIGGER_TYPE_LEVEL: The trigger is a simple level output.
 138:Generated_Source\PSoC6\pdl\drivers\peripheral\trigmux/cy_trigmux.c **** *
 139:Generated_Source\PSoC6\pdl\drivers\peripheral\trigmux/cy_trigmux.c **** * \return status:
 140:Generated_Source\PSoC6\pdl\drivers\peripheral\trigmux/cy_trigmux.c **** * - CY_TRIGMUX_SUCCESS: The selection is made successfully.
 141:Generated_Source\PSoC6\pdl\drivers\peripheral\trigmux/cy_trigmux.c **** * - CY_TRIGMUX_BAD_PARAM: Some parameter is invalid.
 142:Generated_Source\PSoC6\pdl\drivers\peripheral\trigmux/cy_trigmux.c **** *
 143:Generated_Source\PSoC6\pdl\drivers\peripheral\trigmux/cy_trigmux.c **** * \funcusage
 144:Generated_Source\PSoC6\pdl\drivers\peripheral\trigmux/cy_trigmux.c **** * \snippet trigmux\1.20\snippet\main.c snippet_Cy_TrigMux_Select
 145:Generated_Source\PSoC6\pdl\drivers\peripheral\trigmux/cy_trigmux.c **** *  
 146:Generated_Source\PSoC6\pdl\drivers\peripheral\trigmux/cy_trigmux.c **** *******************************************************************************/
 147:Generated_Source\PSoC6\pdl\drivers\peripheral\trigmux/cy_trigmux.c **** cy_en_trigmux_status_t Cy_TrigMux_Select(uint32_t outTrig, bool invert, en_trig_type_t trigType)
 148:Generated_Source\PSoC6\pdl\drivers\peripheral\trigmux/cy_trigmux.c **** {
 263              		.loc 1 148 0
 264              		.cfi_startproc
 265              		@ args = 0, pretend = 0, frame = 16
 266              		@ frame_needed = 1, uses_anonymous_args = 0
 267 0000 B0B5     		push	{r4, r5, r7, lr}
 268              		.cfi_def_cfa_offset 16
 269              		.cfi_offset 4, -16
 270              		.cfi_offset 5, -12
 271              		.cfi_offset 7, -8
 272              		.cfi_offset 14, -4
 273 0002 84B0     		sub	sp, sp, #16
 274              		.cfi_def_cfa_offset 32
 275 0004 00AF     		add	r7, sp, #0
 276              		.cfi_def_cfa_register 7
 277 0006 7860     		str	r0, [r7, #4]
 278 0008 0800     		movs	r0, r1
 279 000a 1100     		movs	r1, r2
 280 000c FB1C     		adds	r3, r7, #3
 281 000e 021C     		adds	r2, r0, #0
 282 0010 1A70     		strb	r2, [r3]
 283 0012 BB1C     		adds	r3, r7, #2
 284 0014 0A1C     		adds	r2, r1, #0
 285 0016 1A70     		strb	r2, [r3]
 149:Generated_Source\PSoC6\pdl\drivers\peripheral\trigmux/cy_trigmux.c ****     cy_en_trigmux_status_t retVal = CY_TRIGMUX_BAD_PARAM;
 286              		.loc 1 149 0
 287 0018 4B4B     		ldr	r3, .L20
 288 001a FB60     		str	r3, [r7, #12]
 150:Generated_Source\PSoC6\pdl\drivers\peripheral\trigmux/cy_trigmux.c ****     
 151:Generated_Source\PSoC6\pdl\drivers\peripheral\trigmux/cy_trigmux.c ****     CY_ASSERT_L3(CY_TRIGMUX_IS_TRIGTYPE_VALID(trigType));
 289              		.loc 1 151 0
 290 001c BB1C     		adds	r3, r7, #2
 291 001e 1B78     		ldrb	r3, [r3]
 292 0020 012B     		cmp	r3, #1
 293 0022 08D0     		beq	.L13
ARM GAS  C:\Users\JC\AppData\Local\Temp\ccz6CrFf.s 			page 9


 294              		.loc 1 151 0 is_stmt 0 discriminator 1
 295 0024 BB1C     		adds	r3, r7, #2
 296 0026 1B78     		ldrb	r3, [r3]
 297 0028 002B     		cmp	r3, #0
 298 002a 04D0     		beq	.L13
 299              		.loc 1 151 0 discriminator 2
 300 002c 474B     		ldr	r3, .L20+4
 301 002e 9721     		movs	r1, #151
 302 0030 1800     		movs	r0, r3
 303 0032 FFF7FEFF 		bl	Cy_SysLib_AssertFailed
 304              	.L13:
 152:Generated_Source\PSoC6\pdl\drivers\peripheral\trigmux/cy_trigmux.c ****     CY_ASSERT_L2(CY_TRIGMUX_IS_ONETRIG_VALID(outTrig));
 305              		.loc 1 152 0 is_stmt 1
 306 0036 464B     		ldr	r3, .L20+8
 307 0038 1B68     		ldr	r3, [r3]
 308 003a 6E22     		movs	r2, #110
 309 003c 9B5A     		ldrh	r3, [r3, r2]
 310 003e 9B08     		lsrs	r3, r3, #2
 311 0040 9BB2     		uxth	r3, r3
 312 0042 013B     		subs	r3, r3, #1
 313 0044 434A     		ldr	r2, .L20+12
 314 0046 1343     		orrs	r3, r2
 315 0048 DB43     		mvns	r3, r3
 316 004a 7A68     		ldr	r2, [r7, #4]
 317 004c 1340     		ands	r3, r2
 318 004e 09D1     		bne	.L14
 319              		.loc 1 152 0 is_stmt 0 discriminator 2
 320 0050 7A68     		ldr	r2, [r7, #4]
 321 0052 8023     		movs	r3, #128
 322 0054 DB05     		lsls	r3, r3, #23
 323 0056 1340     		ands	r3, r2
 324 0058 04D0     		beq	.L14
 325              		.loc 1 152 0 discriminator 4
 326 005a 7A68     		ldr	r2, [r7, #4]
 327 005c 8023     		movs	r3, #128
 328 005e 5B01     		lsls	r3, r3, #5
 329 0060 1340     		ands	r3, r2
 330 0062 04D1     		bne	.L15
 331              	.L14:
 332              		.loc 1 152 0 discriminator 5
 333 0064 394B     		ldr	r3, .L20+4
 334 0066 9821     		movs	r1, #152
 335 0068 1800     		movs	r0, r3
 336 006a FFF7FEFF 		bl	Cy_SysLib_AssertFailed
 337              	.L15:
 153:Generated_Source\PSoC6\pdl\drivers\peripheral\trigmux/cy_trigmux.c **** 
 154:Generated_Source\PSoC6\pdl\drivers\peripheral\trigmux/cy_trigmux.c ****     if (!CY_PERI_V1)
 338              		.loc 1 154 0 is_stmt 1
 339 006e 384B     		ldr	r3, .L20+8
 340 0070 1B68     		ldr	r3, [r3]
 341 0072 2F22     		movs	r2, #47
 342 0074 9B5C     		ldrb	r3, [r3, r2]
 343 0076 012B     		cmp	r3, #1
 344 0078 60D0     		beq	.L16
 345              	.LBB3:
 155:Generated_Source\PSoC6\pdl\drivers\peripheral\trigmux/cy_trigmux.c ****     {
 156:Generated_Source\PSoC6\pdl\drivers\peripheral\trigmux/cy_trigmux.c ****         uint32_t interruptState;
ARM GAS  C:\Users\JC\AppData\Local\Temp\ccz6CrFf.s 			page 10


 157:Generated_Source\PSoC6\pdl\drivers\peripheral\trigmux/cy_trigmux.c **** 
 158:Generated_Source\PSoC6\pdl\drivers\peripheral\trigmux/cy_trigmux.c ****         interruptState = Cy_SysLib_EnterCriticalSection();
 346              		.loc 1 158 0
 347 007a FFF7FEFF 		bl	Cy_SysLib_EnterCriticalSection
 348 007e 0300     		movs	r3, r0
 349 0080 BB60     		str	r3, [r7, #8]
 159:Generated_Source\PSoC6\pdl\drivers\peripheral\trigmux/cy_trigmux.c **** 
 160:Generated_Source\PSoC6\pdl\drivers\peripheral\trigmux/cy_trigmux.c ****         CY_TRIGMUX_TR_CTL(outTrig) = (CY_TRIGMUX_TR_CTL(outTrig) &
 350              		.loc 1 160 0
 351 0082 334B     		ldr	r3, .L20+8
 352 0084 1B68     		ldr	r3, [r3]
 353 0086 9A68     		ldr	r2, [r3, #8]
 354 0088 314B     		ldr	r3, .L20+8
 355 008a 1B68     		ldr	r3, [r3]
 356 008c 6C21     		movs	r1, #108
 357 008e 5B5A     		ldrh	r3, [r3, r1]
 358 0090 D218     		adds	r2, r2, r3
 359 0092 2F4B     		ldr	r3, .L20+8
 360 0094 1B68     		ldr	r3, [r3]
 361 0096 6E21     		movs	r1, #110
 362 0098 5B5A     		ldrh	r3, [r3, r1]
 363 009a 9B08     		lsrs	r3, r3, #2
 364 009c 9BB2     		uxth	r3, r3
 365 009e 013B     		subs	r3, r3, #1
 366 00a0 7968     		ldr	r1, [r7, #4]
 367 00a2 0B40     		ands	r3, r1
 368 00a4 9900     		lsls	r1, r3, #2
 369 00a6 2A4B     		ldr	r3, .L20+8
 370 00a8 1B68     		ldr	r3, [r3]
 371 00aa 6A20     		movs	r0, #106
 372 00ac 1B5A     		ldrh	r3, [r3, r0]
 373 00ae 1800     		movs	r0, r3
 374 00b0 7B68     		ldr	r3, [r7, #4]
 375 00b2 0340     		ands	r3, r0
 376 00b4 180A     		lsrs	r0, r3, #8
 377 00b6 264B     		ldr	r3, .L20+8
 378 00b8 1B68     		ldr	r3, [r3]
 379 00ba 6E24     		movs	r4, #110
 380 00bc 1B5B     		ldrh	r3, [r3, r4]
 381 00be 4343     		muls	r3, r0
 382 00c0 CB18     		adds	r3, r1, r3
 383 00c2 D318     		adds	r3, r2, r3
 384 00c4 1A00     		movs	r2, r3
 385 00c6 224B     		ldr	r3, .L20+8
 386 00c8 1B68     		ldr	r3, [r3]
 387 00ca 9968     		ldr	r1, [r3, #8]
 388 00cc 204B     		ldr	r3, .L20+8
 389 00ce 1B68     		ldr	r3, [r3]
 390 00d0 6C20     		movs	r0, #108
 391 00d2 1B5A     		ldrh	r3, [r3, r0]
 392 00d4 C918     		adds	r1, r1, r3
 393 00d6 1E4B     		ldr	r3, .L20+8
 394 00d8 1B68     		ldr	r3, [r3]
 395 00da 6E20     		movs	r0, #110
 396 00dc 1B5A     		ldrh	r3, [r3, r0]
 397 00de 9B08     		lsrs	r3, r3, #2
 398 00e0 9BB2     		uxth	r3, r3
ARM GAS  C:\Users\JC\AppData\Local\Temp\ccz6CrFf.s 			page 11


 399 00e2 013B     		subs	r3, r3, #1
 400 00e4 7868     		ldr	r0, [r7, #4]
 401 00e6 0340     		ands	r3, r0
 402 00e8 9800     		lsls	r0, r3, #2
 403 00ea 194B     		ldr	r3, .L20+8
 404 00ec 1B68     		ldr	r3, [r3]
 405 00ee 6A24     		movs	r4, #106
 406 00f0 1B5B     		ldrh	r3, [r3, r4]
 407 00f2 1C00     		movs	r4, r3
 408 00f4 7B68     		ldr	r3, [r7, #4]
 409 00f6 2340     		ands	r3, r4
 410 00f8 1C0A     		lsrs	r4, r3, #8
 411 00fa 154B     		ldr	r3, .L20+8
 412 00fc 1B68     		ldr	r3, [r3]
 413 00fe 6E25     		movs	r5, #110
 414 0100 5B5B     		ldrh	r3, [r3, r5]
 415 0102 6343     		muls	r3, r4
 416 0104 C318     		adds	r3, r0, r3
 417 0106 CB18     		adds	r3, r1, r3
 418 0108 1B68     		ldr	r3, [r3]
 419 010a 1349     		ldr	r1, .L20+16
 420 010c 1940     		ands	r1, r3
 161:Generated_Source\PSoC6\pdl\drivers\peripheral\trigmux/cy_trigmux.c ****                           (uint32_t)~(PERI_TR_1TO1_GR_V2_TR_CTL_TR_INV_Msk |
 162:Generated_Source\PSoC6\pdl\drivers\peripheral\trigmux/cy_trigmux.c ****                                       PERI_TR_1TO1_GR_V2_TR_CTL_TR_EDGE_Msk)) |
 163:Generated_Source\PSoC6\pdl\drivers\peripheral\trigmux/cy_trigmux.c ****                                      (PERI_TR_1TO1_GR_V2_TR_CTL_TR_SEL_Msk      |
 421              		.loc 1 163 0
 422 010e FB1C     		adds	r3, r7, #3
 423 0110 1B78     		ldrb	r3, [r3]
 424 0112 002B     		cmp	r3, #0
 425 0114 02D0     		beq	.L17
 426              		.loc 1 163 0 is_stmt 0 discriminator 1
 427 0116 0223     		movs	r3, #2
 428 0118 FF33     		adds	r3, r3, #255
 429 011a 00E0     		b	.L18
 430              	.L17:
 431              		.loc 1 163 0 discriminator 2
 432 011c 0123     		movs	r3, #1
 433              	.L18:
 164:Generated_Source\PSoC6\pdl\drivers\peripheral\trigmux/cy_trigmux.c ****                             _BOOL2FLD(PERI_TR_1TO1_GR_V2_TR_CTL_TR_INV, invert) |
 165:Generated_Source\PSoC6\pdl\drivers\peripheral\trigmux/cy_trigmux.c ****                              _VAL2FLD(PERI_TR_1TO1_GR_V2_TR_CTL_TR_EDGE, trigType));
 434              		.loc 1 165 0 is_stmt 1
 435 011e B81C     		adds	r0, r7, #2
 436 0120 0078     		ldrb	r0, [r0]
 437 0122 4402     		lsls	r4, r0, #9
 438 0124 8020     		movs	r0, #128
 439 0126 8000     		lsls	r0, r0, #2
 440 0128 2040     		ands	r0, r4
 164:Generated_Source\PSoC6\pdl\drivers\peripheral\trigmux/cy_trigmux.c ****                             _BOOL2FLD(PERI_TR_1TO1_GR_V2_TR_CTL_TR_INV, invert) |
 441              		.loc 1 164 0
 442 012a 0343     		orrs	r3, r0
 162:Generated_Source\PSoC6\pdl\drivers\peripheral\trigmux/cy_trigmux.c ****                                      (PERI_TR_1TO1_GR_V2_TR_CTL_TR_SEL_Msk      |
 443              		.loc 1 162 0
 444 012c 0B43     		orrs	r3, r1
 160:Generated_Source\PSoC6\pdl\drivers\peripheral\trigmux/cy_trigmux.c ****                           (uint32_t)~(PERI_TR_1TO1_GR_V2_TR_CTL_TR_INV_Msk |
 445              		.loc 1 160 0
 446 012e 1360     		str	r3, [r2]
 166:Generated_Source\PSoC6\pdl\drivers\peripheral\trigmux/cy_trigmux.c **** 
ARM GAS  C:\Users\JC\AppData\Local\Temp\ccz6CrFf.s 			page 12


 167:Generated_Source\PSoC6\pdl\drivers\peripheral\trigmux/cy_trigmux.c ****         Cy_SysLib_ExitCriticalSection(interruptState);
 447              		.loc 1 167 0
 448 0130 BB68     		ldr	r3, [r7, #8]
 449 0132 1800     		movs	r0, r3
 450 0134 FFF7FEFF 		bl	Cy_SysLib_ExitCriticalSection
 168:Generated_Source\PSoC6\pdl\drivers\peripheral\trigmux/cy_trigmux.c **** 
 169:Generated_Source\PSoC6\pdl\drivers\peripheral\trigmux/cy_trigmux.c ****         retVal = CY_TRIGMUX_SUCCESS;
 451              		.loc 1 169 0
 452 0138 0023     		movs	r3, #0
 453 013a FB60     		str	r3, [r7, #12]
 454              	.L16:
 455              	.LBE3:
 170:Generated_Source\PSoC6\pdl\drivers\peripheral\trigmux/cy_trigmux.c ****     }
 171:Generated_Source\PSoC6\pdl\drivers\peripheral\trigmux/cy_trigmux.c **** 
 172:Generated_Source\PSoC6\pdl\drivers\peripheral\trigmux/cy_trigmux.c ****     return retVal;
 456              		.loc 1 172 0
 457 013c FB68     		ldr	r3, [r7, #12]
 173:Generated_Source\PSoC6\pdl\drivers\peripheral\trigmux/cy_trigmux.c **** }
 458              		.loc 1 173 0
 459 013e 1800     		movs	r0, r3
 460 0140 BD46     		mov	sp, r7
 461 0142 04B0     		add	sp, sp, #16
 462              		@ sp needed
 463 0144 B0BD     		pop	{r4, r5, r7, pc}
 464              	.L21:
 465 0146 C046     		.align	2
 466              	.L20:
 467 0148 0100CE00 		.word	13500417
 468 014c 00000000 		.word	.LC0
 469 0150 00000000 		.word	cy_device
 470 0154 001F0040 		.word	1073749760
 471 0158 FFFCFFFF 		.word	-769
 472              		.cfi_endproc
 473              	.LFE46:
 474              		.size	Cy_TrigMux_Select, .-Cy_TrigMux_Select
 475              		.section	.text.Cy_TrigMux_Deselect,"ax",%progbits
 476              		.align	2
 477              		.global	Cy_TrigMux_Deselect
 478              		.code	16
 479              		.thumb_func
 480              		.type	Cy_TrigMux_Deselect, %function
 481              	Cy_TrigMux_Deselect:
 482              	.LFB47:
 174:Generated_Source\PSoC6\pdl\drivers\peripheral\trigmux/cy_trigmux.c **** 
 175:Generated_Source\PSoC6\pdl\drivers\peripheral\trigmux/cy_trigmux.c **** 
 176:Generated_Source\PSoC6\pdl\drivers\peripheral\trigmux/cy_trigmux.c **** /*******************************************************************************
 177:Generated_Source\PSoC6\pdl\drivers\peripheral\trigmux/cy_trigmux.c **** * Function Name: Cy_TrigMux_Deselect
 178:Generated_Source\PSoC6\pdl\drivers\peripheral\trigmux/cy_trigmux.c **** ****************************************************************************//**
 179:Generated_Source\PSoC6\pdl\drivers\peripheral\trigmux/cy_trigmux.c **** *
 180:Generated_Source\PSoC6\pdl\drivers\peripheral\trigmux/cy_trigmux.c **** * Disables the specified 1-to-1 trigger line. For PERI_ver2 only.
 181:Generated_Source\PSoC6\pdl\drivers\peripheral\trigmux/cy_trigmux.c **** *
 182:Generated_Source\PSoC6\pdl\drivers\peripheral\trigmux/cy_trigmux.c **** * \param outTrig
 183:Generated_Source\PSoC6\pdl\drivers\peripheral\trigmux/cy_trigmux.c **** * The 1to1 trigger line.
 184:Generated_Source\PSoC6\pdl\drivers\peripheral\trigmux/cy_trigmux.c **** * - Bit 30 should be set.
 185:Generated_Source\PSoC6\pdl\drivers\peripheral\trigmux/cy_trigmux.c **** * - Bit 12 should be set.
 186:Generated_Source\PSoC6\pdl\drivers\peripheral\trigmux/cy_trigmux.c **** * - Bits 11:8 represent the 1-to-1 trigger group selection.
 187:Generated_Source\PSoC6\pdl\drivers\peripheral\trigmux/cy_trigmux.c **** * - Bits 7:0 select the trigger line number in the trigger group.
ARM GAS  C:\Users\JC\AppData\Local\Temp\ccz6CrFf.s 			page 13


 188:Generated_Source\PSoC6\pdl\drivers\peripheral\trigmux/cy_trigmux.c **** *
 189:Generated_Source\PSoC6\pdl\drivers\peripheral\trigmux/cy_trigmux.c **** * \return status:
 190:Generated_Source\PSoC6\pdl\drivers\peripheral\trigmux/cy_trigmux.c **** * - CY_TRIGMUX_SUCCESS: The deselection is made successfully.
 191:Generated_Source\PSoC6\pdl\drivers\peripheral\trigmux/cy_trigmux.c **** * - CY_TRIGMUX_BAD_PARAM: Some parameter is invalid.
 192:Generated_Source\PSoC6\pdl\drivers\peripheral\trigmux/cy_trigmux.c **** *
 193:Generated_Source\PSoC6\pdl\drivers\peripheral\trigmux/cy_trigmux.c **** * \funcusage
 194:Generated_Source\PSoC6\pdl\drivers\peripheral\trigmux/cy_trigmux.c **** * \snippet trigmux\1.20\snippet\main.c snippet_Cy_TrigMux_Deselect
 195:Generated_Source\PSoC6\pdl\drivers\peripheral\trigmux/cy_trigmux.c **** *  
 196:Generated_Source\PSoC6\pdl\drivers\peripheral\trigmux/cy_trigmux.c **** *******************************************************************************/
 197:Generated_Source\PSoC6\pdl\drivers\peripheral\trigmux/cy_trigmux.c **** cy_en_trigmux_status_t Cy_TrigMux_Deselect(uint32_t outTrig)
 198:Generated_Source\PSoC6\pdl\drivers\peripheral\trigmux/cy_trigmux.c **** {
 483              		.loc 1 198 0
 484              		.cfi_startproc
 485              		@ args = 0, pretend = 0, frame = 16
 486              		@ frame_needed = 1, uses_anonymous_args = 0
 487 0000 B0B5     		push	{r4, r5, r7, lr}
 488              		.cfi_def_cfa_offset 16
 489              		.cfi_offset 4, -16
 490              		.cfi_offset 5, -12
 491              		.cfi_offset 7, -8
 492              		.cfi_offset 14, -4
 493 0002 84B0     		sub	sp, sp, #16
 494              		.cfi_def_cfa_offset 32
 495 0004 00AF     		add	r7, sp, #0
 496              		.cfi_def_cfa_register 7
 497 0006 7860     		str	r0, [r7, #4]
 199:Generated_Source\PSoC6\pdl\drivers\peripheral\trigmux/cy_trigmux.c ****     cy_en_trigmux_status_t retVal = CY_TRIGMUX_BAD_PARAM;
 498              		.loc 1 199 0
 499 0008 3C4B     		ldr	r3, .L27
 500 000a FB60     		str	r3, [r7, #12]
 200:Generated_Source\PSoC6\pdl\drivers\peripheral\trigmux/cy_trigmux.c **** 
 201:Generated_Source\PSoC6\pdl\drivers\peripheral\trigmux/cy_trigmux.c ****     CY_ASSERT_L2(CY_TRIGMUX_IS_ONETRIG_VALID(outTrig));
 501              		.loc 1 201 0
 502 000c 3C4B     		ldr	r3, .L27+4
 503 000e 1B68     		ldr	r3, [r3]
 504 0010 6E22     		movs	r2, #110
 505 0012 9B5A     		ldrh	r3, [r3, r2]
 506 0014 9B08     		lsrs	r3, r3, #2
 507 0016 9BB2     		uxth	r3, r3
 508 0018 013B     		subs	r3, r3, #1
 509 001a 3A4A     		ldr	r2, .L27+8
 510 001c 1343     		orrs	r3, r2
 511 001e DB43     		mvns	r3, r3
 512 0020 7A68     		ldr	r2, [r7, #4]
 513 0022 1340     		ands	r3, r2
 514 0024 09D1     		bne	.L23
 515              		.loc 1 201 0 is_stmt 0 discriminator 2
 516 0026 7A68     		ldr	r2, [r7, #4]
 517 0028 8023     		movs	r3, #128
 518 002a DB05     		lsls	r3, r3, #23
 519 002c 1340     		ands	r3, r2
 520 002e 04D0     		beq	.L23
 521              		.loc 1 201 0 discriminator 4
 522 0030 7A68     		ldr	r2, [r7, #4]
 523 0032 8023     		movs	r3, #128
 524 0034 5B01     		lsls	r3, r3, #5
 525 0036 1340     		ands	r3, r2
ARM GAS  C:\Users\JC\AppData\Local\Temp\ccz6CrFf.s 			page 14


 526 0038 04D1     		bne	.L24
 527              	.L23:
 528              		.loc 1 201 0 discriminator 5
 529 003a 334B     		ldr	r3, .L27+12
 530 003c C921     		movs	r1, #201
 531 003e 1800     		movs	r0, r3
 532 0040 FFF7FEFF 		bl	Cy_SysLib_AssertFailed
 533              	.L24:
 202:Generated_Source\PSoC6\pdl\drivers\peripheral\trigmux/cy_trigmux.c **** 
 203:Generated_Source\PSoC6\pdl\drivers\peripheral\trigmux/cy_trigmux.c ****     if (!CY_PERI_V1)
 534              		.loc 1 203 0 is_stmt 1
 535 0044 2E4B     		ldr	r3, .L27+4
 536 0046 1B68     		ldr	r3, [r3]
 537 0048 2F22     		movs	r2, #47
 538 004a 9B5C     		ldrb	r3, [r3, r2]
 539 004c 012B     		cmp	r3, #1
 540 004e 50D0     		beq	.L25
 541              	.LBB4:
 204:Generated_Source\PSoC6\pdl\drivers\peripheral\trigmux/cy_trigmux.c ****     {
 205:Generated_Source\PSoC6\pdl\drivers\peripheral\trigmux/cy_trigmux.c ****         uint32_t interruptState;
 206:Generated_Source\PSoC6\pdl\drivers\peripheral\trigmux/cy_trigmux.c **** 
 207:Generated_Source\PSoC6\pdl\drivers\peripheral\trigmux/cy_trigmux.c ****         interruptState = Cy_SysLib_EnterCriticalSection();
 542              		.loc 1 207 0
 543 0050 FFF7FEFF 		bl	Cy_SysLib_EnterCriticalSection
 544 0054 0300     		movs	r3, r0
 545 0056 BB60     		str	r3, [r7, #8]
 208:Generated_Source\PSoC6\pdl\drivers\peripheral\trigmux/cy_trigmux.c **** 
 209:Generated_Source\PSoC6\pdl\drivers\peripheral\trigmux/cy_trigmux.c ****         CY_TRIGMUX_TR_CTL(outTrig) &= (uint32_t)~(PERI_TR_1TO1_GR_V2_TR_CTL_TR_SEL_Msk |
 546              		.loc 1 209 0
 547 0058 294B     		ldr	r3, .L27+4
 548 005a 1B68     		ldr	r3, [r3]
 549 005c 9A68     		ldr	r2, [r3, #8]
 550 005e 284B     		ldr	r3, .L27+4
 551 0060 1B68     		ldr	r3, [r3]
 552 0062 6C21     		movs	r1, #108
 553 0064 5B5A     		ldrh	r3, [r3, r1]
 554 0066 D218     		adds	r2, r2, r3
 555 0068 254B     		ldr	r3, .L27+4
 556 006a 1B68     		ldr	r3, [r3]
 557 006c 6E21     		movs	r1, #110
 558 006e 5B5A     		ldrh	r3, [r3, r1]
 559 0070 9B08     		lsrs	r3, r3, #2
 560 0072 9BB2     		uxth	r3, r3
 561 0074 013B     		subs	r3, r3, #1
 562 0076 7968     		ldr	r1, [r7, #4]
 563 0078 0B40     		ands	r3, r1
 564 007a 9900     		lsls	r1, r3, #2
 565 007c 204B     		ldr	r3, .L27+4
 566 007e 1B68     		ldr	r3, [r3]
 567 0080 6A20     		movs	r0, #106
 568 0082 1B5A     		ldrh	r3, [r3, r0]
 569 0084 1800     		movs	r0, r3
 570 0086 7B68     		ldr	r3, [r7, #4]
 571 0088 0340     		ands	r3, r0
 572 008a 180A     		lsrs	r0, r3, #8
 573 008c 1C4B     		ldr	r3, .L27+4
 574 008e 1B68     		ldr	r3, [r3]
ARM GAS  C:\Users\JC\AppData\Local\Temp\ccz6CrFf.s 			page 15


 575 0090 6E24     		movs	r4, #110
 576 0092 1B5B     		ldrh	r3, [r3, r4]
 577 0094 4343     		muls	r3, r0
 578 0096 CB18     		adds	r3, r1, r3
 579 0098 D318     		adds	r3, r2, r3
 580 009a 1A00     		movs	r2, r3
 581 009c 184B     		ldr	r3, .L27+4
 582 009e 1B68     		ldr	r3, [r3]
 583 00a0 9968     		ldr	r1, [r3, #8]
 584 00a2 174B     		ldr	r3, .L27+4
 585 00a4 1B68     		ldr	r3, [r3]
 586 00a6 6C20     		movs	r0, #108
 587 00a8 1B5A     		ldrh	r3, [r3, r0]
 588 00aa C918     		adds	r1, r1, r3
 589 00ac 144B     		ldr	r3, .L27+4
 590 00ae 1B68     		ldr	r3, [r3]
 591 00b0 6E20     		movs	r0, #110
 592 00b2 1B5A     		ldrh	r3, [r3, r0]
 593 00b4 9B08     		lsrs	r3, r3, #2
 594 00b6 9BB2     		uxth	r3, r3
 595 00b8 013B     		subs	r3, r3, #1
 596 00ba 7868     		ldr	r0, [r7, #4]
 597 00bc 0340     		ands	r3, r0
 598 00be 9800     		lsls	r0, r3, #2
 599 00c0 0F4B     		ldr	r3, .L27+4
 600 00c2 1B68     		ldr	r3, [r3]
 601 00c4 6A24     		movs	r4, #106
 602 00c6 1B5B     		ldrh	r3, [r3, r4]
 603 00c8 1C00     		movs	r4, r3
 604 00ca 7B68     		ldr	r3, [r7, #4]
 605 00cc 2340     		ands	r3, r4
 606 00ce 1C0A     		lsrs	r4, r3, #8
 607 00d0 0B4B     		ldr	r3, .L27+4
 608 00d2 1B68     		ldr	r3, [r3]
 609 00d4 6E25     		movs	r5, #110
 610 00d6 5B5B     		ldrh	r3, [r3, r5]
 611 00d8 6343     		muls	r3, r4
 612 00da C318     		adds	r3, r0, r3
 613 00dc CB18     		adds	r3, r1, r3
 614 00de 1B68     		ldr	r3, [r3]
 615 00e0 0A49     		ldr	r1, .L27+16
 616 00e2 0B40     		ands	r3, r1
 617 00e4 1360     		str	r3, [r2]
 210:Generated_Source\PSoC6\pdl\drivers\peripheral\trigmux/cy_trigmux.c ****                                                   PERI_TR_1TO1_GR_V2_TR_CTL_TR_INV_Msk |
 211:Generated_Source\PSoC6\pdl\drivers\peripheral\trigmux/cy_trigmux.c ****                                                   PERI_TR_1TO1_GR_V2_TR_CTL_TR_EDGE_Msk);
 212:Generated_Source\PSoC6\pdl\drivers\peripheral\trigmux/cy_trigmux.c **** 
 213:Generated_Source\PSoC6\pdl\drivers\peripheral\trigmux/cy_trigmux.c ****         Cy_SysLib_ExitCriticalSection(interruptState);
 618              		.loc 1 213 0
 619 00e6 BB68     		ldr	r3, [r7, #8]
 620 00e8 1800     		movs	r0, r3
 621 00ea FFF7FEFF 		bl	Cy_SysLib_ExitCriticalSection
 214:Generated_Source\PSoC6\pdl\drivers\peripheral\trigmux/cy_trigmux.c **** 
 215:Generated_Source\PSoC6\pdl\drivers\peripheral\trigmux/cy_trigmux.c ****         retVal = CY_TRIGMUX_SUCCESS;
 622              		.loc 1 215 0
 623 00ee 0023     		movs	r3, #0
 624 00f0 FB60     		str	r3, [r7, #12]
 625              	.L25:
ARM GAS  C:\Users\JC\AppData\Local\Temp\ccz6CrFf.s 			page 16


 626              	.LBE4:
 216:Generated_Source\PSoC6\pdl\drivers\peripheral\trigmux/cy_trigmux.c ****     }
 217:Generated_Source\PSoC6\pdl\drivers\peripheral\trigmux/cy_trigmux.c **** 
 218:Generated_Source\PSoC6\pdl\drivers\peripheral\trigmux/cy_trigmux.c ****     return retVal;
 627              		.loc 1 218 0
 628 00f2 FB68     		ldr	r3, [r7, #12]
 219:Generated_Source\PSoC6\pdl\drivers\peripheral\trigmux/cy_trigmux.c **** }
 629              		.loc 1 219 0
 630 00f4 1800     		movs	r0, r3
 631 00f6 BD46     		mov	sp, r7
 632 00f8 04B0     		add	sp, sp, #16
 633              		@ sp needed
 634 00fa B0BD     		pop	{r4, r5, r7, pc}
 635              	.L28:
 636              		.align	2
 637              	.L27:
 638 00fc 0100CE00 		.word	13500417
 639 0100 00000000 		.word	cy_device
 640 0104 001F0040 		.word	1073749760
 641 0108 00000000 		.word	.LC0
 642 010c FEFCFFFF 		.word	-770
 643              		.cfi_endproc
 644              	.LFE47:
 645              		.size	Cy_TrigMux_Deselect, .-Cy_TrigMux_Deselect
 646              		.section	.text.Cy_TrigMux_SetDebugFreeze,"ax",%progbits
 647              		.align	2
 648              		.global	Cy_TrigMux_SetDebugFreeze
 649              		.code	16
 650              		.thumb_func
 651              		.type	Cy_TrigMux_SetDebugFreeze, %function
 652              	Cy_TrigMux_SetDebugFreeze:
 653              	.LFB48:
 220:Generated_Source\PSoC6\pdl\drivers\peripheral\trigmux/cy_trigmux.c **** 
 221:Generated_Source\PSoC6\pdl\drivers\peripheral\trigmux/cy_trigmux.c **** 
 222:Generated_Source\PSoC6\pdl\drivers\peripheral\trigmux/cy_trigmux.c **** /*******************************************************************************
 223:Generated_Source\PSoC6\pdl\drivers\peripheral\trigmux/cy_trigmux.c **** * Function Name: Cy_TrigMux_SetDebugFreeze
 224:Generated_Source\PSoC6\pdl\drivers\peripheral\trigmux/cy_trigmux.c **** ****************************************************************************//**
 225:Generated_Source\PSoC6\pdl\drivers\peripheral\trigmux/cy_trigmux.c **** *
 226:Generated_Source\PSoC6\pdl\drivers\peripheral\trigmux/cy_trigmux.c **** * Enables/disables the Debug Freeze feature for the specified trigger 
 227:Generated_Source\PSoC6\pdl\drivers\peripheral\trigmux/cy_trigmux.c **** * multiplexer or 1-to-1 trigger line. For PERI_ver2 only.
 228:Generated_Source\PSoC6\pdl\drivers\peripheral\trigmux/cy_trigmux.c **** *
 229:Generated_Source\PSoC6\pdl\drivers\peripheral\trigmux/cy_trigmux.c **** * \param outTrig
 230:Generated_Source\PSoC6\pdl\drivers\peripheral\trigmux/cy_trigmux.c **** * The output of the trigger mux or dedicated 1-to-1 trigger line.
 231:Generated_Source\PSoC6\pdl\drivers\peripheral\trigmux/cy_trigmux.c **** * - Bit 30 should be set.
 232:Generated_Source\PSoC6\pdl\drivers\peripheral\trigmux/cy_trigmux.c **** * - Bits 12:8 represent the trigger group selection.
 233:Generated_Source\PSoC6\pdl\drivers\peripheral\trigmux/cy_trigmux.c **** * - Bits 7:0 select the output trigger number in the trigger group.
 234:Generated_Source\PSoC6\pdl\drivers\peripheral\trigmux/cy_trigmux.c **** *
 235:Generated_Source\PSoC6\pdl\drivers\peripheral\trigmux/cy_trigmux.c **** * \param enable
 236:Generated_Source\PSoC6\pdl\drivers\peripheral\trigmux/cy_trigmux.c **** * - true: The Debug Freeze feature is enabled.
 237:Generated_Source\PSoC6\pdl\drivers\peripheral\trigmux/cy_trigmux.c **** * - false: The Debug Freeze feature is disabled.
 238:Generated_Source\PSoC6\pdl\drivers\peripheral\trigmux/cy_trigmux.c **** *
 239:Generated_Source\PSoC6\pdl\drivers\peripheral\trigmux/cy_trigmux.c **** * \return status:
 240:Generated_Source\PSoC6\pdl\drivers\peripheral\trigmux/cy_trigmux.c **** * - CY_TRIGMUX_SUCCESS: The operation is made successfully.
 241:Generated_Source\PSoC6\pdl\drivers\peripheral\trigmux/cy_trigmux.c **** * - CY_TRIGMUX_BAD_PARAM: The outTrig parameter is invalid.
 242:Generated_Source\PSoC6\pdl\drivers\peripheral\trigmux/cy_trigmux.c **** *
 243:Generated_Source\PSoC6\pdl\drivers\peripheral\trigmux/cy_trigmux.c **** * \funcusage
 244:Generated_Source\PSoC6\pdl\drivers\peripheral\trigmux/cy_trigmux.c **** * \snippet trigmux\1.20\snippet\main.c snippet_Cy_TrigMux_SetDebugFreeze
ARM GAS  C:\Users\JC\AppData\Local\Temp\ccz6CrFf.s 			page 17


 245:Generated_Source\PSoC6\pdl\drivers\peripheral\trigmux/cy_trigmux.c **** *  
 246:Generated_Source\PSoC6\pdl\drivers\peripheral\trigmux/cy_trigmux.c **** *******************************************************************************/
 247:Generated_Source\PSoC6\pdl\drivers\peripheral\trigmux/cy_trigmux.c **** cy_en_trigmux_status_t Cy_TrigMux_SetDebugFreeze(uint32_t outTrig, bool enable)
 248:Generated_Source\PSoC6\pdl\drivers\peripheral\trigmux/cy_trigmux.c **** {    
 654              		.loc 1 248 0
 655              		.cfi_startproc
 656              		@ args = 0, pretend = 0, frame = 16
 657              		@ frame_needed = 1, uses_anonymous_args = 0
 658 0000 B0B5     		push	{r4, r5, r7, lr}
 659              		.cfi_def_cfa_offset 16
 660              		.cfi_offset 4, -16
 661              		.cfi_offset 5, -12
 662              		.cfi_offset 7, -8
 663              		.cfi_offset 14, -4
 664 0002 84B0     		sub	sp, sp, #16
 665              		.cfi_def_cfa_offset 32
 666 0004 00AF     		add	r7, sp, #0
 667              		.cfi_def_cfa_register 7
 668 0006 7860     		str	r0, [r7, #4]
 669 0008 0A00     		movs	r2, r1
 670 000a FB1C     		adds	r3, r7, #3
 671 000c 1A70     		strb	r2, [r3]
 249:Generated_Source\PSoC6\pdl\drivers\peripheral\trigmux/cy_trigmux.c ****     cy_en_trigmux_status_t retVal = CY_TRIGMUX_BAD_PARAM;
 672              		.loc 1 249 0
 673 000e 564B     		ldr	r3, .L34
 674 0010 FB60     		str	r3, [r7, #12]
 250:Generated_Source\PSoC6\pdl\drivers\peripheral\trigmux/cy_trigmux.c **** 
 251:Generated_Source\PSoC6\pdl\drivers\peripheral\trigmux/cy_trigmux.c ****     if (!CY_PERI_V1)
 675              		.loc 1 251 0
 676 0012 564B     		ldr	r3, .L34+4
 677 0014 1B68     		ldr	r3, [r3]
 678 0016 2F22     		movs	r2, #47
 679 0018 9B5C     		ldrb	r3, [r3, r2]
 680 001a 012B     		cmp	r3, #1
 681 001c 00D1     		bne	.LCB609
 682 001e 9DE0     		b	.L30	@long jump
 683              	.LCB609:
 684              	.LBB5:
 252:Generated_Source\PSoC6\pdl\drivers\peripheral\trigmux/cy_trigmux.c ****     {
 253:Generated_Source\PSoC6\pdl\drivers\peripheral\trigmux/cy_trigmux.c ****         uint32_t interruptState;
 254:Generated_Source\PSoC6\pdl\drivers\peripheral\trigmux/cy_trigmux.c **** 
 255:Generated_Source\PSoC6\pdl\drivers\peripheral\trigmux/cy_trigmux.c ****         interruptState = Cy_SysLib_EnterCriticalSection();
 685              		.loc 1 255 0
 686 0020 FFF7FEFF 		bl	Cy_SysLib_EnterCriticalSection
 687 0024 0300     		movs	r3, r0
 688 0026 BB60     		str	r3, [r7, #8]
 256:Generated_Source\PSoC6\pdl\drivers\peripheral\trigmux/cy_trigmux.c **** 
 257:Generated_Source\PSoC6\pdl\drivers\peripheral\trigmux/cy_trigmux.c ****         if (enable)
 689              		.loc 1 257 0
 690 0028 FB1C     		adds	r3, r7, #3
 691 002a 1B78     		ldrb	r3, [r3]
 692 002c 002B     		cmp	r3, #0
 693 002e 48D0     		beq	.L31
 258:Generated_Source\PSoC6\pdl\drivers\peripheral\trigmux/cy_trigmux.c ****         {
 259:Generated_Source\PSoC6\pdl\drivers\peripheral\trigmux/cy_trigmux.c ****             CY_TRIGMUX_TR_CTL(outTrig) |= PERI_TR_GR_V2_TR_CTL_DBG_FREEZE_EN_Msk;
 694              		.loc 1 259 0
 695 0030 4E4B     		ldr	r3, .L34+4
ARM GAS  C:\Users\JC\AppData\Local\Temp\ccz6CrFf.s 			page 18


 696 0032 1B68     		ldr	r3, [r3]
 697 0034 9A68     		ldr	r2, [r3, #8]
 698 0036 4D4B     		ldr	r3, .L34+4
 699 0038 1B68     		ldr	r3, [r3]
 700 003a 6C21     		movs	r1, #108
 701 003c 5B5A     		ldrh	r3, [r3, r1]
 702 003e D218     		adds	r2, r2, r3
 703 0040 4A4B     		ldr	r3, .L34+4
 704 0042 1B68     		ldr	r3, [r3]
 705 0044 6E21     		movs	r1, #110
 706 0046 5B5A     		ldrh	r3, [r3, r1]
 707 0048 9B08     		lsrs	r3, r3, #2
 708 004a 9BB2     		uxth	r3, r3
 709 004c 013B     		subs	r3, r3, #1
 710 004e 7968     		ldr	r1, [r7, #4]
 711 0050 0B40     		ands	r3, r1
 712 0052 9900     		lsls	r1, r3, #2
 713 0054 454B     		ldr	r3, .L34+4
 714 0056 1B68     		ldr	r3, [r3]
 715 0058 6A20     		movs	r0, #106
 716 005a 1B5A     		ldrh	r3, [r3, r0]
 717 005c 1800     		movs	r0, r3
 718 005e 7B68     		ldr	r3, [r7, #4]
 719 0060 0340     		ands	r3, r0
 720 0062 180A     		lsrs	r0, r3, #8
 721 0064 414B     		ldr	r3, .L34+4
 722 0066 1B68     		ldr	r3, [r3]
 723 0068 6E24     		movs	r4, #110
 724 006a 1B5B     		ldrh	r3, [r3, r4]
 725 006c 4343     		muls	r3, r0
 726 006e CB18     		adds	r3, r1, r3
 727 0070 D318     		adds	r3, r2, r3
 728 0072 1A00     		movs	r2, r3
 729 0074 3D4B     		ldr	r3, .L34+4
 730 0076 1B68     		ldr	r3, [r3]
 731 0078 9968     		ldr	r1, [r3, #8]
 732 007a 3C4B     		ldr	r3, .L34+4
 733 007c 1B68     		ldr	r3, [r3]
 734 007e 6C20     		movs	r0, #108
 735 0080 1B5A     		ldrh	r3, [r3, r0]
 736 0082 C918     		adds	r1, r1, r3
 737 0084 394B     		ldr	r3, .L34+4
 738 0086 1B68     		ldr	r3, [r3]
 739 0088 6E20     		movs	r0, #110
 740 008a 1B5A     		ldrh	r3, [r3, r0]
 741 008c 9B08     		lsrs	r3, r3, #2
 742 008e 9BB2     		uxth	r3, r3
 743 0090 013B     		subs	r3, r3, #1
 744 0092 7868     		ldr	r0, [r7, #4]
 745 0094 0340     		ands	r3, r0
 746 0096 9800     		lsls	r0, r3, #2
 747 0098 344B     		ldr	r3, .L34+4
 748 009a 1B68     		ldr	r3, [r3]
 749 009c 6A24     		movs	r4, #106
 750 009e 1B5B     		ldrh	r3, [r3, r4]
 751 00a0 1C00     		movs	r4, r3
 752 00a2 7B68     		ldr	r3, [r7, #4]
ARM GAS  C:\Users\JC\AppData\Local\Temp\ccz6CrFf.s 			page 19


 753 00a4 2340     		ands	r3, r4
 754 00a6 1C0A     		lsrs	r4, r3, #8
 755 00a8 304B     		ldr	r3, .L34+4
 756 00aa 1B68     		ldr	r3, [r3]
 757 00ac 6E25     		movs	r5, #110
 758 00ae 5B5B     		ldrh	r3, [r3, r5]
 759 00b0 6343     		muls	r3, r4
 760 00b2 C318     		adds	r3, r0, r3
 761 00b4 CB18     		adds	r3, r1, r3
 762 00b6 1B68     		ldr	r3, [r3]
 763 00b8 8021     		movs	r1, #128
 764 00ba 4901     		lsls	r1, r1, #5
 765 00bc 0B43     		orrs	r3, r1
 766 00be 1360     		str	r3, [r2]
 767 00c0 46E0     		b	.L32
 768              	.L31:
 260:Generated_Source\PSoC6\pdl\drivers\peripheral\trigmux/cy_trigmux.c ****         }
 261:Generated_Source\PSoC6\pdl\drivers\peripheral\trigmux/cy_trigmux.c ****         else
 262:Generated_Source\PSoC6\pdl\drivers\peripheral\trigmux/cy_trigmux.c ****         {
 263:Generated_Source\PSoC6\pdl\drivers\peripheral\trigmux/cy_trigmux.c ****             CY_TRIGMUX_TR_CTL(outTrig) &= (uint32_t)~PERI_TR_GR_V2_TR_CTL_DBG_FREEZE_EN_Msk;
 769              		.loc 1 263 0
 770 00c2 2A4B     		ldr	r3, .L34+4
 771 00c4 1B68     		ldr	r3, [r3]
 772 00c6 9A68     		ldr	r2, [r3, #8]
 773 00c8 284B     		ldr	r3, .L34+4
 774 00ca 1B68     		ldr	r3, [r3]
 775 00cc 6C21     		movs	r1, #108
 776 00ce 5B5A     		ldrh	r3, [r3, r1]
 777 00d0 D218     		adds	r2, r2, r3
 778 00d2 264B     		ldr	r3, .L34+4
 779 00d4 1B68     		ldr	r3, [r3]
 780 00d6 6E21     		movs	r1, #110
 781 00d8 5B5A     		ldrh	r3, [r3, r1]
 782 00da 9B08     		lsrs	r3, r3, #2
 783 00dc 9BB2     		uxth	r3, r3
 784 00de 013B     		subs	r3, r3, #1
 785 00e0 7968     		ldr	r1, [r7, #4]
 786 00e2 0B40     		ands	r3, r1
 787 00e4 9900     		lsls	r1, r3, #2
 788 00e6 214B     		ldr	r3, .L34+4
 789 00e8 1B68     		ldr	r3, [r3]
 790 00ea 6A20     		movs	r0, #106
 791 00ec 1B5A     		ldrh	r3, [r3, r0]
 792 00ee 1800     		movs	r0, r3
 793 00f0 7B68     		ldr	r3, [r7, #4]
 794 00f2 0340     		ands	r3, r0
 795 00f4 180A     		lsrs	r0, r3, #8
 796 00f6 1D4B     		ldr	r3, .L34+4
 797 00f8 1B68     		ldr	r3, [r3]
 798 00fa 6E24     		movs	r4, #110
 799 00fc 1B5B     		ldrh	r3, [r3, r4]
 800 00fe 4343     		muls	r3, r0
 801 0100 CB18     		adds	r3, r1, r3
 802 0102 D318     		adds	r3, r2, r3
 803 0104 1A00     		movs	r2, r3
 804 0106 194B     		ldr	r3, .L34+4
 805 0108 1B68     		ldr	r3, [r3]
ARM GAS  C:\Users\JC\AppData\Local\Temp\ccz6CrFf.s 			page 20


 806 010a 9968     		ldr	r1, [r3, #8]
 807 010c 174B     		ldr	r3, .L34+4
 808 010e 1B68     		ldr	r3, [r3]
 809 0110 6C20     		movs	r0, #108
 810 0112 1B5A     		ldrh	r3, [r3, r0]
 811 0114 C918     		adds	r1, r1, r3
 812 0116 154B     		ldr	r3, .L34+4
 813 0118 1B68     		ldr	r3, [r3]
 814 011a 6E20     		movs	r0, #110
 815 011c 1B5A     		ldrh	r3, [r3, r0]
 816 011e 9B08     		lsrs	r3, r3, #2
 817 0120 9BB2     		uxth	r3, r3
 818 0122 013B     		subs	r3, r3, #1
 819 0124 7868     		ldr	r0, [r7, #4]
 820 0126 0340     		ands	r3, r0
 821 0128 9800     		lsls	r0, r3, #2
 822 012a 104B     		ldr	r3, .L34+4
 823 012c 1B68     		ldr	r3, [r3]
 824 012e 6A24     		movs	r4, #106
 825 0130 1B5B     		ldrh	r3, [r3, r4]
 826 0132 1C00     		movs	r4, r3
 827 0134 7B68     		ldr	r3, [r7, #4]
 828 0136 2340     		ands	r3, r4
 829 0138 1C0A     		lsrs	r4, r3, #8
 830 013a 0C4B     		ldr	r3, .L34+4
 831 013c 1B68     		ldr	r3, [r3]
 832 013e 6E25     		movs	r5, #110
 833 0140 5B5B     		ldrh	r3, [r3, r5]
 834 0142 6343     		muls	r3, r4
 835 0144 C318     		adds	r3, r0, r3
 836 0146 CB18     		adds	r3, r1, r3
 837 0148 1B68     		ldr	r3, [r3]
 838 014a 0949     		ldr	r1, .L34+8
 839 014c 0B40     		ands	r3, r1
 840 014e 1360     		str	r3, [r2]
 841              	.L32:
 264:Generated_Source\PSoC6\pdl\drivers\peripheral\trigmux/cy_trigmux.c ****         }
 265:Generated_Source\PSoC6\pdl\drivers\peripheral\trigmux/cy_trigmux.c **** 
 266:Generated_Source\PSoC6\pdl\drivers\peripheral\trigmux/cy_trigmux.c ****         Cy_SysLib_ExitCriticalSection(interruptState);
 842              		.loc 1 266 0
 843 0150 BB68     		ldr	r3, [r7, #8]
 844 0152 1800     		movs	r0, r3
 845 0154 FFF7FEFF 		bl	Cy_SysLib_ExitCriticalSection
 267:Generated_Source\PSoC6\pdl\drivers\peripheral\trigmux/cy_trigmux.c **** 
 268:Generated_Source\PSoC6\pdl\drivers\peripheral\trigmux/cy_trigmux.c ****         retVal = CY_TRIGMUX_SUCCESS;
 846              		.loc 1 268 0
 847 0158 0023     		movs	r3, #0
 848 015a FB60     		str	r3, [r7, #12]
 849              	.L30:
 850              	.LBE5:
 269:Generated_Source\PSoC6\pdl\drivers\peripheral\trigmux/cy_trigmux.c ****     }
 270:Generated_Source\PSoC6\pdl\drivers\peripheral\trigmux/cy_trigmux.c **** 
 271:Generated_Source\PSoC6\pdl\drivers\peripheral\trigmux/cy_trigmux.c ****     return retVal;
 851              		.loc 1 271 0
 852 015c FB68     		ldr	r3, [r7, #12]
 272:Generated_Source\PSoC6\pdl\drivers\peripheral\trigmux/cy_trigmux.c **** }
 853              		.loc 1 272 0
ARM GAS  C:\Users\JC\AppData\Local\Temp\ccz6CrFf.s 			page 21


 854 015e 1800     		movs	r0, r3
 855 0160 BD46     		mov	sp, r7
 856 0162 04B0     		add	sp, sp, #16
 857              		@ sp needed
 858 0164 B0BD     		pop	{r4, r5, r7, pc}
 859              	.L35:
 860 0166 C046     		.align	2
 861              	.L34:
 862 0168 0100CE00 		.word	13500417
 863 016c 00000000 		.word	cy_device
 864 0170 FFEFFFFF 		.word	-4097
 865              		.cfi_endproc
 866              	.LFE48:
 867              		.size	Cy_TrigMux_SetDebugFreeze, .-Cy_TrigMux_SetDebugFreeze
 868              		.section	.text.Cy_TrigMux_SwTrigger,"ax",%progbits
 869              		.align	2
 870              		.global	Cy_TrigMux_SwTrigger
 871              		.code	16
 872              		.thumb_func
 873              		.type	Cy_TrigMux_SwTrigger, %function
 874              	Cy_TrigMux_SwTrigger:
 875              	.LFB49:
 273:Generated_Source\PSoC6\pdl\drivers\peripheral\trigmux/cy_trigmux.c **** 
 274:Generated_Source\PSoC6\pdl\drivers\peripheral\trigmux/cy_trigmux.c **** 
 275:Generated_Source\PSoC6\pdl\drivers\peripheral\trigmux/cy_trigmux.c **** /*******************************************************************************
 276:Generated_Source\PSoC6\pdl\drivers\peripheral\trigmux/cy_trigmux.c **** * Function Name: Cy_TrigMux_SwTrigger
 277:Generated_Source\PSoC6\pdl\drivers\peripheral\trigmux/cy_trigmux.c **** ****************************************************************************//**
 278:Generated_Source\PSoC6\pdl\drivers\peripheral\trigmux/cy_trigmux.c **** *
 279:Generated_Source\PSoC6\pdl\drivers\peripheral\trigmux/cy_trigmux.c **** * This function generates a software trigger on an input trigger line. 
 280:Generated_Source\PSoC6\pdl\drivers\peripheral\trigmux/cy_trigmux.c **** * All output triggers connected to this input trigger will be triggered. 
 281:Generated_Source\PSoC6\pdl\drivers\peripheral\trigmux/cy_trigmux.c **** * The function also verifies that there is no activated trigger before 
 282:Generated_Source\PSoC6\pdl\drivers\peripheral\trigmux/cy_trigmux.c **** * generating another activation. 
 283:Generated_Source\PSoC6\pdl\drivers\peripheral\trigmux/cy_trigmux.c **** *
 284:Generated_Source\PSoC6\pdl\drivers\peripheral\trigmux/cy_trigmux.c **** * \param trigLine
 285:Generated_Source\PSoC6\pdl\drivers\peripheral\trigmux/cy_trigmux.c **** * The input of the trigger mux.
 286:Generated_Source\PSoC6\pdl\drivers\peripheral\trigmux/cy_trigmux.c **** * - Bit 30 represents if the signal is an input/output. When this bit is set, 
 287:Generated_Source\PSoC6\pdl\drivers\peripheral\trigmux/cy_trigmux.c **** *   the trigger activation is for an output trigger from the trigger multiplexer.
 288:Generated_Source\PSoC6\pdl\drivers\peripheral\trigmux/cy_trigmux.c **** *   When this bit is reset, the trigger activation is for an input trigger to 
 289:Generated_Source\PSoC6\pdl\drivers\peripheral\trigmux/cy_trigmux.c **** *   the trigger multiplexer.
 290:Generated_Source\PSoC6\pdl\drivers\peripheral\trigmux/cy_trigmux.c **** * - Bits 12:8 represent the trigger group selection.<br>
 291:Generated_Source\PSoC6\pdl\drivers\peripheral\trigmux/cy_trigmux.c **** * In case of output trigger line (bit 30 is set):
 292:Generated_Source\PSoC6\pdl\drivers\peripheral\trigmux/cy_trigmux.c **** *  For PERI_ver1:
 293:Generated_Source\PSoC6\pdl\drivers\peripheral\trigmux/cy_trigmux.c **** * - Bits 6:0 select the output trigger number in the trigger group.<br>
 294:Generated_Source\PSoC6\pdl\drivers\peripheral\trigmux/cy_trigmux.c **** *  For PERI_ver2:
 295:Generated_Source\PSoC6\pdl\drivers\peripheral\trigmux/cy_trigmux.c **** * - Bits 7:0 select the output trigger number in the trigger group.
 296:Generated_Source\PSoC6\pdl\drivers\peripheral\trigmux/cy_trigmux.c **** * In case of input trigger line (bit 30 is unset):
 297:Generated_Source\PSoC6\pdl\drivers\peripheral\trigmux/cy_trigmux.c **** * - Bits 7:0 select the input trigger signal for the trigger multiplexer.
 298:Generated_Source\PSoC6\pdl\drivers\peripheral\trigmux/cy_trigmux.c **** *
 299:Generated_Source\PSoC6\pdl\drivers\peripheral\trigmux/cy_trigmux.c **** * \param cycles
 300:Generated_Source\PSoC6\pdl\drivers\peripheral\trigmux/cy_trigmux.c **** *  The number of "Clk_Peri" cycles during which the trigger remains activated.<br>
 301:Generated_Source\PSoC6\pdl\drivers\peripheral\trigmux/cy_trigmux.c **** *  For PERI_ver1: The valid range of cycles is 1 ... 254.<br>
 302:Generated_Source\PSoC6\pdl\drivers\peripheral\trigmux/cy_trigmux.c **** *  For PERI_ver2: The only valid value of cycles is 2 (\ref CY_TRIGGER_TWO_CYCLES).<br>
 303:Generated_Source\PSoC6\pdl\drivers\peripheral\trigmux/cy_trigmux.c **** *  Also there are special values (supported with both PERI_ver1 and PERI_ver2):
 304:Generated_Source\PSoC6\pdl\drivers\peripheral\trigmux/cy_trigmux.c **** *   - CY_TRIGGER_INFINITE - trigger remains activated until the user deactivates it by
 305:Generated_Source\PSoC6\pdl\drivers\peripheral\trigmux/cy_trigmux.c **** *   calling this function with CY_TRIGGER_DEACTIVATE parameter.
 306:Generated_Source\PSoC6\pdl\drivers\peripheral\trigmux/cy_trigmux.c **** *   - CY_TRIGGER_DEACTIVATE - this is used to deactivate the trigger activated by
 307:Generated_Source\PSoC6\pdl\drivers\peripheral\trigmux/cy_trigmux.c **** *   calling this function with CY_TRIGGER_INFINITE parameter.
ARM GAS  C:\Users\JC\AppData\Local\Temp\ccz6CrFf.s 			page 22


 308:Generated_Source\PSoC6\pdl\drivers\peripheral\trigmux/cy_trigmux.c **** * 
 309:Generated_Source\PSoC6\pdl\drivers\peripheral\trigmux/cy_trigmux.c **** * \return status:
 310:Generated_Source\PSoC6\pdl\drivers\peripheral\trigmux/cy_trigmux.c **** * - CY_TRIGMUX_SUCCESS: The trigger is successfully activated/deactivated.
 311:Generated_Source\PSoC6\pdl\drivers\peripheral\trigmux/cy_trigmux.c **** * - CY_TRIGMUX_INVALID_STATE: The trigger is already activated/not active.
 312:Generated_Source\PSoC6\pdl\drivers\peripheral\trigmux/cy_trigmux.c **** * - CY_TRIGMUX_BAD_PARAM: Some parameter is invalid.
 313:Generated_Source\PSoC6\pdl\drivers\peripheral\trigmux/cy_trigmux.c **** *
 314:Generated_Source\PSoC6\pdl\drivers\peripheral\trigmux/cy_trigmux.c **** * \funcusage
 315:Generated_Source\PSoC6\pdl\drivers\peripheral\trigmux/cy_trigmux.c **** * \snippet trigmux\1.20\snippet\main.c snippet_Cy_TrigMux_SwTrigger
 316:Generated_Source\PSoC6\pdl\drivers\peripheral\trigmux/cy_trigmux.c **** *
 317:Generated_Source\PSoC6\pdl\drivers\peripheral\trigmux/cy_trigmux.c **** *******************************************************************************/
 318:Generated_Source\PSoC6\pdl\drivers\peripheral\trigmux/cy_trigmux.c **** cy_en_trigmux_status_t Cy_TrigMux_SwTrigger(uint32_t trigLine, uint32_t cycles)
 319:Generated_Source\PSoC6\pdl\drivers\peripheral\trigmux/cy_trigmux.c **** {
 876              		.loc 1 319 0
 877              		.cfi_startproc
 878              		@ args = 0, pretend = 0, frame = 16
 879              		@ frame_needed = 1, uses_anonymous_args = 0
 880 0000 80B5     		push	{r7, lr}
 881              		.cfi_def_cfa_offset 8
 882              		.cfi_offset 7, -8
 883              		.cfi_offset 14, -4
 884 0002 84B0     		sub	sp, sp, #16
 885              		.cfi_def_cfa_offset 24
 886 0004 00AF     		add	r7, sp, #0
 887              		.cfi_def_cfa_register 7
 888 0006 7860     		str	r0, [r7, #4]
 889 0008 3960     		str	r1, [r7]
 320:Generated_Source\PSoC6\pdl\drivers\peripheral\trigmux/cy_trigmux.c ****     cy_en_trigmux_status_t retVal = CY_TRIGMUX_INVALID_STATE;
 890              		.loc 1 320 0
 891 000a 544B     		ldr	r3, .L47
 892 000c FB60     		str	r3, [r7, #12]
 321:Generated_Source\PSoC6\pdl\drivers\peripheral\trigmux/cy_trigmux.c **** 
 322:Generated_Source\PSoC6\pdl\drivers\peripheral\trigmux/cy_trigmux.c ****     CY_ASSERT_L2(CY_TRIGMUX_IS_TRIGLINE_VALID(trigLine));
 893              		.loc 1 322 0
 894 000e 544B     		ldr	r3, .L47+4
 895 0010 1B68     		ldr	r3, [r3]
 896 0012 6A22     		movs	r2, #106
 897 0014 9B5A     		ldrh	r3, [r3, r2]
 898 0016 1900     		movs	r1, r3
 899 0018 514B     		ldr	r3, .L47+4
 900 001a 1B68     		ldr	r3, [r3]
 901 001c 6E22     		movs	r2, #110
 902 001e 9B5A     		ldrh	r3, [r3, r2]
 903 0020 9B08     		lsrs	r3, r3, #2
 904 0022 9BB2     		uxth	r3, r3
 905 0024 013B     		subs	r3, r3, #1
 906 0026 0B43     		orrs	r3, r1
 907 0028 8022     		movs	r2, #128
 908 002a D205     		lsls	r2, r2, #23
 909 002c 1343     		orrs	r3, r2
 910 002e DB43     		mvns	r3, r3
 911 0030 7A68     		ldr	r2, [r7, #4]
 912 0032 1340     		ands	r3, r2
 913 0034 06D0     		beq	.L37
 914              		.loc 1 322 0 is_stmt 0 discriminator 1
 915 0036 A123     		movs	r3, #161
 916 0038 5A00     		lsls	r2, r3, #1
 917 003a 4A4B     		ldr	r3, .L47+8
ARM GAS  C:\Users\JC\AppData\Local\Temp\ccz6CrFf.s 			page 23


 918 003c 1100     		movs	r1, r2
 919 003e 1800     		movs	r0, r3
 920 0040 FFF7FEFF 		bl	Cy_SysLib_AssertFailed
 921              	.L37:
 323:Generated_Source\PSoC6\pdl\drivers\peripheral\trigmux/cy_trigmux.c ****     CY_ASSERT_L2(CY_TRIGMUX_IS_CYCLES_VALID(cycles));
 922              		.loc 1 323 0 is_stmt 1
 923 0044 464B     		ldr	r3, .L47+4
 924 0046 1B68     		ldr	r3, [r3]
 925 0048 2F22     		movs	r2, #47
 926 004a 9B5C     		ldrb	r3, [r3, r2]
 927 004c 012B     		cmp	r3, #1
 928 004e 02D1     		bne	.L38
 929              		.loc 1 323 0 is_stmt 0 discriminator 2
 930 0050 3B68     		ldr	r3, [r7]
 931 0052 FF2B     		cmp	r3, #255
 932 0054 10D9     		bls	.L39
 933              	.L38:
 934              		.loc 1 323 0 discriminator 3
 935 0056 3B68     		ldr	r3, [r7]
 936 0058 002B     		cmp	r3, #0
 937 005a 0DD0     		beq	.L39
 938              		.loc 1 323 0 discriminator 4
 939 005c 3B68     		ldr	r3, [r7]
 940 005e 022B     		cmp	r3, #2
 941 0060 0AD0     		beq	.L39
 942              		.loc 1 323 0 discriminator 5
 943 0062 3B68     		ldr	r3, [r7]
 944 0064 FF2B     		cmp	r3, #255
 945 0066 07D0     		beq	.L39
 946              		.loc 1 323 0 discriminator 6
 947 0068 4423     		movs	r3, #68
 948 006a FF33     		adds	r3, r3, #255
 949 006c 1A00     		movs	r2, r3
 950 006e 3D4B     		ldr	r3, .L47+8
 951 0070 1100     		movs	r1, r2
 952 0072 1800     		movs	r0, r3
 953 0074 FFF7FEFF 		bl	Cy_SysLib_AssertFailed
 954              	.L39:
 324:Generated_Source\PSoC6\pdl\drivers\peripheral\trigmux/cy_trigmux.c **** 
 325:Generated_Source\PSoC6\pdl\drivers\peripheral\trigmux/cy_trigmux.c ****     if (CY_TRIGGER_DEACTIVATE != cycles)
 955              		.loc 1 325 0 is_stmt 1
 956 0078 3B68     		ldr	r3, [r7]
 957 007a 002B     		cmp	r3, #0
 958 007c 52D0     		beq	.L40
 326:Generated_Source\PSoC6\pdl\drivers\peripheral\trigmux/cy_trigmux.c ****     {
 327:Generated_Source\PSoC6\pdl\drivers\peripheral\trigmux/cy_trigmux.c ****         /* Activate the trigger if it is not in the active state. */
 328:Generated_Source\PSoC6\pdl\drivers\peripheral\trigmux/cy_trigmux.c ****         if (PERI_TR_CMD_ACTIVATE_Msk != (PERI_TR_CMD & PERI_TR_CMD_ACTIVATE_Msk))
 959              		.loc 1 328 0
 960 007e 384B     		ldr	r3, .L47+4
 961 0080 1B68     		ldr	r3, [r3]
 962 0082 9A68     		ldr	r2, [r3, #8]
 963 0084 364B     		ldr	r3, .L47+4
 964 0086 1B68     		ldr	r3, [r3]
 965 0088 6821     		movs	r1, #104
 966 008a 5B5A     		ldrh	r3, [r3, r1]
 967 008c D318     		adds	r3, r2, r3
 968 008e 1B68     		ldr	r3, [r3]
ARM GAS  C:\Users\JC\AppData\Local\Temp\ccz6CrFf.s 			page 24


 969 0090 002B     		cmp	r3, #0
 970 0092 5EDB     		blt	.L45
 971              	.LBB6:
 329:Generated_Source\PSoC6\pdl\drivers\peripheral\trigmux/cy_trigmux.c ****         {
 330:Generated_Source\PSoC6\pdl\drivers\peripheral\trigmux/cy_trigmux.c **** 
 331:Generated_Source\PSoC6\pdl\drivers\peripheral\trigmux/cy_trigmux.c ****             uint32_t trCmd = (trigLine & (PERI_TR_CMD_TR_SEL_Msk |
 332:Generated_Source\PSoC6\pdl\drivers\peripheral\trigmux/cy_trigmux.c ****                                           PERI_TR_CMD_OUT_SEL_Msk |
 333:Generated_Source\PSoC6\pdl\drivers\peripheral\trigmux/cy_trigmux.c ****                                        CY_PERI_TR_CMD_GROUP_SEL_Msk)) |
 972              		.loc 1 333 0
 973 0094 324B     		ldr	r3, .L47+4
 974 0096 1B68     		ldr	r3, [r3]
 975 0098 6A22     		movs	r2, #106
 976 009a 9B5A     		ldrh	r3, [r3, r2]
 977 009c 1A00     		movs	r2, r3
 332:Generated_Source\PSoC6\pdl\drivers\peripheral\trigmux/cy_trigmux.c ****                                        CY_PERI_TR_CMD_GROUP_SEL_Msk)) |
 978              		.loc 1 332 0
 979 009e 324B     		ldr	r3, .L47+12
 980 00a0 1343     		orrs	r3, r2
 331:Generated_Source\PSoC6\pdl\drivers\peripheral\trigmux/cy_trigmux.c ****                                           PERI_TR_CMD_OUT_SEL_Msk |
 981              		.loc 1 331 0
 982 00a2 7A68     		ldr	r2, [r7, #4]
 983 00a4 1340     		ands	r3, r2
 984 00a6 8022     		movs	r2, #128
 985 00a8 1206     		lsls	r2, r2, #24
 986 00aa 1343     		orrs	r3, r2
 987 00ac BB60     		str	r3, [r7, #8]
 334:Generated_Source\PSoC6\pdl\drivers\peripheral\trigmux/cy_trigmux.c ****                                           PERI_TR_CMD_ACTIVATE_Msk;
 335:Generated_Source\PSoC6\pdl\drivers\peripheral\trigmux/cy_trigmux.c ****             
 336:Generated_Source\PSoC6\pdl\drivers\peripheral\trigmux/cy_trigmux.c ****             retVal = CY_TRIGMUX_SUCCESS;
 988              		.loc 1 336 0
 989 00ae 0023     		movs	r3, #0
 990 00b0 FB60     		str	r3, [r7, #12]
 337:Generated_Source\PSoC6\pdl\drivers\peripheral\trigmux/cy_trigmux.c ****             
 338:Generated_Source\PSoC6\pdl\drivers\peripheral\trigmux/cy_trigmux.c ****             if (CY_PERI_V1) /* mxperi_v1 */
 991              		.loc 1 338 0
 992 00b2 2B4B     		ldr	r3, .L47+4
 993 00b4 1B68     		ldr	r3, [r3]
 994 00b6 2F22     		movs	r2, #47
 995 00b8 9B5C     		ldrb	r3, [r3, r2]
 996 00ba 012B     		cmp	r3, #1
 997 00bc 10D1     		bne	.L42
 339:Generated_Source\PSoC6\pdl\drivers\peripheral\trigmux/cy_trigmux.c ****             {
 340:Generated_Source\PSoC6\pdl\drivers\peripheral\trigmux/cy_trigmux.c ****                 PERI_TR_CMD = trCmd | _VAL2FLD(PERI_TR_CMD_COUNT, cycles);
 998              		.loc 1 340 0
 999 00be 284B     		ldr	r3, .L47+4
 1000 00c0 1B68     		ldr	r3, [r3]
 1001 00c2 9A68     		ldr	r2, [r3, #8]
 1002 00c4 264B     		ldr	r3, .L47+4
 1003 00c6 1B68     		ldr	r3, [r3]
 1004 00c8 6821     		movs	r1, #104
 1005 00ca 5B5A     		ldrh	r3, [r3, r1]
 1006 00cc D318     		adds	r3, r2, r3
 1007 00ce 3A68     		ldr	r2, [r7]
 1008 00d0 1104     		lsls	r1, r2, #16
 1009 00d2 FF22     		movs	r2, #255
 1010 00d4 1204     		lsls	r2, r2, #16
 1011 00d6 1140     		ands	r1, r2
ARM GAS  C:\Users\JC\AppData\Local\Temp\ccz6CrFf.s 			page 25


 1012 00d8 BA68     		ldr	r2, [r7, #8]
 1013 00da 0A43     		orrs	r2, r1
 1014 00dc 1A60     		str	r2, [r3]
 1015 00de 38E0     		b	.L45
 1016              	.L42:
 341:Generated_Source\PSoC6\pdl\drivers\peripheral\trigmux/cy_trigmux.c ****             }
 342:Generated_Source\PSoC6\pdl\drivers\peripheral\trigmux/cy_trigmux.c ****             else if (CY_TRIGGER_TWO_CYCLES == cycles) /* mxperi_v2 or later, 2 cycles pulse */
 1017              		.loc 1 342 0
 1018 00e0 3B68     		ldr	r3, [r7]
 1019 00e2 022B     		cmp	r3, #2
 1020 00e4 0DD1     		bne	.L43
 343:Generated_Source\PSoC6\pdl\drivers\peripheral\trigmux/cy_trigmux.c ****             {
 344:Generated_Source\PSoC6\pdl\drivers\peripheral\trigmux/cy_trigmux.c ****                 PERI_TR_CMD = trCmd | PERI_V2_TR_CMD_TR_EDGE_Msk;
 1021              		.loc 1 344 0
 1022 00e6 1E4B     		ldr	r3, .L47+4
 1023 00e8 1B68     		ldr	r3, [r3]
 1024 00ea 9A68     		ldr	r2, [r3, #8]
 1025 00ec 1C4B     		ldr	r3, .L47+4
 1026 00ee 1B68     		ldr	r3, [r3]
 1027 00f0 6821     		movs	r1, #104
 1028 00f2 5B5A     		ldrh	r3, [r3, r1]
 1029 00f4 D318     		adds	r3, r2, r3
 1030 00f6 BA68     		ldr	r2, [r7, #8]
 1031 00f8 8021     		movs	r1, #128
 1032 00fa 8905     		lsls	r1, r1, #22
 1033 00fc 0A43     		orrs	r2, r1
 1034 00fe 1A60     		str	r2, [r3]
 1035 0100 27E0     		b	.L45
 1036              	.L43:
 345:Generated_Source\PSoC6\pdl\drivers\peripheral\trigmux/cy_trigmux.c ****             }
 346:Generated_Source\PSoC6\pdl\drivers\peripheral\trigmux/cy_trigmux.c ****             else if (CY_TRIGGER_INFINITE == cycles) /* mxperi_v2 or later, infinite activating */
 1037              		.loc 1 346 0
 1038 0102 3B68     		ldr	r3, [r7]
 1039 0104 FF2B     		cmp	r3, #255
 1040 0106 0AD1     		bne	.L44
 347:Generated_Source\PSoC6\pdl\drivers\peripheral\trigmux/cy_trigmux.c ****             {
 348:Generated_Source\PSoC6\pdl\drivers\peripheral\trigmux/cy_trigmux.c ****                 PERI_TR_CMD = trCmd;
 1041              		.loc 1 348 0
 1042 0108 154B     		ldr	r3, .L47+4
 1043 010a 1B68     		ldr	r3, [r3]
 1044 010c 9A68     		ldr	r2, [r3, #8]
 1045 010e 144B     		ldr	r3, .L47+4
 1046 0110 1B68     		ldr	r3, [r3]
 1047 0112 6821     		movs	r1, #104
 1048 0114 5B5A     		ldrh	r3, [r3, r1]
 1049 0116 D318     		adds	r3, r2, r3
 1050 0118 BA68     		ldr	r2, [r7, #8]
 1051 011a 1A60     		str	r2, [r3]
 1052 011c 19E0     		b	.L45
 1053              	.L44:
 349:Generated_Source\PSoC6\pdl\drivers\peripheral\trigmux/cy_trigmux.c ****             }
 350:Generated_Source\PSoC6\pdl\drivers\peripheral\trigmux/cy_trigmux.c ****             else /* mxperi_v2 or later, invalid cycles value */
 351:Generated_Source\PSoC6\pdl\drivers\peripheral\trigmux/cy_trigmux.c ****             {
 352:Generated_Source\PSoC6\pdl\drivers\peripheral\trigmux/cy_trigmux.c ****                 retVal = CY_TRIGMUX_BAD_PARAM;
 1054              		.loc 1 352 0
 1055 011e 134B     		ldr	r3, .L47+16
 1056 0120 FB60     		str	r3, [r7, #12]
ARM GAS  C:\Users\JC\AppData\Local\Temp\ccz6CrFf.s 			page 26


 1057 0122 16E0     		b	.L45
 1058              	.L40:
 1059              	.LBE6:
 353:Generated_Source\PSoC6\pdl\drivers\peripheral\trigmux/cy_trigmux.c ****             }
 354:Generated_Source\PSoC6\pdl\drivers\peripheral\trigmux/cy_trigmux.c ****         }
 355:Generated_Source\PSoC6\pdl\drivers\peripheral\trigmux/cy_trigmux.c ****     }
 356:Generated_Source\PSoC6\pdl\drivers\peripheral\trigmux/cy_trigmux.c ****     else
 357:Generated_Source\PSoC6\pdl\drivers\peripheral\trigmux/cy_trigmux.c ****     {
 358:Generated_Source\PSoC6\pdl\drivers\peripheral\trigmux/cy_trigmux.c ****         /* Forcibly deactivate the trigger if it is in the active state. */
 359:Generated_Source\PSoC6\pdl\drivers\peripheral\trigmux/cy_trigmux.c ****         if (PERI_TR_CMD_ACTIVATE_Msk == (PERI_TR_CMD & PERI_TR_CMD_ACTIVATE_Msk))
 1060              		.loc 1 359 0
 1061 0124 0E4B     		ldr	r3, .L47+4
 1062 0126 1B68     		ldr	r3, [r3]
 1063 0128 9A68     		ldr	r2, [r3, #8]
 1064 012a 0D4B     		ldr	r3, .L47+4
 1065 012c 1B68     		ldr	r3, [r3]
 1066 012e 6821     		movs	r1, #104
 1067 0130 5B5A     		ldrh	r3, [r3, r1]
 1068 0132 D318     		adds	r3, r2, r3
 1069 0134 1B68     		ldr	r3, [r3]
 1070 0136 002B     		cmp	r3, #0
 1071 0138 0BDA     		bge	.L45
 360:Generated_Source\PSoC6\pdl\drivers\peripheral\trigmux/cy_trigmux.c ****         {
 361:Generated_Source\PSoC6\pdl\drivers\peripheral\trigmux/cy_trigmux.c ****             PERI_TR_CMD = 0UL;
 1072              		.loc 1 361 0
 1073 013a 094B     		ldr	r3, .L47+4
 1074 013c 1B68     		ldr	r3, [r3]
 1075 013e 9A68     		ldr	r2, [r3, #8]
 1076 0140 074B     		ldr	r3, .L47+4
 1077 0142 1B68     		ldr	r3, [r3]
 1078 0144 6821     		movs	r1, #104
 1079 0146 5B5A     		ldrh	r3, [r3, r1]
 1080 0148 D318     		adds	r3, r2, r3
 1081 014a 0022     		movs	r2, #0
 1082 014c 1A60     		str	r2, [r3]
 362:Generated_Source\PSoC6\pdl\drivers\peripheral\trigmux/cy_trigmux.c **** 
 363:Generated_Source\PSoC6\pdl\drivers\peripheral\trigmux/cy_trigmux.c ****             retVal = CY_TRIGMUX_SUCCESS;
 1083              		.loc 1 363 0
 1084 014e 0023     		movs	r3, #0
 1085 0150 FB60     		str	r3, [r7, #12]
 1086              	.L45:
 364:Generated_Source\PSoC6\pdl\drivers\peripheral\trigmux/cy_trigmux.c ****         }
 365:Generated_Source\PSoC6\pdl\drivers\peripheral\trigmux/cy_trigmux.c ****     }
 366:Generated_Source\PSoC6\pdl\drivers\peripheral\trigmux/cy_trigmux.c **** 
 367:Generated_Source\PSoC6\pdl\drivers\peripheral\trigmux/cy_trigmux.c ****     return retVal;
 1087              		.loc 1 367 0
 1088 0152 FB68     		ldr	r3, [r7, #12]
 368:Generated_Source\PSoC6\pdl\drivers\peripheral\trigmux/cy_trigmux.c **** }
 1089              		.loc 1 368 0
 1090 0154 1800     		movs	r0, r3
 1091 0156 BD46     		mov	sp, r7
 1092 0158 04B0     		add	sp, sp, #16
 1093              		@ sp needed
 1094 015a 80BD     		pop	{r7, pc}
 1095              	.L48:
 1096              		.align	2
 1097              	.L47:
ARM GAS  C:\Users\JC\AppData\Local\Temp\ccz6CrFf.s 			page 27


 1098 015c 0200CE00 		.word	13500418
 1099 0160 00000000 		.word	cy_device
 1100 0164 00000000 		.word	.LC0
 1101 0168 FF000040 		.word	1073742079
 1102 016c 0100CE00 		.word	13500417
 1103              		.cfi_endproc
 1104              	.LFE49:
 1105              		.size	Cy_TrigMux_SwTrigger, .-Cy_TrigMux_SwTrigger
 1106              		.text
 1107              	.Letext0:
 1108              		.file 2 "c:\\program files (x86)\\cypress\\psoc creator\\4.4\\psoc creator\\import\\gnu\\arm\\5.4.
 1109              		.file 3 "c:\\program files (x86)\\cypress\\psoc creator\\4.4\\psoc creator\\import\\gnu\\arm\\5.4.
 1110              		.file 4 "Generated_Source\\PSoC6\\pdl\\drivers/peripheral/device/cy_device.h"
 1111              		.file 5 "Generated_Source\\PSoC6\\pdl\\devices/psoc6/include/psoc6_01_config.h"
 1112              		.file 6 "Generated_Source\\PSoC6\\pdl\\drivers/peripheral/syslib/cy_syslib.h"
 1113              		.file 7 "Generated_Source\\PSoC6\\pdl\\drivers\\peripheral\\trigmux\\cy_trigmux.h"