ARM GAS  C:\Users\JC\AppData\Local\Temp\ccer89K2.s 			page 1


   1              		.syntax unified
   2              		.cpu cortex-m0plus
   3              		.fpu softvfp
   4              		.eabi_attribute 20, 1
   5              		.eabi_attribute 21, 1
   6              		.eabi_attribute 23, 3
   7              		.eabi_attribute 24, 1
   8              		.eabi_attribute 25, 1
   9              		.eabi_attribute 26, 1
  10              		.eabi_attribute 30, 6
  11              		.eabi_attribute 34, 0
  12              		.eabi_attribute 18, 4
  13              		.thumb
  14              		.syntax unified
  15              		.file	"cy_wdt.c"
  16              		.text
  17              	.Ltext0:
  18              		.cfi_sections	.debug_frame
  19              		.section	.text.Cy_WDT_Disable,"ax",%progbits
  20              		.align	2
  21              		.code	16
  22              		.thumb_func
  23              		.type	Cy_WDT_Disable, %function
  24              	Cy_WDT_Disable:
  25              	.LFB44:
  26              		.file 1 "Generated_Source\\PSoC6\\pdl\\drivers\\peripheral\\wdt\\cy_wdt.h"
   1:Generated_Source\PSoC6\pdl\drivers\peripheral\wdt/cy_wdt.h **** /***************************************************************************//**
   2:Generated_Source\PSoC6\pdl\drivers\peripheral\wdt/cy_wdt.h **** * \file cy_wdt.h
   3:Generated_Source\PSoC6\pdl\drivers\peripheral\wdt/cy_wdt.h **** * \version 1.10
   4:Generated_Source\PSoC6\pdl\drivers\peripheral\wdt/cy_wdt.h **** *
   5:Generated_Source\PSoC6\pdl\drivers\peripheral\wdt/cy_wdt.h **** *  This file provides constants and parameter values for the WDT driver.
   6:Generated_Source\PSoC6\pdl\drivers\peripheral\wdt/cy_wdt.h **** *
   7:Generated_Source\PSoC6\pdl\drivers\peripheral\wdt/cy_wdt.h **** ********************************************************************************
   8:Generated_Source\PSoC6\pdl\drivers\peripheral\wdt/cy_wdt.h **** * \copyright
   9:Generated_Source\PSoC6\pdl\drivers\peripheral\wdt/cy_wdt.h **** * Copyright 2016-2018, Cypress Semiconductor Corporation.  All rights reserved.
  10:Generated_Source\PSoC6\pdl\drivers\peripheral\wdt/cy_wdt.h **** * You may use this file only in accordance with the license, terms, conditions,
  11:Generated_Source\PSoC6\pdl\drivers\peripheral\wdt/cy_wdt.h **** * disclaimers, and limitations in the end user license agreement accompanying
  12:Generated_Source\PSoC6\pdl\drivers\peripheral\wdt/cy_wdt.h **** * the software package with which this file was provided.
  13:Generated_Source\PSoC6\pdl\drivers\peripheral\wdt/cy_wdt.h **** *
  14:Generated_Source\PSoC6\pdl\drivers\peripheral\wdt/cy_wdt.h **** *******************************************************************************/
  15:Generated_Source\PSoC6\pdl\drivers\peripheral\wdt/cy_wdt.h **** 
  16:Generated_Source\PSoC6\pdl\drivers\peripheral\wdt/cy_wdt.h **** /**
  17:Generated_Source\PSoC6\pdl\drivers\peripheral\wdt/cy_wdt.h **** * \addtogroup group_wdt
  18:Generated_Source\PSoC6\pdl\drivers\peripheral\wdt/cy_wdt.h **** * \{
  19:Generated_Source\PSoC6\pdl\drivers\peripheral\wdt/cy_wdt.h **** *
  20:Generated_Source\PSoC6\pdl\drivers\peripheral\wdt/cy_wdt.h **** * The Watchdog timer (WDT) has a 16-bit free-running up-counter. 
  21:Generated_Source\PSoC6\pdl\drivers\peripheral\wdt/cy_wdt.h **** *
  22:Generated_Source\PSoC6\pdl\drivers\peripheral\wdt/cy_wdt.h **** * The functions and other declarations used in this driver are in cy_wdt.h. 
  23:Generated_Source\PSoC6\pdl\drivers\peripheral\wdt/cy_wdt.h **** * You can include cy_pdl.h (ModusToolbox only) to get access to all functions 
  24:Generated_Source\PSoC6\pdl\drivers\peripheral\wdt/cy_wdt.h **** * and declarations in the PDL. 
  25:Generated_Source\PSoC6\pdl\drivers\peripheral\wdt/cy_wdt.h **** *
  26:Generated_Source\PSoC6\pdl\drivers\peripheral\wdt/cy_wdt.h **** * The WDT can issue counter match interrupts, and a device reset if its interrupts are not 
  27:Generated_Source\PSoC6\pdl\drivers\peripheral\wdt/cy_wdt.h **** * handled. Use the Watchdog timer for two main purposes:
  28:Generated_Source\PSoC6\pdl\drivers\peripheral\wdt/cy_wdt.h **** *
  29:Generated_Source\PSoC6\pdl\drivers\peripheral\wdt/cy_wdt.h **** * The <b> First use case </b> is recovering from a CPU or firmware failure.
  30:Generated_Source\PSoC6\pdl\drivers\peripheral\wdt/cy_wdt.h **** * A timeout period is set up in the Watchdog timer, and if a timeout occurs, the
  31:Generated_Source\PSoC6\pdl\drivers\peripheral\wdt/cy_wdt.h **** * device is reset (WRES). <br>
ARM GAS  C:\Users\JC\AppData\Local\Temp\ccer89K2.s 			page 2


  32:Generated_Source\PSoC6\pdl\drivers\peripheral\wdt/cy_wdt.h **** * The <b>Second use case</b> is to generate periodic interrupts.
  33:Generated_Source\PSoC6\pdl\drivers\peripheral\wdt/cy_wdt.h **** * It is strongly recommended not to use the WDT for periodic interrupt
  34:Generated_Source\PSoC6\pdl\drivers\peripheral\wdt/cy_wdt.h **** * generation. However, if absolutely required, see information below.
  35:Generated_Source\PSoC6\pdl\drivers\peripheral\wdt/cy_wdt.h **** *
  36:Generated_Source\PSoC6\pdl\drivers\peripheral\wdt/cy_wdt.h **** * A "reset cause" register exists, and the firmware should check this register 
  37:Generated_Source\PSoC6\pdl\drivers\peripheral\wdt/cy_wdt.h **** * at a start-up. An appropriate action can be taken if a WRES reset is detected.
  38:Generated_Source\PSoC6\pdl\drivers\peripheral\wdt/cy_wdt.h **** *
  39:Generated_Source\PSoC6\pdl\drivers\peripheral\wdt/cy_wdt.h **** * The user's firmware periodically resets the timeout period (clears or "feeds" 
  40:Generated_Source\PSoC6\pdl\drivers\peripheral\wdt/cy_wdt.h **** * the watchdog) before a timeout occurs. If the firmware fails to do so, that is
  41:Generated_Source\PSoC6\pdl\drivers\peripheral\wdt/cy_wdt.h **** * considered to be a CPU crash or a firmware failure, and the reason for a 
  42:Generated_Source\PSoC6\pdl\drivers\peripheral\wdt/cy_wdt.h **** * device reset.
  43:Generated_Source\PSoC6\pdl\drivers\peripheral\wdt/cy_wdt.h **** * The WDT can generate an interrupt instead of a device reset. The Interrupt 
  44:Generated_Source\PSoC6\pdl\drivers\peripheral\wdt/cy_wdt.h **** * Service Routine (ISR) can handle the interrupt either as a periodic interrupt,
  45:Generated_Source\PSoC6\pdl\drivers\peripheral\wdt/cy_wdt.h **** * or as an early indication of a firmware failure and respond accordingly.
  46:Generated_Source\PSoC6\pdl\drivers\peripheral\wdt/cy_wdt.h **** * However, it is not recommended to use the WDT for periodic interrupt 
  47:Generated_Source\PSoC6\pdl\drivers\peripheral\wdt/cy_wdt.h **** * generation. The Multi-counter Watchdog Timers (MCWDT) can be used to generate 
  48:Generated_Source\PSoC6\pdl\drivers\peripheral\wdt/cy_wdt.h **** * periodic interrupts if such are presented in the device.
  49:Generated_Source\PSoC6\pdl\drivers\peripheral\wdt/cy_wdt.h **** *
  50:Generated_Source\PSoC6\pdl\drivers\peripheral\wdt/cy_wdt.h **** * <b> Functional Description </b>
  51:Generated_Source\PSoC6\pdl\drivers\peripheral\wdt/cy_wdt.h **** *
  52:Generated_Source\PSoC6\pdl\drivers\peripheral\wdt/cy_wdt.h **** * The WDT generates an interrupt when the count value in the counter equals the 
  53:Generated_Source\PSoC6\pdl\drivers\peripheral\wdt/cy_wdt.h **** * configured match value.
  54:Generated_Source\PSoC6\pdl\drivers\peripheral\wdt/cy_wdt.h **** *
  55:Generated_Source\PSoC6\pdl\drivers\peripheral\wdt/cy_wdt.h **** * Note that the counter is not reset on a match. In such case the WDT
  56:Generated_Source\PSoC6\pdl\drivers\peripheral\wdt/cy_wdt.h **** * reset period is:
  57:Generated_Source\PSoC6\pdl\drivers\peripheral\wdt/cy_wdt.h **** * WDT_Reset_Period = ILO_Period * (2*2^(16-IgnoreBits) + MatchValue);
  58:Generated_Source\PSoC6\pdl\drivers\peripheral\wdt/cy_wdt.h **** * When the counter reaches a match value, it generates an interrupt and then 
  59:Generated_Source\PSoC6\pdl\drivers\peripheral\wdt/cy_wdt.h **** * keeps counting up until it overflows and rolls back to zero and reaches the 
  60:Generated_Source\PSoC6\pdl\drivers\peripheral\wdt/cy_wdt.h **** * match value again, at which point another interrupt is generated.
  61:Generated_Source\PSoC6\pdl\drivers\peripheral\wdt/cy_wdt.h **** *
  62:Generated_Source\PSoC6\pdl\drivers\peripheral\wdt/cy_wdt.h **** * To use a WDT to generate a periodic interrupt, the match value should be 
  63:Generated_Source\PSoC6\pdl\drivers\peripheral\wdt/cy_wdt.h **** * incremented in the ISR. As a result, the next WDT interrupt is generated when 
  64:Generated_Source\PSoC6\pdl\drivers\peripheral\wdt/cy_wdt.h **** * the counter reaches a new match value.
  65:Generated_Source\PSoC6\pdl\drivers\peripheral\wdt/cy_wdt.h **** *
  66:Generated_Source\PSoC6\pdl\drivers\peripheral\wdt/cy_wdt.h **** * You can also reduce the entire WDT counter period by 
  67:Generated_Source\PSoC6\pdl\drivers\peripheral\wdt/cy_wdt.h **** * specifying the number of most significant bits that are ignored in the WDT 
  68:Generated_Source\PSoC6\pdl\drivers\peripheral\wdt/cy_wdt.h **** * counter. For example, if the Cy_WDT_SetIgnoreBits() function is called with
  69:Generated_Source\PSoC6\pdl\drivers\peripheral\wdt/cy_wdt.h **** * parameter 3, the WDT counter becomes a 13-bit free-running up-counter.
  70:Generated_Source\PSoC6\pdl\drivers\peripheral\wdt/cy_wdt.h **** *
  71:Generated_Source\PSoC6\pdl\drivers\peripheral\wdt/cy_wdt.h **** * <b> Power Modes </b> 
  72:Generated_Source\PSoC6\pdl\drivers\peripheral\wdt/cy_wdt.h **** *
  73:Generated_Source\PSoC6\pdl\drivers\peripheral\wdt/cy_wdt.h **** * WDT can operate in all possible low power modes. 
  74:Generated_Source\PSoC6\pdl\drivers\peripheral\wdt/cy_wdt.h **** * Operation during Hibernate mode is possible because the logic and 
  75:Generated_Source\PSoC6\pdl\drivers\peripheral\wdt/cy_wdt.h **** * high-voltage internal low oscillator (ILO) are supplied by the external 
  76:Generated_Source\PSoC6\pdl\drivers\peripheral\wdt/cy_wdt.h **** * high-voltage supply (Vddd). The WDT can be configured to wake the device from 
  77:Generated_Source\PSoC6\pdl\drivers\peripheral\wdt/cy_wdt.h **** * Hibernate mode.
  78:Generated_Source\PSoC6\pdl\drivers\peripheral\wdt/cy_wdt.h **** *
  79:Generated_Source\PSoC6\pdl\drivers\peripheral\wdt/cy_wdt.h **** * In CPU Active mode, an interrupt request from the WDT is sent to the 
  80:Generated_Source\PSoC6\pdl\drivers\peripheral\wdt/cy_wdt.h **** * CPU. In CPU Sleep, CPU Deep Sleep mode, the CPU subsystem 
  81:Generated_Source\PSoC6\pdl\drivers\peripheral\wdt/cy_wdt.h **** * is powered down, so the interrupt request from the WDT is sent directly to the
  82:Generated_Source\PSoC6\pdl\drivers\peripheral\wdt/cy_wdt.h **** * WakeUp Interrupt Controller (WIC) which will then wake up the CPU. The 
  83:Generated_Source\PSoC6\pdl\drivers\peripheral\wdt/cy_wdt.h **** * CPU then acknowledges the interrupt request and executes the ISR.
  84:Generated_Source\PSoC6\pdl\drivers\peripheral\wdt/cy_wdt.h **** *
  85:Generated_Source\PSoC6\pdl\drivers\peripheral\wdt/cy_wdt.h **** * <b> Clock Source </b>
  86:Generated_Source\PSoC6\pdl\drivers\peripheral\wdt/cy_wdt.h **** *
  87:Generated_Source\PSoC6\pdl\drivers\peripheral\wdt/cy_wdt.h **** * The WDT is clocked by the ILO. The WDT must be disabled before disabling 
  88:Generated_Source\PSoC6\pdl\drivers\peripheral\wdt/cy_wdt.h **** * the ILO. According to the device datasheet, the ILO accuracy is +/-30% over 
ARM GAS  C:\Users\JC\AppData\Local\Temp\ccer89K2.s 			page 3


  89:Generated_Source\PSoC6\pdl\drivers\peripheral\wdt/cy_wdt.h **** * voltage and temperature. This means that the timeout period may vary by 30% 
  90:Generated_Source\PSoC6\pdl\drivers\peripheral\wdt/cy_wdt.h **** * from the configured value. Appropriate margins should be added while 
  91:Generated_Source\PSoC6\pdl\drivers\peripheral\wdt/cy_wdt.h **** * configuring WDT intervals to make sure that unwanted device resets do not 
  92:Generated_Source\PSoC6\pdl\drivers\peripheral\wdt/cy_wdt.h **** * occur on some devices.
  93:Generated_Source\PSoC6\pdl\drivers\peripheral\wdt/cy_wdt.h **** * 
  94:Generated_Source\PSoC6\pdl\drivers\peripheral\wdt/cy_wdt.h **** * Refer to the device datasheet for more information on the oscillator accuracy.
  95:Generated_Source\PSoC6\pdl\drivers\peripheral\wdt/cy_wdt.h **** *
  96:Generated_Source\PSoC6\pdl\drivers\peripheral\wdt/cy_wdt.h **** * <b> Register Locking </b>
  97:Generated_Source\PSoC6\pdl\drivers\peripheral\wdt/cy_wdt.h **** *
  98:Generated_Source\PSoC6\pdl\drivers\peripheral\wdt/cy_wdt.h **** * You can prevent accidental corruption of the WDT configuration by calling 
  99:Generated_Source\PSoC6\pdl\drivers\peripheral\wdt/cy_wdt.h **** * the Cy_WDT_Lock() function. When the WDT is locked, any writing to the WDT_*, 
 100:Generated_Source\PSoC6\pdl\drivers\peripheral\wdt/cy_wdt.h **** * CLK_ILO_CONFIG, CLK_SELECT.LFCLK_SEL, and CLK_TRIM_ILO_CTL registers is 
 101:Generated_Source\PSoC6\pdl\drivers\peripheral\wdt/cy_wdt.h **** * ignored.
 102:Generated_Source\PSoC6\pdl\drivers\peripheral\wdt/cy_wdt.h **** * Call the Cy_WDT_Unlock() function to allow WDT registers modification.
 103:Generated_Source\PSoC6\pdl\drivers\peripheral\wdt/cy_wdt.h **** *
 104:Generated_Source\PSoC6\pdl\drivers\peripheral\wdt/cy_wdt.h **** * <b> Clearing WDT </b>
 105:Generated_Source\PSoC6\pdl\drivers\peripheral\wdt/cy_wdt.h **** *
 106:Generated_Source\PSoC6\pdl\drivers\peripheral\wdt/cy_wdt.h **** * The ILO clock is asynchronous to the SysClk. Therefore it generally 
 107:Generated_Source\PSoC6\pdl\drivers\peripheral\wdt/cy_wdt.h **** * takes three ILO cycles for WDT register changes to come into effect. It is 
 108:Generated_Source\PSoC6\pdl\drivers\peripheral\wdt/cy_wdt.h **** * important to remember that a WDT should be cleared at least four cycles 
 109:Generated_Source\PSoC6\pdl\drivers\peripheral\wdt/cy_wdt.h **** * (3 + 1 for sure) before a timeout occurs, especially when small 
 110:Generated_Source\PSoC6\pdl\drivers\peripheral\wdt/cy_wdt.h **** * match values / low-toggle bit numbers are used.
 111:Generated_Source\PSoC6\pdl\drivers\peripheral\wdt/cy_wdt.h **** *
 112:Generated_Source\PSoC6\pdl\drivers\peripheral\wdt/cy_wdt.h **** * \warning It may happen that a WDT reset can be generated 
 113:Generated_Source\PSoC6\pdl\drivers\peripheral\wdt/cy_wdt.h **** * faster than a device start-up. To prevent this, calculate the 
 114:Generated_Source\PSoC6\pdl\drivers\peripheral\wdt/cy_wdt.h **** * start-up time and WDT reset time. The WDT reset time should be always greater
 115:Generated_Source\PSoC6\pdl\drivers\peripheral\wdt/cy_wdt.h **** * than device start-up time.
 116:Generated_Source\PSoC6\pdl\drivers\peripheral\wdt/cy_wdt.h **** *
 117:Generated_Source\PSoC6\pdl\drivers\peripheral\wdt/cy_wdt.h **** * <b> Reset Detection </b> 
 118:Generated_Source\PSoC6\pdl\drivers\peripheral\wdt/cy_wdt.h **** *
 119:Generated_Source\PSoC6\pdl\drivers\peripheral\wdt/cy_wdt.h **** * Use the Cy_SysLib_GetResetReason() function to detect whether the WDT has 
 120:Generated_Source\PSoC6\pdl\drivers\peripheral\wdt/cy_wdt.h **** * triggered a device reset.
 121:Generated_Source\PSoC6\pdl\drivers\peripheral\wdt/cy_wdt.h **** *
 122:Generated_Source\PSoC6\pdl\drivers\peripheral\wdt/cy_wdt.h **** * <b> Interrupt Configuration </b>
 123:Generated_Source\PSoC6\pdl\drivers\peripheral\wdt/cy_wdt.h **** *
 124:Generated_Source\PSoC6\pdl\drivers\peripheral\wdt/cy_wdt.h **** * If the WDT is configured to generate an interrupt, pending 
 125:Generated_Source\PSoC6\pdl\drivers\peripheral\wdt/cy_wdt.h **** * interrupts must be cleared within the ISR (otherwise, the interrupt will be 
 126:Generated_Source\PSoC6\pdl\drivers\peripheral\wdt/cy_wdt.h **** * generated continuously).
 127:Generated_Source\PSoC6\pdl\drivers\peripheral\wdt/cy_wdt.h **** * A pending interrupt to the WDT block must be cleared by calling the 
 128:Generated_Source\PSoC6\pdl\drivers\peripheral\wdt/cy_wdt.h **** * Cy_WDT_ClearInterrupt() function. The call to the function will clear the 
 129:Generated_Source\PSoC6\pdl\drivers\peripheral\wdt/cy_wdt.h **** * unhandled WDT interrupt counter.
 130:Generated_Source\PSoC6\pdl\drivers\peripheral\wdt/cy_wdt.h **** *
 131:Generated_Source\PSoC6\pdl\drivers\peripheral\wdt/cy_wdt.h **** * Use the WDT ISR as a timer to trigger certain actions 
 132:Generated_Source\PSoC6\pdl\drivers\peripheral\wdt/cy_wdt.h **** * and to change a next WDT match value.
 133:Generated_Source\PSoC6\pdl\drivers\peripheral\wdt/cy_wdt.h **** *
 134:Generated_Source\PSoC6\pdl\drivers\peripheral\wdt/cy_wdt.h **** * Ensure that the interrupts from the WDT are passed to the CPU to avoid 
 135:Generated_Source\PSoC6\pdl\drivers\peripheral\wdt/cy_wdt.h **** * unregistered interrupts. Unregistered WDT interrupts result in a continuous 
 136:Generated_Source\PSoC6\pdl\drivers\peripheral\wdt/cy_wdt.h **** * device reset. To avoid this, call Cy_WDT_UnmaskInterrupt().
 137:Generated_Source\PSoC6\pdl\drivers\peripheral\wdt/cy_wdt.h **** * After that, call the WDT API functions for interrupt
 138:Generated_Source\PSoC6\pdl\drivers\peripheral\wdt/cy_wdt.h **** * handling/clearing.
 139:Generated_Source\PSoC6\pdl\drivers\peripheral\wdt/cy_wdt.h **** *
 140:Generated_Source\PSoC6\pdl\drivers\peripheral\wdt/cy_wdt.h **** * \section group_wdt_configuration Configuration Considerations
 141:Generated_Source\PSoC6\pdl\drivers\peripheral\wdt/cy_wdt.h **** *
 142:Generated_Source\PSoC6\pdl\drivers\peripheral\wdt/cy_wdt.h **** * To start the WDT, make sure that ILO is enabled.
 143:Generated_Source\PSoC6\pdl\drivers\peripheral\wdt/cy_wdt.h **** * After the ILO is enabled, ensure that the WDT is unlocked and disabled by 
 144:Generated_Source\PSoC6\pdl\drivers\peripheral\wdt/cy_wdt.h **** * calling the Cy_WDT_Unlock() and Cy_WDT_Disable() functions. Set the WDT match 
 145:Generated_Source\PSoC6\pdl\drivers\peripheral\wdt/cy_wdt.h **** * value by calling Cy_WDT_SetMatch() with the required match value. If needed, 
ARM GAS  C:\Users\JC\AppData\Local\Temp\ccer89K2.s 			page 4


 146:Generated_Source\PSoC6\pdl\drivers\peripheral\wdt/cy_wdt.h **** * set the ignore bits for reducing the WDT counter period by calling 
 147:Generated_Source\PSoC6\pdl\drivers\peripheral\wdt/cy_wdt.h **** * Cy_WDT_SetIgnoreBits() function. After the WDT configuration is set, 
 148:Generated_Source\PSoC6\pdl\drivers\peripheral\wdt/cy_wdt.h **** * call Cy_WDT_Enable().
 149:Generated_Source\PSoC6\pdl\drivers\peripheral\wdt/cy_wdt.h **** *
 150:Generated_Source\PSoC6\pdl\drivers\peripheral\wdt/cy_wdt.h **** * \note Enable a WDT if the power supply can produce
 151:Generated_Source\PSoC6\pdl\drivers\peripheral\wdt/cy_wdt.h **** * sudden brownout events that may compromise the CPU functionality. This 
 152:Generated_Source\PSoC6\pdl\drivers\peripheral\wdt/cy_wdt.h **** * ensures that the system can recover after a brownout.
 153:Generated_Source\PSoC6\pdl\drivers\peripheral\wdt/cy_wdt.h **** *
 154:Generated_Source\PSoC6\pdl\drivers\peripheral\wdt/cy_wdt.h **** * When the WDT is used to protect against system crashes, the 
 155:Generated_Source\PSoC6\pdl\drivers\peripheral\wdt/cy_wdt.h **** * WDT interrupt should be cleared by a portion of the code that is not directly 
 156:Generated_Source\PSoC6\pdl\drivers\peripheral\wdt/cy_wdt.h **** * associated with the WDT interrupt.
 157:Generated_Source\PSoC6\pdl\drivers\peripheral\wdt/cy_wdt.h **** * Otherwise, it is possible that the main firmware loop has crashed or is in an 
 158:Generated_Source\PSoC6\pdl\drivers\peripheral\wdt/cy_wdt.h **** * endless loop, but the WDT interrupt vector continues to operate and service 
 159:Generated_Source\PSoC6\pdl\drivers\peripheral\wdt/cy_wdt.h **** * the WDT. The user should:
 160:Generated_Source\PSoC6\pdl\drivers\peripheral\wdt/cy_wdt.h **** * * Feed the watchdog by clearing the interrupt bit regularly in the main body 
 161:Generated_Source\PSoC6\pdl\drivers\peripheral\wdt/cy_wdt.h **** * of the firmware code.
 162:Generated_Source\PSoC6\pdl\drivers\peripheral\wdt/cy_wdt.h **** *
 163:Generated_Source\PSoC6\pdl\drivers\peripheral\wdt/cy_wdt.h **** * * Guarantee that the interrupt is cleared at least once every WDT period.
 164:Generated_Source\PSoC6\pdl\drivers\peripheral\wdt/cy_wdt.h **** *
 165:Generated_Source\PSoC6\pdl\drivers\peripheral\wdt/cy_wdt.h **** * * Use the WDT ISR only as a timer to trigger certain actions and to change the
 166:Generated_Source\PSoC6\pdl\drivers\peripheral\wdt/cy_wdt.h **** * next match value.
 167:Generated_Source\PSoC6\pdl\drivers\peripheral\wdt/cy_wdt.h **** *
 168:Generated_Source\PSoC6\pdl\drivers\peripheral\wdt/cy_wdt.h **** * \section group_wdt_section_more_information More Information
 169:Generated_Source\PSoC6\pdl\drivers\peripheral\wdt/cy_wdt.h **** *
 170:Generated_Source\PSoC6\pdl\drivers\peripheral\wdt/cy_wdt.h **** * For more information on the WDT peripheral, refer to the technical reference
 171:Generated_Source\PSoC6\pdl\drivers\peripheral\wdt/cy_wdt.h **** * manual (TRM).
 172:Generated_Source\PSoC6\pdl\drivers\peripheral\wdt/cy_wdt.h **** *
 173:Generated_Source\PSoC6\pdl\drivers\peripheral\wdt/cy_wdt.h **** * \section group_wdt_MISRA MISRA-C Compliance
 174:Generated_Source\PSoC6\pdl\drivers\peripheral\wdt/cy_wdt.h **** * The WDT driver does not have any specific deviations.
 175:Generated_Source\PSoC6\pdl\drivers\peripheral\wdt/cy_wdt.h **** *
 176:Generated_Source\PSoC6\pdl\drivers\peripheral\wdt/cy_wdt.h **** * \section group_wdt_changelog Changelog
 177:Generated_Source\PSoC6\pdl\drivers\peripheral\wdt/cy_wdt.h **** * <table class="doxtable">
 178:Generated_Source\PSoC6\pdl\drivers\peripheral\wdt/cy_wdt.h **** *   <tr><th>Version</th><th>Changes</th><th>Reason for Change</th></tr>
 179:Generated_Source\PSoC6\pdl\drivers\peripheral\wdt/cy_wdt.h **** *   <tr>
 180:Generated_Source\PSoC6\pdl\drivers\peripheral\wdt/cy_wdt.h **** *     <td rowspan="4">1.10</td>
 181:Generated_Source\PSoC6\pdl\drivers\peripheral\wdt/cy_wdt.h **** *     <td>Flattened the organization of the driver source code into the single 
 182:Generated_Source\PSoC6\pdl\drivers\peripheral\wdt/cy_wdt.h **** *         source directory and the single include directory.
 183:Generated_Source\PSoC6\pdl\drivers\peripheral\wdt/cy_wdt.h **** *     </td>
 184:Generated_Source\PSoC6\pdl\drivers\peripheral\wdt/cy_wdt.h **** *     <td>Driver library directory-structure simplification.</td>
 185:Generated_Source\PSoC6\pdl\drivers\peripheral\wdt/cy_wdt.h **** *   </tr>
 186:Generated_Source\PSoC6\pdl\drivers\peripheral\wdt/cy_wdt.h **** *   <tr>
 187:Generated_Source\PSoC6\pdl\drivers\peripheral\wdt/cy_wdt.h **** *     <td> Removed critical section usage in the following functions:
 188:Generated_Source\PSoC6\pdl\drivers\peripheral\wdt/cy_wdt.h **** *           - \ref Cy_WDT_Init()
 189:Generated_Source\PSoC6\pdl\drivers\peripheral\wdt/cy_wdt.h **** *           - \ref Cy_WDT_Lock()
 190:Generated_Source\PSoC6\pdl\drivers\peripheral\wdt/cy_wdt.h **** *           - \ref Cy_WDT_Unlock()
 191:Generated_Source\PSoC6\pdl\drivers\peripheral\wdt/cy_wdt.h **** *     </td>
 192:Generated_Source\PSoC6\pdl\drivers\peripheral\wdt/cy_wdt.h **** *   <td>Driver functions simplification</td>
 193:Generated_Source\PSoC6\pdl\drivers\peripheral\wdt/cy_wdt.h **** *   </tr>
 194:Generated_Source\PSoC6\pdl\drivers\peripheral\wdt/cy_wdt.h **** *   <tr>
 195:Generated_Source\PSoC6\pdl\drivers\peripheral\wdt/cy_wdt.h **** *     <td>Updated the \ref Cy_WDT_Init(), \ref Cy_WDT_Enable() to clear WDT interrupt.</td>
 196:Generated_Source\PSoC6\pdl\drivers\peripheral\wdt/cy_wdt.h **** *     <td>Corner case reliability improvements</td>
 197:Generated_Source\PSoC6\pdl\drivers\peripheral\wdt/cy_wdt.h **** *   </tr>
 198:Generated_Source\PSoC6\pdl\drivers\peripheral\wdt/cy_wdt.h **** *   <tr>
 199:Generated_Source\PSoC6\pdl\drivers\peripheral\wdt/cy_wdt.h **** *     <td>Added register access layer. Use register access macros instead
 200:Generated_Source\PSoC6\pdl\drivers\peripheral\wdt/cy_wdt.h **** *         of direct register access using dereferenced pointers.</td>
 201:Generated_Source\PSoC6\pdl\drivers\peripheral\wdt/cy_wdt.h **** *     <td>Makes register access device-independent, so that the PDL does 
 202:Generated_Source\PSoC6\pdl\drivers\peripheral\wdt/cy_wdt.h **** *         not need to be recompiled for each supported part number.</td>
ARM GAS  C:\Users\JC\AppData\Local\Temp\ccer89K2.s 			page 5


 203:Generated_Source\PSoC6\pdl\drivers\peripheral\wdt/cy_wdt.h **** *   </tr>
 204:Generated_Source\PSoC6\pdl\drivers\peripheral\wdt/cy_wdt.h **** *   <tr>
 205:Generated_Source\PSoC6\pdl\drivers\peripheral\wdt/cy_wdt.h **** *     <td>1.0.2</td>
 206:Generated_Source\PSoC6\pdl\drivers\peripheral\wdt/cy_wdt.h **** *     <td>Minor documentation updates</td>
 207:Generated_Source\PSoC6\pdl\drivers\peripheral\wdt/cy_wdt.h **** *     <td>Corrected info about a reset generation</td>
 208:Generated_Source\PSoC6\pdl\drivers\peripheral\wdt/cy_wdt.h **** *   </tr>
 209:Generated_Source\PSoC6\pdl\drivers\peripheral\wdt/cy_wdt.h **** *   <tr>
 210:Generated_Source\PSoC6\pdl\drivers\peripheral\wdt/cy_wdt.h **** *     <td>1.0.1</td>
 211:Generated_Source\PSoC6\pdl\drivers\peripheral\wdt/cy_wdt.h **** *     <td>General documentation updates</td>
 212:Generated_Source\PSoC6\pdl\drivers\peripheral\wdt/cy_wdt.h **** *     <td>Added info about periodic interrupt generation use case</td>
 213:Generated_Source\PSoC6\pdl\drivers\peripheral\wdt/cy_wdt.h **** *   </tr>
 214:Generated_Source\PSoC6\pdl\drivers\peripheral\wdt/cy_wdt.h **** *   <tr>
 215:Generated_Source\PSoC6\pdl\drivers\peripheral\wdt/cy_wdt.h **** *     <td>1.0</td>
 216:Generated_Source\PSoC6\pdl\drivers\peripheral\wdt/cy_wdt.h **** *     <td>Initial version</td>
 217:Generated_Source\PSoC6\pdl\drivers\peripheral\wdt/cy_wdt.h **** *     <td></td>
 218:Generated_Source\PSoC6\pdl\drivers\peripheral\wdt/cy_wdt.h **** *   </tr>
 219:Generated_Source\PSoC6\pdl\drivers\peripheral\wdt/cy_wdt.h **** * </table>
 220:Generated_Source\PSoC6\pdl\drivers\peripheral\wdt/cy_wdt.h **** *
 221:Generated_Source\PSoC6\pdl\drivers\peripheral\wdt/cy_wdt.h **** * \defgroup group_wdt_macros Macros
 222:Generated_Source\PSoC6\pdl\drivers\peripheral\wdt/cy_wdt.h **** * \defgroup group_wdt_functions Functions
 223:Generated_Source\PSoC6\pdl\drivers\peripheral\wdt/cy_wdt.h **** *
 224:Generated_Source\PSoC6\pdl\drivers\peripheral\wdt/cy_wdt.h **** */
 225:Generated_Source\PSoC6\pdl\drivers\peripheral\wdt/cy_wdt.h **** 
 226:Generated_Source\PSoC6\pdl\drivers\peripheral\wdt/cy_wdt.h **** #if !defined(CY_WDT_H)
 227:Generated_Source\PSoC6\pdl\drivers\peripheral\wdt/cy_wdt.h **** #define CY_WDT_H
 228:Generated_Source\PSoC6\pdl\drivers\peripheral\wdt/cy_wdt.h **** 
 229:Generated_Source\PSoC6\pdl\drivers\peripheral\wdt/cy_wdt.h **** #include <stdint.h>
 230:Generated_Source\PSoC6\pdl\drivers\peripheral\wdt/cy_wdt.h **** #include <stdbool.h>
 231:Generated_Source\PSoC6\pdl\drivers\peripheral\wdt/cy_wdt.h **** #include "cy_device_headers.h"
 232:Generated_Source\PSoC6\pdl\drivers\peripheral\wdt/cy_wdt.h **** #include "cy_device.h"
 233:Generated_Source\PSoC6\pdl\drivers\peripheral\wdt/cy_wdt.h **** 
 234:Generated_Source\PSoC6\pdl\drivers\peripheral\wdt/cy_wdt.h **** #if defined(__cplusplus)
 235:Generated_Source\PSoC6\pdl\drivers\peripheral\wdt/cy_wdt.h **** extern "C" {
 236:Generated_Source\PSoC6\pdl\drivers\peripheral\wdt/cy_wdt.h **** #endif
 237:Generated_Source\PSoC6\pdl\drivers\peripheral\wdt/cy_wdt.h **** 
 238:Generated_Source\PSoC6\pdl\drivers\peripheral\wdt/cy_wdt.h **** 
 239:Generated_Source\PSoC6\pdl\drivers\peripheral\wdt/cy_wdt.h **** /*******************************************************************************
 240:Generated_Source\PSoC6\pdl\drivers\peripheral\wdt/cy_wdt.h **** *       Function Constants
 241:Generated_Source\PSoC6\pdl\drivers\peripheral\wdt/cy_wdt.h **** *******************************************************************************/
 242:Generated_Source\PSoC6\pdl\drivers\peripheral\wdt/cy_wdt.h **** 
 243:Generated_Source\PSoC6\pdl\drivers\peripheral\wdt/cy_wdt.h **** /**
 244:Generated_Source\PSoC6\pdl\drivers\peripheral\wdt/cy_wdt.h **** * \addtogroup group_wdt_macros
 245:Generated_Source\PSoC6\pdl\drivers\peripheral\wdt/cy_wdt.h **** * \{
 246:Generated_Source\PSoC6\pdl\drivers\peripheral\wdt/cy_wdt.h **** */
 247:Generated_Source\PSoC6\pdl\drivers\peripheral\wdt/cy_wdt.h **** 
 248:Generated_Source\PSoC6\pdl\drivers\peripheral\wdt/cy_wdt.h **** /** The driver major version */
 249:Generated_Source\PSoC6\pdl\drivers\peripheral\wdt/cy_wdt.h **** #define CY_WDT_DRV_VERSION_MAJOR                       1
 250:Generated_Source\PSoC6\pdl\drivers\peripheral\wdt/cy_wdt.h **** 
 251:Generated_Source\PSoC6\pdl\drivers\peripheral\wdt/cy_wdt.h **** /** The driver minor version */
 252:Generated_Source\PSoC6\pdl\drivers\peripheral\wdt/cy_wdt.h **** #define CY_WDT_DRV_VERSION_MINOR                       10
 253:Generated_Source\PSoC6\pdl\drivers\peripheral\wdt/cy_wdt.h **** 
 254:Generated_Source\PSoC6\pdl\drivers\peripheral\wdt/cy_wdt.h **** /** The internal define for the first iteration of WDT unlocking */
 255:Generated_Source\PSoC6\pdl\drivers\peripheral\wdt/cy_wdt.h **** #define CY_SRSS_WDT_LOCK_BIT0                           ((uint32_t)0x01U << 30U)
 256:Generated_Source\PSoC6\pdl\drivers\peripheral\wdt/cy_wdt.h **** 
 257:Generated_Source\PSoC6\pdl\drivers\peripheral\wdt/cy_wdt.h **** /** The internal define for the second iteration of WDT unlocking */
 258:Generated_Source\PSoC6\pdl\drivers\peripheral\wdt/cy_wdt.h **** #define CY_SRSS_WDT_LOCK_BIT1                           ((uint32_t)0x01U << 31U)
 259:Generated_Source\PSoC6\pdl\drivers\peripheral\wdt/cy_wdt.h **** 
ARM GAS  C:\Users\JC\AppData\Local\Temp\ccer89K2.s 			page 6


 260:Generated_Source\PSoC6\pdl\drivers\peripheral\wdt/cy_wdt.h **** /** The WDT default match value */
 261:Generated_Source\PSoC6\pdl\drivers\peripheral\wdt/cy_wdt.h **** #define CY_SRSS_WDT_DEFAULT_MATCH_VALUE                 ((uint32_t) 4096U)
 262:Generated_Source\PSoC6\pdl\drivers\peripheral\wdt/cy_wdt.h **** 
 263:Generated_Source\PSoC6\pdl\drivers\peripheral\wdt/cy_wdt.h **** /** The default match value of the WDT ignore bits */
 264:Generated_Source\PSoC6\pdl\drivers\peripheral\wdt/cy_wdt.h **** #define CY_SRSS_WDT_DEFAULT_IGNORE_BITS                 (0U)
 265:Generated_Source\PSoC6\pdl\drivers\peripheral\wdt/cy_wdt.h **** 
 266:Generated_Source\PSoC6\pdl\drivers\peripheral\wdt/cy_wdt.h **** /** The default match value of the WDT ignore bits */
 267:Generated_Source\PSoC6\pdl\drivers\peripheral\wdt/cy_wdt.h **** #define CY_SRSS_WDT_LOCK_BITS                           (3U)
 268:Generated_Source\PSoC6\pdl\drivers\peripheral\wdt/cy_wdt.h **** 
 269:Generated_Source\PSoC6\pdl\drivers\peripheral\wdt/cy_wdt.h **** /** The WDT driver identifier */
 270:Generated_Source\PSoC6\pdl\drivers\peripheral\wdt/cy_wdt.h **** #define CY_WDT_ID                                       CY_PDL_DRV_ID(0x34U)
 271:Generated_Source\PSoC6\pdl\drivers\peripheral\wdt/cy_wdt.h **** 
 272:Generated_Source\PSoC6\pdl\drivers\peripheral\wdt/cy_wdt.h **** /** \} group_wdt_macros */
 273:Generated_Source\PSoC6\pdl\drivers\peripheral\wdt/cy_wdt.h **** 
 274:Generated_Source\PSoC6\pdl\drivers\peripheral\wdt/cy_wdt.h **** /** \cond Internal */
 275:Generated_Source\PSoC6\pdl\drivers\peripheral\wdt/cy_wdt.h **** 
 276:Generated_Source\PSoC6\pdl\drivers\peripheral\wdt/cy_wdt.h **** /** The WDT maximum match value */
 277:Generated_Source\PSoC6\pdl\drivers\peripheral\wdt/cy_wdt.h **** #define WDT_MAX_MATCH_VALUE                      (0xFFFFuL)
 278:Generated_Source\PSoC6\pdl\drivers\peripheral\wdt/cy_wdt.h **** 
 279:Generated_Source\PSoC6\pdl\drivers\peripheral\wdt/cy_wdt.h **** /** The WDT maximum match value */
 280:Generated_Source\PSoC6\pdl\drivers\peripheral\wdt/cy_wdt.h **** #define WDT_MAX_IGNORE_BITS                      (0xFuL)
 281:Generated_Source\PSoC6\pdl\drivers\peripheral\wdt/cy_wdt.h **** 
 282:Generated_Source\PSoC6\pdl\drivers\peripheral\wdt/cy_wdt.h **** /* Internal macro to validate match value */
 283:Generated_Source\PSoC6\pdl\drivers\peripheral\wdt/cy_wdt.h **** #define CY_WDT_IS_MATCH_VAL_VALID(match)         ((match) <= WDT_MAX_MATCH_VALUE)
 284:Generated_Source\PSoC6\pdl\drivers\peripheral\wdt/cy_wdt.h **** 
 285:Generated_Source\PSoC6\pdl\drivers\peripheral\wdt/cy_wdt.h **** /* Internal macro to validate match value */
 286:Generated_Source\PSoC6\pdl\drivers\peripheral\wdt/cy_wdt.h **** #define CY_WDT_IS_IGNORE_BITS_VALID(bitsNum)     ((bitsNum) <= WDT_MAX_IGNORE_BITS)
 287:Generated_Source\PSoC6\pdl\drivers\peripheral\wdt/cy_wdt.h **** 
 288:Generated_Source\PSoC6\pdl\drivers\peripheral\wdt/cy_wdt.h **** /** \endcond */
 289:Generated_Source\PSoC6\pdl\drivers\peripheral\wdt/cy_wdt.h **** 
 290:Generated_Source\PSoC6\pdl\drivers\peripheral\wdt/cy_wdt.h **** 
 291:Generated_Source\PSoC6\pdl\drivers\peripheral\wdt/cy_wdt.h **** /*******************************************************************************
 292:Generated_Source\PSoC6\pdl\drivers\peripheral\wdt/cy_wdt.h **** *        Function Prototypes
 293:Generated_Source\PSoC6\pdl\drivers\peripheral\wdt/cy_wdt.h **** *******************************************************************************/
 294:Generated_Source\PSoC6\pdl\drivers\peripheral\wdt/cy_wdt.h **** /**
 295:Generated_Source\PSoC6\pdl\drivers\peripheral\wdt/cy_wdt.h **** * \addtogroup group_wdt_functions
 296:Generated_Source\PSoC6\pdl\drivers\peripheral\wdt/cy_wdt.h **** * @{
 297:Generated_Source\PSoC6\pdl\drivers\peripheral\wdt/cy_wdt.h **** */
 298:Generated_Source\PSoC6\pdl\drivers\peripheral\wdt/cy_wdt.h **** /* WDT API */
 299:Generated_Source\PSoC6\pdl\drivers\peripheral\wdt/cy_wdt.h **** void Cy_WDT_Init(void);
 300:Generated_Source\PSoC6\pdl\drivers\peripheral\wdt/cy_wdt.h **** __STATIC_INLINE void Cy_WDT_Enable(void);
 301:Generated_Source\PSoC6\pdl\drivers\peripheral\wdt/cy_wdt.h **** __STATIC_INLINE void Cy_WDT_Disable(void);
 302:Generated_Source\PSoC6\pdl\drivers\peripheral\wdt/cy_wdt.h **** void Cy_WDT_Lock(void);
 303:Generated_Source\PSoC6\pdl\drivers\peripheral\wdt/cy_wdt.h **** void Cy_WDT_Unlock(void);
 304:Generated_Source\PSoC6\pdl\drivers\peripheral\wdt/cy_wdt.h **** __STATIC_INLINE uint32_t Cy_WDT_GetCount(void);
 305:Generated_Source\PSoC6\pdl\drivers\peripheral\wdt/cy_wdt.h **** void Cy_WDT_SetMatch(uint32_t match);
 306:Generated_Source\PSoC6\pdl\drivers\peripheral\wdt/cy_wdt.h **** __STATIC_INLINE uint32_t Cy_WDT_GetMatch(void);
 307:Generated_Source\PSoC6\pdl\drivers\peripheral\wdt/cy_wdt.h **** void Cy_WDT_SetIgnoreBits(uint32_t bitsNum);
 308:Generated_Source\PSoC6\pdl\drivers\peripheral\wdt/cy_wdt.h **** __STATIC_INLINE uint32_t Cy_WDT_GetIgnoreBits(void);
 309:Generated_Source\PSoC6\pdl\drivers\peripheral\wdt/cy_wdt.h **** __STATIC_INLINE void Cy_WDT_MaskInterrupt(void);
 310:Generated_Source\PSoC6\pdl\drivers\peripheral\wdt/cy_wdt.h **** __STATIC_INLINE void Cy_WDT_UnmaskInterrupt(void);
 311:Generated_Source\PSoC6\pdl\drivers\peripheral\wdt/cy_wdt.h **** void Cy_WDT_ClearInterrupt(void);
 312:Generated_Source\PSoC6\pdl\drivers\peripheral\wdt/cy_wdt.h **** void Cy_WDT_ClearWatchdog(void);
 313:Generated_Source\PSoC6\pdl\drivers\peripheral\wdt/cy_wdt.h **** 
 314:Generated_Source\PSoC6\pdl\drivers\peripheral\wdt/cy_wdt.h **** 
 315:Generated_Source\PSoC6\pdl\drivers\peripheral\wdt/cy_wdt.h **** /*******************************************************************************
 316:Generated_Source\PSoC6\pdl\drivers\peripheral\wdt/cy_wdt.h **** * Function Name: Cy_WDT_Enable
ARM GAS  C:\Users\JC\AppData\Local\Temp\ccer89K2.s 			page 7


 317:Generated_Source\PSoC6\pdl\drivers\peripheral\wdt/cy_wdt.h **** ****************************************************************************//**
 318:Generated_Source\PSoC6\pdl\drivers\peripheral\wdt/cy_wdt.h **** *
 319:Generated_Source\PSoC6\pdl\drivers\peripheral\wdt/cy_wdt.h **** * Enables the Watchdog timer.
 320:Generated_Source\PSoC6\pdl\drivers\peripheral\wdt/cy_wdt.h **** *
 321:Generated_Source\PSoC6\pdl\drivers\peripheral\wdt/cy_wdt.h **** * \sideeffect
 322:Generated_Source\PSoC6\pdl\drivers\peripheral\wdt/cy_wdt.h **** * This function clears the WDT interrupt.
 323:Generated_Source\PSoC6\pdl\drivers\peripheral\wdt/cy_wdt.h **** *
 324:Generated_Source\PSoC6\pdl\drivers\peripheral\wdt/cy_wdt.h **** *******************************************************************************/
 325:Generated_Source\PSoC6\pdl\drivers\peripheral\wdt/cy_wdt.h **** __STATIC_INLINE void Cy_WDT_Enable(void)
 326:Generated_Source\PSoC6\pdl\drivers\peripheral\wdt/cy_wdt.h **** {
 327:Generated_Source\PSoC6\pdl\drivers\peripheral\wdt/cy_wdt.h ****     SRSS_WDT_CTL |= _VAL2FLD(SRSS_WDT_CTL_WDT_EN, 1U);
 328:Generated_Source\PSoC6\pdl\drivers\peripheral\wdt/cy_wdt.h ****     Cy_WDT_ClearInterrupt();
 329:Generated_Source\PSoC6\pdl\drivers\peripheral\wdt/cy_wdt.h **** }
 330:Generated_Source\PSoC6\pdl\drivers\peripheral\wdt/cy_wdt.h **** 
 331:Generated_Source\PSoC6\pdl\drivers\peripheral\wdt/cy_wdt.h **** 
 332:Generated_Source\PSoC6\pdl\drivers\peripheral\wdt/cy_wdt.h **** /*******************************************************************************
 333:Generated_Source\PSoC6\pdl\drivers\peripheral\wdt/cy_wdt.h **** * Function Name: Cy_WDT_Disable
 334:Generated_Source\PSoC6\pdl\drivers\peripheral\wdt/cy_wdt.h **** ****************************************************************************//**
 335:Generated_Source\PSoC6\pdl\drivers\peripheral\wdt/cy_wdt.h **** *
 336:Generated_Source\PSoC6\pdl\drivers\peripheral\wdt/cy_wdt.h **** * Disables the Watchdog timer. The Watchdog timer should be unlocked before being
 337:Generated_Source\PSoC6\pdl\drivers\peripheral\wdt/cy_wdt.h **** * disabled. Call the Cy_WDT_Unlock() API to unlock the WDT.
 338:Generated_Source\PSoC6\pdl\drivers\peripheral\wdt/cy_wdt.h **** *
 339:Generated_Source\PSoC6\pdl\drivers\peripheral\wdt/cy_wdt.h **** *******************************************************************************/
 340:Generated_Source\PSoC6\pdl\drivers\peripheral\wdt/cy_wdt.h **** __STATIC_INLINE void Cy_WDT_Disable(void)
 341:Generated_Source\PSoC6\pdl\drivers\peripheral\wdt/cy_wdt.h **** {
  27              		.loc 1 341 0
  28              		.cfi_startproc
  29              		@ args = 0, pretend = 0, frame = 0
  30              		@ frame_needed = 1, uses_anonymous_args = 0
  31 0000 80B5     		push	{r7, lr}
  32              		.cfi_def_cfa_offset 8
  33              		.cfi_offset 7, -8
  34              		.cfi_offset 14, -4
  35 0002 00AF     		add	r7, sp, #0
  36              		.cfi_def_cfa_register 7
 342:Generated_Source\PSoC6\pdl\drivers\peripheral\wdt/cy_wdt.h ****     SRSS_WDT_CTL &= ((uint32_t) ~(_VAL2FLD(SRSS_WDT_CTL_WDT_EN, 1U)));
  37              		.loc 1 342 0
  38 0004 0649     		ldr	r1, .L2
  39 0006 064A     		ldr	r2, .L2
  40 0008 C023     		movs	r3, #192
  41 000a 5B00     		lsls	r3, r3, #1
  42 000c D358     		ldr	r3, [r2, r3]
  43 000e 0122     		movs	r2, #1
  44 0010 9343     		bics	r3, r2
  45 0012 1A00     		movs	r2, r3
  46 0014 C023     		movs	r3, #192
  47 0016 5B00     		lsls	r3, r3, #1
  48 0018 CA50     		str	r2, [r1, r3]
 343:Generated_Source\PSoC6\pdl\drivers\peripheral\wdt/cy_wdt.h **** }
  49              		.loc 1 343 0
  50 001a C046     		nop
  51 001c BD46     		mov	sp, r7
  52              		@ sp needed
  53 001e 80BD     		pop	{r7, pc}
  54              	.L3:
  55              		.align	2
  56              	.L2:
ARM GAS  C:\Users\JC\AppData\Local\Temp\ccer89K2.s 			page 8


  57 0020 00002640 		.word	1076232192
  58              		.cfi_endproc
  59              	.LFE44:
  60              		.size	Cy_WDT_Disable, .-Cy_WDT_Disable
  61              		.section	.text.Cy_WDT_Init,"ax",%progbits
  62              		.align	2
  63              		.global	Cy_WDT_Init
  64              		.code	16
  65              		.thumb_func
  66              		.type	Cy_WDT_Init, %function
  67              	Cy_WDT_Init:
  68              	.LFB52:
  69              		.file 2 "Generated_Source\\PSoC6\\pdl\\drivers\\peripheral\\wdt\\cy_wdt.c"
   1:Generated_Source\PSoC6\pdl\drivers\peripheral\wdt/cy_wdt.c **** /***************************************************************************//**
   2:Generated_Source\PSoC6\pdl\drivers\peripheral\wdt/cy_wdt.c **** * \file cy_wdt.c
   3:Generated_Source\PSoC6\pdl\drivers\peripheral\wdt/cy_wdt.c **** * \version 1.10
   4:Generated_Source\PSoC6\pdl\drivers\peripheral\wdt/cy_wdt.c **** *
   5:Generated_Source\PSoC6\pdl\drivers\peripheral\wdt/cy_wdt.c **** *  This file provides the source code to the API for the WDT driver.
   6:Generated_Source\PSoC6\pdl\drivers\peripheral\wdt/cy_wdt.c **** *
   7:Generated_Source\PSoC6\pdl\drivers\peripheral\wdt/cy_wdt.c **** ********************************************************************************
   8:Generated_Source\PSoC6\pdl\drivers\peripheral\wdt/cy_wdt.c **** * \copyright
   9:Generated_Source\PSoC6\pdl\drivers\peripheral\wdt/cy_wdt.c **** * Copyright 2016-2018, Cypress Semiconductor Corporation. All rights reserved.
  10:Generated_Source\PSoC6\pdl\drivers\peripheral\wdt/cy_wdt.c **** * You may use this file only in accordance with the license, terms, conditions,
  11:Generated_Source\PSoC6\pdl\drivers\peripheral\wdt/cy_wdt.c **** * disclaimers, and limitations in the end user license agreement accompanying
  12:Generated_Source\PSoC6\pdl\drivers\peripheral\wdt/cy_wdt.c **** * the software package with which this file was provided.
  13:Generated_Source\PSoC6\pdl\drivers\peripheral\wdt/cy_wdt.c **** *******************************************************************************/
  14:Generated_Source\PSoC6\pdl\drivers\peripheral\wdt/cy_wdt.c **** 
  15:Generated_Source\PSoC6\pdl\drivers\peripheral\wdt/cy_wdt.c **** #include "cy_wdt.h"
  16:Generated_Source\PSoC6\pdl\drivers\peripheral\wdt/cy_wdt.c **** #include "cy_syslib.h"
  17:Generated_Source\PSoC6\pdl\drivers\peripheral\wdt/cy_wdt.c **** 
  18:Generated_Source\PSoC6\pdl\drivers\peripheral\wdt/cy_wdt.c **** #if defined(__cplusplus)
  19:Generated_Source\PSoC6\pdl\drivers\peripheral\wdt/cy_wdt.c **** extern "C" {
  20:Generated_Source\PSoC6\pdl\drivers\peripheral\wdt/cy_wdt.c **** #endif
  21:Generated_Source\PSoC6\pdl\drivers\peripheral\wdt/cy_wdt.c **** 
  22:Generated_Source\PSoC6\pdl\drivers\peripheral\wdt/cy_wdt.c **** static bool Cy_WDT_Locked(void);
  23:Generated_Source\PSoC6\pdl\drivers\peripheral\wdt/cy_wdt.c **** 
  24:Generated_Source\PSoC6\pdl\drivers\peripheral\wdt/cy_wdt.c **** 
  25:Generated_Source\PSoC6\pdl\drivers\peripheral\wdt/cy_wdt.c **** /*******************************************************************************
  26:Generated_Source\PSoC6\pdl\drivers\peripheral\wdt/cy_wdt.c **** * Function Name: Cy_WDT_Init
  27:Generated_Source\PSoC6\pdl\drivers\peripheral\wdt/cy_wdt.c **** ****************************************************************************//**
  28:Generated_Source\PSoC6\pdl\drivers\peripheral\wdt/cy_wdt.c **** *
  29:Generated_Source\PSoC6\pdl\drivers\peripheral\wdt/cy_wdt.c **** * Initializes the Watchdog timer to its default state.
  30:Generated_Source\PSoC6\pdl\drivers\peripheral\wdt/cy_wdt.c **** *
  31:Generated_Source\PSoC6\pdl\drivers\peripheral\wdt/cy_wdt.c **** * The given default setting of the WDT:
  32:Generated_Source\PSoC6\pdl\drivers\peripheral\wdt/cy_wdt.c **** * The WDT is unlocked and disabled.
  33:Generated_Source\PSoC6\pdl\drivers\peripheral\wdt/cy_wdt.c **** * The WDT match value is 4096.
  34:Generated_Source\PSoC6\pdl\drivers\peripheral\wdt/cy_wdt.c **** * None of ignore bits are set: the whole WDT counter bits are checked against 
  35:Generated_Source\PSoC6\pdl\drivers\peripheral\wdt/cy_wdt.c **** * the match value.
  36:Generated_Source\PSoC6\pdl\drivers\peripheral\wdt/cy_wdt.c **** *
  37:Generated_Source\PSoC6\pdl\drivers\peripheral\wdt/cy_wdt.c **** * \sideeffect
  38:Generated_Source\PSoC6\pdl\drivers\peripheral\wdt/cy_wdt.c **** * This function clears the WDT interrupt.
  39:Generated_Source\PSoC6\pdl\drivers\peripheral\wdt/cy_wdt.c **** *
  40:Generated_Source\PSoC6\pdl\drivers\peripheral\wdt/cy_wdt.c **** *******************************************************************************/
  41:Generated_Source\PSoC6\pdl\drivers\peripheral\wdt/cy_wdt.c **** void Cy_WDT_Init(void)
  42:Generated_Source\PSoC6\pdl\drivers\peripheral\wdt/cy_wdt.c **** {
  70              		.loc 2 42 0
  71              		.cfi_startproc
ARM GAS  C:\Users\JC\AppData\Local\Temp\ccer89K2.s 			page 9


  72              		@ args = 0, pretend = 0, frame = 0
  73              		@ frame_needed = 1, uses_anonymous_args = 0
  74 0000 80B5     		push	{r7, lr}
  75              		.cfi_def_cfa_offset 8
  76              		.cfi_offset 7, -8
  77              		.cfi_offset 14, -4
  78 0002 00AF     		add	r7, sp, #0
  79              		.cfi_def_cfa_register 7
  43:Generated_Source\PSoC6\pdl\drivers\peripheral\wdt/cy_wdt.c ****     /* Unlock the WDT by two writes */
  44:Generated_Source\PSoC6\pdl\drivers\peripheral\wdt/cy_wdt.c ****     SRSS_WDT_CTL = ((SRSS_WDT_CTL & (uint32_t)(~SRSS_WDT_CTL_WDT_LOCK_Msk)) | CY_SRSS_WDT_LOCK_BIT0
  80              		.loc 2 44 0
  81 0004 1349     		ldr	r1, .L5
  82 0006 134A     		ldr	r2, .L5
  83 0008 C023     		movs	r3, #192
  84 000a 5B00     		lsls	r3, r3, #1
  85 000c D358     		ldr	r3, [r2, r3]
  86 000e 9B00     		lsls	r3, r3, #2
  87 0010 9B08     		lsrs	r3, r3, #2
  88 0012 8022     		movs	r2, #128
  89 0014 D205     		lsls	r2, r2, #23
  90 0016 1A43     		orrs	r2, r3
  91 0018 C023     		movs	r3, #192
  92 001a 5B00     		lsls	r3, r3, #1
  93 001c CA50     		str	r2, [r1, r3]
  45:Generated_Source\PSoC6\pdl\drivers\peripheral\wdt/cy_wdt.c ****     SRSS_WDT_CTL |= CY_SRSS_WDT_LOCK_BIT1;
  94              		.loc 2 45 0
  95 001e 0D49     		ldr	r1, .L5
  96 0020 0C4A     		ldr	r2, .L5
  97 0022 C023     		movs	r3, #192
  98 0024 5B00     		lsls	r3, r3, #1
  99 0026 D358     		ldr	r3, [r2, r3]
 100 0028 8022     		movs	r2, #128
 101 002a 1206     		lsls	r2, r2, #24
 102 002c 1A43     		orrs	r2, r3
 103 002e C023     		movs	r3, #192
 104 0030 5B00     		lsls	r3, r3, #1
 105 0032 CA50     		str	r2, [r1, r3]
  46:Generated_Source\PSoC6\pdl\drivers\peripheral\wdt/cy_wdt.c **** 
  47:Generated_Source\PSoC6\pdl\drivers\peripheral\wdt/cy_wdt.c ****     Cy_WDT_Disable();
 106              		.loc 2 47 0
 107 0034 FFF7FEFF 		bl	Cy_WDT_Disable
  48:Generated_Source\PSoC6\pdl\drivers\peripheral\wdt/cy_wdt.c ****     Cy_WDT_SetMatch(CY_SRSS_WDT_DEFAULT_MATCH_VALUE);
 108              		.loc 2 48 0
 109 0038 8023     		movs	r3, #128
 110 003a 5B01     		lsls	r3, r3, #5
 111 003c 1800     		movs	r0, r3
 112 003e FFF7FEFF 		bl	Cy_WDT_SetMatch
  49:Generated_Source\PSoC6\pdl\drivers\peripheral\wdt/cy_wdt.c ****     Cy_WDT_SetIgnoreBits(CY_SRSS_WDT_DEFAULT_IGNORE_BITS);
 113              		.loc 2 49 0
 114 0042 0020     		movs	r0, #0
 115 0044 FFF7FEFF 		bl	Cy_WDT_SetIgnoreBits
  50:Generated_Source\PSoC6\pdl\drivers\peripheral\wdt/cy_wdt.c ****     Cy_WDT_ClearInterrupt();
 116              		.loc 2 50 0
 117 0048 FFF7FEFF 		bl	Cy_WDT_ClearInterrupt
  51:Generated_Source\PSoC6\pdl\drivers\peripheral\wdt/cy_wdt.c **** }
 118              		.loc 2 51 0
 119 004c C046     		nop
ARM GAS  C:\Users\JC\AppData\Local\Temp\ccer89K2.s 			page 10


 120 004e BD46     		mov	sp, r7
 121              		@ sp needed
 122 0050 80BD     		pop	{r7, pc}
 123              	.L6:
 124 0052 C046     		.align	2
 125              	.L5:
 126 0054 00002640 		.word	1076232192
 127              		.cfi_endproc
 128              	.LFE52:
 129              		.size	Cy_WDT_Init, .-Cy_WDT_Init
 130              		.section	.text.Cy_WDT_Lock,"ax",%progbits
 131              		.align	2
 132              		.global	Cy_WDT_Lock
 133              		.code	16
 134              		.thumb_func
 135              		.type	Cy_WDT_Lock, %function
 136              	Cy_WDT_Lock:
 137              	.LFB53:
  52:Generated_Source\PSoC6\pdl\drivers\peripheral\wdt/cy_wdt.c **** 
  53:Generated_Source\PSoC6\pdl\drivers\peripheral\wdt/cy_wdt.c **** 
  54:Generated_Source\PSoC6\pdl\drivers\peripheral\wdt/cy_wdt.c **** /*******************************************************************************
  55:Generated_Source\PSoC6\pdl\drivers\peripheral\wdt/cy_wdt.c **** * Function Name: Cy_WDT_Lock
  56:Generated_Source\PSoC6\pdl\drivers\peripheral\wdt/cy_wdt.c **** ****************************************************************************//**
  57:Generated_Source\PSoC6\pdl\drivers\peripheral\wdt/cy_wdt.c **** *
  58:Generated_Source\PSoC6\pdl\drivers\peripheral\wdt/cy_wdt.c **** * Locks out configuration changes to the Watchdog Timer register.
  59:Generated_Source\PSoC6\pdl\drivers\peripheral\wdt/cy_wdt.c **** *
  60:Generated_Source\PSoC6\pdl\drivers\peripheral\wdt/cy_wdt.c **** * After this function is called, the WDT configuration cannot be changed until 
  61:Generated_Source\PSoC6\pdl\drivers\peripheral\wdt/cy_wdt.c **** * Cy_WDT_Unlock() is called.
  62:Generated_Source\PSoC6\pdl\drivers\peripheral\wdt/cy_wdt.c **** *
  63:Generated_Source\PSoC6\pdl\drivers\peripheral\wdt/cy_wdt.c **** *******************************************************************************/
  64:Generated_Source\PSoC6\pdl\drivers\peripheral\wdt/cy_wdt.c **** void Cy_WDT_Lock(void)
  65:Generated_Source\PSoC6\pdl\drivers\peripheral\wdt/cy_wdt.c **** {
 138              		.loc 2 65 0
 139              		.cfi_startproc
 140              		@ args = 0, pretend = 0, frame = 0
 141              		@ frame_needed = 1, uses_anonymous_args = 0
 142 0000 80B5     		push	{r7, lr}
 143              		.cfi_def_cfa_offset 8
 144              		.cfi_offset 7, -8
 145              		.cfi_offset 14, -4
 146 0002 00AF     		add	r7, sp, #0
 147              		.cfi_def_cfa_register 7
  66:Generated_Source\PSoC6\pdl\drivers\peripheral\wdt/cy_wdt.c ****     SRSS_WDT_CTL |= _VAL2FLD(SRSS_WDT_CTL_WDT_LOCK, CY_SRSS_WDT_LOCK_BITS);
 148              		.loc 2 66 0
 149 0004 0649     		ldr	r1, .L8
 150 0006 064A     		ldr	r2, .L8
 151 0008 C023     		movs	r3, #192
 152 000a 5B00     		lsls	r3, r3, #1
 153 000c D358     		ldr	r3, [r2, r3]
 154 000e C022     		movs	r2, #192
 155 0010 1206     		lsls	r2, r2, #24
 156 0012 1A43     		orrs	r2, r3
 157 0014 C023     		movs	r3, #192
 158 0016 5B00     		lsls	r3, r3, #1
 159 0018 CA50     		str	r2, [r1, r3]
  67:Generated_Source\PSoC6\pdl\drivers\peripheral\wdt/cy_wdt.c **** }
 160              		.loc 2 67 0
ARM GAS  C:\Users\JC\AppData\Local\Temp\ccer89K2.s 			page 11


 161 001a C046     		nop
 162 001c BD46     		mov	sp, r7
 163              		@ sp needed
 164 001e 80BD     		pop	{r7, pc}
 165              	.L9:
 166              		.align	2
 167              	.L8:
 168 0020 00002640 		.word	1076232192
 169              		.cfi_endproc
 170              	.LFE53:
 171              		.size	Cy_WDT_Lock, .-Cy_WDT_Lock
 172              		.section	.text.Cy_WDT_Locked,"ax",%progbits
 173              		.align	2
 174              		.code	16
 175              		.thumb_func
 176              		.type	Cy_WDT_Locked, %function
 177              	Cy_WDT_Locked:
 178              	.LFB54:
  68:Generated_Source\PSoC6\pdl\drivers\peripheral\wdt/cy_wdt.c **** 
  69:Generated_Source\PSoC6\pdl\drivers\peripheral\wdt/cy_wdt.c **** 
  70:Generated_Source\PSoC6\pdl\drivers\peripheral\wdt/cy_wdt.c **** /*******************************************************************************
  71:Generated_Source\PSoC6\pdl\drivers\peripheral\wdt/cy_wdt.c **** * Function Name: Cy_WDT_Locked
  72:Generated_Source\PSoC6\pdl\drivers\peripheral\wdt/cy_wdt.c **** ****************************************************************************//**
  73:Generated_Source\PSoC6\pdl\drivers\peripheral\wdt/cy_wdt.c **** * 
  74:Generated_Source\PSoC6\pdl\drivers\peripheral\wdt/cy_wdt.c **** * Internal function that returns the WDT lock state.
  75:Generated_Source\PSoC6\pdl\drivers\peripheral\wdt/cy_wdt.c **** *
  76:Generated_Source\PSoC6\pdl\drivers\peripheral\wdt/cy_wdt.c **** * \return
  77:Generated_Source\PSoC6\pdl\drivers\peripheral\wdt/cy_wdt.c **** * True - if WDT is locked.
  78:Generated_Source\PSoC6\pdl\drivers\peripheral\wdt/cy_wdt.c **** * False - if WDT is unlocked.
  79:Generated_Source\PSoC6\pdl\drivers\peripheral\wdt/cy_wdt.c **** * 
  80:Generated_Source\PSoC6\pdl\drivers\peripheral\wdt/cy_wdt.c **** *******************************************************************************/
  81:Generated_Source\PSoC6\pdl\drivers\peripheral\wdt/cy_wdt.c **** static bool Cy_WDT_Locked(void)
  82:Generated_Source\PSoC6\pdl\drivers\peripheral\wdt/cy_wdt.c **** {
 179              		.loc 2 82 0
 180              		.cfi_startproc
 181              		@ args = 0, pretend = 0, frame = 0
 182              		@ frame_needed = 1, uses_anonymous_args = 0
 183 0000 80B5     		push	{r7, lr}
 184              		.cfi_def_cfa_offset 8
 185              		.cfi_offset 7, -8
 186              		.cfi_offset 14, -4
 187 0002 00AF     		add	r7, sp, #0
 188              		.cfi_def_cfa_register 7
  83:Generated_Source\PSoC6\pdl\drivers\peripheral\wdt/cy_wdt.c ****     /* Prohibits writing to the WDT registers and other CLK_LF */
  84:Generated_Source\PSoC6\pdl\drivers\peripheral\wdt/cy_wdt.c ****     return (0u != _FLD2VAL(SRSS_WDT_CTL_WDT_LOCK, SRSS_WDT_CTL));
 189              		.loc 2 84 0
 190 0004 064A     		ldr	r2, .L12
 191 0006 C023     		movs	r3, #192
 192 0008 5B00     		lsls	r3, r3, #1
 193 000a D358     		ldr	r3, [r2, r3]
 194 000c 9B0F     		lsrs	r3, r3, #30
 195 000e 9B07     		lsls	r3, r3, #30
 196 0010 9B0F     		lsrs	r3, r3, #30
 197 0012 5A1E     		subs	r2, r3, #1
 198 0014 9341     		sbcs	r3, r3, r2
 199 0016 DBB2     		uxtb	r3, r3
  85:Generated_Source\PSoC6\pdl\drivers\peripheral\wdt/cy_wdt.c **** }
ARM GAS  C:\Users\JC\AppData\Local\Temp\ccer89K2.s 			page 12


 200              		.loc 2 85 0
 201 0018 1800     		movs	r0, r3
 202 001a BD46     		mov	sp, r7
 203              		@ sp needed
 204 001c 80BD     		pop	{r7, pc}
 205              	.L13:
 206 001e C046     		.align	2
 207              	.L12:
 208 0020 00002640 		.word	1076232192
 209              		.cfi_endproc
 210              	.LFE54:
 211              		.size	Cy_WDT_Locked, .-Cy_WDT_Locked
 212              		.section	.text.Cy_WDT_Unlock,"ax",%progbits
 213              		.align	2
 214              		.global	Cy_WDT_Unlock
 215              		.code	16
 216              		.thumb_func
 217              		.type	Cy_WDT_Unlock, %function
 218              	Cy_WDT_Unlock:
 219              	.LFB55:
  86:Generated_Source\PSoC6\pdl\drivers\peripheral\wdt/cy_wdt.c **** 
  87:Generated_Source\PSoC6\pdl\drivers\peripheral\wdt/cy_wdt.c **** 
  88:Generated_Source\PSoC6\pdl\drivers\peripheral\wdt/cy_wdt.c **** /*******************************************************************************
  89:Generated_Source\PSoC6\pdl\drivers\peripheral\wdt/cy_wdt.c **** * Function Name: Cy_WDT_Unlock
  90:Generated_Source\PSoC6\pdl\drivers\peripheral\wdt/cy_wdt.c **** ****************************************************************************//**
  91:Generated_Source\PSoC6\pdl\drivers\peripheral\wdt/cy_wdt.c **** *
  92:Generated_Source\PSoC6\pdl\drivers\peripheral\wdt/cy_wdt.c **** * Unlocks the Watchdog Timer configuration register.
  93:Generated_Source\PSoC6\pdl\drivers\peripheral\wdt/cy_wdt.c **** *
  94:Generated_Source\PSoC6\pdl\drivers\peripheral\wdt/cy_wdt.c **** *******************************************************************************/
  95:Generated_Source\PSoC6\pdl\drivers\peripheral\wdt/cy_wdt.c **** void Cy_WDT_Unlock(void)
  96:Generated_Source\PSoC6\pdl\drivers\peripheral\wdt/cy_wdt.c **** {
 220              		.loc 2 96 0
 221              		.cfi_startproc
 222              		@ args = 0, pretend = 0, frame = 0
 223              		@ frame_needed = 1, uses_anonymous_args = 0
 224 0000 80B5     		push	{r7, lr}
 225              		.cfi_def_cfa_offset 8
 226              		.cfi_offset 7, -8
 227              		.cfi_offset 14, -4
 228 0002 00AF     		add	r7, sp, #0
 229              		.cfi_def_cfa_register 7
  97:Generated_Source\PSoC6\pdl\drivers\peripheral\wdt/cy_wdt.c ****     /* The WDT lock is to be removed by two writes */
  98:Generated_Source\PSoC6\pdl\drivers\peripheral\wdt/cy_wdt.c ****     SRSS_WDT_CTL = ((SRSS_WDT_CTL & (uint32_t)(~SRSS_WDT_CTL_WDT_LOCK_Msk)) | CY_SRSS_WDT_LOCK_BIT0
 230              		.loc 2 98 0
 231 0004 0D49     		ldr	r1, .L15
 232 0006 0D4A     		ldr	r2, .L15
 233 0008 C023     		movs	r3, #192
 234 000a 5B00     		lsls	r3, r3, #1
 235 000c D358     		ldr	r3, [r2, r3]
 236 000e 9B00     		lsls	r3, r3, #2
 237 0010 9B08     		lsrs	r3, r3, #2
 238 0012 8022     		movs	r2, #128
 239 0014 D205     		lsls	r2, r2, #23
 240 0016 1A43     		orrs	r2, r3
 241 0018 C023     		movs	r3, #192
 242 001a 5B00     		lsls	r3, r3, #1
 243 001c CA50     		str	r2, [r1, r3]
ARM GAS  C:\Users\JC\AppData\Local\Temp\ccer89K2.s 			page 13


  99:Generated_Source\PSoC6\pdl\drivers\peripheral\wdt/cy_wdt.c **** 
 100:Generated_Source\PSoC6\pdl\drivers\peripheral\wdt/cy_wdt.c ****     SRSS_WDT_CTL |= CY_SRSS_WDT_LOCK_BIT1;
 244              		.loc 2 100 0
 245 001e 0749     		ldr	r1, .L15
 246 0020 064A     		ldr	r2, .L15
 247 0022 C023     		movs	r3, #192
 248 0024 5B00     		lsls	r3, r3, #1
 249 0026 D358     		ldr	r3, [r2, r3]
 250 0028 8022     		movs	r2, #128
 251 002a 1206     		lsls	r2, r2, #24
 252 002c 1A43     		orrs	r2, r3
 253 002e C023     		movs	r3, #192
 254 0030 5B00     		lsls	r3, r3, #1
 255 0032 CA50     		str	r2, [r1, r3]
 101:Generated_Source\PSoC6\pdl\drivers\peripheral\wdt/cy_wdt.c **** }
 256              		.loc 2 101 0
 257 0034 C046     		nop
 258 0036 BD46     		mov	sp, r7
 259              		@ sp needed
 260 0038 80BD     		pop	{r7, pc}
 261              	.L16:
 262 003a C046     		.align	2
 263              	.L15:
 264 003c 00002640 		.word	1076232192
 265              		.cfi_endproc
 266              	.LFE55:
 267              		.size	Cy_WDT_Unlock, .-Cy_WDT_Unlock
 268              		.section	.rodata
 269              		.align	2
 270              	.LC0:
 271 0000 47656E65 		.ascii	"Generated_Source\\PSoC6\\pdl\\drivers\\peripheral\\"
 271      72617465 
 271      645F536F 
 271      75726365 
 271      5C50536F 
 272 002e 7764745C 		.ascii	"wdt\\cy_wdt.c\000"
 272      63795F77 
 272      64742E63 
 272      00
 273              		.section	.text.Cy_WDT_SetMatch,"ax",%progbits
 274              		.align	2
 275              		.global	Cy_WDT_SetMatch
 276              		.code	16
 277              		.thumb_func
 278              		.type	Cy_WDT_SetMatch, %function
 279              	Cy_WDT_SetMatch:
 280              	.LFB56:
 102:Generated_Source\PSoC6\pdl\drivers\peripheral\wdt/cy_wdt.c **** 
 103:Generated_Source\PSoC6\pdl\drivers\peripheral\wdt/cy_wdt.c **** 
 104:Generated_Source\PSoC6\pdl\drivers\peripheral\wdt/cy_wdt.c **** /*******************************************************************************
 105:Generated_Source\PSoC6\pdl\drivers\peripheral\wdt/cy_wdt.c **** * Function Name: Cy_WDT_SetMatch
 106:Generated_Source\PSoC6\pdl\drivers\peripheral\wdt/cy_wdt.c **** ****************************************************************************//**
 107:Generated_Source\PSoC6\pdl\drivers\peripheral\wdt/cy_wdt.c **** *
 108:Generated_Source\PSoC6\pdl\drivers\peripheral\wdt/cy_wdt.c **** * Configures the WDT counter match comparison value. The Watchdog timer 
 109:Generated_Source\PSoC6\pdl\drivers\peripheral\wdt/cy_wdt.c **** * should be unlocked before changing the match value. Call the Cy_WDT_Unlock() 
 110:Generated_Source\PSoC6\pdl\drivers\peripheral\wdt/cy_wdt.c **** * function to unlock the WDT.
 111:Generated_Source\PSoC6\pdl\drivers\peripheral\wdt/cy_wdt.c **** *
ARM GAS  C:\Users\JC\AppData\Local\Temp\ccer89K2.s 			page 14


 112:Generated_Source\PSoC6\pdl\drivers\peripheral\wdt/cy_wdt.c **** * \param match
 113:Generated_Source\PSoC6\pdl\drivers\peripheral\wdt/cy_wdt.c **** * The valid valid range is [0-65535]. The value to be used to match 
 114:Generated_Source\PSoC6\pdl\drivers\peripheral\wdt/cy_wdt.c **** * against the counter.
 115:Generated_Source\PSoC6\pdl\drivers\peripheral\wdt/cy_wdt.c **** *
 116:Generated_Source\PSoC6\pdl\drivers\peripheral\wdt/cy_wdt.c **** *******************************************************************************/
 117:Generated_Source\PSoC6\pdl\drivers\peripheral\wdt/cy_wdt.c **** void Cy_WDT_SetMatch(uint32_t match)
 118:Generated_Source\PSoC6\pdl\drivers\peripheral\wdt/cy_wdt.c **** {
 281              		.loc 2 118 0
 282              		.cfi_startproc
 283              		@ args = 0, pretend = 0, frame = 8
 284              		@ frame_needed = 1, uses_anonymous_args = 0
 285 0000 80B5     		push	{r7, lr}
 286              		.cfi_def_cfa_offset 8
 287              		.cfi_offset 7, -8
 288              		.cfi_offset 14, -4
 289 0002 82B0     		sub	sp, sp, #8
 290              		.cfi_def_cfa_offset 16
 291 0004 00AF     		add	r7, sp, #0
 292              		.cfi_def_cfa_register 7
 293 0006 7860     		str	r0, [r7, #4]
 119:Generated_Source\PSoC6\pdl\drivers\peripheral\wdt/cy_wdt.c ****     CY_ASSERT_L2(CY_WDT_IS_MATCH_VAL_VALID(match));
 294              		.loc 2 119 0
 295 0008 7B68     		ldr	r3, [r7, #4]
 296 000a 114A     		ldr	r2, .L21
 297 000c 9342     		cmp	r3, r2
 298 000e 04D9     		bls	.L18
 299              		.loc 2 119 0 is_stmt 0 discriminator 1
 300 0010 104B     		ldr	r3, .L21+4
 301 0012 7721     		movs	r1, #119
 302 0014 1800     		movs	r0, r3
 303 0016 FFF7FEFF 		bl	Cy_SysLib_AssertFailed
 304              	.L18:
 120:Generated_Source\PSoC6\pdl\drivers\peripheral\wdt/cy_wdt.c ****     
 121:Generated_Source\PSoC6\pdl\drivers\peripheral\wdt/cy_wdt.c ****     if (false == Cy_WDT_Locked())
 305              		.loc 2 121 0 is_stmt 1
 306 001a FFF7FEFF 		bl	Cy_WDT_Locked
 307 001e 0300     		movs	r3, r0
 308 0020 1A00     		movs	r2, r3
 309 0022 0123     		movs	r3, #1
 310 0024 5340     		eors	r3, r2
 311 0026 DBB2     		uxtb	r3, r3
 312 0028 002B     		cmp	r3, #0
 313 002a 0DD0     		beq	.L20
 122:Generated_Source\PSoC6\pdl\drivers\peripheral\wdt/cy_wdt.c ****     {
 123:Generated_Source\PSoC6\pdl\drivers\peripheral\wdt/cy_wdt.c ****         SRSS_WDT_MATCH = _CLR_SET_FLD32U((SRSS_WDT_MATCH), SRSS_WDT_MATCH_MATCH, match);
 314              		.loc 2 123 0
 315 002c 0A49     		ldr	r1, .L21+8
 316 002e 0A4A     		ldr	r2, .L21+8
 317 0030 C423     		movs	r3, #196
 318 0032 5B00     		lsls	r3, r3, #1
 319 0034 D358     		ldr	r3, [r2, r3]
 320 0036 1B0C     		lsrs	r3, r3, #16
 321 0038 1A04     		lsls	r2, r3, #16
 322 003a 7B68     		ldr	r3, [r7, #4]
 323 003c 1B04     		lsls	r3, r3, #16
 324 003e 1B0C     		lsrs	r3, r3, #16
 325 0040 1A43     		orrs	r2, r3
ARM GAS  C:\Users\JC\AppData\Local\Temp\ccer89K2.s 			page 15


 326 0042 C423     		movs	r3, #196
 327 0044 5B00     		lsls	r3, r3, #1
 328 0046 CA50     		str	r2, [r1, r3]
 329              	.L20:
 124:Generated_Source\PSoC6\pdl\drivers\peripheral\wdt/cy_wdt.c ****     }
 125:Generated_Source\PSoC6\pdl\drivers\peripheral\wdt/cy_wdt.c **** }
 330              		.loc 2 125 0
 331 0048 C046     		nop
 332 004a BD46     		mov	sp, r7
 333 004c 02B0     		add	sp, sp, #8
 334              		@ sp needed
 335 004e 80BD     		pop	{r7, pc}
 336              	.L22:
 337              		.align	2
 338              	.L21:
 339 0050 FFFF0000 		.word	65535
 340 0054 00000000 		.word	.LC0
 341 0058 00002640 		.word	1076232192
 342              		.cfi_endproc
 343              	.LFE56:
 344              		.size	Cy_WDT_SetMatch, .-Cy_WDT_SetMatch
 345              		.section	.text.Cy_WDT_SetIgnoreBits,"ax",%progbits
 346              		.align	2
 347              		.global	Cy_WDT_SetIgnoreBits
 348              		.code	16
 349              		.thumb_func
 350              		.type	Cy_WDT_SetIgnoreBits, %function
 351              	Cy_WDT_SetIgnoreBits:
 352              	.LFB57:
 126:Generated_Source\PSoC6\pdl\drivers\peripheral\wdt/cy_wdt.c **** 
 127:Generated_Source\PSoC6\pdl\drivers\peripheral\wdt/cy_wdt.c **** 
 128:Generated_Source\PSoC6\pdl\drivers\peripheral\wdt/cy_wdt.c **** /*******************************************************************************
 129:Generated_Source\PSoC6\pdl\drivers\peripheral\wdt/cy_wdt.c **** * Function Name: Cy_WDT_SetIgnoreBits
 130:Generated_Source\PSoC6\pdl\drivers\peripheral\wdt/cy_wdt.c **** ****************************************************************************//**
 131:Generated_Source\PSoC6\pdl\drivers\peripheral\wdt/cy_wdt.c **** *
 132:Generated_Source\PSoC6\pdl\drivers\peripheral\wdt/cy_wdt.c **** * Configures the number of the most significant bits of the Watchdog timer that 
 133:Generated_Source\PSoC6\pdl\drivers\peripheral\wdt/cy_wdt.c **** * are not checked against the match. Unlock the Watchdog timer before 
 134:Generated_Source\PSoC6\pdl\drivers\peripheral\wdt/cy_wdt.c **** * ignoring the bits setting. Call the Cy_WDT_Unlock() API to unlock the WDT.
 135:Generated_Source\PSoC6\pdl\drivers\peripheral\wdt/cy_wdt.c **** *
 136:Generated_Source\PSoC6\pdl\drivers\peripheral\wdt/cy_wdt.c **** * \param bitsNum
 137:Generated_Source\PSoC6\pdl\drivers\peripheral\wdt/cy_wdt.c **** * The number of the most significant bits. The valid range is [0-15].
 138:Generated_Source\PSoC6\pdl\drivers\peripheral\wdt/cy_wdt.c **** * The bitsNum over 12 are considered as 12.
 139:Generated_Source\PSoC6\pdl\drivers\peripheral\wdt/cy_wdt.c **** *
 140:Generated_Source\PSoC6\pdl\drivers\peripheral\wdt/cy_wdt.c **** * \details The value of bitsNum controls the time-to-reset of the Watchdog timer
 141:Generated_Source\PSoC6\pdl\drivers\peripheral\wdt/cy_wdt.c **** * This happens after 3 successive matches.
 142:Generated_Source\PSoC6\pdl\drivers\peripheral\wdt/cy_wdt.c **** *
 143:Generated_Source\PSoC6\pdl\drivers\peripheral\wdt/cy_wdt.c **** * \warning This function changes the WDT interrupt period, therefore 
 144:Generated_Source\PSoC6\pdl\drivers\peripheral\wdt/cy_wdt.c **** * the device can go into an infinite WDT reset loop. This may happen
 145:Generated_Source\PSoC6\pdl\drivers\peripheral\wdt/cy_wdt.c **** * if a WDT reset occurs faster that a device start-up.
 146:Generated_Source\PSoC6\pdl\drivers\peripheral\wdt/cy_wdt.c **** *
 147:Generated_Source\PSoC6\pdl\drivers\peripheral\wdt/cy_wdt.c **** *******************************************************************************/
 148:Generated_Source\PSoC6\pdl\drivers\peripheral\wdt/cy_wdt.c **** void Cy_WDT_SetIgnoreBits(uint32_t bitsNum)
 149:Generated_Source\PSoC6\pdl\drivers\peripheral\wdt/cy_wdt.c **** {
 353              		.loc 2 149 0
 354              		.cfi_startproc
 355              		@ args = 0, pretend = 0, frame = 8
 356              		@ frame_needed = 1, uses_anonymous_args = 0
ARM GAS  C:\Users\JC\AppData\Local\Temp\ccer89K2.s 			page 16


 357 0000 80B5     		push	{r7, lr}
 358              		.cfi_def_cfa_offset 8
 359              		.cfi_offset 7, -8
 360              		.cfi_offset 14, -4
 361 0002 82B0     		sub	sp, sp, #8
 362              		.cfi_def_cfa_offset 16
 363 0004 00AF     		add	r7, sp, #0
 364              		.cfi_def_cfa_register 7
 365 0006 7860     		str	r0, [r7, #4]
 150:Generated_Source\PSoC6\pdl\drivers\peripheral\wdt/cy_wdt.c ****     CY_ASSERT_L2(CY_WDT_IS_IGNORE_BITS_VALID(bitsNum));
 366              		.loc 2 150 0
 367 0008 7B68     		ldr	r3, [r7, #4]
 368 000a 0F2B     		cmp	r3, #15
 369 000c 04D9     		bls	.L24
 370              		.loc 2 150 0 is_stmt 0 discriminator 1
 371 000e 114B     		ldr	r3, .L27
 372 0010 9621     		movs	r1, #150
 373 0012 1800     		movs	r0, r3
 374 0014 FFF7FEFF 		bl	Cy_SysLib_AssertFailed
 375              	.L24:
 151:Generated_Source\PSoC6\pdl\drivers\peripheral\wdt/cy_wdt.c **** 
 152:Generated_Source\PSoC6\pdl\drivers\peripheral\wdt/cy_wdt.c ****     if (false == Cy_WDT_Locked())
 376              		.loc 2 152 0 is_stmt 1
 377 0018 FFF7FEFF 		bl	Cy_WDT_Locked
 378 001c 0300     		movs	r3, r0
 379 001e 1A00     		movs	r2, r3
 380 0020 0123     		movs	r3, #1
 381 0022 5340     		eors	r3, r2
 382 0024 DBB2     		uxtb	r3, r3
 383 0026 002B     		cmp	r3, #0
 384 0028 0FD0     		beq	.L26
 153:Generated_Source\PSoC6\pdl\drivers\peripheral\wdt/cy_wdt.c ****     {
 154:Generated_Source\PSoC6\pdl\drivers\peripheral\wdt/cy_wdt.c ****         SRSS_WDT_MATCH = _CLR_SET_FLD32U((SRSS_WDT_MATCH), SRSS_WDT_MATCH_IGNORE_BITS, bitsNum);
 385              		.loc 2 154 0
 386 002a 0B48     		ldr	r0, .L27+4
 387 002c 0A4A     		ldr	r2, .L27+4
 388 002e C423     		movs	r3, #196
 389 0030 5B00     		lsls	r3, r3, #1
 390 0032 D358     		ldr	r3, [r2, r3]
 391 0034 094A     		ldr	r2, .L27+8
 392 0036 1A40     		ands	r2, r3
 393 0038 7B68     		ldr	r3, [r7, #4]
 394 003a 1904     		lsls	r1, r3, #16
 395 003c F023     		movs	r3, #240
 396 003e 1B03     		lsls	r3, r3, #12
 397 0040 0B40     		ands	r3, r1
 398 0042 1A43     		orrs	r2, r3
 399 0044 C423     		movs	r3, #196
 400 0046 5B00     		lsls	r3, r3, #1
 401 0048 C250     		str	r2, [r0, r3]
 402              	.L26:
 155:Generated_Source\PSoC6\pdl\drivers\peripheral\wdt/cy_wdt.c ****     }
 156:Generated_Source\PSoC6\pdl\drivers\peripheral\wdt/cy_wdt.c **** }
 403              		.loc 2 156 0
 404 004a C046     		nop
 405 004c BD46     		mov	sp, r7
 406 004e 02B0     		add	sp, sp, #8
ARM GAS  C:\Users\JC\AppData\Local\Temp\ccer89K2.s 			page 17


 407              		@ sp needed
 408 0050 80BD     		pop	{r7, pc}
 409              	.L28:
 410 0052 C046     		.align	2
 411              	.L27:
 412 0054 00000000 		.word	.LC0
 413 0058 00002640 		.word	1076232192
 414 005c FFFFF0FF 		.word	-983041
 415              		.cfi_endproc
 416              	.LFE57:
 417              		.size	Cy_WDT_SetIgnoreBits, .-Cy_WDT_SetIgnoreBits
 418              		.section	.text.Cy_WDT_ClearInterrupt,"ax",%progbits
 419              		.align	2
 420              		.global	Cy_WDT_ClearInterrupt
 421              		.code	16
 422              		.thumb_func
 423              		.type	Cy_WDT_ClearInterrupt, %function
 424              	Cy_WDT_ClearInterrupt:
 425              	.LFB58:
 157:Generated_Source\PSoC6\pdl\drivers\peripheral\wdt/cy_wdt.c **** 
 158:Generated_Source\PSoC6\pdl\drivers\peripheral\wdt/cy_wdt.c **** 
 159:Generated_Source\PSoC6\pdl\drivers\peripheral\wdt/cy_wdt.c **** /*******************************************************************************
 160:Generated_Source\PSoC6\pdl\drivers\peripheral\wdt/cy_wdt.c **** * Function Name: Cy_WDT_ClearInterrupt
 161:Generated_Source\PSoC6\pdl\drivers\peripheral\wdt/cy_wdt.c **** ****************************************************************************//**
 162:Generated_Source\PSoC6\pdl\drivers\peripheral\wdt/cy_wdt.c **** *
 163:Generated_Source\PSoC6\pdl\drivers\peripheral\wdt/cy_wdt.c **** * Clears the WDT match flag which is set every time the WDT counter reaches a 
 164:Generated_Source\PSoC6\pdl\drivers\peripheral\wdt/cy_wdt.c **** * WDT match value. Two unserviced interrupts lead to a system reset 
 165:Generated_Source\PSoC6\pdl\drivers\peripheral\wdt/cy_wdt.c **** * (i.e. at the third match).
 166:Generated_Source\PSoC6\pdl\drivers\peripheral\wdt/cy_wdt.c **** *
 167:Generated_Source\PSoC6\pdl\drivers\peripheral\wdt/cy_wdt.c **** *******************************************************************************/
 168:Generated_Source\PSoC6\pdl\drivers\peripheral\wdt/cy_wdt.c **** void Cy_WDT_ClearInterrupt(void)
 169:Generated_Source\PSoC6\pdl\drivers\peripheral\wdt/cy_wdt.c **** {
 426              		.loc 2 169 0
 427              		.cfi_startproc
 428              		@ args = 0, pretend = 0, frame = 0
 429              		@ frame_needed = 1, uses_anonymous_args = 0
 430 0000 80B5     		push	{r7, lr}
 431              		.cfi_def_cfa_offset 8
 432              		.cfi_offset 7, -8
 433              		.cfi_offset 14, -4
 434 0002 00AF     		add	r7, sp, #0
 435              		.cfi_def_cfa_register 7
 170:Generated_Source\PSoC6\pdl\drivers\peripheral\wdt/cy_wdt.c ****     SRSS_SRSS_INTR = _VAL2FLD(SRSS_SRSS_INTR_WDT_MATCH, 1U);
 436              		.loc 2 170 0
 437 0004 054A     		ldr	r2, .L30
 438 0006 E023     		movs	r3, #224
 439 0008 DB00     		lsls	r3, r3, #3
 440 000a 0121     		movs	r1, #1
 441 000c D150     		str	r1, [r2, r3]
 171:Generated_Source\PSoC6\pdl\drivers\peripheral\wdt/cy_wdt.c **** 
 172:Generated_Source\PSoC6\pdl\drivers\peripheral\wdt/cy_wdt.c ****     /* Read the interrupt register to ensure that the initial clearing write has
 173:Generated_Source\PSoC6\pdl\drivers\peripheral\wdt/cy_wdt.c ****     * been flushed out to the hardware.
 174:Generated_Source\PSoC6\pdl\drivers\peripheral\wdt/cy_wdt.c ****     */
 175:Generated_Source\PSoC6\pdl\drivers\peripheral\wdt/cy_wdt.c ****     (void) SRSS_SRSS_INTR;
 442              		.loc 2 175 0
 443 000e 034A     		ldr	r2, .L30
 444 0010 E023     		movs	r3, #224
ARM GAS  C:\Users\JC\AppData\Local\Temp\ccer89K2.s 			page 18


 445 0012 DB00     		lsls	r3, r3, #3
 446 0014 D358     		ldr	r3, [r2, r3]
 176:Generated_Source\PSoC6\pdl\drivers\peripheral\wdt/cy_wdt.c **** }
 447              		.loc 2 176 0
 448 0016 C046     		nop
 449 0018 BD46     		mov	sp, r7
 450              		@ sp needed
 451 001a 80BD     		pop	{r7, pc}
 452              	.L31:
 453              		.align	2
 454              	.L30:
 455 001c 00002640 		.word	1076232192
 456              		.cfi_endproc
 457              	.LFE58:
 458              		.size	Cy_WDT_ClearInterrupt, .-Cy_WDT_ClearInterrupt
 459              		.section	.text.Cy_WDT_ClearWatchdog,"ax",%progbits
 460              		.align	2
 461              		.global	Cy_WDT_ClearWatchdog
 462              		.code	16
 463              		.thumb_func
 464              		.type	Cy_WDT_ClearWatchdog, %function
 465              	Cy_WDT_ClearWatchdog:
 466              	.LFB59:
 177:Generated_Source\PSoC6\pdl\drivers\peripheral\wdt/cy_wdt.c **** 
 178:Generated_Source\PSoC6\pdl\drivers\peripheral\wdt/cy_wdt.c **** 
 179:Generated_Source\PSoC6\pdl\drivers\peripheral\wdt/cy_wdt.c **** /*******************************************************************************
 180:Generated_Source\PSoC6\pdl\drivers\peripheral\wdt/cy_wdt.c **** * Function Name: Cy_WDT_ClearWatchdog
 181:Generated_Source\PSoC6\pdl\drivers\peripheral\wdt/cy_wdt.c **** ****************************************************************************//**
 182:Generated_Source\PSoC6\pdl\drivers\peripheral\wdt/cy_wdt.c **** *
 183:Generated_Source\PSoC6\pdl\drivers\peripheral\wdt/cy_wdt.c **** * Clears ("feeds") the watchdog, to prevent a XRES device reset.
 184:Generated_Source\PSoC6\pdl\drivers\peripheral\wdt/cy_wdt.c **** * This function simply call Cy_WDT_ClearInterrupt() function.
 185:Generated_Source\PSoC6\pdl\drivers\peripheral\wdt/cy_wdt.c **** *
 186:Generated_Source\PSoC6\pdl\drivers\peripheral\wdt/cy_wdt.c **** *******************************************************************************/
 187:Generated_Source\PSoC6\pdl\drivers\peripheral\wdt/cy_wdt.c **** void Cy_WDT_ClearWatchdog(void)
 188:Generated_Source\PSoC6\pdl\drivers\peripheral\wdt/cy_wdt.c **** {
 467              		.loc 2 188 0
 468              		.cfi_startproc
 469              		@ args = 0, pretend = 0, frame = 0
 470              		@ frame_needed = 1, uses_anonymous_args = 0
 471 0000 80B5     		push	{r7, lr}
 472              		.cfi_def_cfa_offset 8
 473              		.cfi_offset 7, -8
 474              		.cfi_offset 14, -4
 475 0002 00AF     		add	r7, sp, #0
 476              		.cfi_def_cfa_register 7
 189:Generated_Source\PSoC6\pdl\drivers\peripheral\wdt/cy_wdt.c ****     Cy_WDT_ClearInterrupt();
 477              		.loc 2 189 0
 478 0004 FFF7FEFF 		bl	Cy_WDT_ClearInterrupt
 190:Generated_Source\PSoC6\pdl\drivers\peripheral\wdt/cy_wdt.c **** }
 479              		.loc 2 190 0
 480 0008 C046     		nop
 481 000a BD46     		mov	sp, r7
 482              		@ sp needed
 483 000c 80BD     		pop	{r7, pc}
 484              		.cfi_endproc
 485              	.LFE59:
 486              		.size	Cy_WDT_ClearWatchdog, .-Cy_WDT_ClearWatchdog
ARM GAS  C:\Users\JC\AppData\Local\Temp\ccer89K2.s 			page 19


 487 000e C046     		.text
 488              	.Letext0:
 489              		.file 3 "c:\\program files (x86)\\cypress\\psoc creator\\4.4\\psoc creator\\import\\gnu\\arm\\5.4.
 490              		.file 4 "c:\\program files (x86)\\cypress\\psoc creator\\4.4\\psoc creator\\import\\gnu\\arm\\5.4.
 491              		.file 5 "Generated_Source\\PSoC6\\pdl\\devices/psoc6/include/ip/cyip_srss.h"
 492              		.file 6 "Generated_Source\\PSoC6\\pdl\\devices/psoc6/include/psoc6_01_config.h"
 493              		.file 7 "Generated_Source\\PSoC6\\pdl\\drivers/peripheral/syslib/cy_syslib.h"