ARM GAS  C:\Users\JC\AppData\Local\Temp\cclwO4Ug.s 			page 1


   1              		.syntax unified
   2              		.cpu cortex-m0plus
   3              		.fpu softvfp
   4              		.eabi_attribute 20, 1
   5              		.eabi_attribute 21, 1
   6              		.eabi_attribute 23, 3
   7              		.eabi_attribute 24, 1
   8              		.eabi_attribute 25, 1
   9              		.eabi_attribute 26, 1
  10              		.eabi_attribute 30, 6
  11              		.eabi_attribute 34, 0
  12              		.eabi_attribute 18, 4
  13              		.thumb
  14              		.syntax unified
  15              		.file	"VDAC_1.c"
  16              		.text
  17              	.Ltext0:
  18              		.cfi_sections	.debug_frame
  19              		.section	.text.Cy_CTDAC_Enable,"ax",%progbits
  20              		.align	2
  21              		.code	16
  22              		.thumb_func
  23              		.type	Cy_CTDAC_Enable, %function
  24              	Cy_CTDAC_Enable:
  25              	.LFB136:
  26              		.file 1 "Generated_Source\\PSoC6\\pdl\\drivers/peripheral/ctdac/cy_ctdac.h"
   1:Generated_Source\PSoC6\pdl\drivers/peripheral/ctdac/cy_ctdac.h **** /***************************************************************************//**
   2:Generated_Source\PSoC6\pdl\drivers/peripheral/ctdac/cy_ctdac.h **** * \file cy_ctdac.h
   3:Generated_Source\PSoC6\pdl\drivers/peripheral/ctdac/cy_ctdac.h **** * \version 2.0
   4:Generated_Source\PSoC6\pdl\drivers/peripheral/ctdac/cy_ctdac.h **** *
   5:Generated_Source\PSoC6\pdl\drivers/peripheral/ctdac/cy_ctdac.h **** * Header file for the CTDAC driver
   6:Generated_Source\PSoC6\pdl\drivers/peripheral/ctdac/cy_ctdac.h **** *
   7:Generated_Source\PSoC6\pdl\drivers/peripheral/ctdac/cy_ctdac.h **** ********************************************************************************
   8:Generated_Source\PSoC6\pdl\drivers/peripheral/ctdac/cy_ctdac.h **** * \copyright
   9:Generated_Source\PSoC6\pdl\drivers/peripheral/ctdac/cy_ctdac.h **** * Copyright 2017-2018, Cypress Semiconductor Corporation. All rights reserved.
  10:Generated_Source\PSoC6\pdl\drivers/peripheral/ctdac/cy_ctdac.h **** * You may use this file only in accordance with the license, terms, conditions,
  11:Generated_Source\PSoC6\pdl\drivers/peripheral/ctdac/cy_ctdac.h **** * disclaimers, and limitations in the end user license agreement accompanying
  12:Generated_Source\PSoC6\pdl\drivers/peripheral/ctdac/cy_ctdac.h **** * the software package with which this file was provided.
  13:Generated_Source\PSoC6\pdl\drivers/peripheral/ctdac/cy_ctdac.h **** *******************************************************************************/
  14:Generated_Source\PSoC6\pdl\drivers/peripheral/ctdac/cy_ctdac.h **** 
  15:Generated_Source\PSoC6\pdl\drivers/peripheral/ctdac/cy_ctdac.h **** /**
  16:Generated_Source\PSoC6\pdl\drivers/peripheral/ctdac/cy_ctdac.h **** * \addtogroup group_ctdac
  17:Generated_Source\PSoC6\pdl\drivers/peripheral/ctdac/cy_ctdac.h **** * \{
  18:Generated_Source\PSoC6\pdl\drivers/peripheral/ctdac/cy_ctdac.h **** * The CTDAC driver provides APIs to configure the 12-bit Continuous-Time DAC.
  19:Generated_Source\PSoC6\pdl\drivers/peripheral/ctdac/cy_ctdac.h **** *
  20:Generated_Source\PSoC6\pdl\drivers/peripheral/ctdac/cy_ctdac.h **** * The functions and other declarations used in this driver are in cy_ctdac.h. 
  21:Generated_Source\PSoC6\pdl\drivers/peripheral/ctdac/cy_ctdac.h **** * You can include cy_pdl.h (ModusToolbox only) to get access to all functions 
  22:Generated_Source\PSoC6\pdl\drivers/peripheral/ctdac/cy_ctdac.h **** * and declarations in the PDL.
  23:Generated_Source\PSoC6\pdl\drivers/peripheral/ctdac/cy_ctdac.h **** *
  24:Generated_Source\PSoC6\pdl\drivers/peripheral/ctdac/cy_ctdac.h **** * - 12-bit continuous time output
  25:Generated_Source\PSoC6\pdl\drivers/peripheral/ctdac/cy_ctdac.h **** * - 2 us settling time for a 25 pF load when output buffered through Opamp0 of \ref group_ctb "CTB"
  26:Generated_Source\PSoC6\pdl\drivers/peripheral/ctdac/cy_ctdac.h **** * - Can be enabled in Deep Sleep power mode
  27:Generated_Source\PSoC6\pdl\drivers/peripheral/ctdac/cy_ctdac.h **** * - Selectable voltage reference:
  28:Generated_Source\PSoC6\pdl\drivers/peripheral/ctdac/cy_ctdac.h **** *       - VDDA
  29:Generated_Source\PSoC6\pdl\drivers/peripheral/ctdac/cy_ctdac.h **** *       - Internal analog reference buffered through Opamp1 of \ref group_ctb "CTB"
  30:Generated_Source\PSoC6\pdl\drivers/peripheral/ctdac/cy_ctdac.h **** *       - External reference buffered through Opamp1 of \ref group_ctb "CTB"
  31:Generated_Source\PSoC6\pdl\drivers/peripheral/ctdac/cy_ctdac.h **** * - Selectable output paths:
ARM GAS  C:\Users\JC\AppData\Local\Temp\cclwO4Ug.s 			page 2


  32:Generated_Source\PSoC6\pdl\drivers/peripheral/ctdac/cy_ctdac.h **** *       - Direct DAC output to a pin
  33:Generated_Source\PSoC6\pdl\drivers/peripheral/ctdac/cy_ctdac.h **** *       - Buffered DAC output through Opamp0 of \ref group_ctb "CTB"
  34:Generated_Source\PSoC6\pdl\drivers/peripheral/ctdac/cy_ctdac.h **** *       - Sample and hold output path through Opamp0 of \ref group_ctb "CTB"
  35:Generated_Source\PSoC6\pdl\drivers/peripheral/ctdac/cy_ctdac.h **** * - Selectable input modes:
  36:Generated_Source\PSoC6\pdl\drivers/peripheral/ctdac/cy_ctdac.h **** *       - Unsigned 12-bit mode
  37:Generated_Source\PSoC6\pdl\drivers/peripheral/ctdac/cy_ctdac.h **** *       - Virtual signed 12-bit mode
  38:Generated_Source\PSoC6\pdl\drivers/peripheral/ctdac/cy_ctdac.h **** * - Configurable update rate using clock or strobe signal
  39:Generated_Source\PSoC6\pdl\drivers/peripheral/ctdac/cy_ctdac.h **** * - Double buffered DAC voltage control register
  40:Generated_Source\PSoC6\pdl\drivers/peripheral/ctdac/cy_ctdac.h **** * - Interrupt and DMA trigger on DAC buffer empty
  41:Generated_Source\PSoC6\pdl\drivers/peripheral/ctdac/cy_ctdac.h **** * - Configurable as PGA along with Opamp1 of the \ref group_ctb "CTB"
  42:Generated_Source\PSoC6\pdl\drivers/peripheral/ctdac/cy_ctdac.h **** *
  43:Generated_Source\PSoC6\pdl\drivers/peripheral/ctdac/cy_ctdac.h **** * The CTDAC generates a 12-bit DAC output voltage from the reference.
  44:Generated_Source\PSoC6\pdl\drivers/peripheral/ctdac/cy_ctdac.h **** * The DAC reference can come from VDDA or from any signal buffered through Opamp0
  45:Generated_Source\PSoC6\pdl\drivers/peripheral/ctdac/cy_ctdac.h **** * of the CTB. This can be an external signal through a GPIO or from the internal
  46:Generated_Source\PSoC6\pdl\drivers/peripheral/ctdac/cy_ctdac.h **** * AREF. The CTDAC is closely integrated with the CTB block,
  47:Generated_Source\PSoC6\pdl\drivers/peripheral/ctdac/cy_ctdac.h **** * which provides easy buffering of the DAC output voltage,
  48:Generated_Source\PSoC6\pdl\drivers/peripheral/ctdac/cy_ctdac.h **** * buffered input reference voltage, and sample and hold for the DAC output.
  49:Generated_Source\PSoC6\pdl\drivers/peripheral/ctdac/cy_ctdac.h **** * The CTDAC control interface provides control of the DAC output through CPU or DMA.
  50:Generated_Source\PSoC6\pdl\drivers/peripheral/ctdac/cy_ctdac.h **** * This includes a double-buffered DAC voltage control register, clock input for programmable
  51:Generated_Source\PSoC6\pdl\drivers/peripheral/ctdac/cy_ctdac.h **** * update rate, interrupt on DAC buffer empty, and trigger to DMA.
  52:Generated_Source\PSoC6\pdl\drivers/peripheral/ctdac/cy_ctdac.h **** *
  53:Generated_Source\PSoC6\pdl\drivers/peripheral/ctdac/cy_ctdac.h **** * \image html ctdac_block_diagram.png
  54:Generated_Source\PSoC6\pdl\drivers/peripheral/ctdac/cy_ctdac.h **** * \image latex ctdac_block_diagram.png
  55:Generated_Source\PSoC6\pdl\drivers/peripheral/ctdac/cy_ctdac.h **** *
  56:Generated_Source\PSoC6\pdl\drivers/peripheral/ctdac/cy_ctdac.h **** * The CTDAC has two switches, CO6 for configuring the output path and
  57:Generated_Source\PSoC6\pdl\drivers/peripheral/ctdac/cy_ctdac.h **** * CVD for the reference source.
  58:Generated_Source\PSoC6\pdl\drivers/peripheral/ctdac/cy_ctdac.h **** *
  59:Generated_Source\PSoC6\pdl\drivers/peripheral/ctdac/cy_ctdac.h **** * \image html ctdac_switches.png
  60:Generated_Source\PSoC6\pdl\drivers/peripheral/ctdac/cy_ctdac.h **** * \image latex ctdac_switches.png
  61:Generated_Source\PSoC6\pdl\drivers/peripheral/ctdac/cy_ctdac.h **** *
  62:Generated_Source\PSoC6\pdl\drivers/peripheral/ctdac/cy_ctdac.h **** * \section group_ctdac_init Initialization
  63:Generated_Source\PSoC6\pdl\drivers/peripheral/ctdac/cy_ctdac.h **** *
  64:Generated_Source\PSoC6\pdl\drivers/peripheral/ctdac/cy_ctdac.h **** * Configure the CTDAC hardware block by calling \ref Cy_CTDAC_Init.
  65:Generated_Source\PSoC6\pdl\drivers/peripheral/ctdac/cy_ctdac.h **** * The base address of the CTDAC hardware can be found in the device-specific header file.
  66:Generated_Source\PSoC6\pdl\drivers/peripheral/ctdac/cy_ctdac.h **** * If the buffers in the CTB are used for the reference source or the output,
  67:Generated_Source\PSoC6\pdl\drivers/peripheral/ctdac/cy_ctdac.h **** * initialize the CTB hardware block. After both blocks are initialized,
  68:Generated_Source\PSoC6\pdl\drivers/peripheral/ctdac/cy_ctdac.h **** * enable the CTB block before enabling the CTDAC block.
  69:Generated_Source\PSoC6\pdl\drivers/peripheral/ctdac/cy_ctdac.h **** *
  70:Generated_Source\PSoC6\pdl\drivers/peripheral/ctdac/cy_ctdac.h **** * The driver also provides a \ref Cy_CTDAC_FastInit function for fast and easy initialization of th
  71:Generated_Source\PSoC6\pdl\drivers/peripheral/ctdac/cy_ctdac.h **** * The driver has pre-defined configuration structures for the four combinations of the reference an
  72:Generated_Source\PSoC6\pdl\drivers/peripheral/ctdac/cy_ctdac.h **** *
  73:Generated_Source\PSoC6\pdl\drivers/peripheral/ctdac/cy_ctdac.h **** * - \ref Cy_CTDAC_Fast_VddaRef_UnbufferedOut
  74:Generated_Source\PSoC6\pdl\drivers/peripheral/ctdac/cy_ctdac.h **** * - \ref Cy_CTDAC_Fast_VddaRef_BufferedOut
  75:Generated_Source\PSoC6\pdl\drivers/peripheral/ctdac/cy_ctdac.h **** * - \ref Cy_CTDAC_Fast_OA1Ref_UnbufferedOut
  76:Generated_Source\PSoC6\pdl\drivers/peripheral/ctdac/cy_ctdac.h **** * - \ref Cy_CTDAC_Fast_OA1Ref_BufferedOut
  77:Generated_Source\PSoC6\pdl\drivers/peripheral/ctdac/cy_ctdac.h **** *
  78:Generated_Source\PSoC6\pdl\drivers/peripheral/ctdac/cy_ctdac.h **** * After initialization, call \ref Cy_CTDAC_Enable to enable the hardware.
  79:Generated_Source\PSoC6\pdl\drivers/peripheral/ctdac/cy_ctdac.h **** *
  80:Generated_Source\PSoC6\pdl\drivers/peripheral/ctdac/cy_ctdac.h **** * \section group_ctdac_updatemode Update Modes
  81:Generated_Source\PSoC6\pdl\drivers/peripheral/ctdac/cy_ctdac.h **** * The CTDAC contains two registers:
  82:Generated_Source\PSoC6\pdl\drivers/peripheral/ctdac/cy_ctdac.h **** *   -# CTDAC_VAL
  83:Generated_Source\PSoC6\pdl\drivers/peripheral/ctdac/cy_ctdac.h **** *
  84:Generated_Source\PSoC6\pdl\drivers/peripheral/ctdac/cy_ctdac.h **** *       For direct firmware writes to update the current DAC value immediately.
  85:Generated_Source\PSoC6\pdl\drivers/peripheral/ctdac/cy_ctdac.h **** *       This register is written with \ref Cy_CTDAC_SetValue.
  86:Generated_Source\PSoC6\pdl\drivers/peripheral/ctdac/cy_ctdac.h **** *   -# CTDAC_VAL_NXT
  87:Generated_Source\PSoC6\pdl\drivers/peripheral/ctdac/cy_ctdac.h **** *
  88:Generated_Source\PSoC6\pdl\drivers/peripheral/ctdac/cy_ctdac.h **** *       For buffered writes to update the DAC value at a
ARM GAS  C:\Users\JC\AppData\Local\Temp\cclwO4Ug.s 			page 3


  89:Generated_Source\PSoC6\pdl\drivers/peripheral/ctdac/cy_ctdac.h **** *       periodic rate or with a strobe trigger input.
  90:Generated_Source\PSoC6\pdl\drivers/peripheral/ctdac/cy_ctdac.h **** *       This register is written with \ref Cy_CTDAC_SetValueBuffered.
  91:Generated_Source\PSoC6\pdl\drivers/peripheral/ctdac/cy_ctdac.h **** *
  92:Generated_Source\PSoC6\pdl\drivers/peripheral/ctdac/cy_ctdac.h **** * The update mode is
  93:Generated_Source\PSoC6\pdl\drivers/peripheral/ctdac/cy_ctdac.h **** * selected during initialization with the \ref cy_stc_ctdac_config_t.updateMode.
  94:Generated_Source\PSoC6\pdl\drivers/peripheral/ctdac/cy_ctdac.h **** * Four of these modes require a dedicated clock resource and the driver
  95:Generated_Source\PSoC6\pdl\drivers/peripheral/ctdac/cy_ctdac.h **** * can configure the clock during initialization (see \ref cy_stc_ctdac_config_t).
  96:Generated_Source\PSoC6\pdl\drivers/peripheral/ctdac/cy_ctdac.h **** *
  97:Generated_Source\PSoC6\pdl\drivers/peripheral/ctdac/cy_ctdac.h **** * Three of these modes use a strobe signal through the digital signal interface (DSI).
  98:Generated_Source\PSoC6\pdl\drivers/peripheral/ctdac/cy_ctdac.h **** * This allows control of the buffered update timing from an external source, for example, by anothe
  99:Generated_Source\PSoC6\pdl\drivers/peripheral/ctdac/cy_ctdac.h **** * chip peripheral or from an off-chip source.
 100:Generated_Source\PSoC6\pdl\drivers/peripheral/ctdac/cy_ctdac.h **** *
 101:Generated_Source\PSoC6\pdl\drivers/peripheral/ctdac/cy_ctdac.h **** * \subsection group_ctdac_updatemode_direct_write Direct write
 102:Generated_Source\PSoC6\pdl\drivers/peripheral/ctdac/cy_ctdac.h **** *
 103:Generated_Source\PSoC6\pdl\drivers/peripheral/ctdac/cy_ctdac.h **** * In this mode, the user writes directly into the CTDAC_VAL register
 104:Generated_Source\PSoC6\pdl\drivers/peripheral/ctdac/cy_ctdac.h **** * using \ref Cy_CTDAC_SetValue. The action of writing to this register
 105:Generated_Source\PSoC6\pdl\drivers/peripheral/ctdac/cy_ctdac.h **** * will update the DAC output. This mode does not generate an interrupt
 106:Generated_Source\PSoC6\pdl\drivers/peripheral/ctdac/cy_ctdac.h **** * or trigger signal.
 107:Generated_Source\PSoC6\pdl\drivers/peripheral/ctdac/cy_ctdac.h **** * In this mode, a clock must not be configured. Additionally, calling \ref
 108:Generated_Source\PSoC6\pdl\drivers/peripheral/ctdac/cy_ctdac.h **** * Cy_CTDAC_SetValueBuffered does not update the DAC output.
 109:Generated_Source\PSoC6\pdl\drivers/peripheral/ctdac/cy_ctdac.h **** *
 110:Generated_Source\PSoC6\pdl\drivers/peripheral/ctdac/cy_ctdac.h **** * \image html ctdac_update_mode_direct_write.png
 111:Generated_Source\PSoC6\pdl\drivers/peripheral/ctdac/cy_ctdac.h **** * \image latex ctdac_update_mode_direct_write.png
 112:Generated_Source\PSoC6\pdl\drivers/peripheral/ctdac/cy_ctdac.h **** *
 113:Generated_Source\PSoC6\pdl\drivers/peripheral/ctdac/cy_ctdac.h **** * \subsection group_ctdac_updatemode_buffered_write Buffered write
 114:Generated_Source\PSoC6\pdl\drivers/peripheral/ctdac/cy_ctdac.h **** *
 115:Generated_Source\PSoC6\pdl\drivers/peripheral/ctdac/cy_ctdac.h **** * In this mode, the user writes to the CTDAC_VAL_NXT register using
 116:Generated_Source\PSoC6\pdl\drivers/peripheral/ctdac/cy_ctdac.h **** * \ref Cy_CTDAC_SetValueBuffered. The rising edge of the clock
 117:Generated_Source\PSoC6\pdl\drivers/peripheral/ctdac/cy_ctdac.h **** * will update the DAC output and generate the interrupt and trigger signals.
 118:Generated_Source\PSoC6\pdl\drivers/peripheral/ctdac/cy_ctdac.h **** *
 119:Generated_Source\PSoC6\pdl\drivers/peripheral/ctdac/cy_ctdac.h **** * Whenever data is transferred from the CTDAC_VAL_NXT register,
 120:Generated_Source\PSoC6\pdl\drivers/peripheral/ctdac/cy_ctdac.h **** * an interrupt is asserted the same time as the trigger. But while
 121:Generated_Source\PSoC6\pdl\drivers/peripheral/ctdac/cy_ctdac.h **** * the trigger is automatically cleared after two PeriClk cycles, the
 122:Generated_Source\PSoC6\pdl\drivers/peripheral/ctdac/cy_ctdac.h **** * user must clear the interrupt with \ref Cy_CTDAC_ClearInterrupt.
 123:Generated_Source\PSoC6\pdl\drivers/peripheral/ctdac/cy_ctdac.h **** *
 124:Generated_Source\PSoC6\pdl\drivers/peripheral/ctdac/cy_ctdac.h **** * \image html ctdac_update_mode_buffered_write.png
 125:Generated_Source\PSoC6\pdl\drivers/peripheral/ctdac/cy_ctdac.h **** * \image latex ctdac_update_mode_buffered_write.png
 126:Generated_Source\PSoC6\pdl\drivers/peripheral/ctdac/cy_ctdac.h **** *
 127:Generated_Source\PSoC6\pdl\drivers/peripheral/ctdac/cy_ctdac.h **** * \subsection group_ctdac_updatemode_strobe_edge_sync Strobe edge sync
 128:Generated_Source\PSoC6\pdl\drivers/peripheral/ctdac/cy_ctdac.h **** *
 129:Generated_Source\PSoC6\pdl\drivers/peripheral/ctdac/cy_ctdac.h **** * In this mode, the user writes to the CTDAC_VAL_NXT register using
 130:Generated_Source\PSoC6\pdl\drivers/peripheral/ctdac/cy_ctdac.h **** * \ref Cy_CTDAC_SetValueBuffered.
 131:Generated_Source\PSoC6\pdl\drivers/peripheral/ctdac/cy_ctdac.h **** * Each rising edge of the DSI strobe input enables
 132:Generated_Source\PSoC6\pdl\drivers/peripheral/ctdac/cy_ctdac.h **** * one subsequent update from the next rising edge of the clock. The DSI
 133:Generated_Source\PSoC6\pdl\drivers/peripheral/ctdac/cy_ctdac.h **** * input must remain high for two PeriClk cycles and go low for
 134:Generated_Source\PSoC6\pdl\drivers/peripheral/ctdac/cy_ctdac.h **** * another two PeriClk cycles to allow for the next update.
 135:Generated_Source\PSoC6\pdl\drivers/peripheral/ctdac/cy_ctdac.h **** * This restricts the DSI strobe input frequency to the PeriClk frequency divided by four.
 136:Generated_Source\PSoC6\pdl\drivers/peripheral/ctdac/cy_ctdac.h **** *
 137:Generated_Source\PSoC6\pdl\drivers/peripheral/ctdac/cy_ctdac.h **** * \image html ctdac_update_mode_strobe_edge_sync.png
 138:Generated_Source\PSoC6\pdl\drivers/peripheral/ctdac/cy_ctdac.h **** * \image latex ctdac_update_mode_strobe_edge_sync.png
 139:Generated_Source\PSoC6\pdl\drivers/peripheral/ctdac/cy_ctdac.h **** *
 140:Generated_Source\PSoC6\pdl\drivers/peripheral/ctdac/cy_ctdac.h **** * \subsection group_ctdac_updatemode_strobe_edge_immediate Strobe edge immediate
 141:Generated_Source\PSoC6\pdl\drivers/peripheral/ctdac/cy_ctdac.h **** *
 142:Generated_Source\PSoC6\pdl\drivers/peripheral/ctdac/cy_ctdac.h **** * In this mode, the user writes to the CTDAC_VAL_NXT register using
 143:Generated_Source\PSoC6\pdl\drivers/peripheral/ctdac/cy_ctdac.h **** * \ref Cy_CTDAC_SetValueBuffered.
 144:Generated_Source\PSoC6\pdl\drivers/peripheral/ctdac/cy_ctdac.h **** * The clock resource is used but set to a logic high.
 145:Generated_Source\PSoC6\pdl\drivers/peripheral/ctdac/cy_ctdac.h **** * Therefore, each rising edge of the DSI strobe input immediately
ARM GAS  C:\Users\JC\AppData\Local\Temp\cclwO4Ug.s 			page 4


 146:Generated_Source\PSoC6\pdl\drivers/peripheral/ctdac/cy_ctdac.h **** * updates the DAC output.
 147:Generated_Source\PSoC6\pdl\drivers/peripheral/ctdac/cy_ctdac.h **** *
 148:Generated_Source\PSoC6\pdl\drivers/peripheral/ctdac/cy_ctdac.h **** * \image html ctdac_update_mode_strobe_edge_immediate.png
 149:Generated_Source\PSoC6\pdl\drivers/peripheral/ctdac/cy_ctdac.h **** * \image latex ctdac_update_mode_strobe_edge_immediate.png
 150:Generated_Source\PSoC6\pdl\drivers/peripheral/ctdac/cy_ctdac.h **** *
 151:Generated_Source\PSoC6\pdl\drivers/peripheral/ctdac/cy_ctdac.h **** * \subsection group_ctdac_updatemode_strobe_level Strobe level
 152:Generated_Source\PSoC6\pdl\drivers/peripheral/ctdac/cy_ctdac.h **** *
 153:Generated_Source\PSoC6\pdl\drivers/peripheral/ctdac/cy_ctdac.h **** * In this mode, the user writes to the CTDAC_VAL_NXT register using
 154:Generated_Source\PSoC6\pdl\drivers/peripheral/ctdac/cy_ctdac.h **** * \ref Cy_CTDAC_SetValueBuffered.
 155:Generated_Source\PSoC6\pdl\drivers/peripheral/ctdac/cy_ctdac.h **** * The DSI strobe input acts as a hardware enable signal.
 156:Generated_Source\PSoC6\pdl\drivers/peripheral/ctdac/cy_ctdac.h **** * While the DSI strobe input is high, the mode behaves
 157:Generated_Source\PSoC6\pdl\drivers/peripheral/ctdac/cy_ctdac.h **** * like the Buffered write mode. When the DSI strobe input is low,
 158:Generated_Source\PSoC6\pdl\drivers/peripheral/ctdac/cy_ctdac.h **** * updates are disabled.
 159:Generated_Source\PSoC6\pdl\drivers/peripheral/ctdac/cy_ctdac.h **** *
 160:Generated_Source\PSoC6\pdl\drivers/peripheral/ctdac/cy_ctdac.h **** * \image html ctdac_update_mode_strobe_level.png
 161:Generated_Source\PSoC6\pdl\drivers/peripheral/ctdac/cy_ctdac.h **** * \image latex ctdac_update_mode_strobe_level.png
 162:Generated_Source\PSoC6\pdl\drivers/peripheral/ctdac/cy_ctdac.h **** *
 163:Generated_Source\PSoC6\pdl\drivers/peripheral/ctdac/cy_ctdac.h **** * \section group_ctdac_dacmode DAC Modes
 164:Generated_Source\PSoC6\pdl\drivers/peripheral/ctdac/cy_ctdac.h **** *
 165:Generated_Source\PSoC6\pdl\drivers/peripheral/ctdac/cy_ctdac.h **** * The format of code stored in the CTDAC_VAL register can either be unsigned
 166:Generated_Source\PSoC6\pdl\drivers/peripheral/ctdac/cy_ctdac.h **** * or signed two's complemented.
 167:Generated_Source\PSoC6\pdl\drivers/peripheral/ctdac/cy_ctdac.h **** * Only the first 12 bits of the register are used by the DAC so there is
 168:Generated_Source\PSoC6\pdl\drivers/peripheral/ctdac/cy_ctdac.h **** * no need for sign extension. With the signed format, the DAC decodes
 169:Generated_Source\PSoC6\pdl\drivers/peripheral/ctdac/cy_ctdac.h **** * the code in the register by adding 0x800.
 170:Generated_Source\PSoC6\pdl\drivers/peripheral/ctdac/cy_ctdac.h **** * The DAC can output the register value or the register value plus 1 (see \ref Cy_CTDAC_SetOutputMo
 171:Generated_Source\PSoC6\pdl\drivers/peripheral/ctdac/cy_ctdac.h **** *
 172:Generated_Source\PSoC6\pdl\drivers/peripheral/ctdac/cy_ctdac.h **** * <table class="doxtable">
 173:Generated_Source\PSoC6\pdl\drivers/peripheral/ctdac/cy_ctdac.h **** *   <tr>
 174:Generated_Source\PSoC6\pdl\drivers/peripheral/ctdac/cy_ctdac.h **** *     <th>12-bit unsigned code</th>
 175:Generated_Source\PSoC6\pdl\drivers/peripheral/ctdac/cy_ctdac.h **** *     <th>12-bit two's complement signed code</th>
 176:Generated_Source\PSoC6\pdl\drivers/peripheral/ctdac/cy_ctdac.h **** *     <th>Vout (for \ref CY_CTDAC_OUTPUT_VALUE )</th>
 177:Generated_Source\PSoC6\pdl\drivers/peripheral/ctdac/cy_ctdac.h **** *     <th>Vout (for \ref CY_CTDAC_OUTPUT_VALUE_PLUS1 )</th>
 178:Generated_Source\PSoC6\pdl\drivers/peripheral/ctdac/cy_ctdac.h **** *   </tr>
 179:Generated_Source\PSoC6\pdl\drivers/peripheral/ctdac/cy_ctdac.h **** *   <tr>
 180:Generated_Source\PSoC6\pdl\drivers/peripheral/ctdac/cy_ctdac.h **** *     <td>0x000</td>
 181:Generated_Source\PSoC6\pdl\drivers/peripheral/ctdac/cy_ctdac.h **** *     <td>0x800</td>
 182:Generated_Source\PSoC6\pdl\drivers/peripheral/ctdac/cy_ctdac.h **** *     <td>0</td>
 183:Generated_Source\PSoC6\pdl\drivers/peripheral/ctdac/cy_ctdac.h **** *     <td>Vref/4096</td>
 184:Generated_Source\PSoC6\pdl\drivers/peripheral/ctdac/cy_ctdac.h **** *   </tr>
 185:Generated_Source\PSoC6\pdl\drivers/peripheral/ctdac/cy_ctdac.h **** *   <tr>
 186:Generated_Source\PSoC6\pdl\drivers/peripheral/ctdac/cy_ctdac.h **** *     <td>0x800</td>
 187:Generated_Source\PSoC6\pdl\drivers/peripheral/ctdac/cy_ctdac.h **** *     <td>0x000</td>
 188:Generated_Source\PSoC6\pdl\drivers/peripheral/ctdac/cy_ctdac.h **** *     <td>0.5 * Vref</td>
 189:Generated_Source\PSoC6\pdl\drivers/peripheral/ctdac/cy_ctdac.h **** *     <td>Vref * 2049 / 4096</td>
 190:Generated_Source\PSoC6\pdl\drivers/peripheral/ctdac/cy_ctdac.h **** *   </tr>
 191:Generated_Source\PSoC6\pdl\drivers/peripheral/ctdac/cy_ctdac.h **** *   <tr>
 192:Generated_Source\PSoC6\pdl\drivers/peripheral/ctdac/cy_ctdac.h **** *     <td>0xFFF</td>
 193:Generated_Source\PSoC6\pdl\drivers/peripheral/ctdac/cy_ctdac.h **** *     <td>0x7FF</td>
 194:Generated_Source\PSoC6\pdl\drivers/peripheral/ctdac/cy_ctdac.h **** *     <td>Vref * 4095 / 4096</td>
 195:Generated_Source\PSoC6\pdl\drivers/peripheral/ctdac/cy_ctdac.h **** *     <td>Vref</td>
 196:Generated_Source\PSoC6\pdl\drivers/peripheral/ctdac/cy_ctdac.h **** *   </tr>
 197:Generated_Source\PSoC6\pdl\drivers/peripheral/ctdac/cy_ctdac.h **** * </table>
 198:Generated_Source\PSoC6\pdl\drivers/peripheral/ctdac/cy_ctdac.h **** *
 199:Generated_Source\PSoC6\pdl\drivers/peripheral/ctdac/cy_ctdac.h **** * The expressions in the above table are based on an unbuffered DAC output.
 200:Generated_Source\PSoC6\pdl\drivers/peripheral/ctdac/cy_ctdac.h **** * When the output is buffered, the input and output range of the buffer will affect the
 201:Generated_Source\PSoC6\pdl\drivers/peripheral/ctdac/cy_ctdac.h **** * output voltage. See \ref group_ctb_opamp_range in the CTB driver for more information.
 202:Generated_Source\PSoC6\pdl\drivers/peripheral/ctdac/cy_ctdac.h **** *
ARM GAS  C:\Users\JC\AppData\Local\Temp\cclwO4Ug.s 			page 5


 203:Generated_Source\PSoC6\pdl\drivers/peripheral/ctdac/cy_ctdac.h **** * \section group_ctdac_trigger Interrupts and Trigger
 204:Generated_Source\PSoC6\pdl\drivers/peripheral/ctdac/cy_ctdac.h **** *
 205:Generated_Source\PSoC6\pdl\drivers/peripheral/ctdac/cy_ctdac.h **** * When data from the CTDAC_VAL_NXT is transferred to the CTDAC_VAL register,
 206:Generated_Source\PSoC6\pdl\drivers/peripheral/ctdac/cy_ctdac.h **** * an interrupt and trigger output are generated. The trigger output can be
 207:Generated_Source\PSoC6\pdl\drivers/peripheral/ctdac/cy_ctdac.h **** * used with a DMA block to update the CTDAC value register at high speeds without any CPU intervent
 208:Generated_Source\PSoC6\pdl\drivers/peripheral/ctdac/cy_ctdac.h **** * Alternatively, the interrupt output can be used when DMA is not available
 209:Generated_Source\PSoC6\pdl\drivers/peripheral/ctdac/cy_ctdac.h **** * to update the CTDAC value register, but at a slower speed.
 210:Generated_Source\PSoC6\pdl\drivers/peripheral/ctdac/cy_ctdac.h **** *
 211:Generated_Source\PSoC6\pdl\drivers/peripheral/ctdac/cy_ctdac.h **** * Recall with the \ref group_ctdac_updatemode, the interrupt and trigger output are available in al
 212:Generated_Source\PSoC6\pdl\drivers/peripheral/ctdac/cy_ctdac.h **** * \ref group_ctdac_updatemode_direct_write.
 213:Generated_Source\PSoC6\pdl\drivers/peripheral/ctdac/cy_ctdac.h **** *
 214:Generated_Source\PSoC6\pdl\drivers/peripheral/ctdac/cy_ctdac.h **** * \subsection group_ctdac_dma_trigger DMA Trigger
 215:Generated_Source\PSoC6\pdl\drivers/peripheral/ctdac/cy_ctdac.h **** *
 216:Generated_Source\PSoC6\pdl\drivers/peripheral/ctdac/cy_ctdac.h **** * The CTDAC trigger output signal can be routed to a DMA block using the \ref group_trigmux
 217:Generated_Source\PSoC6\pdl\drivers/peripheral/ctdac/cy_ctdac.h **** * to trigger an update to the CTDAC_VAL_NXT register.
 218:Generated_Source\PSoC6\pdl\drivers/peripheral/ctdac/cy_ctdac.h **** * When making the required \ref Cy_TrigMux_Connect calls, use the pre-defined enums, TRIG14_IN_PASS
 219:Generated_Source\PSoC6\pdl\drivers/peripheral/ctdac/cy_ctdac.h **** * and TRIGGER_TYPE_PASS_TR_CTDAC_EMPTY.
 220:Generated_Source\PSoC6\pdl\drivers/peripheral/ctdac/cy_ctdac.h **** *
 221:Generated_Source\PSoC6\pdl\drivers/peripheral/ctdac/cy_ctdac.h **** * \subsection group_ctdac_handling_interrupts Handling Interrupts
 222:Generated_Source\PSoC6\pdl\drivers/peripheral/ctdac/cy_ctdac.h **** *
 223:Generated_Source\PSoC6\pdl\drivers/peripheral/ctdac/cy_ctdac.h **** * The following code snippet demonstrates how to implement a routine to handle the interrupt.
 224:Generated_Source\PSoC6\pdl\drivers/peripheral/ctdac/cy_ctdac.h **** * The routine gets called when any CTDAC on the device generates an interrupt.
 225:Generated_Source\PSoC6\pdl\drivers/peripheral/ctdac/cy_ctdac.h **** *
 226:Generated_Source\PSoC6\pdl\drivers/peripheral/ctdac/cy_ctdac.h **** * \snippet ctdac_sut_01.cydsn/main_cm0p.c SNIPPET_CTDAC_ISR
 227:Generated_Source\PSoC6\pdl\drivers/peripheral/ctdac/cy_ctdac.h **** *
 228:Generated_Source\PSoC6\pdl\drivers/peripheral/ctdac/cy_ctdac.h **** * The following code snippet demonstrates how to configure and enable the interrupt.
 229:Generated_Source\PSoC6\pdl\drivers/peripheral/ctdac/cy_ctdac.h **** *
 230:Generated_Source\PSoC6\pdl\drivers/peripheral/ctdac/cy_ctdac.h **** * \snippet ctdac_sut_01.cydsn/main_cm0p.c SNIPPET_CTDAC_INTR_SETUP
 231:Generated_Source\PSoC6\pdl\drivers/peripheral/ctdac/cy_ctdac.h **** *
 232:Generated_Source\PSoC6\pdl\drivers/peripheral/ctdac/cy_ctdac.h **** * \snippet ctdac_sut_01.cydsn/main_cm4.c CTDAC_SNIPPET_DMA_TRIGGER
 233:Generated_Source\PSoC6\pdl\drivers/peripheral/ctdac/cy_ctdac.h **** *
 234:Generated_Source\PSoC6\pdl\drivers/peripheral/ctdac/cy_ctdac.h **** * \section group_ctdac_deglitch Deglitch
 235:Generated_Source\PSoC6\pdl\drivers/peripheral/ctdac/cy_ctdac.h **** *
 236:Generated_Source\PSoC6\pdl\drivers/peripheral/ctdac/cy_ctdac.h **** * The hardware has the ability to deglitch the output value every time it is updated.
 237:Generated_Source\PSoC6\pdl\drivers/peripheral/ctdac/cy_ctdac.h **** * This prevents small glitches in the DAC output during an update to propagate to
 238:Generated_Source\PSoC6\pdl\drivers/peripheral/ctdac/cy_ctdac.h **** * the pin or opamp input. When deglitch is enabled, a switch on the output path
 239:Generated_Source\PSoC6\pdl\drivers/peripheral/ctdac/cy_ctdac.h **** * is forced open for a configurable number of PeriClk cycles. This deglitch time
 240:Generated_Source\PSoC6\pdl\drivers/peripheral/ctdac/cy_ctdac.h **** * is calculated as:
 241:Generated_Source\PSoC6\pdl\drivers/peripheral/ctdac/cy_ctdac.h **** *
 242:Generated_Source\PSoC6\pdl\drivers/peripheral/ctdac/cy_ctdac.h **** *       (DEGLITCH_CNT + 1) / PERI_CLOCK_FREQ
 243:Generated_Source\PSoC6\pdl\drivers/peripheral/ctdac/cy_ctdac.h **** *
 244:Generated_Source\PSoC6\pdl\drivers/peripheral/ctdac/cy_ctdac.h **** * The optimal and recommended deglitch time is 700 ns. Call \ref Cy_CTDAC_SetDeglitchCycles to set 
 245:Generated_Source\PSoC6\pdl\drivers/peripheral/ctdac/cy_ctdac.h **** *
 246:Generated_Source\PSoC6\pdl\drivers/peripheral/ctdac/cy_ctdac.h **** * There are two switches used for deglitching.
 247:Generated_Source\PSoC6\pdl\drivers/peripheral/ctdac/cy_ctdac.h **** * - Switch COS in the CTB between the DAC output and the Opamp0 input
 248:Generated_Source\PSoC6\pdl\drivers/peripheral/ctdac/cy_ctdac.h **** * - Switch CO6 in the CTDAC between the DAC output and external pin
 249:Generated_Source\PSoC6\pdl\drivers/peripheral/ctdac/cy_ctdac.h **** *
 250:Generated_Source\PSoC6\pdl\drivers/peripheral/ctdac/cy_ctdac.h **** * Call \ref Cy_CTDAC_SetDeglitchMode to set the deglitch path. Match this with the output buffer se
 251:Generated_Source\PSoC6\pdl\drivers/peripheral/ctdac/cy_ctdac.h **** * If the output is buffered through the CTB, select \ref CY_CTDAC_DEGLITCHMODE_BUFFERED.
 252:Generated_Source\PSoC6\pdl\drivers/peripheral/ctdac/cy_ctdac.h **** * If the output is unbuffered to a direct pin, select \ref CY_CTDAC_DEGLITCHMODE_UNBUFFERED.
 253:Generated_Source\PSoC6\pdl\drivers/peripheral/ctdac/cy_ctdac.h **** *
 254:Generated_Source\PSoC6\pdl\drivers/peripheral/ctdac/cy_ctdac.h **** * \note
 255:Generated_Source\PSoC6\pdl\drivers/peripheral/ctdac/cy_ctdac.h **** * If deglitching is enabled, the hardware does not force the deglitch switches into a closed
 256:Generated_Source\PSoC6\pdl\drivers/peripheral/ctdac/cy_ctdac.h **** * state during Deep Sleep mode. Therefore, there is a chance that the device enters
 257:Generated_Source\PSoC6\pdl\drivers/peripheral/ctdac/cy_ctdac.h **** * Deep Sleep mode while the hardware is deglitching and the switches on the output path remain open
 258:Generated_Source\PSoC6\pdl\drivers/peripheral/ctdac/cy_ctdac.h **** * To ensure the DAC will operate properly in Deep Sleep when enabled, make sure to
 259:Generated_Source\PSoC6\pdl\drivers/peripheral/ctdac/cy_ctdac.h **** * register the \ref Cy_CTDAC_DeepSleepCallback before entering Deep Sleep mode.
ARM GAS  C:\Users\JC\AppData\Local\Temp\cclwO4Ug.s 			page 6


 260:Generated_Source\PSoC6\pdl\drivers/peripheral/ctdac/cy_ctdac.h **** *
 261:Generated_Source\PSoC6\pdl\drivers/peripheral/ctdac/cy_ctdac.h **** * \section group_ctdac_sample_hold Sample and Hold
 262:Generated_Source\PSoC6\pdl\drivers/peripheral/ctdac/cy_ctdac.h **** *
 263:Generated_Source\PSoC6\pdl\drivers/peripheral/ctdac/cy_ctdac.h **** * When buffering the DAC output, the CTB has a Sample and Hold (SH) feature that can be used for sa
 264:Generated_Source\PSoC6\pdl\drivers/peripheral/ctdac/cy_ctdac.h **** * The DAC output voltage is retained on an internal capacitor for a duration of time while the
 265:Generated_Source\PSoC6\pdl\drivers/peripheral/ctdac/cy_ctdac.h **** * DAC output can be turned off. The DAC hardware needs to be turned on in a periodic fashion
 266:Generated_Source\PSoC6\pdl\drivers/peripheral/ctdac/cy_ctdac.h **** * to recharge the hold capacitor. This feature is firmware controlled using a sequence of function 
 267:Generated_Source\PSoC6\pdl\drivers/peripheral/ctdac/cy_ctdac.h **** * See \ref Cy_CTB_DACSampleAndHold in the \ref group_ctb_sample_hold "CTB" driver.
 268:Generated_Source\PSoC6\pdl\drivers/peripheral/ctdac/cy_ctdac.h **** *
 269:Generated_Source\PSoC6\pdl\drivers/peripheral/ctdac/cy_ctdac.h **** * The hold time depends on the supply and reference voltages. The following hold times are based on
 270:Generated_Source\PSoC6\pdl\drivers/peripheral/ctdac/cy_ctdac.h **** * time it takes for the buffered output to change by 1 LSB.
 271:Generated_Source\PSoC6\pdl\drivers/peripheral/ctdac/cy_ctdac.h **** *
 272:Generated_Source\PSoC6\pdl\drivers/peripheral/ctdac/cy_ctdac.h **** *   - Hold time = 750 us @ Vref = VDDA , VDDA = 1.7 V
 273:Generated_Source\PSoC6\pdl\drivers/peripheral/ctdac/cy_ctdac.h **** *   - Hold time = 525 us @ Vref = VDDA , VDDA = 3.6 V
 274:Generated_Source\PSoC6\pdl\drivers/peripheral/ctdac/cy_ctdac.h **** *   - Hold time = 200 us @ Vref = 1.2 V, VDDA = 3.6 V
 275:Generated_Source\PSoC6\pdl\drivers/peripheral/ctdac/cy_ctdac.h **** *
 276:Generated_Source\PSoC6\pdl\drivers/peripheral/ctdac/cy_ctdac.h **** * \section group_ctdac_low_power Low Power Support
 277:Generated_Source\PSoC6\pdl\drivers/peripheral/ctdac/cy_ctdac.h **** *
 278:Generated_Source\PSoC6\pdl\drivers/peripheral/ctdac/cy_ctdac.h **** * The CTDAC driver provides a callback function to handle power mode transitions.
 279:Generated_Source\PSoC6\pdl\drivers/peripheral/ctdac/cy_ctdac.h **** * If the CTDAC is configured for Deep Sleep operation and \ref group_ctdac_deglitch "deglitching" i
 280:Generated_Source\PSoC6\pdl\drivers/peripheral/ctdac/cy_ctdac.h **** * the callback \ref Cy_CTDAC_DeepSleepCallback must be registered before calling
 281:Generated_Source\PSoC6\pdl\drivers/peripheral/ctdac/cy_ctdac.h **** * \ref Cy_SysPm_CpuEnterDeepSleep.
 282:Generated_Source\PSoC6\pdl\drivers/peripheral/ctdac/cy_ctdac.h **** * Refer to \ref group_syspm driver for more information about power mode transitions and
 283:Generated_Source\PSoC6\pdl\drivers/peripheral/ctdac/cy_ctdac.h **** * callback registration.
 284:Generated_Source\PSoC6\pdl\drivers/peripheral/ctdac/cy_ctdac.h **** *
 285:Generated_Source\PSoC6\pdl\drivers/peripheral/ctdac/cy_ctdac.h **** * \section group_ctdac_more_information More Information
 286:Generated_Source\PSoC6\pdl\drivers/peripheral/ctdac/cy_ctdac.h **** *
 287:Generated_Source\PSoC6\pdl\drivers/peripheral/ctdac/cy_ctdac.h **** * Refer to the technical reference manual (TRM) and the device datasheet.
 288:Generated_Source\PSoC6\pdl\drivers/peripheral/ctdac/cy_ctdac.h **** *
 289:Generated_Source\PSoC6\pdl\drivers/peripheral/ctdac/cy_ctdac.h **** * \section group_ctdac_MISRA MISRA-C Compliance]
 290:Generated_Source\PSoC6\pdl\drivers/peripheral/ctdac/cy_ctdac.h **** *
 291:Generated_Source\PSoC6\pdl\drivers/peripheral/ctdac/cy_ctdac.h **** * This driver has the following specific deviations:
 292:Generated_Source\PSoC6\pdl\drivers/peripheral/ctdac/cy_ctdac.h **** *
 293:Generated_Source\PSoC6\pdl\drivers/peripheral/ctdac/cy_ctdac.h **** * <table class="doxtable">
 294:Generated_Source\PSoC6\pdl\drivers/peripheral/ctdac/cy_ctdac.h **** *   <tr>
 295:Generated_Source\PSoC6\pdl\drivers/peripheral/ctdac/cy_ctdac.h **** *     <th>MISRA Rule</th>
 296:Generated_Source\PSoC6\pdl\drivers/peripheral/ctdac/cy_ctdac.h **** *     <th>Rule Class (Required/Advisory)</th>
 297:Generated_Source\PSoC6\pdl\drivers/peripheral/ctdac/cy_ctdac.h **** *     <th>Rule Description</th>
 298:Generated_Source\PSoC6\pdl\drivers/peripheral/ctdac/cy_ctdac.h **** *     <th>Description of Deviation(s)</th>
 299:Generated_Source\PSoC6\pdl\drivers/peripheral/ctdac/cy_ctdac.h **** *   </tr>
 300:Generated_Source\PSoC6\pdl\drivers/peripheral/ctdac/cy_ctdac.h **** *   <tr>
 301:Generated_Source\PSoC6\pdl\drivers/peripheral/ctdac/cy_ctdac.h **** *     <td>11.4</td>
 302:Generated_Source\PSoC6\pdl\drivers/peripheral/ctdac/cy_ctdac.h **** *     <td>Advisory</td>
 303:Generated_Source\PSoC6\pdl\drivers/peripheral/ctdac/cy_ctdac.h **** *     <td>A cast should not be performed between a pointer to object type and a different pointer t
 304:Generated_Source\PSoC6\pdl\drivers/peripheral/ctdac/cy_ctdac.h **** *     <td>The cy_syspm driver defines the pointer to void in the \ref cy_stc_syspm_callback_params_
 305:Generated_Source\PSoC6\pdl\drivers/peripheral/ctdac/cy_ctdac.h **** *       This CTDAC driver implements a Deep Sleep callback conforming to the cy_syspm driver requir
 306:Generated_Source\PSoC6\pdl\drivers/peripheral/ctdac/cy_ctdac.h **** *       When the callback is called, the base is cast to a pointer to CTDAC_Type.
 307:Generated_Source\PSoC6\pdl\drivers/peripheral/ctdac/cy_ctdac.h **** *     </td>
 308:Generated_Source\PSoC6\pdl\drivers/peripheral/ctdac/cy_ctdac.h **** *   </tr>
 309:Generated_Source\PSoC6\pdl\drivers/peripheral/ctdac/cy_ctdac.h **** * </table>
 310:Generated_Source\PSoC6\pdl\drivers/peripheral/ctdac/cy_ctdac.h **** *
 311:Generated_Source\PSoC6\pdl\drivers/peripheral/ctdac/cy_ctdac.h **** * \section group_ctdac_changelog Changelog
 312:Generated_Source\PSoC6\pdl\drivers/peripheral/ctdac/cy_ctdac.h **** * <table class="doxtable">
 313:Generated_Source\PSoC6\pdl\drivers/peripheral/ctdac/cy_ctdac.h **** *   <tr><th>Version</th><th>Changes</th><th>Reason for Change</th></tr>
 314:Generated_Source\PSoC6\pdl\drivers/peripheral/ctdac/cy_ctdac.h **** *   <tr>
 315:Generated_Source\PSoC6\pdl\drivers/peripheral/ctdac/cy_ctdac.h **** *     <td rowspan="2">2.0</td>
 316:Generated_Source\PSoC6\pdl\drivers/peripheral/ctdac/cy_ctdac.h **** *     <td>Flattened the organization of the driver source code into the single 
ARM GAS  C:\Users\JC\AppData\Local\Temp\cclwO4Ug.s 			page 7


 317:Generated_Source\PSoC6\pdl\drivers/peripheral/ctdac/cy_ctdac.h **** *         source directory and the single include directory.
 318:Generated_Source\PSoC6\pdl\drivers/peripheral/ctdac/cy_ctdac.h **** *     </td>
 319:Generated_Source\PSoC6\pdl\drivers/peripheral/ctdac/cy_ctdac.h **** *     <td>Driver library directory-structure simplification.</td>
 320:Generated_Source\PSoC6\pdl\drivers/peripheral/ctdac/cy_ctdac.h **** *   </tr>
 321:Generated_Source\PSoC6\pdl\drivers/peripheral/ctdac/cy_ctdac.h **** *   <tr>
 322:Generated_Source\PSoC6\pdl\drivers/peripheral/ctdac/cy_ctdac.h **** *     <td>Added register access layer. Use register access macros instead
 323:Generated_Source\PSoC6\pdl\drivers/peripheral/ctdac/cy_ctdac.h **** *         of direct register access using dereferenced pointers.</td>
 324:Generated_Source\PSoC6\pdl\drivers/peripheral/ctdac/cy_ctdac.h **** *     <td>Makes register access device-independent, so that the PDL does 
 325:Generated_Source\PSoC6\pdl\drivers/peripheral/ctdac/cy_ctdac.h **** *         not need to be recompiled for each supported part number.</td>
 326:Generated_Source\PSoC6\pdl\drivers/peripheral/ctdac/cy_ctdac.h **** *   </tr>
 327:Generated_Source\PSoC6\pdl\drivers/peripheral/ctdac/cy_ctdac.h **** *   <tr>
 328:Generated_Source\PSoC6\pdl\drivers/peripheral/ctdac/cy_ctdac.h **** *     <td>1.0.1</td>
 329:Generated_Source\PSoC6\pdl\drivers/peripheral/ctdac/cy_ctdac.h **** *     <td>Added low power support section. Minor documentation edits.</td>
 330:Generated_Source\PSoC6\pdl\drivers/peripheral/ctdac/cy_ctdac.h **** *     <td>Documentation update and clarification</td>
 331:Generated_Source\PSoC6\pdl\drivers/peripheral/ctdac/cy_ctdac.h **** *   </tr>
 332:Generated_Source\PSoC6\pdl\drivers/peripheral/ctdac/cy_ctdac.h **** *   <tr>
 333:Generated_Source\PSoC6\pdl\drivers/peripheral/ctdac/cy_ctdac.h **** *     <td>1.0</td>
 334:Generated_Source\PSoC6\pdl\drivers/peripheral/ctdac/cy_ctdac.h **** *     <td>Initial version</td>
 335:Generated_Source\PSoC6\pdl\drivers/peripheral/ctdac/cy_ctdac.h **** *     <td></td>
 336:Generated_Source\PSoC6\pdl\drivers/peripheral/ctdac/cy_ctdac.h **** *   </tr>
 337:Generated_Source\PSoC6\pdl\drivers/peripheral/ctdac/cy_ctdac.h **** * </table>
 338:Generated_Source\PSoC6\pdl\drivers/peripheral/ctdac/cy_ctdac.h **** *
 339:Generated_Source\PSoC6\pdl\drivers/peripheral/ctdac/cy_ctdac.h **** * \defgroup group_ctdac_macros Macros
 340:Generated_Source\PSoC6\pdl\drivers/peripheral/ctdac/cy_ctdac.h **** * \defgroup group_ctdac_functions Functions
 341:Generated_Source\PSoC6\pdl\drivers/peripheral/ctdac/cy_ctdac.h **** *   \{
 342:Generated_Source\PSoC6\pdl\drivers/peripheral/ctdac/cy_ctdac.h **** *       \defgroup group_ctdac_functions_init            Initialization Functions
 343:Generated_Source\PSoC6\pdl\drivers/peripheral/ctdac/cy_ctdac.h **** *       \defgroup group_ctdac_functions_basic           Basic Configuration Functions
 344:Generated_Source\PSoC6\pdl\drivers/peripheral/ctdac/cy_ctdac.h **** *       \defgroup group_ctdac_functions_switches        Switch Control Functions
 345:Generated_Source\PSoC6\pdl\drivers/peripheral/ctdac/cy_ctdac.h **** *       \defgroup group_ctdac_functions_interrupts      Interrupt Functions
 346:Generated_Source\PSoC6\pdl\drivers/peripheral/ctdac/cy_ctdac.h **** *       \defgroup group_ctdac_functions_syspm_callback  Low Power Callback
 347:Generated_Source\PSoC6\pdl\drivers/peripheral/ctdac/cy_ctdac.h **** *   \}
 348:Generated_Source\PSoC6\pdl\drivers/peripheral/ctdac/cy_ctdac.h **** * \defgroup group_ctdac_globals Global Variables
 349:Generated_Source\PSoC6\pdl\drivers/peripheral/ctdac/cy_ctdac.h **** * \defgroup group_ctdac_data_structures Data Structures
 350:Generated_Source\PSoC6\pdl\drivers/peripheral/ctdac/cy_ctdac.h **** * \defgroup group_ctdac_enums Enumerated Types
 351:Generated_Source\PSoC6\pdl\drivers/peripheral/ctdac/cy_ctdac.h **** */
 352:Generated_Source\PSoC6\pdl\drivers/peripheral/ctdac/cy_ctdac.h **** 
 353:Generated_Source\PSoC6\pdl\drivers/peripheral/ctdac/cy_ctdac.h **** #if !defined(CY_CTDAC_H)
 354:Generated_Source\PSoC6\pdl\drivers/peripheral/ctdac/cy_ctdac.h **** #define CY_CTDAC_H
 355:Generated_Source\PSoC6\pdl\drivers/peripheral/ctdac/cy_ctdac.h **** 
 356:Generated_Source\PSoC6\pdl\drivers/peripheral/ctdac/cy_ctdac.h **** #include <stdint.h>
 357:Generated_Source\PSoC6\pdl\drivers/peripheral/ctdac/cy_ctdac.h **** #include <stdbool.h>
 358:Generated_Source\PSoC6\pdl\drivers/peripheral/ctdac/cy_ctdac.h **** #include <stddef.h>
 359:Generated_Source\PSoC6\pdl\drivers/peripheral/ctdac/cy_ctdac.h **** #include "cy_device.h"
 360:Generated_Source\PSoC6\pdl\drivers/peripheral/ctdac/cy_ctdac.h **** #include "cy_device_headers.h"
 361:Generated_Source\PSoC6\pdl\drivers/peripheral/ctdac/cy_ctdac.h **** #include "cy_syspm.h"
 362:Generated_Source\PSoC6\pdl\drivers/peripheral/ctdac/cy_ctdac.h **** #include "cy_syslib.h"
 363:Generated_Source\PSoC6\pdl\drivers/peripheral/ctdac/cy_ctdac.h **** #include "cy_sysclk.h"
 364:Generated_Source\PSoC6\pdl\drivers/peripheral/ctdac/cy_ctdac.h **** 
 365:Generated_Source\PSoC6\pdl\drivers/peripheral/ctdac/cy_ctdac.h **** #ifdef CY_IP_MXS40PASS_CTDAC
 366:Generated_Source\PSoC6\pdl\drivers/peripheral/ctdac/cy_ctdac.h **** 
 367:Generated_Source\PSoC6\pdl\drivers/peripheral/ctdac/cy_ctdac.h **** #if defined(__cplusplus)
 368:Generated_Source\PSoC6\pdl\drivers/peripheral/ctdac/cy_ctdac.h **** extern "C" {
 369:Generated_Source\PSoC6\pdl\drivers/peripheral/ctdac/cy_ctdac.h **** #endif
 370:Generated_Source\PSoC6\pdl\drivers/peripheral/ctdac/cy_ctdac.h **** 
 371:Generated_Source\PSoC6\pdl\drivers/peripheral/ctdac/cy_ctdac.h **** /** \addtogroup group_ctdac_macros
 372:Generated_Source\PSoC6\pdl\drivers/peripheral/ctdac/cy_ctdac.h **** * \{
 373:Generated_Source\PSoC6\pdl\drivers/peripheral/ctdac/cy_ctdac.h **** */
ARM GAS  C:\Users\JC\AppData\Local\Temp\cclwO4Ug.s 			page 8


 374:Generated_Source\PSoC6\pdl\drivers/peripheral/ctdac/cy_ctdac.h **** 
 375:Generated_Source\PSoC6\pdl\drivers/peripheral/ctdac/cy_ctdac.h **** /** Driver major version */
 376:Generated_Source\PSoC6\pdl\drivers/peripheral/ctdac/cy_ctdac.h **** #define CY_CTDAC_DRV_VERSION_MAJOR       2
 377:Generated_Source\PSoC6\pdl\drivers/peripheral/ctdac/cy_ctdac.h **** 
 378:Generated_Source\PSoC6\pdl\drivers/peripheral/ctdac/cy_ctdac.h **** /** Driver minor version */
 379:Generated_Source\PSoC6\pdl\drivers/peripheral/ctdac/cy_ctdac.h **** #define CY_CTDAC_DRV_VERSION_MINOR       0
 380:Generated_Source\PSoC6\pdl\drivers/peripheral/ctdac/cy_ctdac.h **** 
 381:Generated_Source\PSoC6\pdl\drivers/peripheral/ctdac/cy_ctdac.h **** /** CTDAC driver identifier */
 382:Generated_Source\PSoC6\pdl\drivers/peripheral/ctdac/cy_ctdac.h **** #define CY_CTDAC_ID                       CY_PDL_DRV_ID(0x19u)
 383:Generated_Source\PSoC6\pdl\drivers/peripheral/ctdac/cy_ctdac.h **** 
 384:Generated_Source\PSoC6\pdl\drivers/peripheral/ctdac/cy_ctdac.h **** #define CY_CTDAC_DEINIT                         (0uL)                                              
 385:Generated_Source\PSoC6\pdl\drivers/peripheral/ctdac/cy_ctdac.h **** #define CY_CTDAC_UNSIGNED_MID_CODE_VALUE        (0x800uL)                                          
 386:Generated_Source\PSoC6\pdl\drivers/peripheral/ctdac/cy_ctdac.h **** #define CY_CTDAC_UNSIGNED_MAX_CODE_VALUE        (0xFFFuL)                                          
 387:Generated_Source\PSoC6\pdl\drivers/peripheral/ctdac/cy_ctdac.h **** #define CY_CTDAC_FAST_CLKCFG_TYPE               CY_SYSCLK_DIV_8_BIT                                
 388:Generated_Source\PSoC6\pdl\drivers/peripheral/ctdac/cy_ctdac.h **** #define CY_CTDAC_FAST_CLKCFG_NUM                (0uL)                                              
 389:Generated_Source\PSoC6\pdl\drivers/peripheral/ctdac/cy_ctdac.h **** #define CY_CTDAC_FAST_CLKCFG_DIV                (99uL)                                             
 390:Generated_Source\PSoC6\pdl\drivers/peripheral/ctdac/cy_ctdac.h **** 
 391:Generated_Source\PSoC6\pdl\drivers/peripheral/ctdac/cy_ctdac.h **** /** \cond INTERNAL */
 392:Generated_Source\PSoC6\pdl\drivers/peripheral/ctdac/cy_ctdac.h **** #define CY_CTDAC_DEINT_CTDAC_SW                 (CTDAC_CTDAC_SW_CLEAR_CTDD_CVD_Msk | CTDAC_CTDAC_SW
 393:Generated_Source\PSoC6\pdl\drivers/peripheral/ctdac/cy_ctdac.h **** #define CY_CTDAC_STROBE_EDGE_IMMEDIATE_DIV      (0uL)                                              
 394:Generated_Source\PSoC6\pdl\drivers/peripheral/ctdac/cy_ctdac.h **** #define CY_CTDAC_STROBE_EDGE_IMMEDIATE_DIV_FRAC (0uL)                                              
 395:Generated_Source\PSoC6\pdl\drivers/peripheral/ctdac/cy_ctdac.h **** #define CY_CTDAC_DEGLITCH_CYCLES_MAX            (63uL)
 396:Generated_Source\PSoC6\pdl\drivers/peripheral/ctdac/cy_ctdac.h **** 
 397:Generated_Source\PSoC6\pdl\drivers/peripheral/ctdac/cy_ctdac.h **** /**< Macros for conditions used by CY_ASSERT calls */
 398:Generated_Source\PSoC6\pdl\drivers/peripheral/ctdac/cy_ctdac.h **** #define CY_CTDAC_REFSOURCE(source)                  (((source) == CY_CTDAC_REFSOURCE_EXTERNAL) || (
 399:Generated_Source\PSoC6\pdl\drivers/peripheral/ctdac/cy_ctdac.h **** #define CY_CTDAC_FORMAT(mode)                       (((mode) == CY_CTDAC_FORMAT_UNSIGNED) || ((mode
 400:Generated_Source\PSoC6\pdl\drivers/peripheral/ctdac/cy_ctdac.h **** #define CY_CTDAC_UPDATE(mode)                       ((mode) <= CY_CTDAC_UPDATE_STROBE_LEVEL)
 401:Generated_Source\PSoC6\pdl\drivers/peripheral/ctdac/cy_ctdac.h **** #define CY_CTDAC_DEGLITCH(mode)                     (((mode) == CY_CTDAC_DEGLITCHMODE_NONE) \
 402:Generated_Source\PSoC6\pdl\drivers/peripheral/ctdac/cy_ctdac.h ****                                                     || ((mode) == CY_CTDAC_DEGLITCHMODE_UNBUFFERED)
 403:Generated_Source\PSoC6\pdl\drivers/peripheral/ctdac/cy_ctdac.h ****                                                     || ((mode) == CY_CTDAC_DEGLITCHMODE_BUFFERED) \
 404:Generated_Source\PSoC6\pdl\drivers/peripheral/ctdac/cy_ctdac.h ****                                                     || ((mode) == CY_CTDAC_DEGLITCHMODE_BOTH))
 405:Generated_Source\PSoC6\pdl\drivers/peripheral/ctdac/cy_ctdac.h **** #define CY_CTDAC_OUTPUTMODE(mode)                   (((mode) == CY_CTDAC_OUTPUT_HIGHZ) \
 406:Generated_Source\PSoC6\pdl\drivers/peripheral/ctdac/cy_ctdac.h ****                                                     || ((mode) == CY_CTDAC_OUTPUT_VALUE) \
 407:Generated_Source\PSoC6\pdl\drivers/peripheral/ctdac/cy_ctdac.h ****                                                     || ((mode) == CY_CTDAC_OUTPUT_VALUE_PLUS1) \
 408:Generated_Source\PSoC6\pdl\drivers/peripheral/ctdac/cy_ctdac.h ****                                                     || ((mode) == CY_CTDAC_OUTPUT_VSSA) \
 409:Generated_Source\PSoC6\pdl\drivers/peripheral/ctdac/cy_ctdac.h ****                                                     || ((mode) == CY_CTDAC_OUTPUT_VREF))
 410:Generated_Source\PSoC6\pdl\drivers/peripheral/ctdac/cy_ctdac.h **** #define CY_CTDAC_OUTPUTBUFFER(buffer)               (((buffer) == CY_CTDAC_OUTPUT_UNBUFFERED) || ((
 411:Generated_Source\PSoC6\pdl\drivers/peripheral/ctdac/cy_ctdac.h **** #define CY_CTDAC_DEEPSLEEP(deepSleep)               (((deepSleep) == CY_CTDAC_DEEPSLEEP_DISABLE) ||
 412:Generated_Source\PSoC6\pdl\drivers/peripheral/ctdac/cy_ctdac.h **** #define CY_CTDAC_DEGLITCHCYCLES(cycles)             ((cycles) <= CY_CTDAC_DEGLITCH_CYCLES_MAX)
 413:Generated_Source\PSoC6\pdl\drivers/peripheral/ctdac/cy_ctdac.h **** #define CY_CTDAC_SWITCHMASK(mask)                   ((mask) <= (uint32_t) (CY_CTDAC_SWITCH_CVD_MASK
 414:Generated_Source\PSoC6\pdl\drivers/peripheral/ctdac/cy_ctdac.h **** #define CY_CTDAC_SWITCHSTATE(state)                 (((state) == CY_CTDAC_SWITCH_OPEN) || ((state) 
 415:Generated_Source\PSoC6\pdl\drivers/peripheral/ctdac/cy_ctdac.h **** #define CY_CTDAC_INTRMASK(mask)                     (((mask) == 0uL) || ((mask) == 1uL))
 416:Generated_Source\PSoC6\pdl\drivers/peripheral/ctdac/cy_ctdac.h **** /** \endcond */
 417:Generated_Source\PSoC6\pdl\drivers/peripheral/ctdac/cy_ctdac.h **** 
 418:Generated_Source\PSoC6\pdl\drivers/peripheral/ctdac/cy_ctdac.h **** /** \} group_ctdac_macros */
 419:Generated_Source\PSoC6\pdl\drivers/peripheral/ctdac/cy_ctdac.h **** 
 420:Generated_Source\PSoC6\pdl\drivers/peripheral/ctdac/cy_ctdac.h **** /***************************************
 421:Generated_Source\PSoC6\pdl\drivers/peripheral/ctdac/cy_ctdac.h **** *       Enumerated Types
 422:Generated_Source\PSoC6\pdl\drivers/peripheral/ctdac/cy_ctdac.h **** ***************************************/
 423:Generated_Source\PSoC6\pdl\drivers/peripheral/ctdac/cy_ctdac.h **** 
 424:Generated_Source\PSoC6\pdl\drivers/peripheral/ctdac/cy_ctdac.h **** /**
 425:Generated_Source\PSoC6\pdl\drivers/peripheral/ctdac/cy_ctdac.h **** * \addtogroup group_ctdac_enums
 426:Generated_Source\PSoC6\pdl\drivers/peripheral/ctdac/cy_ctdac.h **** * \{
 427:Generated_Source\PSoC6\pdl\drivers/peripheral/ctdac/cy_ctdac.h **** */
 428:Generated_Source\PSoC6\pdl\drivers/peripheral/ctdac/cy_ctdac.h **** 
 429:Generated_Source\PSoC6\pdl\drivers/peripheral/ctdac/cy_ctdac.h **** /**
 430:Generated_Source\PSoC6\pdl\drivers/peripheral/ctdac/cy_ctdac.h **** * Configure the mode for how the DAC value is updated.
ARM GAS  C:\Users\JC\AppData\Local\Temp\cclwO4Ug.s 			page 9


 431:Generated_Source\PSoC6\pdl\drivers/peripheral/ctdac/cy_ctdac.h **** * All the modes require a CTDAC clock except for \ref group_ctdac_updatemode_direct_write.
 432:Generated_Source\PSoC6\pdl\drivers/peripheral/ctdac/cy_ctdac.h **** */
 433:Generated_Source\PSoC6\pdl\drivers/peripheral/ctdac/cy_ctdac.h **** typedef enum {
 434:Generated_Source\PSoC6\pdl\drivers/peripheral/ctdac/cy_ctdac.h ****     CY_CTDAC_UPDATE_DIRECT_WRITE            = 0uL,  /**< DAC value is updated with a direct write b
 435:Generated_Source\PSoC6\pdl\drivers/peripheral/ctdac/cy_ctdac.h ****     CY_CTDAC_UPDATE_BUFFERED_WRITE          = 1uL,  /**< DAC value stored with \ref Cy_CTDAC_SetVal
 436:Generated_Source\PSoC6\pdl\drivers/peripheral/ctdac/cy_ctdac.h ****     CY_CTDAC_UPDATE_STROBE_EDGE_SYNC        = 2uL,  /**< DAC value stored with \ref Cy_CTDAC_SetVal
 437:Generated_Source\PSoC6\pdl\drivers/peripheral/ctdac/cy_ctdac.h ****     CY_CTDAC_UPDATE_STROBE_EDGE_IMMEDIATE   = 3uL,  /**< DAC value stored with \ref Cy_CTDAC_SetVal
 438:Generated_Source\PSoC6\pdl\drivers/peripheral/ctdac/cy_ctdac.h ****     CY_CTDAC_UPDATE_STROBE_LEVEL            = 4uL   /**< DAC value stored with \ref Cy_CTDAC_SetVal
 439:Generated_Source\PSoC6\pdl\drivers/peripheral/ctdac/cy_ctdac.h **** }cy_en_ctdac_update_t;
 440:Generated_Source\PSoC6\pdl\drivers/peripheral/ctdac/cy_ctdac.h **** 
 441:Generated_Source\PSoC6\pdl\drivers/peripheral/ctdac/cy_ctdac.h **** /**
 442:Generated_Source\PSoC6\pdl\drivers/peripheral/ctdac/cy_ctdac.h **** * Configure the format in which the DAC value register is decoded.
 443:Generated_Source\PSoC6\pdl\drivers/peripheral/ctdac/cy_ctdac.h **** */
 444:Generated_Source\PSoC6\pdl\drivers/peripheral/ctdac/cy_ctdac.h **** typedef enum {
 445:Generated_Source\PSoC6\pdl\drivers/peripheral/ctdac/cy_ctdac.h ****     CY_CTDAC_FORMAT_UNSIGNED    = 0uL,                                         /**< Unsigned 12-bit
 446:Generated_Source\PSoC6\pdl\drivers/peripheral/ctdac/cy_ctdac.h ****     CY_CTDAC_FORMAT_SIGNED      = 1uL << CTDAC_CTDAC_CTRL_CTDAC_MODE_Pos       /**< Virtual signed.
 447:Generated_Source\PSoC6\pdl\drivers/peripheral/ctdac/cy_ctdac.h **** }cy_en_ctdac_format_t;
 448:Generated_Source\PSoC6\pdl\drivers/peripheral/ctdac/cy_ctdac.h **** 
 449:Generated_Source\PSoC6\pdl\drivers/peripheral/ctdac/cy_ctdac.h **** /**
 450:Generated_Source\PSoC6\pdl\drivers/peripheral/ctdac/cy_ctdac.h **** * Enable or disable the CTDAC hardware during Deep Sleep.
 451:Generated_Source\PSoC6\pdl\drivers/peripheral/ctdac/cy_ctdac.h **** */
 452:Generated_Source\PSoC6\pdl\drivers/peripheral/ctdac/cy_ctdac.h **** typedef enum {
 453:Generated_Source\PSoC6\pdl\drivers/peripheral/ctdac/cy_ctdac.h ****     CY_CTDAC_DEEPSLEEP_DISABLE  = 0uL,                                  /**< DAC is disabled during
 454:Generated_Source\PSoC6\pdl\drivers/peripheral/ctdac/cy_ctdac.h ****     CY_CTDAC_DEEPSLEEP_ENABLE   = CTDAC_CTDAC_CTRL_DEEPSLEEP_ON_Msk     /**< DAC remains enabled du
 455:Generated_Source\PSoC6\pdl\drivers/peripheral/ctdac/cy_ctdac.h **** }cy_en_ctdac_deep_sleep_t;
 456:Generated_Source\PSoC6\pdl\drivers/peripheral/ctdac/cy_ctdac.h **** 
 457:Generated_Source\PSoC6\pdl\drivers/peripheral/ctdac/cy_ctdac.h **** /**
 458:Generated_Source\PSoC6\pdl\drivers/peripheral/ctdac/cy_ctdac.h **** * Configure the output state of the CTDAC.
 459:Generated_Source\PSoC6\pdl\drivers/peripheral/ctdac/cy_ctdac.h **** */
 460:Generated_Source\PSoC6\pdl\drivers/peripheral/ctdac/cy_ctdac.h **** typedef enum {
 461:Generated_Source\PSoC6\pdl\drivers/peripheral/ctdac/cy_ctdac.h ****     CY_CTDAC_OUTPUT_HIGHZ           = 0uL,                                  /**< DAC output is tri-
 462:Generated_Source\PSoC6\pdl\drivers/peripheral/ctdac/cy_ctdac.h ****     CY_CTDAC_OUTPUT_VALUE           = CTDAC_CTDAC_CTRL_OUT_EN_Msk,          /**< DAC Output is enab
 463:Generated_Source\PSoC6\pdl\drivers/peripheral/ctdac/cy_ctdac.h ****     CY_CTDAC_OUTPUT_VALUE_PLUS1     = CTDAC_CTDAC_CTRL_OUT_EN_Msk \
 464:Generated_Source\PSoC6\pdl\drivers/peripheral/ctdac/cy_ctdac.h ****                                       | CTDAC_CTDAC_CTRL_CTDAC_RANGE_Msk,   /**< DAC Output enabled
 465:Generated_Source\PSoC6\pdl\drivers/peripheral/ctdac/cy_ctdac.h ****     CY_CTDAC_OUTPUT_VSSA            = CTDAC_CTDAC_CTRL_DISABLED_MODE_Msk,   /**< Output is pulled t
 466:Generated_Source\PSoC6\pdl\drivers/peripheral/ctdac/cy_ctdac.h ****     CY_CTDAC_OUTPUT_VREF            = CTDAC_CTDAC_CTRL_DISABLED_MODE_Msk \
 467:Generated_Source\PSoC6\pdl\drivers/peripheral/ctdac/cy_ctdac.h ****                                       | CTDAC_CTDAC_CTRL_CTDAC_RANGE_Msk    /**< Output is pulled t
 468:Generated_Source\PSoC6\pdl\drivers/peripheral/ctdac/cy_ctdac.h **** }cy_en_ctdac_output_mode_t;
 469:Generated_Source\PSoC6\pdl\drivers/peripheral/ctdac/cy_ctdac.h **** 
 470:Generated_Source\PSoC6\pdl\drivers/peripheral/ctdac/cy_ctdac.h **** /**
 471:Generated_Source\PSoC6\pdl\drivers/peripheral/ctdac/cy_ctdac.h **** * Configure the deglitch mode. See the \ref group_ctdac_deglitch section for
 472:Generated_Source\PSoC6\pdl\drivers/peripheral/ctdac/cy_ctdac.h **** * more information on how deglitching works.
 473:Generated_Source\PSoC6\pdl\drivers/peripheral/ctdac/cy_ctdac.h **** */
 474:Generated_Source\PSoC6\pdl\drivers/peripheral/ctdac/cy_ctdac.h **** typedef enum {
 475:Generated_Source\PSoC6\pdl\drivers/peripheral/ctdac/cy_ctdac.h ****     CY_CTDAC_DEGLITCHMODE_NONE          = 0uL,                                  /**< Disable deglit
 476:Generated_Source\PSoC6\pdl\drivers/peripheral/ctdac/cy_ctdac.h ****     CY_CTDAC_DEGLITCHMODE_UNBUFFERED    = CTDAC_CTDAC_CTRL_DEGLITCH_CO6_Msk,    /**< Deglitch throu
 477:Generated_Source\PSoC6\pdl\drivers/peripheral/ctdac/cy_ctdac.h ****     CY_CTDAC_DEGLITCHMODE_BUFFERED      = CTDAC_CTDAC_CTRL_DEGLITCH_COS_Msk,    /**< Deglitch throu
 478:Generated_Source\PSoC6\pdl\drivers/peripheral/ctdac/cy_ctdac.h ****     CY_CTDAC_DEGLITCHMODE_BOTH          = CTDAC_CTDAC_CTRL_DEGLITCH_COS_Msk \
 479:Generated_Source\PSoC6\pdl\drivers/peripheral/ctdac/cy_ctdac.h ****                                           | CTDAC_CTDAC_CTRL_DEGLITCH_CO6_Msk   /**< Deglitch throu
 480:Generated_Source\PSoC6\pdl\drivers/peripheral/ctdac/cy_ctdac.h **** }cy_en_ctdac_deglitch_t;
 481:Generated_Source\PSoC6\pdl\drivers/peripheral/ctdac/cy_ctdac.h **** 
 482:Generated_Source\PSoC6\pdl\drivers/peripheral/ctdac/cy_ctdac.h **** /**
 483:Generated_Source\PSoC6\pdl\drivers/peripheral/ctdac/cy_ctdac.h **** * Configure the reference source for the CTDAC
 484:Generated_Source\PSoC6\pdl\drivers/peripheral/ctdac/cy_ctdac.h **** *
 485:Generated_Source\PSoC6\pdl\drivers/peripheral/ctdac/cy_ctdac.h **** * The CVD switch is closed when Vdda is the reference source.
 486:Generated_Source\PSoC6\pdl\drivers/peripheral/ctdac/cy_ctdac.h **** */
 487:Generated_Source\PSoC6\pdl\drivers/peripheral/ctdac/cy_ctdac.h **** typedef enum {
ARM GAS  C:\Users\JC\AppData\Local\Temp\cclwO4Ug.s 			page 10


 488:Generated_Source\PSoC6\pdl\drivers/peripheral/ctdac/cy_ctdac.h ****     CY_CTDAC_REFSOURCE_EXTERNAL     = 0uL,        /**< Use an external source from Opamp1 of the CT
 489:Generated_Source\PSoC6\pdl\drivers/peripheral/ctdac/cy_ctdac.h ****     CY_CTDAC_REFSOURCE_VDDA         = 1uL         /**< Use Vdda as the reference. CVD switch is clo
 490:Generated_Source\PSoC6\pdl\drivers/peripheral/ctdac/cy_ctdac.h **** }cy_en_ctdac_ref_source_t;
 491:Generated_Source\PSoC6\pdl\drivers/peripheral/ctdac/cy_ctdac.h **** 
 492:Generated_Source\PSoC6\pdl\drivers/peripheral/ctdac/cy_ctdac.h **** /** Configure the output to be buffered or unbuffered
 493:Generated_Source\PSoC6\pdl\drivers/peripheral/ctdac/cy_ctdac.h **** *
 494:Generated_Source\PSoC6\pdl\drivers/peripheral/ctdac/cy_ctdac.h **** * The CO6 switch is closed when the output is unbuffered to Pin 6 of the CTDAC port.
 495:Generated_Source\PSoC6\pdl\drivers/peripheral/ctdac/cy_ctdac.h **** * See the device datasheet for the CTDAC port.
 496:Generated_Source\PSoC6\pdl\drivers/peripheral/ctdac/cy_ctdac.h **** */
 497:Generated_Source\PSoC6\pdl\drivers/peripheral/ctdac/cy_ctdac.h **** typedef enum {
 498:Generated_Source\PSoC6\pdl\drivers/peripheral/ctdac/cy_ctdac.h ****     CY_CTDAC_OUTPUT_BUFFERED        = 0uL,      /**< Buffer the output through the CTB OA0 */
 499:Generated_Source\PSoC6\pdl\drivers/peripheral/ctdac/cy_ctdac.h ****     CY_CTDAC_OUTPUT_UNBUFFERED      = 1uL       /**< Send output to a direct pin */
 500:Generated_Source\PSoC6\pdl\drivers/peripheral/ctdac/cy_ctdac.h **** }cy_en_ctdac_output_buffer_t;
 501:Generated_Source\PSoC6\pdl\drivers/peripheral/ctdac/cy_ctdac.h **** 
 502:Generated_Source\PSoC6\pdl\drivers/peripheral/ctdac/cy_ctdac.h **** /** Switch state, either open or closed, to be used in \ref Cy_CTDAC_SetAnalogSwitch. */
 503:Generated_Source\PSoC6\pdl\drivers/peripheral/ctdac/cy_ctdac.h **** typedef enum
 504:Generated_Source\PSoC6\pdl\drivers/peripheral/ctdac/cy_ctdac.h **** {
 505:Generated_Source\PSoC6\pdl\drivers/peripheral/ctdac/cy_ctdac.h ****     CY_CTDAC_SWITCH_OPEN      = 0uL,    /**< Open the switch */
 506:Generated_Source\PSoC6\pdl\drivers/peripheral/ctdac/cy_ctdac.h ****     CY_CTDAC_SWITCH_CLOSE     = 1uL     /**< Close the switch */
 507:Generated_Source\PSoC6\pdl\drivers/peripheral/ctdac/cy_ctdac.h **** }cy_en_ctdac_switch_state_t;
 508:Generated_Source\PSoC6\pdl\drivers/peripheral/ctdac/cy_ctdac.h **** 
 509:Generated_Source\PSoC6\pdl\drivers/peripheral/ctdac/cy_ctdac.h **** /** Switch mask to be used in \ref Cy_CTDAC_SetAnalogSwitch */
 510:Generated_Source\PSoC6\pdl\drivers/peripheral/ctdac/cy_ctdac.h **** typedef enum
 511:Generated_Source\PSoC6\pdl\drivers/peripheral/ctdac/cy_ctdac.h **** {
 512:Generated_Source\PSoC6\pdl\drivers/peripheral/ctdac/cy_ctdac.h ****     CY_CTDAC_SWITCH_CVD_MASK     = CTDAC_CTDAC_SW_CTDD_CVD_Msk,    /**< Switch for the reference so
 513:Generated_Source\PSoC6\pdl\drivers/peripheral/ctdac/cy_ctdac.h ****     CY_CTDAC_SWITCH_CO6_MASK     = CTDAC_CTDAC_SW_CTDO_CO6_Msk     /**< Switch for the output, buff
 514:Generated_Source\PSoC6\pdl\drivers/peripheral/ctdac/cy_ctdac.h **** }cy_en_ctdac_switches_t;
 515:Generated_Source\PSoC6\pdl\drivers/peripheral/ctdac/cy_ctdac.h **** 
 516:Generated_Source\PSoC6\pdl\drivers/peripheral/ctdac/cy_ctdac.h **** /** Return states for \ref Cy_CTDAC_Init, \ref Cy_CTDAC_DeInit, and \ref Cy_CTDAC_FastInit */
 517:Generated_Source\PSoC6\pdl\drivers/peripheral/ctdac/cy_ctdac.h **** typedef enum {
 518:Generated_Source\PSoC6\pdl\drivers/peripheral/ctdac/cy_ctdac.h ****     CY_CTDAC_SUCCESS    = 0x00uL,                                         /**< Initialization compl
 519:Generated_Source\PSoC6\pdl\drivers/peripheral/ctdac/cy_ctdac.h ****     CY_CTDAC_BAD_PARAM  = CY_CTDAC_ID | CY_PDL_STATUS_ERROR | 0x01uL      /**< Input pointers were 
 520:Generated_Source\PSoC6\pdl\drivers/peripheral/ctdac/cy_ctdac.h **** }cy_en_ctdac_status_t;
 521:Generated_Source\PSoC6\pdl\drivers/peripheral/ctdac/cy_ctdac.h **** 
 522:Generated_Source\PSoC6\pdl\drivers/peripheral/ctdac/cy_ctdac.h **** /** \} group_ctdac_enums */
 523:Generated_Source\PSoC6\pdl\drivers/peripheral/ctdac/cy_ctdac.h **** 
 524:Generated_Source\PSoC6\pdl\drivers/peripheral/ctdac/cy_ctdac.h **** /***************************************
 525:Generated_Source\PSoC6\pdl\drivers/peripheral/ctdac/cy_ctdac.h **** *       Configuration Structures
 526:Generated_Source\PSoC6\pdl\drivers/peripheral/ctdac/cy_ctdac.h **** ***************************************/
 527:Generated_Source\PSoC6\pdl\drivers/peripheral/ctdac/cy_ctdac.h **** 
 528:Generated_Source\PSoC6\pdl\drivers/peripheral/ctdac/cy_ctdac.h **** /**
 529:Generated_Source\PSoC6\pdl\drivers/peripheral/ctdac/cy_ctdac.h **** * \addtogroup group_ctdac_data_structures
 530:Generated_Source\PSoC6\pdl\drivers/peripheral/ctdac/cy_ctdac.h **** * \{
 531:Generated_Source\PSoC6\pdl\drivers/peripheral/ctdac/cy_ctdac.h **** */
 532:Generated_Source\PSoC6\pdl\drivers/peripheral/ctdac/cy_ctdac.h **** 
 533:Generated_Source\PSoC6\pdl\drivers/peripheral/ctdac/cy_ctdac.h **** /** Configuration structure to set up the entire CTDAC block to be used with \ref Cy_CTDAC_Init
 534:Generated_Source\PSoC6\pdl\drivers/peripheral/ctdac/cy_ctdac.h **** */
 535:Generated_Source\PSoC6\pdl\drivers/peripheral/ctdac/cy_ctdac.h **** typedef struct
 536:Generated_Source\PSoC6\pdl\drivers/peripheral/ctdac/cy_ctdac.h **** {
 537:Generated_Source\PSoC6\pdl\drivers/peripheral/ctdac/cy_ctdac.h ****     cy_en_ctdac_ref_source_t    refSource;          /**< Reference source: Vdda or externally throu
 538:Generated_Source\PSoC6\pdl\drivers/peripheral/ctdac/cy_ctdac.h ****     cy_en_ctdac_format_t        formatMode;         /**< Format of DAC value: signed or unsigned */
 539:Generated_Source\PSoC6\pdl\drivers/peripheral/ctdac/cy_ctdac.h ****     cy_en_ctdac_update_t        updateMode;         /**< Update mode: direct or buffered writes or 
 540:Generated_Source\PSoC6\pdl\drivers/peripheral/ctdac/cy_ctdac.h ****     cy_en_ctdac_deglitch_t      deglitchMode;       /**< Deglitch mode: disabled, buffered, unbuffe
 541:Generated_Source\PSoC6\pdl\drivers/peripheral/ctdac/cy_ctdac.h ****     cy_en_ctdac_output_mode_t   outputMode;         /**< Output mode: enabled (value or value + 1),
 542:Generated_Source\PSoC6\pdl\drivers/peripheral/ctdac/cy_ctdac.h ****     cy_en_ctdac_output_buffer_t outputBuffer;       /**< Output path: Buffered through Opamp0 of CT
 543:Generated_Source\PSoC6\pdl\drivers/peripheral/ctdac/cy_ctdac.h ****     cy_en_ctdac_deep_sleep_t    deepSleep;          /**< Enable or disable the CTDAC during Deep Sl
 544:Generated_Source\PSoC6\pdl\drivers/peripheral/ctdac/cy_ctdac.h ****     uint32_t                    deglitchCycles;     /**< Number of deglitch cycles from 0 to 63 */
ARM GAS  C:\Users\JC\AppData\Local\Temp\cclwO4Ug.s 			page 11


 545:Generated_Source\PSoC6\pdl\drivers/peripheral/ctdac/cy_ctdac.h ****     int32_t                     value;              /**< Current DAC value */
 546:Generated_Source\PSoC6\pdl\drivers/peripheral/ctdac/cy_ctdac.h ****     int32_t                     nextValue;          /**< Next DAC value for double buffering */
 547:Generated_Source\PSoC6\pdl\drivers/peripheral/ctdac/cy_ctdac.h ****     bool                        enableInterrupt;    /**< If true, enable interrupt when next value 
 548:Generated_Source\PSoC6\pdl\drivers/peripheral/ctdac/cy_ctdac.h **** 
 549:Generated_Source\PSoC6\pdl\drivers/peripheral/ctdac/cy_ctdac.h ****     /* Configuring the clock */
 550:Generated_Source\PSoC6\pdl\drivers/peripheral/ctdac/cy_ctdac.h ****     bool                        configClock;        /**< Configure or ignore clock information */
 551:Generated_Source\PSoC6\pdl\drivers/peripheral/ctdac/cy_ctdac.h ****     cy_en_divider_types_t       dividerType;        /**< Specifies which type of divider to use. Ca
 552:Generated_Source\PSoC6\pdl\drivers/peripheral/ctdac/cy_ctdac.h ****     uint32_t                    dividerNum;         /**< Specifies which divider of the selected ty
 553:Generated_Source\PSoC6\pdl\drivers/peripheral/ctdac/cy_ctdac.h ****     uint32_t                    dividerIntValue;    /**< The integer divider value. The divider val
 554:Generated_Source\PSoC6\pdl\drivers/peripheral/ctdac/cy_ctdac.h ****     uint32_t                    dividerFracValue;   /**< The fractional divider value if using a fr
 555:Generated_Source\PSoC6\pdl\drivers/peripheral/ctdac/cy_ctdac.h **** }cy_stc_ctdac_config_t;
 556:Generated_Source\PSoC6\pdl\drivers/peripheral/ctdac/cy_ctdac.h **** 
 557:Generated_Source\PSoC6\pdl\drivers/peripheral/ctdac/cy_ctdac.h **** /** Configuration structure to quickly set up the CTDAC to be used with \ref Cy_CTDAC_FastInit
 558:Generated_Source\PSoC6\pdl\drivers/peripheral/ctdac/cy_ctdac.h **** * This structure provides a selection for the CTDAC reference source and output path.
 559:Generated_Source\PSoC6\pdl\drivers/peripheral/ctdac/cy_ctdac.h **** *
 560:Generated_Source\PSoC6\pdl\drivers/peripheral/ctdac/cy_ctdac.h **** * The other configuration options are set to:
 561:Generated_Source\PSoC6\pdl\drivers/peripheral/ctdac/cy_ctdac.h **** *   - .formatMode       = \ref CY_CTDAC_FORMAT_UNSIGNED
 562:Generated_Source\PSoC6\pdl\drivers/peripheral/ctdac/cy_ctdac.h **** *   - .updateMode       = \ref CY_CTDAC_UPDATE_BUFFERED_WRITE
 563:Generated_Source\PSoC6\pdl\drivers/peripheral/ctdac/cy_ctdac.h **** *   - .deglitchMode     = \ref CY_CTDAC_DEGLITCHMODE_NONE
 564:Generated_Source\PSoC6\pdl\drivers/peripheral/ctdac/cy_ctdac.h **** *   - .outputMode       = \ref CY_CTDAC_OUTPUT_VALUE
 565:Generated_Source\PSoC6\pdl\drivers/peripheral/ctdac/cy_ctdac.h **** *   - .deepSleep        = \ref CY_CTDAC_DEEPSLEEP_DISABLE
 566:Generated_Source\PSoC6\pdl\drivers/peripheral/ctdac/cy_ctdac.h **** *   - .deglitchCycles   = \ref CY_CTDAC_DEINIT
 567:Generated_Source\PSoC6\pdl\drivers/peripheral/ctdac/cy_ctdac.h **** *   - .value            = \ref CY_CTDAC_UNSIGNED_MID_CODE_VALUE
 568:Generated_Source\PSoC6\pdl\drivers/peripheral/ctdac/cy_ctdac.h **** *   - .nextValue        = \ref CY_CTDAC_UNSIGNED_MID_CODE_VALUE
 569:Generated_Source\PSoC6\pdl\drivers/peripheral/ctdac/cy_ctdac.h **** *   - .enableInterrupt  = true
 570:Generated_Source\PSoC6\pdl\drivers/peripheral/ctdac/cy_ctdac.h **** *   - .configClock      = true
 571:Generated_Source\PSoC6\pdl\drivers/peripheral/ctdac/cy_ctdac.h **** *   - .dividerType      = \ref CY_CTDAC_FAST_CLKCFG_TYPE
 572:Generated_Source\PSoC6\pdl\drivers/peripheral/ctdac/cy_ctdac.h **** *   - .dividerNum       = \ref CY_CTDAC_FAST_CLKCFG_NUM
 573:Generated_Source\PSoC6\pdl\drivers/peripheral/ctdac/cy_ctdac.h **** *   - .dividerInitValue = \ref CY_CTDAC_FAST_CLKCFG_DIV
 574:Generated_Source\PSoC6\pdl\drivers/peripheral/ctdac/cy_ctdac.h **** *   - .dividerFracValue = \ref CY_CTDAC_DEINIT
 575:Generated_Source\PSoC6\pdl\drivers/peripheral/ctdac/cy_ctdac.h **** */
 576:Generated_Source\PSoC6\pdl\drivers/peripheral/ctdac/cy_ctdac.h **** typedef struct
 577:Generated_Source\PSoC6\pdl\drivers/peripheral/ctdac/cy_ctdac.h **** {
 578:Generated_Source\PSoC6\pdl\drivers/peripheral/ctdac/cy_ctdac.h ****     cy_en_ctdac_ref_source_t    refSource;          /**< Reference source: Vdda or externally throu
 579:Generated_Source\PSoC6\pdl\drivers/peripheral/ctdac/cy_ctdac.h ****     cy_en_ctdac_output_buffer_t outputBuffer;       /**< Output path: Buffered through Opamp0 of CT
 580:Generated_Source\PSoC6\pdl\drivers/peripheral/ctdac/cy_ctdac.h **** }cy_stc_ctdac_fast_config_t;
 581:Generated_Source\PSoC6\pdl\drivers/peripheral/ctdac/cy_ctdac.h **** 
 582:Generated_Source\PSoC6\pdl\drivers/peripheral/ctdac/cy_ctdac.h **** /** CTDAC context structure.
 583:Generated_Source\PSoC6\pdl\drivers/peripheral/ctdac/cy_ctdac.h **** * All fields for the context structure are internal. Firmware never reads or
 584:Generated_Source\PSoC6\pdl\drivers/peripheral/ctdac/cy_ctdac.h **** * writes these values. Firmware allocates the structure and provides the
 585:Generated_Source\PSoC6\pdl\drivers/peripheral/ctdac/cy_ctdac.h **** * address of the structure when registering the \ref Cy_CTDAC_DeepSleepCallback.
 586:Generated_Source\PSoC6\pdl\drivers/peripheral/ctdac/cy_ctdac.h **** * Firmware must ensure that the defined instance of this structure remains in scope
 587:Generated_Source\PSoC6\pdl\drivers/peripheral/ctdac/cy_ctdac.h **** * while the drive is in use.
 588:Generated_Source\PSoC6\pdl\drivers/peripheral/ctdac/cy_ctdac.h **** */
 589:Generated_Source\PSoC6\pdl\drivers/peripheral/ctdac/cy_ctdac.h **** typedef struct
 590:Generated_Source\PSoC6\pdl\drivers/peripheral/ctdac/cy_ctdac.h **** {
 591:Generated_Source\PSoC6\pdl\drivers/peripheral/ctdac/cy_ctdac.h ****     uint32_t deglitchModeBeforeSleep;   /**< Tracks the state of the deglitch mode before sleep so 
 592:Generated_Source\PSoC6\pdl\drivers/peripheral/ctdac/cy_ctdac.h **** }cy_stc_ctdac_context_t;
 593:Generated_Source\PSoC6\pdl\drivers/peripheral/ctdac/cy_ctdac.h **** 
 594:Generated_Source\PSoC6\pdl\drivers/peripheral/ctdac/cy_ctdac.h **** /** \} group_ctdac_data_structures */
 595:Generated_Source\PSoC6\pdl\drivers/peripheral/ctdac/cy_ctdac.h **** 
 596:Generated_Source\PSoC6\pdl\drivers/peripheral/ctdac/cy_ctdac.h **** /** \addtogroup group_ctdac_globals
 597:Generated_Source\PSoC6\pdl\drivers/peripheral/ctdac/cy_ctdac.h **** * \{
 598:Generated_Source\PSoC6\pdl\drivers/peripheral/ctdac/cy_ctdac.h **** */
 599:Generated_Source\PSoC6\pdl\drivers/peripheral/ctdac/cy_ctdac.h **** /***************************************
 600:Generated_Source\PSoC6\pdl\drivers/peripheral/ctdac/cy_ctdac.h **** *        Global Variables
 601:Generated_Source\PSoC6\pdl\drivers/peripheral/ctdac/cy_ctdac.h **** ***************************************/
ARM GAS  C:\Users\JC\AppData\Local\Temp\cclwO4Ug.s 			page 12


 602:Generated_Source\PSoC6\pdl\drivers/peripheral/ctdac/cy_ctdac.h **** 
 603:Generated_Source\PSoC6\pdl\drivers/peripheral/ctdac/cy_ctdac.h **** /** Configure CTDAC to use Vdda reference and output unbuffered. See \ref Cy_CTDAC_FastInit. */
 604:Generated_Source\PSoC6\pdl\drivers/peripheral/ctdac/cy_ctdac.h **** extern const cy_stc_ctdac_fast_config_t Cy_CTDAC_Fast_VddaRef_UnbufferedOut;
 605:Generated_Source\PSoC6\pdl\drivers/peripheral/ctdac/cy_ctdac.h **** 
 606:Generated_Source\PSoC6\pdl\drivers/peripheral/ctdac/cy_ctdac.h **** /** Configure CTDAC to use Vdda reference and output buffered through Opamp0 of CTB. See \ref Cy_CT
 607:Generated_Source\PSoC6\pdl\drivers/peripheral/ctdac/cy_ctdac.h **** *
 608:Generated_Source\PSoC6\pdl\drivers/peripheral/ctdac/cy_ctdac.h **** * To quickly configure Opamp0, call with \ref Cy_CTB_FastInit
 609:Generated_Source\PSoC6\pdl\drivers/peripheral/ctdac/cy_ctdac.h **** * with \ref Cy_CTB_Fast_Opamp0_Vdac_Out or \ref Cy_CTB_Fast_Opamp0_Vdac_Out_SH.
 610:Generated_Source\PSoC6\pdl\drivers/peripheral/ctdac/cy_ctdac.h **** */
 611:Generated_Source\PSoC6\pdl\drivers/peripheral/ctdac/cy_ctdac.h **** extern const cy_stc_ctdac_fast_config_t Cy_CTDAC_Fast_VddaRef_BufferedOut;
 612:Generated_Source\PSoC6\pdl\drivers/peripheral/ctdac/cy_ctdac.h **** 
 613:Generated_Source\PSoC6\pdl\drivers/peripheral/ctdac/cy_ctdac.h **** /** Configure CTDAC to use a buffered reference from Opamp1 of CTB
 614:Generated_Source\PSoC6\pdl\drivers/peripheral/ctdac/cy_ctdac.h **** * and output unbuffered. See \ref Cy_CTDAC_FastInit.
 615:Generated_Source\PSoC6\pdl\drivers/peripheral/ctdac/cy_ctdac.h **** *
 616:Generated_Source\PSoC6\pdl\drivers/peripheral/ctdac/cy_ctdac.h **** * To use the reference from the Analog Reference (AREF),
 617:Generated_Source\PSoC6\pdl\drivers/peripheral/ctdac/cy_ctdac.h **** * call \ref Cy_CTB_FastInit with \ref Cy_CTB_Fast_Opamp1_Vdac_Ref_Aref.
 618:Generated_Source\PSoC6\pdl\drivers/peripheral/ctdac/cy_ctdac.h **** *
 619:Generated_Source\PSoC6\pdl\drivers/peripheral/ctdac/cy_ctdac.h **** * To use an external reference from a GPIO,
 620:Generated_Source\PSoC6\pdl\drivers/peripheral/ctdac/cy_ctdac.h **** * call \ref Cy_CTB_FastInit with \ref Cy_CTB_Fast_Opamp1_Vdac_Ref_Pin5
 621:Generated_Source\PSoC6\pdl\drivers/peripheral/ctdac/cy_ctdac.h **** * for Pin 5 on the CTB port.
 622:Generated_Source\PSoC6\pdl\drivers/peripheral/ctdac/cy_ctdac.h **** */
 623:Generated_Source\PSoC6\pdl\drivers/peripheral/ctdac/cy_ctdac.h **** extern const cy_stc_ctdac_fast_config_t Cy_CTDAC_Fast_OA1Ref_UnbufferedOut;
 624:Generated_Source\PSoC6\pdl\drivers/peripheral/ctdac/cy_ctdac.h **** 
 625:Generated_Source\PSoC6\pdl\drivers/peripheral/ctdac/cy_ctdac.h **** /** Configure CTDAC to use a buffered reference from Opamp1 of CTB
 626:Generated_Source\PSoC6\pdl\drivers/peripheral/ctdac/cy_ctdac.h **** * and output buffered through Opamp0 of CTB. See \ref Cy_CTDAC_FastInit.
 627:Generated_Source\PSoC6\pdl\drivers/peripheral/ctdac/cy_ctdac.h **** *
 628:Generated_Source\PSoC6\pdl\drivers/peripheral/ctdac/cy_ctdac.h **** * To quickly configure Opamp0, call with \ref Cy_CTB_FastInit
 629:Generated_Source\PSoC6\pdl\drivers/peripheral/ctdac/cy_ctdac.h **** * with \ref Cy_CTB_Fast_Opamp0_Vdac_Out or \ref Cy_CTB_Fast_Opamp0_Vdac_Out_SH.
 630:Generated_Source\PSoC6\pdl\drivers/peripheral/ctdac/cy_ctdac.h **** *
 631:Generated_Source\PSoC6\pdl\drivers/peripheral/ctdac/cy_ctdac.h **** * To use the reference from the Analog Reference (AREF),
 632:Generated_Source\PSoC6\pdl\drivers/peripheral/ctdac/cy_ctdac.h **** * call \ref Cy_CTB_FastInit with \ref Cy_CTB_Fast_Opamp1_Vdac_Ref_Aref.
 633:Generated_Source\PSoC6\pdl\drivers/peripheral/ctdac/cy_ctdac.h **** *
 634:Generated_Source\PSoC6\pdl\drivers/peripheral/ctdac/cy_ctdac.h **** * To use an external reference from a GPIO,
 635:Generated_Source\PSoC6\pdl\drivers/peripheral/ctdac/cy_ctdac.h **** * call \ref Cy_CTB_FastInit with \ref Cy_CTB_Fast_Opamp1_Vdac_Ref_Pin5
 636:Generated_Source\PSoC6\pdl\drivers/peripheral/ctdac/cy_ctdac.h **** * for Pins 5 on the CTB port.
 637:Generated_Source\PSoC6\pdl\drivers/peripheral/ctdac/cy_ctdac.h **** */
 638:Generated_Source\PSoC6\pdl\drivers/peripheral/ctdac/cy_ctdac.h **** extern const cy_stc_ctdac_fast_config_t Cy_CTDAC_Fast_OA1Ref_BufferedOut;
 639:Generated_Source\PSoC6\pdl\drivers/peripheral/ctdac/cy_ctdac.h **** 
 640:Generated_Source\PSoC6\pdl\drivers/peripheral/ctdac/cy_ctdac.h **** /** \} group_ctdac_globals */
 641:Generated_Source\PSoC6\pdl\drivers/peripheral/ctdac/cy_ctdac.h **** 
 642:Generated_Source\PSoC6\pdl\drivers/peripheral/ctdac/cy_ctdac.h **** /***************************************
 643:Generated_Source\PSoC6\pdl\drivers/peripheral/ctdac/cy_ctdac.h **** *        Function Prototypes
 644:Generated_Source\PSoC6\pdl\drivers/peripheral/ctdac/cy_ctdac.h **** ***************************************/
 645:Generated_Source\PSoC6\pdl\drivers/peripheral/ctdac/cy_ctdac.h **** 
 646:Generated_Source\PSoC6\pdl\drivers/peripheral/ctdac/cy_ctdac.h **** /**
 647:Generated_Source\PSoC6\pdl\drivers/peripheral/ctdac/cy_ctdac.h **** * \addtogroup group_ctdac_functions
 648:Generated_Source\PSoC6\pdl\drivers/peripheral/ctdac/cy_ctdac.h **** * \{
 649:Generated_Source\PSoC6\pdl\drivers/peripheral/ctdac/cy_ctdac.h **** */
 650:Generated_Source\PSoC6\pdl\drivers/peripheral/ctdac/cy_ctdac.h **** 
 651:Generated_Source\PSoC6\pdl\drivers/peripheral/ctdac/cy_ctdac.h **** /**
 652:Generated_Source\PSoC6\pdl\drivers/peripheral/ctdac/cy_ctdac.h **** * \addtogroup group_ctdac_functions_init
 653:Generated_Source\PSoC6\pdl\drivers/peripheral/ctdac/cy_ctdac.h **** * This set of functions are for initializing, enabling, and disabling the CTDAC.
 654:Generated_Source\PSoC6\pdl\drivers/peripheral/ctdac/cy_ctdac.h **** * \{
 655:Generated_Source\PSoC6\pdl\drivers/peripheral/ctdac/cy_ctdac.h **** */
 656:Generated_Source\PSoC6\pdl\drivers/peripheral/ctdac/cy_ctdac.h **** cy_en_ctdac_status_t Cy_CTDAC_Init(CTDAC_Type *base, const cy_stc_ctdac_config_t *config);
 657:Generated_Source\PSoC6\pdl\drivers/peripheral/ctdac/cy_ctdac.h **** cy_en_ctdac_status_t Cy_CTDAC_DeInit(CTDAC_Type *base, bool deInitRouting);
 658:Generated_Source\PSoC6\pdl\drivers/peripheral/ctdac/cy_ctdac.h **** cy_en_ctdac_status_t Cy_CTDAC_FastInit(CTDAC_Type *base, const cy_stc_ctdac_fast_config_t *config);
ARM GAS  C:\Users\JC\AppData\Local\Temp\cclwO4Ug.s 			page 13


 659:Generated_Source\PSoC6\pdl\drivers/peripheral/ctdac/cy_ctdac.h **** __STATIC_INLINE void Cy_CTDAC_Enable(CTDAC_Type *base);
 660:Generated_Source\PSoC6\pdl\drivers/peripheral/ctdac/cy_ctdac.h **** __STATIC_INLINE void Cy_CTDAC_Disable(CTDAC_Type *base);
 661:Generated_Source\PSoC6\pdl\drivers/peripheral/ctdac/cy_ctdac.h **** /** \} */
 662:Generated_Source\PSoC6\pdl\drivers/peripheral/ctdac/cy_ctdac.h **** 
 663:Generated_Source\PSoC6\pdl\drivers/peripheral/ctdac/cy_ctdac.h **** /**
 664:Generated_Source\PSoC6\pdl\drivers/peripheral/ctdac/cy_ctdac.h **** * \addtogroup group_ctdac_functions_basic
 665:Generated_Source\PSoC6\pdl\drivers/peripheral/ctdac/cy_ctdac.h **** * This set of functions are for configuring basic usage of the CTDAC.
 666:Generated_Source\PSoC6\pdl\drivers/peripheral/ctdac/cy_ctdac.h **** * \{
 667:Generated_Source\PSoC6\pdl\drivers/peripheral/ctdac/cy_ctdac.h **** */
 668:Generated_Source\PSoC6\pdl\drivers/peripheral/ctdac/cy_ctdac.h **** __STATIC_INLINE void Cy_CTDAC_SetValue(CTDAC_Type *base, int32_t value);
 669:Generated_Source\PSoC6\pdl\drivers/peripheral/ctdac/cy_ctdac.h **** __STATIC_INLINE void Cy_CTDAC_SetValueBuffered(CTDAC_Type *base, int32_t value);
 670:Generated_Source\PSoC6\pdl\drivers/peripheral/ctdac/cy_ctdac.h **** void Cy_CTDAC_SetSignMode(CTDAC_Type *base, cy_en_ctdac_format_t formatMode);
 671:Generated_Source\PSoC6\pdl\drivers/peripheral/ctdac/cy_ctdac.h **** void Cy_CTDAC_SetDeepSleepMode(CTDAC_Type *base, cy_en_ctdac_deep_sleep_t deepSleep);
 672:Generated_Source\PSoC6\pdl\drivers/peripheral/ctdac/cy_ctdac.h **** void Cy_CTDAC_SetOutputMode(CTDAC_Type *base, cy_en_ctdac_output_mode_t outputMode);
 673:Generated_Source\PSoC6\pdl\drivers/peripheral/ctdac/cy_ctdac.h **** void Cy_CTDAC_SetDeglitchMode(CTDAC_Type *base, cy_en_ctdac_deglitch_t deglitchMode);
 674:Generated_Source\PSoC6\pdl\drivers/peripheral/ctdac/cy_ctdac.h **** void Cy_CTDAC_SetDeglitchCycles(CTDAC_Type *base, uint32_t deglitchCycles);
 675:Generated_Source\PSoC6\pdl\drivers/peripheral/ctdac/cy_ctdac.h **** void Cy_CTDAC_SetRef(CTDAC_Type *base, cy_en_ctdac_ref_source_t refSource);
 676:Generated_Source\PSoC6\pdl\drivers/peripheral/ctdac/cy_ctdac.h **** /** \} */
 677:Generated_Source\PSoC6\pdl\drivers/peripheral/ctdac/cy_ctdac.h **** 
 678:Generated_Source\PSoC6\pdl\drivers/peripheral/ctdac/cy_ctdac.h **** /** \addtogroup group_ctdac_functions_switches
 679:Generated_Source\PSoC6\pdl\drivers/peripheral/ctdac/cy_ctdac.h **** *
 680:Generated_Source\PSoC6\pdl\drivers/peripheral/ctdac/cy_ctdac.h **** * This set of functions is for controlling the two CTDAC analog switches, CVD, and CO6.
 681:Generated_Source\PSoC6\pdl\drivers/peripheral/ctdac/cy_ctdac.h **** * These are advanced functions. The switches will be managed by the reference
 682:Generated_Source\PSoC6\pdl\drivers/peripheral/ctdac/cy_ctdac.h **** * source and output mode selections when initializing the hardware.
 683:Generated_Source\PSoC6\pdl\drivers/peripheral/ctdac/cy_ctdac.h **** * \{
 684:Generated_Source\PSoC6\pdl\drivers/peripheral/ctdac/cy_ctdac.h **** */
 685:Generated_Source\PSoC6\pdl\drivers/peripheral/ctdac/cy_ctdac.h **** void Cy_CTDAC_SetAnalogSwitch(CTDAC_Type *base, uint32_t switchMask, cy_en_ctdac_switch_state_t sta
 686:Generated_Source\PSoC6\pdl\drivers/peripheral/ctdac/cy_ctdac.h **** __STATIC_INLINE uint32_t Cy_CTDAC_GetAnalogSwitch(const CTDAC_Type *base);
 687:Generated_Source\PSoC6\pdl\drivers/peripheral/ctdac/cy_ctdac.h **** __STATIC_INLINE void Cy_CTDAC_SetSwitchCO6(CTDAC_Type *base, cy_en_ctdac_switch_state_t state);
 688:Generated_Source\PSoC6\pdl\drivers/peripheral/ctdac/cy_ctdac.h **** __STATIC_INLINE void Cy_CTDAC_OpenAllSwitches(CTDAC_Type *base);
 689:Generated_Source\PSoC6\pdl\drivers/peripheral/ctdac/cy_ctdac.h **** /** \} */
 690:Generated_Source\PSoC6\pdl\drivers/peripheral/ctdac/cy_ctdac.h **** 
 691:Generated_Source\PSoC6\pdl\drivers/peripheral/ctdac/cy_ctdac.h **** /** \addtogroup group_ctdac_functions_interrupts
 692:Generated_Source\PSoC6\pdl\drivers/peripheral/ctdac/cy_ctdac.h **** * This set of functions is related to the CTDAC interrupt
 693:Generated_Source\PSoC6\pdl\drivers/peripheral/ctdac/cy_ctdac.h **** * \{
 694:Generated_Source\PSoC6\pdl\drivers/peripheral/ctdac/cy_ctdac.h **** */
 695:Generated_Source\PSoC6\pdl\drivers/peripheral/ctdac/cy_ctdac.h **** __STATIC_INLINE uint32_t Cy_CTDAC_GetInterruptStatus(const CTDAC_Type *base);
 696:Generated_Source\PSoC6\pdl\drivers/peripheral/ctdac/cy_ctdac.h **** __STATIC_INLINE void Cy_CTDAC_ClearInterrupt(CTDAC_Type *base);
 697:Generated_Source\PSoC6\pdl\drivers/peripheral/ctdac/cy_ctdac.h **** __STATIC_INLINE void Cy_CTDAC_SetInterrupt(CTDAC_Type *base);
 698:Generated_Source\PSoC6\pdl\drivers/peripheral/ctdac/cy_ctdac.h **** __STATIC_INLINE void Cy_CTDAC_SetInterruptMask(CTDAC_Type *base, uint32_t mask);
 699:Generated_Source\PSoC6\pdl\drivers/peripheral/ctdac/cy_ctdac.h **** __STATIC_INLINE uint32_t Cy_CTDAC_GetInterruptMask(const CTDAC_Type *base);
 700:Generated_Source\PSoC6\pdl\drivers/peripheral/ctdac/cy_ctdac.h **** __STATIC_INLINE uint32_t Cy_CTDAC_GetInterruptStatusMasked(const CTDAC_Type *base);
 701:Generated_Source\PSoC6\pdl\drivers/peripheral/ctdac/cy_ctdac.h **** /** \} */
 702:Generated_Source\PSoC6\pdl\drivers/peripheral/ctdac/cy_ctdac.h **** 
 703:Generated_Source\PSoC6\pdl\drivers/peripheral/ctdac/cy_ctdac.h **** /** \addtogroup group_ctdac_functions_syspm_callback
 704:Generated_Source\PSoC6\pdl\drivers/peripheral/ctdac/cy_ctdac.h **** * This driver supports one SysPm callback for Deep Sleep transition.
 705:Generated_Source\PSoC6\pdl\drivers/peripheral/ctdac/cy_ctdac.h **** * \{
 706:Generated_Source\PSoC6\pdl\drivers/peripheral/ctdac/cy_ctdac.h **** */
 707:Generated_Source\PSoC6\pdl\drivers/peripheral/ctdac/cy_ctdac.h **** cy_en_syspm_status_t Cy_CTDAC_DeepSleepCallback(cy_stc_syspm_callback_params_t *callbackParams, cy_
 708:Generated_Source\PSoC6\pdl\drivers/peripheral/ctdac/cy_ctdac.h **** /** \} */
 709:Generated_Source\PSoC6\pdl\drivers/peripheral/ctdac/cy_ctdac.h **** 
 710:Generated_Source\PSoC6\pdl\drivers/peripheral/ctdac/cy_ctdac.h **** /**
 711:Generated_Source\PSoC6\pdl\drivers/peripheral/ctdac/cy_ctdac.h **** * \addtogroup group_ctdac_functions_init
 712:Generated_Source\PSoC6\pdl\drivers/peripheral/ctdac/cy_ctdac.h **** * \{
 713:Generated_Source\PSoC6\pdl\drivers/peripheral/ctdac/cy_ctdac.h **** */
 714:Generated_Source\PSoC6\pdl\drivers/peripheral/ctdac/cy_ctdac.h **** /*******************************************************************************
 715:Generated_Source\PSoC6\pdl\drivers/peripheral/ctdac/cy_ctdac.h **** * Function Name: Cy_CTDAC_Enable
ARM GAS  C:\Users\JC\AppData\Local\Temp\cclwO4Ug.s 			page 14


 716:Generated_Source\PSoC6\pdl\drivers/peripheral/ctdac/cy_ctdac.h **** ****************************************************************************//**
 717:Generated_Source\PSoC6\pdl\drivers/peripheral/ctdac/cy_ctdac.h **** *
 718:Generated_Source\PSoC6\pdl\drivers/peripheral/ctdac/cy_ctdac.h **** * Power up the CTDAC hardware block.
 719:Generated_Source\PSoC6\pdl\drivers/peripheral/ctdac/cy_ctdac.h **** *
 720:Generated_Source\PSoC6\pdl\drivers/peripheral/ctdac/cy_ctdac.h **** * \param base
 721:Generated_Source\PSoC6\pdl\drivers/peripheral/ctdac/cy_ctdac.h **** * Pointer to structure describing registers
 722:Generated_Source\PSoC6\pdl\drivers/peripheral/ctdac/cy_ctdac.h **** *
 723:Generated_Source\PSoC6\pdl\drivers/peripheral/ctdac/cy_ctdac.h **** * \return None
 724:Generated_Source\PSoC6\pdl\drivers/peripheral/ctdac/cy_ctdac.h **** *
 725:Generated_Source\PSoC6\pdl\drivers/peripheral/ctdac/cy_ctdac.h **** *******************************************************************************/
 726:Generated_Source\PSoC6\pdl\drivers/peripheral/ctdac/cy_ctdac.h **** __STATIC_INLINE void Cy_CTDAC_Enable(CTDAC_Type *base)
 727:Generated_Source\PSoC6\pdl\drivers/peripheral/ctdac/cy_ctdac.h **** {
  27              		.loc 1 727 0
  28              		.cfi_startproc
  29              		@ args = 0, pretend = 0, frame = 8
  30              		@ frame_needed = 1, uses_anonymous_args = 0
  31 0000 80B5     		push	{r7, lr}
  32              		.cfi_def_cfa_offset 8
  33              		.cfi_offset 7, -8
  34              		.cfi_offset 14, -4
  35 0002 82B0     		sub	sp, sp, #8
  36              		.cfi_def_cfa_offset 16
  37 0004 00AF     		add	r7, sp, #0
  38              		.cfi_def_cfa_register 7
  39 0006 7860     		str	r0, [r7, #4]
 728:Generated_Source\PSoC6\pdl\drivers/peripheral/ctdac/cy_ctdac.h ****     CTDAC_CTDAC_CTRL(base) |= CTDAC_CTDAC_CTRL_ENABLED_Msk;
  40              		.loc 1 728 0
  41 0008 7B68     		ldr	r3, [r7, #4]
  42 000a 1B68     		ldr	r3, [r3]
  43 000c 8022     		movs	r2, #128
  44 000e 1206     		lsls	r2, r2, #24
  45 0010 1A43     		orrs	r2, r3
  46 0012 7B68     		ldr	r3, [r7, #4]
  47 0014 1A60     		str	r2, [r3]
 729:Generated_Source\PSoC6\pdl\drivers/peripheral/ctdac/cy_ctdac.h **** }
  48              		.loc 1 729 0
  49 0016 C046     		nop
  50 0018 BD46     		mov	sp, r7
  51 001a 02B0     		add	sp, sp, #8
  52              		@ sp needed
  53 001c 80BD     		pop	{r7, pc}
  54              		.cfi_endproc
  55              	.LFE136:
  56              		.size	Cy_CTDAC_Enable, .-Cy_CTDAC_Enable
  57 001e C046     		.section	.text.Cy_CTB_Enable,"ax",%progbits
  58              		.align	2
  59              		.code	16
  60              		.thumb_func
  61              		.type	Cy_CTB_Enable, %function
  62              	Cy_CTB_Enable:
  63              	.LFB158:
  64              		.file 2 "Generated_Source\\PSoC6\\pdl\\drivers/peripheral/ctb/cy_ctb.h"
   1:Generated_Source\PSoC6\pdl\drivers/peripheral/ctb/cy_ctb.h **** /***************************************************************************//**
   2:Generated_Source\PSoC6\pdl\drivers/peripheral/ctb/cy_ctb.h **** * \file cy_ctb.h
   3:Generated_Source\PSoC6\pdl\drivers/peripheral/ctb/cy_ctb.h **** * \version 1.10
   4:Generated_Source\PSoC6\pdl\drivers/peripheral/ctb/cy_ctb.h **** *
   5:Generated_Source\PSoC6\pdl\drivers/peripheral/ctb/cy_ctb.h **** * Header file for the CTB driver
ARM GAS  C:\Users\JC\AppData\Local\Temp\cclwO4Ug.s 			page 15


   6:Generated_Source\PSoC6\pdl\drivers/peripheral/ctb/cy_ctb.h **** *
   7:Generated_Source\PSoC6\pdl\drivers/peripheral/ctb/cy_ctb.h **** ********************************************************************************
   8:Generated_Source\PSoC6\pdl\drivers/peripheral/ctb/cy_ctb.h **** * \copyright
   9:Generated_Source\PSoC6\pdl\drivers/peripheral/ctb/cy_ctb.h **** * Copyright 2017-2018, Cypress Semiconductor Corporation. All rights reserved.
  10:Generated_Source\PSoC6\pdl\drivers/peripheral/ctb/cy_ctb.h **** * You may use this file only in accordance with the license, terms, conditions,
  11:Generated_Source\PSoC6\pdl\drivers/peripheral/ctb/cy_ctb.h **** * disclaimers, and limitations in the end user license agreement accompanying
  12:Generated_Source\PSoC6\pdl\drivers/peripheral/ctb/cy_ctb.h **** * the software package with which this file was provided.
  13:Generated_Source\PSoC6\pdl\drivers/peripheral/ctb/cy_ctb.h **** *******************************************************************************/
  14:Generated_Source\PSoC6\pdl\drivers/peripheral/ctb/cy_ctb.h **** 
  15:Generated_Source\PSoC6\pdl\drivers/peripheral/ctb/cy_ctb.h **** /**
  16:Generated_Source\PSoC6\pdl\drivers/peripheral/ctb/cy_ctb.h **** * \addtogroup group_ctb
  17:Generated_Source\PSoC6\pdl\drivers/peripheral/ctb/cy_ctb.h **** * \{
  18:Generated_Source\PSoC6\pdl\drivers/peripheral/ctb/cy_ctb.h **** * This driver provides API functions to configure and use the analog CTB.
  19:Generated_Source\PSoC6\pdl\drivers/peripheral/ctb/cy_ctb.h **** *
  20:Generated_Source\PSoC6\pdl\drivers/peripheral/ctb/cy_ctb.h **** * The functions and other declarations used in this driver are in cy_ctb.h. 
  21:Generated_Source\PSoC6\pdl\drivers/peripheral/ctb/cy_ctb.h **** * You can include cy_pdl.h (ModusToolbox only) to get access to all functions 
  22:Generated_Source\PSoC6\pdl\drivers/peripheral/ctb/cy_ctb.h **** * and declarations in the PDL.
  23:Generated_Source\PSoC6\pdl\drivers/peripheral/ctb/cy_ctb.h **** *
  24:Generated_Source\PSoC6\pdl\drivers/peripheral/ctb/cy_ctb.h **** * The CTB comprises two identical opamps, a switch routing matrix,
  25:Generated_Source\PSoC6\pdl\drivers/peripheral/ctb/cy_ctb.h **** * and a sample and hold (SH) circuit. The high level features are:
  26:Generated_Source\PSoC6\pdl\drivers/peripheral/ctb/cy_ctb.h **** *
  27:Generated_Source\PSoC6\pdl\drivers/peripheral/ctb/cy_ctb.h **** *   - Two highly configurable opamps
  28:Generated_Source\PSoC6\pdl\drivers/peripheral/ctb/cy_ctb.h **** *       - Each opamp has programmable power and output drive strength
  29:Generated_Source\PSoC6\pdl\drivers/peripheral/ctb/cy_ctb.h **** *       - Each opamp can be configured as a voltage follower using internal routing
  30:Generated_Source\PSoC6\pdl\drivers/peripheral/ctb/cy_ctb.h **** *       - Each opamp can be configured as a comparator with optional 10 mV hysteresis
  31:Generated_Source\PSoC6\pdl\drivers/peripheral/ctb/cy_ctb.h **** *   - Flexible input and output routing
  32:Generated_Source\PSoC6\pdl\drivers/peripheral/ctb/cy_ctb.h **** *   - Works as a buffer or amplifier for SAR ADC inputs
  33:Generated_Source\PSoC6\pdl\drivers/peripheral/ctb/cy_ctb.h **** *   - Works as a buffer, amplifier, or sample and hold (SH) for the CTDAC output
  34:Generated_Source\PSoC6\pdl\drivers/peripheral/ctb/cy_ctb.h **** *   - Can operate in Deep Sleep power mode
  35:Generated_Source\PSoC6\pdl\drivers/peripheral/ctb/cy_ctb.h **** *
  36:Generated_Source\PSoC6\pdl\drivers/peripheral/ctb/cy_ctb.h **** * Each opamp, marked OA0 and OA1, has one input and three output stages,
  37:Generated_Source\PSoC6\pdl\drivers/peripheral/ctb/cy_ctb.h **** * all of which share the common input stage.
  38:Generated_Source\PSoC6\pdl\drivers/peripheral/ctb/cy_ctb.h **** * Note that only one output stage can be selected at a time.
  39:Generated_Source\PSoC6\pdl\drivers/peripheral/ctb/cy_ctb.h **** * The output stage can operate as a low-drive strength opamp for internal connections (1X), a high-
  40:Generated_Source\PSoC6\pdl\drivers/peripheral/ctb/cy_ctb.h **** * opamp for driving a device pin (10X), or a comparator.
  41:Generated_Source\PSoC6\pdl\drivers/peripheral/ctb/cy_ctb.h **** *
  42:Generated_Source\PSoC6\pdl\drivers/peripheral/ctb/cy_ctb.h **** * Using the switching matrix, the opamp inputs and outputs
  43:Generated_Source\PSoC6\pdl\drivers/peripheral/ctb/cy_ctb.h **** * can be connected to dedicated general-purpose I/Os or other internal analog
  44:Generated_Source\PSoC6\pdl\drivers/peripheral/ctb/cy_ctb.h **** * blocks. See the device datasheet for the dedicated CTB port.
  45:Generated_Source\PSoC6\pdl\drivers/peripheral/ctb/cy_ctb.h **** *
  46:Generated_Source\PSoC6\pdl\drivers/peripheral/ctb/cy_ctb.h **** * \image html ctb_block_diagram.png "CTB Switch Diagram" width=1000px
  47:Generated_Source\PSoC6\pdl\drivers/peripheral/ctb/cy_ctb.h **** * \image latex ctb_block_diagram.png
  48:Generated_Source\PSoC6\pdl\drivers/peripheral/ctb/cy_ctb.h **** *
  49:Generated_Source\PSoC6\pdl\drivers/peripheral/ctb/cy_ctb.h **** * \section group_ctb_init Initialization and Enable
  50:Generated_Source\PSoC6\pdl\drivers/peripheral/ctb/cy_ctb.h **** *
  51:Generated_Source\PSoC6\pdl\drivers/peripheral/ctb/cy_ctb.h **** * Before enabling the CTB, set up any external components (such as resistors)
  52:Generated_Source\PSoC6\pdl\drivers/peripheral/ctb/cy_ctb.h **** * that are needed for the design. To configure the entire hardware block, call \ref Cy_CTB_Init.
  53:Generated_Source\PSoC6\pdl\drivers/peripheral/ctb/cy_ctb.h **** * The base address of the CTB hardware can be found in the device specific header file.
  54:Generated_Source\PSoC6\pdl\drivers/peripheral/ctb/cy_ctb.h **** * Alternatively, to configure only one opamp without any routing, call \ref Cy_CTB_OpampInit.
  55:Generated_Source\PSoC6\pdl\drivers/peripheral/ctb/cy_ctb.h **** * The driver also provides a \ref Cy_CTB_FastInit function for fast and easy initialization of the 
  56:Generated_Source\PSoC6\pdl\drivers/peripheral/ctb/cy_ctb.h **** * based on commonly used configurations. They are pre-defined in the driver as:
  57:Generated_Source\PSoC6\pdl\drivers/peripheral/ctb/cy_ctb.h **** *
  58:Generated_Source\PSoC6\pdl\drivers/peripheral/ctb/cy_ctb.h **** * <b> Opamp0 </b>
  59:Generated_Source\PSoC6\pdl\drivers/peripheral/ctb/cy_ctb.h **** * - \ref Cy_CTB_Fast_Opamp0_Unused
  60:Generated_Source\PSoC6\pdl\drivers/peripheral/ctb/cy_ctb.h **** * - \ref Cy_CTB_Fast_Opamp0_Comp
  61:Generated_Source\PSoC6\pdl\drivers/peripheral/ctb/cy_ctb.h **** * - \ref Cy_CTB_Fast_Opamp0_Opamp1x
  62:Generated_Source\PSoC6\pdl\drivers/peripheral/ctb/cy_ctb.h **** * - \ref Cy_CTB_Fast_Opamp0_Opamp10x
ARM GAS  C:\Users\JC\AppData\Local\Temp\cclwO4Ug.s 			page 16


  63:Generated_Source\PSoC6\pdl\drivers/peripheral/ctb/cy_ctb.h **** * - \ref Cy_CTB_Fast_Opamp0_Diffamp
  64:Generated_Source\PSoC6\pdl\drivers/peripheral/ctb/cy_ctb.h **** * - \ref Cy_CTB_Fast_Opamp0_Vdac_Out
  65:Generated_Source\PSoC6\pdl\drivers/peripheral/ctb/cy_ctb.h **** * - \ref Cy_CTB_Fast_Opamp0_Vdac_Out_SH
  66:Generated_Source\PSoC6\pdl\drivers/peripheral/ctb/cy_ctb.h **** *
  67:Generated_Source\PSoC6\pdl\drivers/peripheral/ctb/cy_ctb.h **** * <b> Opamp1 </b>
  68:Generated_Source\PSoC6\pdl\drivers/peripheral/ctb/cy_ctb.h **** * - \ref Cy_CTB_Fast_Opamp1_Unused
  69:Generated_Source\PSoC6\pdl\drivers/peripheral/ctb/cy_ctb.h **** * - \ref Cy_CTB_Fast_Opamp1_Comp
  70:Generated_Source\PSoC6\pdl\drivers/peripheral/ctb/cy_ctb.h **** * - \ref Cy_CTB_Fast_Opamp1_Opamp1x
  71:Generated_Source\PSoC6\pdl\drivers/peripheral/ctb/cy_ctb.h **** * - \ref Cy_CTB_Fast_Opamp1_Opamp10x
  72:Generated_Source\PSoC6\pdl\drivers/peripheral/ctb/cy_ctb.h **** * - \ref Cy_CTB_Fast_Opamp1_Diffamp
  73:Generated_Source\PSoC6\pdl\drivers/peripheral/ctb/cy_ctb.h **** * - \ref Cy_CTB_Fast_Opamp1_Vdac_Ref_Aref
  74:Generated_Source\PSoC6\pdl\drivers/peripheral/ctb/cy_ctb.h **** * - \ref Cy_CTB_Fast_Opamp1_Vdac_Ref_Pin5
  75:Generated_Source\PSoC6\pdl\drivers/peripheral/ctb/cy_ctb.h **** *
  76:Generated_Source\PSoC6\pdl\drivers/peripheral/ctb/cy_ctb.h **** * After initialization, call \ref Cy_CTB_Enable to enable the hardware.
  77:Generated_Source\PSoC6\pdl\drivers/peripheral/ctb/cy_ctb.h **** *
  78:Generated_Source\PSoC6\pdl\drivers/peripheral/ctb/cy_ctb.h **** * \section group_ctb_io_connections Input/Output Connections
  79:Generated_Source\PSoC6\pdl\drivers/peripheral/ctb/cy_ctb.h **** *
  80:Generated_Source\PSoC6\pdl\drivers/peripheral/ctb/cy_ctb.h **** * The CTB has internal switches to support flexible input and output routing. If these switches
  81:Generated_Source\PSoC6\pdl\drivers/peripheral/ctb/cy_ctb.h **** * have not been configured during initialization, call \ref Cy_CTB_SetAnalogSwitch to
  82:Generated_Source\PSoC6\pdl\drivers/peripheral/ctb/cy_ctb.h **** * make the input and output connections.
  83:Generated_Source\PSoC6\pdl\drivers/peripheral/ctb/cy_ctb.h **** *
  84:Generated_Source\PSoC6\pdl\drivers/peripheral/ctb/cy_ctb.h **** * \snippet ctb_sut_01.cydsn/main_cm4.c CTB_SNIPPET_SET_ANALOG_SWITCH
  85:Generated_Source\PSoC6\pdl\drivers/peripheral/ctb/cy_ctb.h **** *
  86:Generated_Source\PSoC6\pdl\drivers/peripheral/ctb/cy_ctb.h **** * As shown in the CTB switch diagram, the 10x output of OA0 and OA1 have dedicated
  87:Generated_Source\PSoC6\pdl\drivers/peripheral/ctb/cy_ctb.h **** * connections to Pin 2 and Pin 3, respectively, of the CTB port. If different output
  88:Generated_Source\PSoC6\pdl\drivers/peripheral/ctb/cy_ctb.h **** * connections are required, the other CTB switches and/or AMUXBUX A/B switches can be used.
  89:Generated_Source\PSoC6\pdl\drivers/peripheral/ctb/cy_ctb.h **** *
  90:Generated_Source\PSoC6\pdl\drivers/peripheral/ctb/cy_ctb.h **** * \section group_ctb_comparator Comparator Mode
  91:Generated_Source\PSoC6\pdl\drivers/peripheral/ctb/cy_ctb.h **** *
  92:Generated_Source\PSoC6\pdl\drivers/peripheral/ctb/cy_ctb.h **** * Each opamp can be configured as a comparator. Note that when used as a
  93:Generated_Source\PSoC6\pdl\drivers/peripheral/ctb/cy_ctb.h **** * comparator, the hardware shuts down the 1X and 10X output drivers.
  94:Generated_Source\PSoC6\pdl\drivers/peripheral/ctb/cy_ctb.h **** * Specific to the comparator mode, there is an optional 10 mV input hysteresis
  95:Generated_Source\PSoC6\pdl\drivers/peripheral/ctb/cy_ctb.h **** * and configurable edge detection interrupt handling.
  96:Generated_Source\PSoC6\pdl\drivers/peripheral/ctb/cy_ctb.h **** *
  97:Generated_Source\PSoC6\pdl\drivers/peripheral/ctb/cy_ctb.h **** * - Negative input terminal: This input is usually connected to the reference voltage.
  98:Generated_Source\PSoC6\pdl\drivers/peripheral/ctb/cy_ctb.h **** * - Positive input terminal: This input is usually connected to the voltage that is being compared.
  99:Generated_Source\PSoC6\pdl\drivers/peripheral/ctb/cy_ctb.h **** * - Comparator digital output: This output goes high when the positive input voltage
 100:Generated_Source\PSoC6\pdl\drivers/peripheral/ctb/cy_ctb.h **** *   is greater than the negative input voltage.
 101:Generated_Source\PSoC6\pdl\drivers/peripheral/ctb/cy_ctb.h **** *
 102:Generated_Source\PSoC6\pdl\drivers/peripheral/ctb/cy_ctb.h **** * The comparator output can be routed to a pin or other components using HSIOM or trigger muxes.
 103:Generated_Source\PSoC6\pdl\drivers/peripheral/ctb/cy_ctb.h **** *
 104:Generated_Source\PSoC6\pdl\drivers/peripheral/ctb/cy_ctb.h **** * \snippet ctb_sut_01.cydsn/main_cm0p.c SNIPPET_COMP_OUT_ROUTING
 105:Generated_Source\PSoC6\pdl\drivers/peripheral/ctb/cy_ctb.h **** *
 106:Generated_Source\PSoC6\pdl\drivers/peripheral/ctb/cy_ctb.h **** * \subsection group_ctb_comparator_handling_interrupts Handling interrupts
 107:Generated_Source\PSoC6\pdl\drivers/peripheral/ctb/cy_ctb.h **** *
 108:Generated_Source\PSoC6\pdl\drivers/peripheral/ctb/cy_ctb.h **** * The comparator output is connected to an edge detector
 109:Generated_Source\PSoC6\pdl\drivers/peripheral/ctb/cy_ctb.h **** * block, which is used to detect the edge (rising, falling, both, or disabled)
 110:Generated_Source\PSoC6\pdl\drivers/peripheral/ctb/cy_ctb.h **** * for interrupt generation.
 111:Generated_Source\PSoC6\pdl\drivers/peripheral/ctb/cy_ctb.h **** *
 112:Generated_Source\PSoC6\pdl\drivers/peripheral/ctb/cy_ctb.h **** * The following code snippet demonstrates how to implement a routine to handle the interrupt.
 113:Generated_Source\PSoC6\pdl\drivers/peripheral/ctb/cy_ctb.h **** * The routine gets called when any comparator on the device generates an interrupt.
 114:Generated_Source\PSoC6\pdl\drivers/peripheral/ctb/cy_ctb.h **** *
 115:Generated_Source\PSoC6\pdl\drivers/peripheral/ctb/cy_ctb.h **** * \snippet ctb_sut_01.cydsn/main_cm0p.c SNIPPET_COMP_ISR
 116:Generated_Source\PSoC6\pdl\drivers/peripheral/ctb/cy_ctb.h **** *
 117:Generated_Source\PSoC6\pdl\drivers/peripheral/ctb/cy_ctb.h **** * The following code snippet demonstrates how to configure and enable the interrupt.
 118:Generated_Source\PSoC6\pdl\drivers/peripheral/ctb/cy_ctb.h **** *
 119:Generated_Source\PSoC6\pdl\drivers/peripheral/ctb/cy_ctb.h **** * \snippet ctb_sut_01.cydsn/main_cm0p.c SNIPPET_COMP_INTR_SETUP
ARM GAS  C:\Users\JC\AppData\Local\Temp\cclwO4Ug.s 			page 17


 120:Generated_Source\PSoC6\pdl\drivers/peripheral/ctb/cy_ctb.h **** *
 121:Generated_Source\PSoC6\pdl\drivers/peripheral/ctb/cy_ctb.h **** * \section group_ctb_opamp_range Opamp Input and Output Range
 122:Generated_Source\PSoC6\pdl\drivers/peripheral/ctb/cy_ctb.h **** *
 123:Generated_Source\PSoC6\pdl\drivers/peripheral/ctb/cy_ctb.h **** * The input range of the opamp can be rail-to-rail if the charge pump is enabled.
 124:Generated_Source\PSoC6\pdl\drivers/peripheral/ctb/cy_ctb.h **** * Without the charge pump, the input range is 0 V to VDDA - 1.5 V. The output range
 125:Generated_Source\PSoC6\pdl\drivers/peripheral/ctb/cy_ctb.h **** * of the opamp is typically 0.2 V to VDDA - 0.2 V and will depend on the load. See the
 126:Generated_Source\PSoC6\pdl\drivers/peripheral/ctb/cy_ctb.h **** * device datasheet for more detail.
 127:Generated_Source\PSoC6\pdl\drivers/peripheral/ctb/cy_ctb.h **** *
 128:Generated_Source\PSoC6\pdl\drivers/peripheral/ctb/cy_ctb.h **** * <table class="doxtable">
 129:Generated_Source\PSoC6\pdl\drivers/peripheral/ctb/cy_ctb.h **** *   <tr>
 130:Generated_Source\PSoC6\pdl\drivers/peripheral/ctb/cy_ctb.h **** *     <th>Charge Pump</th>
 131:Generated_Source\PSoC6\pdl\drivers/peripheral/ctb/cy_ctb.h **** *     <th>Input Range</th></tr>
 132:Generated_Source\PSoC6\pdl\drivers/peripheral/ctb/cy_ctb.h **** *     <th>Output Range</th></tr>
 133:Generated_Source\PSoC6\pdl\drivers/peripheral/ctb/cy_ctb.h **** *   <tr>
 134:Generated_Source\PSoC6\pdl\drivers/peripheral/ctb/cy_ctb.h **** *     <td>Enabled</td>
 135:Generated_Source\PSoC6\pdl\drivers/peripheral/ctb/cy_ctb.h **** *     <td>0 V to VDDA</td>
 136:Generated_Source\PSoC6\pdl\drivers/peripheral/ctb/cy_ctb.h **** *     <td>0.2 V to VDDA - 0.2 V</td>
 137:Generated_Source\PSoC6\pdl\drivers/peripheral/ctb/cy_ctb.h **** *   </tr>
 138:Generated_Source\PSoC6\pdl\drivers/peripheral/ctb/cy_ctb.h **** *   <tr>
 139:Generated_Source\PSoC6\pdl\drivers/peripheral/ctb/cy_ctb.h **** *     <td>Disabled</td>
 140:Generated_Source\PSoC6\pdl\drivers/peripheral/ctb/cy_ctb.h **** *     <td>0 V to VDDA - 1.5 V</td>
 141:Generated_Source\PSoC6\pdl\drivers/peripheral/ctb/cy_ctb.h **** *     <td>0.2 V to VDDA - 0.2 V</td>
 142:Generated_Source\PSoC6\pdl\drivers/peripheral/ctb/cy_ctb.h **** *   </tr>
 143:Generated_Source\PSoC6\pdl\drivers/peripheral/ctb/cy_ctb.h **** * </table>
 144:Generated_Source\PSoC6\pdl\drivers/peripheral/ctb/cy_ctb.h **** *
 145:Generated_Source\PSoC6\pdl\drivers/peripheral/ctb/cy_ctb.h **** * \section group_ctb_sample_hold Sample and Hold Mode
 146:Generated_Source\PSoC6\pdl\drivers/peripheral/ctb/cy_ctb.h **** *
 147:Generated_Source\PSoC6\pdl\drivers/peripheral/ctb/cy_ctb.h **** * The CTB has a sample and hold (SH) circuit at the non-inverting input of Opamp0.
 148:Generated_Source\PSoC6\pdl\drivers/peripheral/ctb/cy_ctb.h **** * The circuit includes a hold capacitor, Chold, with a firmware controlled switch, CHD.
 149:Generated_Source\PSoC6\pdl\drivers/peripheral/ctb/cy_ctb.h **** * Sampling and holding the source voltage is performed
 150:Generated_Source\PSoC6\pdl\drivers/peripheral/ctb/cy_ctb.h **** * by closing and opening appropriate switches in the CTB using firmware.
 151:Generated_Source\PSoC6\pdl\drivers/peripheral/ctb/cy_ctb.h **** * If the SH circuit is used for the CTDAC, the \ref Cy_CTB_DACSampleAndHold function
 152:Generated_Source\PSoC6\pdl\drivers/peripheral/ctb/cy_ctb.h **** * should be called.
 153:Generated_Source\PSoC6\pdl\drivers/peripheral/ctb/cy_ctb.h **** *
 154:Generated_Source\PSoC6\pdl\drivers/peripheral/ctb/cy_ctb.h **** * \image html ctb_fast_config_vdac_sh.png
 155:Generated_Source\PSoC6\pdl\drivers/peripheral/ctb/cy_ctb.h **** * \image latex ctb_fast_config_vdac_sh.png
 156:Generated_Source\PSoC6\pdl\drivers/peripheral/ctb/cy_ctb.h **** *
 157:Generated_Source\PSoC6\pdl\drivers/peripheral/ctb/cy_ctb.h **** * \section group_ctb_dependencies Configuration Dependencies
 158:Generated_Source\PSoC6\pdl\drivers/peripheral/ctb/cy_ctb.h **** *
 159:Generated_Source\PSoC6\pdl\drivers/peripheral/ctb/cy_ctb.h **** * The CTB relies on other blocks to function properly. The dependencies
 160:Generated_Source\PSoC6\pdl\drivers/peripheral/ctb/cy_ctb.h **** * are documented here.
 161:Generated_Source\PSoC6\pdl\drivers/peripheral/ctb/cy_ctb.h **** *
 162:Generated_Source\PSoC6\pdl\drivers/peripheral/ctb/cy_ctb.h **** * \subsection group_ctb_dependencies_charge_pump Charge Pump Configuration
 163:Generated_Source\PSoC6\pdl\drivers/peripheral/ctb/cy_ctb.h **** *
 164:Generated_Source\PSoC6\pdl\drivers/peripheral/ctb/cy_ctb.h **** * Each opamp of the CTB has a charge pump that when enabled increases the
 165:Generated_Source\PSoC6\pdl\drivers/peripheral/ctb/cy_ctb.h **** * input range to the supply rails. When disabled, the opamp input range is 0 - VDDA - 1.5 V.
 166:Generated_Source\PSoC6\pdl\drivers/peripheral/ctb/cy_ctb.h **** * When enabled, the pump requires a clock.
 167:Generated_Source\PSoC6\pdl\drivers/peripheral/ctb/cy_ctb.h **** * Call the \ref Cy_CTB_SetClkPumpSource function in the \ref group_sysanalog driver to
 168:Generated_Source\PSoC6\pdl\drivers/peripheral/ctb/cy_ctb.h **** * set the clock source for all CTBs. This clock can come from one of two sources:
 169:Generated_Source\PSoC6\pdl\drivers/peripheral/ctb/cy_ctb.h **** *
 170:Generated_Source\PSoC6\pdl\drivers/peripheral/ctb/cy_ctb.h **** *   -# A dedicated clock divider from one of the CLK_PATH in the SRSS
 171:Generated_Source\PSoC6\pdl\drivers/peripheral/ctb/cy_ctb.h **** *
 172:Generated_Source\PSoC6\pdl\drivers/peripheral/ctb/cy_ctb.h **** *      Call the following functions to configure the pump clock from the SRSS:
 173:Generated_Source\PSoC6\pdl\drivers/peripheral/ctb/cy_ctb.h **** *       - \ref Cy_SysClk_ClkPumpSetSource
 174:Generated_Source\PSoC6\pdl\drivers/peripheral/ctb/cy_ctb.h **** *       - \ref Cy_SysClk_ClkPumpSetDivider
 175:Generated_Source\PSoC6\pdl\drivers/peripheral/ctb/cy_ctb.h **** *       - \ref Cy_SysClk_ClkPumpEnable
 176:Generated_Source\PSoC6\pdl\drivers/peripheral/ctb/cy_ctb.h **** *
ARM GAS  C:\Users\JC\AppData\Local\Temp\cclwO4Ug.s 			page 18


 177:Generated_Source\PSoC6\pdl\drivers/peripheral/ctb/cy_ctb.h **** *      \snippet ctb_sut_01.cydsn/main_cm4.c CTB_SNIPPET_SET_CLK_PUMP_SOURCE_SRSS
 178:Generated_Source\PSoC6\pdl\drivers/peripheral/ctb/cy_ctb.h **** *
 179:Generated_Source\PSoC6\pdl\drivers/peripheral/ctb/cy_ctb.h **** *   -# One of the Peri Clock dividers
 180:Generated_Source\PSoC6\pdl\drivers/peripheral/ctb/cy_ctb.h **** *
 181:Generated_Source\PSoC6\pdl\drivers/peripheral/ctb/cy_ctb.h **** *      Call the following functions to configure a Peri Clock divider as the
 182:Generated_Source\PSoC6\pdl\drivers/peripheral/ctb/cy_ctb.h **** *      pump clock:
 183:Generated_Source\PSoC6\pdl\drivers/peripheral/ctb/cy_ctb.h **** *       - \ref Cy_SysClk_PeriphAssignDivider with the IP block set to PCLK_PASS_CLOCK_PUMP_PERI
 184:Generated_Source\PSoC6\pdl\drivers/peripheral/ctb/cy_ctb.h **** *       - \ref Cy_SysClk_PeriphSetDivider
 185:Generated_Source\PSoC6\pdl\drivers/peripheral/ctb/cy_ctb.h **** *       - \ref Cy_SysClk_PeriphEnableDivider
 186:Generated_Source\PSoC6\pdl\drivers/peripheral/ctb/cy_ctb.h **** *
 187:Generated_Source\PSoC6\pdl\drivers/peripheral/ctb/cy_ctb.h **** *      \snippet ctb_sut_01.cydsn/main_cm4.c CTB_SNIPPET_SET_CLK_PUMP_SOURCE_PERI
 188:Generated_Source\PSoC6\pdl\drivers/peripheral/ctb/cy_ctb.h **** *
 189:Generated_Source\PSoC6\pdl\drivers/peripheral/ctb/cy_ctb.h **** * When the charge pump is enabled, the clock frequency should be set as follows:
 190:Generated_Source\PSoC6\pdl\drivers/peripheral/ctb/cy_ctb.h **** *
 191:Generated_Source\PSoC6\pdl\drivers/peripheral/ctb/cy_ctb.h **** * <table class="doxtable">
 192:Generated_Source\PSoC6\pdl\drivers/peripheral/ctb/cy_ctb.h **** *   <tr><th>Opamp Power Level</th><th>Pump Clock Freq</th></tr>
 193:Generated_Source\PSoC6\pdl\drivers/peripheral/ctb/cy_ctb.h **** *   <tr>
 194:Generated_Source\PSoC6\pdl\drivers/peripheral/ctb/cy_ctb.h **** *     <td>Low or Medium</td>
 195:Generated_Source\PSoC6\pdl\drivers/peripheral/ctb/cy_ctb.h **** *     <td>8 - 24 MHz</td>
 196:Generated_Source\PSoC6\pdl\drivers/peripheral/ctb/cy_ctb.h **** *   </tr>
 197:Generated_Source\PSoC6\pdl\drivers/peripheral/ctb/cy_ctb.h **** *   <tr>
 198:Generated_Source\PSoC6\pdl\drivers/peripheral/ctb/cy_ctb.h **** *     <td>High</td>
 199:Generated_Source\PSoC6\pdl\drivers/peripheral/ctb/cy_ctb.h **** *     <td>24 MHz</td>
 200:Generated_Source\PSoC6\pdl\drivers/peripheral/ctb/cy_ctb.h **** *   </tr>
 201:Generated_Source\PSoC6\pdl\drivers/peripheral/ctb/cy_ctb.h **** * </table>
 202:Generated_Source\PSoC6\pdl\drivers/peripheral/ctb/cy_ctb.h **** *
 203:Generated_Source\PSoC6\pdl\drivers/peripheral/ctb/cy_ctb.h **** * The High power level of the opamp requires a 24 MHz pump clock.
 204:Generated_Source\PSoC6\pdl\drivers/peripheral/ctb/cy_ctb.h **** * In Deep Sleep mode, all high frequency clocks are
 205:Generated_Source\PSoC6\pdl\drivers/peripheral/ctb/cy_ctb.h **** * disabled and the charge pump will be disabled.
 206:Generated_Source\PSoC6\pdl\drivers/peripheral/ctb/cy_ctb.h **** *
 207:Generated_Source\PSoC6\pdl\drivers/peripheral/ctb/cy_ctb.h **** * \note
 208:Generated_Source\PSoC6\pdl\drivers/peripheral/ctb/cy_ctb.h **** * The same pump clock is used by all opamps on the device. Be aware of this
 209:Generated_Source\PSoC6\pdl\drivers/peripheral/ctb/cy_ctb.h **** * when configuring different opamps to different power levels.
 210:Generated_Source\PSoC6\pdl\drivers/peripheral/ctb/cy_ctb.h **** *
 211:Generated_Source\PSoC6\pdl\drivers/peripheral/ctb/cy_ctb.h **** * \subsection group_ctb_dependencies_reference_current Reference Current Configurations
 212:Generated_Source\PSoC6\pdl\drivers/peripheral/ctb/cy_ctb.h **** *
 213:Generated_Source\PSoC6\pdl\drivers/peripheral/ctb/cy_ctb.h **** * The CTB uses two reference current generators, IPTAT and IZTAT, from
 214:Generated_Source\PSoC6\pdl\drivers/peripheral/ctb/cy_ctb.h **** * the AREF block (see \ref group_sysanalog driver). The IPTAT current is
 215:Generated_Source\PSoC6\pdl\drivers/peripheral/ctb/cy_ctb.h **** * used to trim the slope of the opamp offset across temperature.
 216:Generated_Source\PSoC6\pdl\drivers/peripheral/ctb/cy_ctb.h **** * The AREF must be initialized and enabled for the CTB to function properly.
 217:Generated_Source\PSoC6\pdl\drivers/peripheral/ctb/cy_ctb.h **** *
 218:Generated_Source\PSoC6\pdl\drivers/peripheral/ctb/cy_ctb.h **** * If the CTB is configured to operate in Deep Sleep mode,
 219:Generated_Source\PSoC6\pdl\drivers/peripheral/ctb/cy_ctb.h **** * the appropriate reference current generators from the AREF block must be enabled in Deep Sleep.
 220:Generated_Source\PSoC6\pdl\drivers/peripheral/ctb/cy_ctb.h **** * When waking up from Deep Sleep,
 221:Generated_Source\PSoC6\pdl\drivers/peripheral/ctb/cy_ctb.h **** * the AREF block has a wakeup time that must be
 222:Generated_Source\PSoC6\pdl\drivers/peripheral/ctb/cy_ctb.h **** * considered. Note that configurations in the AREF block
 223:Generated_Source\PSoC6\pdl\drivers/peripheral/ctb/cy_ctb.h **** * are chip wide and affect all CTBs on the device.
 224:Generated_Source\PSoC6\pdl\drivers/peripheral/ctb/cy_ctb.h **** *
 225:Generated_Source\PSoC6\pdl\drivers/peripheral/ctb/cy_ctb.h **** * The following reference current configurations are supported:
 226:Generated_Source\PSoC6\pdl\drivers/peripheral/ctb/cy_ctb.h **** *
 227:Generated_Source\PSoC6\pdl\drivers/peripheral/ctb/cy_ctb.h **** * <table class="doxtable">
 228:Generated_Source\PSoC6\pdl\drivers/peripheral/ctb/cy_ctb.h **** *   <tr><th>Reference Current Level</th><th>Supported Mode</th><th>Input Range</th></tr>
 229:Generated_Source\PSoC6\pdl\drivers/peripheral/ctb/cy_ctb.h **** *   <tr>
 230:Generated_Source\PSoC6\pdl\drivers/peripheral/ctb/cy_ctb.h **** *     <td>1 uA</td>
 231:Generated_Source\PSoC6\pdl\drivers/peripheral/ctb/cy_ctb.h **** *     <td>Active/Low Power</td>
 232:Generated_Source\PSoC6\pdl\drivers/peripheral/ctb/cy_ctb.h **** *     <td>Rail-to-Rail (charge pump enabled)</td>
 233:Generated_Source\PSoC6\pdl\drivers/peripheral/ctb/cy_ctb.h **** *   </tr>
ARM GAS  C:\Users\JC\AppData\Local\Temp\cclwO4Ug.s 			page 19


 234:Generated_Source\PSoC6\pdl\drivers/peripheral/ctb/cy_ctb.h **** *   <tr>
 235:Generated_Source\PSoC6\pdl\drivers/peripheral/ctb/cy_ctb.h **** *     <td>1 uA</td>
 236:Generated_Source\PSoC6\pdl\drivers/peripheral/ctb/cy_ctb.h **** *     <td>Active/Low Power/Deep Sleep</td>
 237:Generated_Source\PSoC6\pdl\drivers/peripheral/ctb/cy_ctb.h **** *     <td>0 - VDDA-1.5 V (charge pump disabled)</td>
 238:Generated_Source\PSoC6\pdl\drivers/peripheral/ctb/cy_ctb.h **** *   </tr>
 239:Generated_Source\PSoC6\pdl\drivers/peripheral/ctb/cy_ctb.h **** *   <tr>
 240:Generated_Source\PSoC6\pdl\drivers/peripheral/ctb/cy_ctb.h **** *     <td>100 nA</td>
 241:Generated_Source\PSoC6\pdl\drivers/peripheral/ctb/cy_ctb.h **** *     <td>Active/Low Power/Deep Sleep</td>
 242:Generated_Source\PSoC6\pdl\drivers/peripheral/ctb/cy_ctb.h **** *     <td>0 - VDDA-1.5 V (charge pump disabled)</td>
 243:Generated_Source\PSoC6\pdl\drivers/peripheral/ctb/cy_ctb.h **** *   </tr>
 244:Generated_Source\PSoC6\pdl\drivers/peripheral/ctb/cy_ctb.h **** * </table>
 245:Generated_Source\PSoC6\pdl\drivers/peripheral/ctb/cy_ctb.h **** *
 246:Generated_Source\PSoC6\pdl\drivers/peripheral/ctb/cy_ctb.h **** * The first configuration provides low offset and drift with maximum input range
 247:Generated_Source\PSoC6\pdl\drivers/peripheral/ctb/cy_ctb.h **** * while consuming the most current.
 248:Generated_Source\PSoC6\pdl\drivers/peripheral/ctb/cy_ctb.h **** * For Deep Sleep operation, use the other two configurations with the charge pump disabled.
 249:Generated_Source\PSoC6\pdl\drivers/peripheral/ctb/cy_ctb.h **** * For ultra low power, use the 100 nA current level.
 250:Generated_Source\PSoC6\pdl\drivers/peripheral/ctb/cy_ctb.h **** * To configure the opamps to operate in one of these options, call \ref Cy_CTB_SetCurrentMode.
 251:Generated_Source\PSoC6\pdl\drivers/peripheral/ctb/cy_ctb.h **** *
 252:Generated_Source\PSoC6\pdl\drivers/peripheral/ctb/cy_ctb.h **** * \subsection group_ctb_dependencies_sample_hold Sample and Hold Switch Control
 253:Generated_Source\PSoC6\pdl\drivers/peripheral/ctb/cy_ctb.h **** *
 254:Generated_Source\PSoC6\pdl\drivers/peripheral/ctb/cy_ctb.h **** * If you are using rev-08 of the CY8CKIT-062, the following eight switches
 255:Generated_Source\PSoC6\pdl\drivers/peripheral/ctb/cy_ctb.h **** * in the CTB are enabled by the CTDAC IP block:
 256:Generated_Source\PSoC6\pdl\drivers/peripheral/ctb/cy_ctb.h **** *
 257:Generated_Source\PSoC6\pdl\drivers/peripheral/ctb/cy_ctb.h **** *   - COS, CA0, CHD, CH6, COB, COR, CRS, and CRD
 258:Generated_Source\PSoC6\pdl\drivers/peripheral/ctb/cy_ctb.h **** *
 259:Generated_Source\PSoC6\pdl\drivers/peripheral/ctb/cy_ctb.h **** * On the rev-08 board, if any of the above switches are used, you must call \ref Cy_CTDAC_Enable
 260:Generated_Source\PSoC6\pdl\drivers/peripheral/ctb/cy_ctb.h **** * to enable these switches.
 261:Generated_Source\PSoC6\pdl\drivers/peripheral/ctb/cy_ctb.h **** *
 262:Generated_Source\PSoC6\pdl\drivers/peripheral/ctb/cy_ctb.h **** * Additionally, on the rev-08 board, if any of the switches are used in Deep Sleep mode,
 263:Generated_Source\PSoC6\pdl\drivers/peripheral/ctb/cy_ctb.h **** * the CTDAC must also be configured to operate in Deep Sleep (see \ref Cy_CTDAC_SetDeepSleepMode).
 264:Generated_Source\PSoC6\pdl\drivers/peripheral/ctb/cy_ctb.h **** *
 265:Generated_Source\PSoC6\pdl\drivers/peripheral/ctb/cy_ctb.h **** * In later revisions of the board, the switches are enabled by the CTB block so
 266:Generated_Source\PSoC6\pdl\drivers/peripheral/ctb/cy_ctb.h **** * calls to the CTDAC IP block are not necessary.
 267:Generated_Source\PSoC6\pdl\drivers/peripheral/ctb/cy_ctb.h **** *
 268:Generated_Source\PSoC6\pdl\drivers/peripheral/ctb/cy_ctb.h **** * \section group_ctb_more_information More Information
 269:Generated_Source\PSoC6\pdl\drivers/peripheral/ctb/cy_ctb.h **** *
 270:Generated_Source\PSoC6\pdl\drivers/peripheral/ctb/cy_ctb.h **** * Refer to technical reference manual (TRM) and the device datasheet.
 271:Generated_Source\PSoC6\pdl\drivers/peripheral/ctb/cy_ctb.h **** *
 272:Generated_Source\PSoC6\pdl\drivers/peripheral/ctb/cy_ctb.h **** * \section group_ctb_MISRA MISRA-C Compliance]
 273:Generated_Source\PSoC6\pdl\drivers/peripheral/ctb/cy_ctb.h **** *
 274:Generated_Source\PSoC6\pdl\drivers/peripheral/ctb/cy_ctb.h **** * This driver does not have any specific deviations.
 275:Generated_Source\PSoC6\pdl\drivers/peripheral/ctb/cy_ctb.h **** *
 276:Generated_Source\PSoC6\pdl\drivers/peripheral/ctb/cy_ctb.h **** * \section group_ctb_changelog Changelog
 277:Generated_Source\PSoC6\pdl\drivers/peripheral/ctb/cy_ctb.h **** * <table class="doxtable">
 278:Generated_Source\PSoC6\pdl\drivers/peripheral/ctb/cy_ctb.h **** *   <tr><th>Version</th><th>Changes</th><th>Reason for Change</th></tr>
 279:Generated_Source\PSoC6\pdl\drivers/peripheral/ctb/cy_ctb.h **** *   <tr>
 280:Generated_Source\PSoC6\pdl\drivers/peripheral/ctb/cy_ctb.h **** *     <td rowspan="2">1.10</td>
 281:Generated_Source\PSoC6\pdl\drivers/peripheral/ctb/cy_ctb.h **** *     <td>Flattened the organization of the driver source code into the single 
 282:Generated_Source\PSoC6\pdl\drivers/peripheral/ctb/cy_ctb.h **** *         source directory and the single include directory.
 283:Generated_Source\PSoC6\pdl\drivers/peripheral/ctb/cy_ctb.h **** *     </td>
 284:Generated_Source\PSoC6\pdl\drivers/peripheral/ctb/cy_ctb.h **** *     <td>Driver library directory-structure simplification.</td>
 285:Generated_Source\PSoC6\pdl\drivers/peripheral/ctb/cy_ctb.h **** *     </td>
 286:Generated_Source\PSoC6\pdl\drivers/peripheral/ctb/cy_ctb.h **** *   </tr>
 287:Generated_Source\PSoC6\pdl\drivers/peripheral/ctb/cy_ctb.h **** *   <tr>
 288:Generated_Source\PSoC6\pdl\drivers/peripheral/ctb/cy_ctb.h **** *     <td>Added register access layer. Use register access macros instead
 289:Generated_Source\PSoC6\pdl\drivers/peripheral/ctb/cy_ctb.h **** *         of direct register access using dereferenced pointers.</td>
 290:Generated_Source\PSoC6\pdl\drivers/peripheral/ctb/cy_ctb.h **** *     <td>Makes register access device-independent, so that the PDL does 
ARM GAS  C:\Users\JC\AppData\Local\Temp\cclwO4Ug.s 			page 20


 291:Generated_Source\PSoC6\pdl\drivers/peripheral/ctb/cy_ctb.h **** *         not need to be recompiled for each supported part number.</td>
 292:Generated_Source\PSoC6\pdl\drivers/peripheral/ctb/cy_ctb.h **** *   </tr>
 293:Generated_Source\PSoC6\pdl\drivers/peripheral/ctb/cy_ctb.h **** *   <tr>
 294:Generated_Source\PSoC6\pdl\drivers/peripheral/ctb/cy_ctb.h **** *     <td>1.0</td>
 295:Generated_Source\PSoC6\pdl\drivers/peripheral/ctb/cy_ctb.h **** *     <td>Initial version</td>
 296:Generated_Source\PSoC6\pdl\drivers/peripheral/ctb/cy_ctb.h **** *     <td></td>
 297:Generated_Source\PSoC6\pdl\drivers/peripheral/ctb/cy_ctb.h **** *   </tr>
 298:Generated_Source\PSoC6\pdl\drivers/peripheral/ctb/cy_ctb.h **** * </table>
 299:Generated_Source\PSoC6\pdl\drivers/peripheral/ctb/cy_ctb.h **** *
 300:Generated_Source\PSoC6\pdl\drivers/peripheral/ctb/cy_ctb.h **** * \defgroup group_ctb_macros Macros
 301:Generated_Source\PSoC6\pdl\drivers/peripheral/ctb/cy_ctb.h **** * \defgroup group_ctb_functions Functions
 302:Generated_Source\PSoC6\pdl\drivers/peripheral/ctb/cy_ctb.h **** *   \{
 303:Generated_Source\PSoC6\pdl\drivers/peripheral/ctb/cy_ctb.h **** *       \defgroup group_ctb_functions_init          Initialization Functions
 304:Generated_Source\PSoC6\pdl\drivers/peripheral/ctb/cy_ctb.h **** *       \defgroup group_ctb_functions_basic         Basic Configuration Functions
 305:Generated_Source\PSoC6\pdl\drivers/peripheral/ctb/cy_ctb.h **** *       \defgroup group_ctb_functions_comparator    Comparator Functions
 306:Generated_Source\PSoC6\pdl\drivers/peripheral/ctb/cy_ctb.h **** *       \defgroup group_ctb_functions_sample_hold   Sample and Hold Functions
 307:Generated_Source\PSoC6\pdl\drivers/peripheral/ctb/cy_ctb.h **** *       \defgroup group_ctb_functions_interrupts    Interrupt Functions
 308:Generated_Source\PSoC6\pdl\drivers/peripheral/ctb/cy_ctb.h **** *       \defgroup group_ctb_functions_switches      Switch Control Functions
 309:Generated_Source\PSoC6\pdl\drivers/peripheral/ctb/cy_ctb.h **** *       \defgroup group_ctb_functions_trim          Offset and Slope Trim Functions
 310:Generated_Source\PSoC6\pdl\drivers/peripheral/ctb/cy_ctb.h **** *       \defgroup group_ctb_functions_aref          Reference Current Mode Functions
 311:Generated_Source\PSoC6\pdl\drivers/peripheral/ctb/cy_ctb.h **** *   \}
 312:Generated_Source\PSoC6\pdl\drivers/peripheral/ctb/cy_ctb.h **** * \defgroup group_ctb_globals Global Variables
 313:Generated_Source\PSoC6\pdl\drivers/peripheral/ctb/cy_ctb.h **** * \defgroup group_ctb_data_structures Data Structures
 314:Generated_Source\PSoC6\pdl\drivers/peripheral/ctb/cy_ctb.h **** * \defgroup group_ctb_enums Enumerated Types
 315:Generated_Source\PSoC6\pdl\drivers/peripheral/ctb/cy_ctb.h **** */
 316:Generated_Source\PSoC6\pdl\drivers/peripheral/ctb/cy_ctb.h **** 
 317:Generated_Source\PSoC6\pdl\drivers/peripheral/ctb/cy_ctb.h **** #if !defined(CY_CTB_H)
 318:Generated_Source\PSoC6\pdl\drivers/peripheral/ctb/cy_ctb.h **** #define CY_CTB_H
 319:Generated_Source\PSoC6\pdl\drivers/peripheral/ctb/cy_ctb.h **** 
 320:Generated_Source\PSoC6\pdl\drivers/peripheral/ctb/cy_ctb.h **** #include <stdint.h>
 321:Generated_Source\PSoC6\pdl\drivers/peripheral/ctb/cy_ctb.h **** #include <stdbool.h>
 322:Generated_Source\PSoC6\pdl\drivers/peripheral/ctb/cy_ctb.h **** #include <stddef.h>
 323:Generated_Source\PSoC6\pdl\drivers/peripheral/ctb/cy_ctb.h **** #include "cy_device_headers.h"
 324:Generated_Source\PSoC6\pdl\drivers/peripheral/ctb/cy_ctb.h **** #include "cy_device.h"
 325:Generated_Source\PSoC6\pdl\drivers/peripheral/ctb/cy_ctb.h **** #include "cy_syslib.h"
 326:Generated_Source\PSoC6\pdl\drivers/peripheral/ctb/cy_ctb.h **** #include "cy_sysanalog.h"
 327:Generated_Source\PSoC6\pdl\drivers/peripheral/ctb/cy_ctb.h **** 
 328:Generated_Source\PSoC6\pdl\drivers/peripheral/ctb/cy_ctb.h **** #ifdef CY_IP_MXS40PASS_CTB
 329:Generated_Source\PSoC6\pdl\drivers/peripheral/ctb/cy_ctb.h **** 
 330:Generated_Source\PSoC6\pdl\drivers/peripheral/ctb/cy_ctb.h **** #if defined(__cplusplus)
 331:Generated_Source\PSoC6\pdl\drivers/peripheral/ctb/cy_ctb.h **** extern "C" {
 332:Generated_Source\PSoC6\pdl\drivers/peripheral/ctb/cy_ctb.h **** #endif
 333:Generated_Source\PSoC6\pdl\drivers/peripheral/ctb/cy_ctb.h **** 
 334:Generated_Source\PSoC6\pdl\drivers/peripheral/ctb/cy_ctb.h **** /** \addtogroup group_ctb_macros
 335:Generated_Source\PSoC6\pdl\drivers/peripheral/ctb/cy_ctb.h **** * \{
 336:Generated_Source\PSoC6\pdl\drivers/peripheral/ctb/cy_ctb.h **** */
 337:Generated_Source\PSoC6\pdl\drivers/peripheral/ctb/cy_ctb.h **** 
 338:Generated_Source\PSoC6\pdl\drivers/peripheral/ctb/cy_ctb.h **** /** Driver major version */
 339:Generated_Source\PSoC6\pdl\drivers/peripheral/ctb/cy_ctb.h **** #define CY_CTB_DRV_VERSION_MAJOR            1
 340:Generated_Source\PSoC6\pdl\drivers/peripheral/ctb/cy_ctb.h **** 
 341:Generated_Source\PSoC6\pdl\drivers/peripheral/ctb/cy_ctb.h **** /** Driver minor version */
 342:Generated_Source\PSoC6\pdl\drivers/peripheral/ctb/cy_ctb.h **** #define CY_CTB_DRV_VERSION_MINOR            10
 343:Generated_Source\PSoC6\pdl\drivers/peripheral/ctb/cy_ctb.h **** 
 344:Generated_Source\PSoC6\pdl\drivers/peripheral/ctb/cy_ctb.h **** /** CTB driver identifier*/
 345:Generated_Source\PSoC6\pdl\drivers/peripheral/ctb/cy_ctb.h **** #define CY_CTB_ID                           CY_PDL_DRV_ID(0x0Bu)
 346:Generated_Source\PSoC6\pdl\drivers/peripheral/ctb/cy_ctb.h **** 
 347:Generated_Source\PSoC6\pdl\drivers/peripheral/ctb/cy_ctb.h **** /** \cond INTERNAL */
ARM GAS  C:\Users\JC\AppData\Local\Temp\cclwO4Ug.s 			page 21


 348:Generated_Source\PSoC6\pdl\drivers/peripheral/ctb/cy_ctb.h **** 
 349:Generated_Source\PSoC6\pdl\drivers/peripheral/ctb/cy_ctb.h **** /**< De-init value for most CTB registers */
 350:Generated_Source\PSoC6\pdl\drivers/peripheral/ctb/cy_ctb.h **** #define CY_CTB_DEINIT                       (0uL)
 351:Generated_Source\PSoC6\pdl\drivers/peripheral/ctb/cy_ctb.h **** 
 352:Generated_Source\PSoC6\pdl\drivers/peripheral/ctb/cy_ctb.h **** /**< De-init value for the opamp0 switch control register */
 353:Generated_Source\PSoC6\pdl\drivers/peripheral/ctb/cy_ctb.h **** #define CY_CTB_DEINIT_OA0_SW                (CTBM_OA0_SW_CLEAR_OA0P_A00_Msk \
 354:Generated_Source\PSoC6\pdl\drivers/peripheral/ctb/cy_ctb.h ****                                             | CTBM_OA0_SW_CLEAR_OA0P_A20_Msk \
 355:Generated_Source\PSoC6\pdl\drivers/peripheral/ctb/cy_ctb.h ****                                             | CTBM_OA0_SW_CLEAR_OA0P_A30_Msk \
 356:Generated_Source\PSoC6\pdl\drivers/peripheral/ctb/cy_ctb.h ****                                             | CTBM_OA0_SW_CLEAR_OA0M_A11_Msk \
 357:Generated_Source\PSoC6\pdl\drivers/peripheral/ctb/cy_ctb.h ****                                             | CTBM_OA0_SW_CLEAR_OA0M_A81_Msk \
 358:Generated_Source\PSoC6\pdl\drivers/peripheral/ctb/cy_ctb.h ****                                             | CTBM_OA0_SW_CLEAR_OA0O_D51_Msk \
 359:Generated_Source\PSoC6\pdl\drivers/peripheral/ctb/cy_ctb.h ****                                             | CTBM_OA0_SW_CLEAR_OA0O_D81_Msk)
 360:Generated_Source\PSoC6\pdl\drivers/peripheral/ctb/cy_ctb.h **** 
 361:Generated_Source\PSoC6\pdl\drivers/peripheral/ctb/cy_ctb.h **** /**< De-init value for the opamp1 switch control register */
 362:Generated_Source\PSoC6\pdl\drivers/peripheral/ctb/cy_ctb.h **** #define CY_CTB_DEINIT_OA1_SW                (CTBM_OA1_SW_CLEAR_OA1P_A03_Msk \
 363:Generated_Source\PSoC6\pdl\drivers/peripheral/ctb/cy_ctb.h ****                                             | CTBM_OA1_SW_CLEAR_OA1P_A13_Msk \
 364:Generated_Source\PSoC6\pdl\drivers/peripheral/ctb/cy_ctb.h ****                                             | CTBM_OA1_SW_CLEAR_OA1P_A43_Msk \
 365:Generated_Source\PSoC6\pdl\drivers/peripheral/ctb/cy_ctb.h ****                                             | CTBM_OA1_SW_CLEAR_OA1P_A73_Msk \
 366:Generated_Source\PSoC6\pdl\drivers/peripheral/ctb/cy_ctb.h ****                                             | CTBM_OA1_SW_CLEAR_OA1M_A22_Msk \
 367:Generated_Source\PSoC6\pdl\drivers/peripheral/ctb/cy_ctb.h ****                                             | CTBM_OA1_SW_CLEAR_OA1M_A82_Msk \
 368:Generated_Source\PSoC6\pdl\drivers/peripheral/ctb/cy_ctb.h ****                                             | CTBM_OA1_SW_CLEAR_OA1O_D52_Msk \
 369:Generated_Source\PSoC6\pdl\drivers/peripheral/ctb/cy_ctb.h ****                                             | CTBM_OA1_SW_CLEAR_OA1O_D62_Msk \
 370:Generated_Source\PSoC6\pdl\drivers/peripheral/ctb/cy_ctb.h ****                                             | CTBM_OA1_SW_CLEAR_OA1O_D82_Msk)
 371:Generated_Source\PSoC6\pdl\drivers/peripheral/ctb/cy_ctb.h **** 
 372:Generated_Source\PSoC6\pdl\drivers/peripheral/ctb/cy_ctb.h **** /**< De-init value for the CTDAC switch control register */
 373:Generated_Source\PSoC6\pdl\drivers/peripheral/ctb/cy_ctb.h **** #define CY_CTB_DEINIT_CTD_SW                (CTBM_CTD_SW_CLEAR_CTDD_CRD_Msk \
 374:Generated_Source\PSoC6\pdl\drivers/peripheral/ctb/cy_ctb.h ****                                             | CTBM_CTD_SW_CLEAR_CTDS_CRS_Msk \
 375:Generated_Source\PSoC6\pdl\drivers/peripheral/ctb/cy_ctb.h ****                                             | CTBM_CTD_SW_CLEAR_CTDS_COR_Msk \
 376:Generated_Source\PSoC6\pdl\drivers/peripheral/ctb/cy_ctb.h ****                                             | CTBM_CTD_SW_CLEAR_CTDO_C6H_Msk \
 377:Generated_Source\PSoC6\pdl\drivers/peripheral/ctb/cy_ctb.h ****                                             | CTBM_CTD_SW_CLEAR_CTDO_COS_Msk \
 378:Generated_Source\PSoC6\pdl\drivers/peripheral/ctb/cy_ctb.h ****                                             | CTBM_CTD_SW_CLEAR_CTDH_COB_Msk \
 379:Generated_Source\PSoC6\pdl\drivers/peripheral/ctb/cy_ctb.h ****                                             | CTBM_CTD_SW_CLEAR_CTDH_CHD_Msk \
 380:Generated_Source\PSoC6\pdl\drivers/peripheral/ctb/cy_ctb.h ****                                             | CTBM_CTD_SW_CLEAR_CTDH_CA0_Msk \
 381:Generated_Source\PSoC6\pdl\drivers/peripheral/ctb/cy_ctb.h ****                                             | CTBM_CTD_SW_CLEAR_CTDH_CIS_Msk \
 382:Generated_Source\PSoC6\pdl\drivers/peripheral/ctb/cy_ctb.h ****                                             | CTBM_CTD_SW_CLEAR_CTDH_ILR_Msk)
 383:Generated_Source\PSoC6\pdl\drivers/peripheral/ctb/cy_ctb.h **** 
 384:Generated_Source\PSoC6\pdl\drivers/peripheral/ctb/cy_ctb.h **** #define CY_CTB_TRIM_VALUE_MAX               (63uL)
 385:Generated_Source\PSoC6\pdl\drivers/peripheral/ctb/cy_ctb.h **** 
 386:Generated_Source\PSoC6\pdl\drivers/peripheral/ctb/cy_ctb.h **** /**< Macros for conditions used by CY_ASSERT calls */
 387:Generated_Source\PSoC6\pdl\drivers/peripheral/ctb/cy_ctb.h **** 
 388:Generated_Source\PSoC6\pdl\drivers/peripheral/ctb/cy_ctb.h **** #define CY_CTB_OPAMPNUM(num)                (((num) == CY_CTB_OPAMP_0) || ((num) == CY_CTB_OPAMP_1)
 389:Generated_Source\PSoC6\pdl\drivers/peripheral/ctb/cy_ctb.h **** #define CY_CTB_OPAMPNUM_0_1(num)            (((num) == CY_CTB_OPAMP_0) || ((num) == CY_CTB_OPAMP_1)
 390:Generated_Source\PSoC6\pdl\drivers/peripheral/ctb/cy_ctb.h **** #define CY_CTB_OPAMPNUM_ALL(num)            (((num) == CY_CTB_OPAMP_NONE) \
 391:Generated_Source\PSoC6\pdl\drivers/peripheral/ctb/cy_ctb.h ****                                             || ((num) == CY_CTB_OPAMP_0) \
 392:Generated_Source\PSoC6\pdl\drivers/peripheral/ctb/cy_ctb.h ****                                             || ((num) == CY_CTB_OPAMP_1) \
 393:Generated_Source\PSoC6\pdl\drivers/peripheral/ctb/cy_ctb.h ****                                             || ((num) == CY_CTB_OPAMP_BOTH))
 394:Generated_Source\PSoC6\pdl\drivers/peripheral/ctb/cy_ctb.h **** #define CY_CTB_IPTAT(iptat)                 (((iptat) == CY_CTB_IPTAT_NORMAL) || ((iptat) == CY_CTB
 395:Generated_Source\PSoC6\pdl\drivers/peripheral/ctb/cy_ctb.h **** #define CY_CTB_CLKPUMP(clkPump)             (((clkPump) == CY_CTB_CLK_PUMP_SRSS) || ((clkPump) == C
 396:Generated_Source\PSoC6\pdl\drivers/peripheral/ctb/cy_ctb.h **** #define CY_CTB_DEEPSLEEP(deepSleep)         (((deepSleep) == CY_CTB_DEEPSLEEP_DISABLE) || ((deepSle
 397:Generated_Source\PSoC6\pdl\drivers/peripheral/ctb/cy_ctb.h **** #define CY_CTB_OAPOWER(power)               ((power) <= CY_CTB_POWER_HIGH)
 398:Generated_Source\PSoC6\pdl\drivers/peripheral/ctb/cy_ctb.h **** #define CY_CTB_OAMODE(mode)                 (((mode) == CY_CTB_MODE_OPAMP1X) \
 399:Generated_Source\PSoC6\pdl\drivers/peripheral/ctb/cy_ctb.h ****                                             || ((mode) == CY_CTB_MODE_OPAMP10X) \
 400:Generated_Source\PSoC6\pdl\drivers/peripheral/ctb/cy_ctb.h ****                                             || ((mode) == CY_CTB_MODE_COMP))
 401:Generated_Source\PSoC6\pdl\drivers/peripheral/ctb/cy_ctb.h **** #define CY_CTB_OAPUMP(pump)                 (((pump) == CY_CTB_PUMP_DISABLE) || ((pump) == CY_CTB_P
 402:Generated_Source\PSoC6\pdl\drivers/peripheral/ctb/cy_ctb.h **** #define CY_CTB_COMPEDGE(edge)               (((edge) == CY_CTB_COMP_EDGE_DISABLE) \
 403:Generated_Source\PSoC6\pdl\drivers/peripheral/ctb/cy_ctb.h ****                                             || ((edge) == CY_CTB_COMP_EDGE_RISING) \
 404:Generated_Source\PSoC6\pdl\drivers/peripheral/ctb/cy_ctb.h ****                                             || ((edge) == CY_CTB_COMP_EDGE_FALLING) \
ARM GAS  C:\Users\JC\AppData\Local\Temp\cclwO4Ug.s 			page 22


 405:Generated_Source\PSoC6\pdl\drivers/peripheral/ctb/cy_ctb.h ****                                             || ((edge) == CY_CTB_COMP_EDGE_BOTH))
 406:Generated_Source\PSoC6\pdl\drivers/peripheral/ctb/cy_ctb.h **** #define CY_CTB_COMPLEVEL(level)             (((level) == CY_CTB_COMP_DSI_TRIGGER_OUT_PULSE) || ((le
 407:Generated_Source\PSoC6\pdl\drivers/peripheral/ctb/cy_ctb.h **** #define CY_CTB_COMPBYPASS(bypass)           (((bypass) == CY_CTB_COMP_BYPASS_SYNC) || ((bypass) == 
 408:Generated_Source\PSoC6\pdl\drivers/peripheral/ctb/cy_ctb.h **** #define CY_CTB_COMPHYST(hyst)               (((hyst) == CY_CTB_COMP_HYST_DISABLE) || ((hyst) == CY_
 409:Generated_Source\PSoC6\pdl\drivers/peripheral/ctb/cy_ctb.h **** #define CY_CTB_CURRENTMODE(mode)            (((mode) == CY_CTB_CURRENT_HIGH_ACTIVE) \
 410:Generated_Source\PSoC6\pdl\drivers/peripheral/ctb/cy_ctb.h ****                                             || ((mode) == CY_CTB_CURRENT_HIGH_ACTIVE_DEEPSLEEP) \
 411:Generated_Source\PSoC6\pdl\drivers/peripheral/ctb/cy_ctb.h ****                                             || ((mode) == CY_CTB_CURRENT_LOW_ACTIVE_DEEPSLEEP))
 412:Generated_Source\PSoC6\pdl\drivers/peripheral/ctb/cy_ctb.h **** #define CY_CTB_SAMPLEHOLD(mode)             ((mode) <= CY_CTB_SH_HOLD)
 413:Generated_Source\PSoC6\pdl\drivers/peripheral/ctb/cy_ctb.h **** #define CY_CTB_TRIM(trim)                   ((trim) <= CY_CTB_TRIM_VALUE_MAX)
 414:Generated_Source\PSoC6\pdl\drivers/peripheral/ctb/cy_ctb.h **** #define CY_CTB_SWITCHSELECT(select)         (((select) == CY_CTB_SWITCH_OA0_SW) \
 415:Generated_Source\PSoC6\pdl\drivers/peripheral/ctb/cy_ctb.h ****                                             || ((select) == CY_CTB_SWITCH_OA1_SW) \
 416:Generated_Source\PSoC6\pdl\drivers/peripheral/ctb/cy_ctb.h ****                                             || ((select) == CY_CTB_SWITCH_CTD_SW))
 417:Generated_Source\PSoC6\pdl\drivers/peripheral/ctb/cy_ctb.h **** #define CY_CTB_SWITCHSTATE(state)           (((state) == CY_CTB_SWITCH_OPEN) || ((state) == CY_CTB_
 418:Generated_Source\PSoC6\pdl\drivers/peripheral/ctb/cy_ctb.h **** #define CY_CTB_OA0SWITCH(mask)              (((mask) & (~CY_CTB_DEINIT_OA0_SW)) == 0uL)
 419:Generated_Source\PSoC6\pdl\drivers/peripheral/ctb/cy_ctb.h **** #define CY_CTB_OA1SWITCH(mask)              (((mask) & (~CY_CTB_DEINIT_OA1_SW)) == 0uL)
 420:Generated_Source\PSoC6\pdl\drivers/peripheral/ctb/cy_ctb.h **** #define CY_CTB_CTDSWITCH(mask)              (((mask) & (~CY_CTB_DEINIT_CTD_SW)) == 0uL)
 421:Generated_Source\PSoC6\pdl\drivers/peripheral/ctb/cy_ctb.h **** #define CY_CTB_SWITCHMASK(select,mask)      (((select) == CY_CTB_SWITCH_OA0_SW) ? (((mask) & (~CY_C
 422:Generated_Source\PSoC6\pdl\drivers/peripheral/ctb/cy_ctb.h ****                                             (((select) == CY_CTB_SWITCH_OA1_SW) ? (((mask) & (~CY_C
 423:Generated_Source\PSoC6\pdl\drivers/peripheral/ctb/cy_ctb.h ****                                             (((mask) & (~CY_CTB_DEINIT_CTD_SW)) == 0uL)))
 424:Generated_Source\PSoC6\pdl\drivers/peripheral/ctb/cy_ctb.h **** #define CY_CTB_SARSEQCTRL(mask)             (((mask) == CY_CTB_SW_SEQ_CTRL_D51_MASK) \
 425:Generated_Source\PSoC6\pdl\drivers/peripheral/ctb/cy_ctb.h ****                                             || ((mask) == CY_CTB_SW_SEQ_CTRL_D52_D62_MASK) \
 426:Generated_Source\PSoC6\pdl\drivers/peripheral/ctb/cy_ctb.h ****                                             || ((mask) == CY_CTB_SW_SEQ_CTRL_D51_D52_D62_MASK))
 427:Generated_Source\PSoC6\pdl\drivers/peripheral/ctb/cy_ctb.h **** 
 428:Generated_Source\PSoC6\pdl\drivers/peripheral/ctb/cy_ctb.h **** /** \endcond */
 429:Generated_Source\PSoC6\pdl\drivers/peripheral/ctb/cy_ctb.h **** 
 430:Generated_Source\PSoC6\pdl\drivers/peripheral/ctb/cy_ctb.h **** /** \} group_ctb_macros */
 431:Generated_Source\PSoC6\pdl\drivers/peripheral/ctb/cy_ctb.h **** 
 432:Generated_Source\PSoC6\pdl\drivers/peripheral/ctb/cy_ctb.h **** /***************************************
 433:Generated_Source\PSoC6\pdl\drivers/peripheral/ctb/cy_ctb.h **** *       Enumerated Types
 434:Generated_Source\PSoC6\pdl\drivers/peripheral/ctb/cy_ctb.h **** ***************************************/
 435:Generated_Source\PSoC6\pdl\drivers/peripheral/ctb/cy_ctb.h **** 
 436:Generated_Source\PSoC6\pdl\drivers/peripheral/ctb/cy_ctb.h **** /**
 437:Generated_Source\PSoC6\pdl\drivers/peripheral/ctb/cy_ctb.h **** * \addtogroup group_ctb_enums
 438:Generated_Source\PSoC6\pdl\drivers/peripheral/ctb/cy_ctb.h **** * \{
 439:Generated_Source\PSoC6\pdl\drivers/peripheral/ctb/cy_ctb.h **** */
 440:Generated_Source\PSoC6\pdl\drivers/peripheral/ctb/cy_ctb.h **** 
 441:Generated_Source\PSoC6\pdl\drivers/peripheral/ctb/cy_ctb.h **** /**
 442:Generated_Source\PSoC6\pdl\drivers/peripheral/ctb/cy_ctb.h **** * Most functions allow you to configure a single opamp or both opamps at once.
 443:Generated_Source\PSoC6\pdl\drivers/peripheral/ctb/cy_ctb.h **** * The \ref Cy_CTB_SetInterruptMask function can be called with \ref CY_CTB_OPAMP_NONE
 444:Generated_Source\PSoC6\pdl\drivers/peripheral/ctb/cy_ctb.h **** * and interrupts will be disabled.
 445:Generated_Source\PSoC6\pdl\drivers/peripheral/ctb/cy_ctb.h **** */
 446:Generated_Source\PSoC6\pdl\drivers/peripheral/ctb/cy_ctb.h **** typedef enum{
 447:Generated_Source\PSoC6\pdl\drivers/peripheral/ctb/cy_ctb.h ****     CY_CTB_OPAMP_NONE    = 0uL,                                          /**< For disabling interru
 448:Generated_Source\PSoC6\pdl\drivers/peripheral/ctb/cy_ctb.h ****     CY_CTB_OPAMP_0       = CTBM_INTR_COMP0_Msk,                        /**< For configuring Opamp0 
 449:Generated_Source\PSoC6\pdl\drivers/peripheral/ctb/cy_ctb.h ****     CY_CTB_OPAMP_1       = CTBM_INTR_COMP1_Msk,                        /**< For configuring Opamp1 
 450:Generated_Source\PSoC6\pdl\drivers/peripheral/ctb/cy_ctb.h ****     CY_CTB_OPAMP_BOTH    = CTBM_INTR_COMP0_Msk | CTBM_INTR_COMP1_Msk,  /**< For configuring both Op
 451:Generated_Source\PSoC6\pdl\drivers/peripheral/ctb/cy_ctb.h **** }cy_en_ctb_opamp_sel_t;
 452:Generated_Source\PSoC6\pdl\drivers/peripheral/ctb/cy_ctb.h **** 
 453:Generated_Source\PSoC6\pdl\drivers/peripheral/ctb/cy_ctb.h **** /** Enable or disable CTB while in Deep Sleep mode.
 454:Generated_Source\PSoC6\pdl\drivers/peripheral/ctb/cy_ctb.h **** */
 455:Generated_Source\PSoC6\pdl\drivers/peripheral/ctb/cy_ctb.h **** typedef enum {
 456:Generated_Source\PSoC6\pdl\drivers/peripheral/ctb/cy_ctb.h ****     CY_CTB_DEEPSLEEP_DISABLE   = 0uL,                               /**< CTB is disabled during Dee
 457:Generated_Source\PSoC6\pdl\drivers/peripheral/ctb/cy_ctb.h ****     CY_CTB_DEEPSLEEP_ENABLE    = CTBM_CTB_CTRL_DEEPSLEEP_ON_Msk,   /**< CTB remains enabled during 
 458:Generated_Source\PSoC6\pdl\drivers/peripheral/ctb/cy_ctb.h **** }cy_en_ctb_deep_sleep_t;
 459:Generated_Source\PSoC6\pdl\drivers/peripheral/ctb/cy_ctb.h **** 
 460:Generated_Source\PSoC6\pdl\drivers/peripheral/ctb/cy_ctb.h **** /**
 461:Generated_Source\PSoC6\pdl\drivers/peripheral/ctb/cy_ctb.h **** * Configure the power mode of each opamp. Each power setting
ARM GAS  C:\Users\JC\AppData\Local\Temp\cclwO4Ug.s 			page 23


 462:Generated_Source\PSoC6\pdl\drivers/peripheral/ctb/cy_ctb.h **** * consumes different levels of current and supports a different
 463:Generated_Source\PSoC6\pdl\drivers/peripheral/ctb/cy_ctb.h **** * input range and gain bandwidth.
 464:Generated_Source\PSoC6\pdl\drivers/peripheral/ctb/cy_ctb.h **** *
 465:Generated_Source\PSoC6\pdl\drivers/peripheral/ctb/cy_ctb.h **** * <table class="doxtable">
 466:Generated_Source\PSoC6\pdl\drivers/peripheral/ctb/cy_ctb.h **** *   <tr><th>Opamp Power</th><th>IDD</th><th>Gain bandwidth</th></tr>
 467:Generated_Source\PSoC6\pdl\drivers/peripheral/ctb/cy_ctb.h **** *   <tr>
 468:Generated_Source\PSoC6\pdl\drivers/peripheral/ctb/cy_ctb.h **** *     <td>OFF</td>
 469:Generated_Source\PSoC6\pdl\drivers/peripheral/ctb/cy_ctb.h **** *     <td>0</td>
 470:Generated_Source\PSoC6\pdl\drivers/peripheral/ctb/cy_ctb.h **** *     <td>NA</td>
 471:Generated_Source\PSoC6\pdl\drivers/peripheral/ctb/cy_ctb.h **** *   </tr>
 472:Generated_Source\PSoC6\pdl\drivers/peripheral/ctb/cy_ctb.h **** *   <tr>
 473:Generated_Source\PSoC6\pdl\drivers/peripheral/ctb/cy_ctb.h **** *     <td>LOW</td>
 474:Generated_Source\PSoC6\pdl\drivers/peripheral/ctb/cy_ctb.h **** *     <td>350 uA</td>
 475:Generated_Source\PSoC6\pdl\drivers/peripheral/ctb/cy_ctb.h **** *     <td>1 MHz</td>
 476:Generated_Source\PSoC6\pdl\drivers/peripheral/ctb/cy_ctb.h **** *   </tr>
 477:Generated_Source\PSoC6\pdl\drivers/peripheral/ctb/cy_ctb.h **** *   <tr>
 478:Generated_Source\PSoC6\pdl\drivers/peripheral/ctb/cy_ctb.h **** *     <td>MEDIUM</td>
 479:Generated_Source\PSoC6\pdl\drivers/peripheral/ctb/cy_ctb.h **** *     <td>600 uA</td>
 480:Generated_Source\PSoC6\pdl\drivers/peripheral/ctb/cy_ctb.h **** *     <td>3 MHz for 1X, 2.5 MHz for 10x</td>
 481:Generated_Source\PSoC6\pdl\drivers/peripheral/ctb/cy_ctb.h **** *   </tr>
 482:Generated_Source\PSoC6\pdl\drivers/peripheral/ctb/cy_ctb.h **** *   <tr>
 483:Generated_Source\PSoC6\pdl\drivers/peripheral/ctb/cy_ctb.h **** *     <td>HIGH</td>
 484:Generated_Source\PSoC6\pdl\drivers/peripheral/ctb/cy_ctb.h **** *     <td>1.5 mA</td>
 485:Generated_Source\PSoC6\pdl\drivers/peripheral/ctb/cy_ctb.h **** *     <td>8 MHz for 1X, 6 MHz for 10x</td>
 486:Generated_Source\PSoC6\pdl\drivers/peripheral/ctb/cy_ctb.h **** *   </tr>
 487:Generated_Source\PSoC6\pdl\drivers/peripheral/ctb/cy_ctb.h **** * </table>
 488:Generated_Source\PSoC6\pdl\drivers/peripheral/ctb/cy_ctb.h **** *
 489:Generated_Source\PSoC6\pdl\drivers/peripheral/ctb/cy_ctb.h **** */
 490:Generated_Source\PSoC6\pdl\drivers/peripheral/ctb/cy_ctb.h **** typedef enum {
 491:Generated_Source\PSoC6\pdl\drivers/peripheral/ctb/cy_ctb.h ****     CY_CTB_POWER_OFF       = 0uL,     /**< Opamp is off */
 492:Generated_Source\PSoC6\pdl\drivers/peripheral/ctb/cy_ctb.h ****     CY_CTB_POWER_LOW       = 1uL,     /**< Low power: IDD = 350 uA, GBW = 1 MHz for both 1x and 10x
 493:Generated_Source\PSoC6\pdl\drivers/peripheral/ctb/cy_ctb.h ****     CY_CTB_POWER_MEDIUM    = 2uL,     /**< Medium power: IDD = 600 uA, GBW = 3 MHz for 1x and 2.5 M
 494:Generated_Source\PSoC6\pdl\drivers/peripheral/ctb/cy_ctb.h ****     CY_CTB_POWER_HIGH      = 3uL,     /**< High power: IDD = 1500 uA, GBW = 8 MHz for 1x and 6 MHz 
 495:Generated_Source\PSoC6\pdl\drivers/peripheral/ctb/cy_ctb.h **** }cy_en_ctb_power_t;
 496:Generated_Source\PSoC6\pdl\drivers/peripheral/ctb/cy_ctb.h **** 
 497:Generated_Source\PSoC6\pdl\drivers/peripheral/ctb/cy_ctb.h **** /**
 498:Generated_Source\PSoC6\pdl\drivers/peripheral/ctb/cy_ctb.h **** * The output stage of each opamp can be configured for low-drive strength (1X) to drive internal ci
 499:Generated_Source\PSoC6\pdl\drivers/peripheral/ctb/cy_ctb.h **** * for high-drive strength (10X) to drive external circuits, or as a comparator.
 500:Generated_Source\PSoC6\pdl\drivers/peripheral/ctb/cy_ctb.h **** */
 501:Generated_Source\PSoC6\pdl\drivers/peripheral/ctb/cy_ctb.h **** typedef enum {
 502:Generated_Source\PSoC6\pdl\drivers/peripheral/ctb/cy_ctb.h ****     CY_CTB_MODE_OPAMP1X    = 0uL,                                               /**< Configure opam
 503:Generated_Source\PSoC6\pdl\drivers/peripheral/ctb/cy_ctb.h ****     CY_CTB_MODE_OPAMP10X   = 1uL << CTBM_OA_RES0_CTRL_OA0_DRIVE_STR_SEL_Pos,    /**< Configure opam
 504:Generated_Source\PSoC6\pdl\drivers/peripheral/ctb/cy_ctb.h ****     CY_CTB_MODE_COMP       = 1uL << CTBM_OA_RES0_CTRL_OA0_COMP_EN_Pos,          /**< Configure opam
 505:Generated_Source\PSoC6\pdl\drivers/peripheral/ctb/cy_ctb.h **** }cy_en_ctb_mode_t;
 506:Generated_Source\PSoC6\pdl\drivers/peripheral/ctb/cy_ctb.h **** 
 507:Generated_Source\PSoC6\pdl\drivers/peripheral/ctb/cy_ctb.h **** /**
 508:Generated_Source\PSoC6\pdl\drivers/peripheral/ctb/cy_ctb.h **** * Each opamp has a charge pump to increase the input range to the rails.
 509:Generated_Source\PSoC6\pdl\drivers/peripheral/ctb/cy_ctb.h **** * When the charge pump is enabled, the input range is 0 to VDDA.
 510:Generated_Source\PSoC6\pdl\drivers/peripheral/ctb/cy_ctb.h **** * When disabled, the input range is 0 to VDDA - 1.5 V.
 511:Generated_Source\PSoC6\pdl\drivers/peripheral/ctb/cy_ctb.h **** *
 512:Generated_Source\PSoC6\pdl\drivers/peripheral/ctb/cy_ctb.h **** ** <table class="doxtable">
 513:Generated_Source\PSoC6\pdl\drivers/peripheral/ctb/cy_ctb.h **** *   <tr><th>Charge Pump</th><th>Input Range (V)</th></tr>
 514:Generated_Source\PSoC6\pdl\drivers/peripheral/ctb/cy_ctb.h **** *   <tr>
 515:Generated_Source\PSoC6\pdl\drivers/peripheral/ctb/cy_ctb.h **** *     <td>OFF</td>
 516:Generated_Source\PSoC6\pdl\drivers/peripheral/ctb/cy_ctb.h **** *     <td>0 to VDDA-1.5</td>
 517:Generated_Source\PSoC6\pdl\drivers/peripheral/ctb/cy_ctb.h **** *   </tr>
 518:Generated_Source\PSoC6\pdl\drivers/peripheral/ctb/cy_ctb.h **** *   <tr>
ARM GAS  C:\Users\JC\AppData\Local\Temp\cclwO4Ug.s 			page 24


 519:Generated_Source\PSoC6\pdl\drivers/peripheral/ctb/cy_ctb.h **** *     <td>ON</td>
 520:Generated_Source\PSoC6\pdl\drivers/peripheral/ctb/cy_ctb.h **** *     <td>0 to VDDA</td>
 521:Generated_Source\PSoC6\pdl\drivers/peripheral/ctb/cy_ctb.h **** *   </tr>
 522:Generated_Source\PSoC6\pdl\drivers/peripheral/ctb/cy_ctb.h **** * </table>
 523:Generated_Source\PSoC6\pdl\drivers/peripheral/ctb/cy_ctb.h **** *
 524:Generated_Source\PSoC6\pdl\drivers/peripheral/ctb/cy_ctb.h **** * Note that in Deep Sleep mode, the charge pump is disabled so the input
 525:Generated_Source\PSoC6\pdl\drivers/peripheral/ctb/cy_ctb.h **** * range is reduced.
 526:Generated_Source\PSoC6\pdl\drivers/peripheral/ctb/cy_ctb.h **** */
 527:Generated_Source\PSoC6\pdl\drivers/peripheral/ctb/cy_ctb.h **** typedef enum{
 528:Generated_Source\PSoC6\pdl\drivers/peripheral/ctb/cy_ctb.h ****     CY_CTB_PUMP_DISABLE   = 0uL,                                           /**< Charge pump is disa
 529:Generated_Source\PSoC6\pdl\drivers/peripheral/ctb/cy_ctb.h ****     CY_CTB_PUMP_ENABLE    = CTBM_OA_RES0_CTRL_OA0_PUMP_EN_Msk,            /**< Charge pump is enabl
 530:Generated_Source\PSoC6\pdl\drivers/peripheral/ctb/cy_ctb.h **** }cy_en_ctb_pump_t;
 531:Generated_Source\PSoC6\pdl\drivers/peripheral/ctb/cy_ctb.h **** 
 532:Generated_Source\PSoC6\pdl\drivers/peripheral/ctb/cy_ctb.h **** /**
 533:Generated_Source\PSoC6\pdl\drivers/peripheral/ctb/cy_ctb.h **** * Configure the type of edge that will trigger a comparator interrupt or
 534:Generated_Source\PSoC6\pdl\drivers/peripheral/ctb/cy_ctb.h **** * disable the interrupt entirely.
 535:Generated_Source\PSoC6\pdl\drivers/peripheral/ctb/cy_ctb.h **** */
 536:Generated_Source\PSoC6\pdl\drivers/peripheral/ctb/cy_ctb.h **** typedef enum
 537:Generated_Source\PSoC6\pdl\drivers/peripheral/ctb/cy_ctb.h **** {
 538:Generated_Source\PSoC6\pdl\drivers/peripheral/ctb/cy_ctb.h ****     CY_CTB_COMP_EDGE_DISABLE       = 0uL,                                       /**< Disabled, no i
 539:Generated_Source\PSoC6\pdl\drivers/peripheral/ctb/cy_ctb.h ****     CY_CTB_COMP_EDGE_RISING        = 1uL << CTBM_OA_RES0_CTRL_OA0_COMPINT_Pos,  /**< Rising edge ge
 540:Generated_Source\PSoC6\pdl\drivers/peripheral/ctb/cy_ctb.h ****     CY_CTB_COMP_EDGE_FALLING       = 2uL << CTBM_OA_RES0_CTRL_OA0_COMPINT_Pos,  /**< Falling edge g
 541:Generated_Source\PSoC6\pdl\drivers/peripheral/ctb/cy_ctb.h ****     CY_CTB_COMP_EDGE_BOTH          = 3uL << CTBM_OA_RES0_CTRL_OA0_COMPINT_Pos,  /**< Both edges gen
 542:Generated_Source\PSoC6\pdl\drivers/peripheral/ctb/cy_ctb.h **** }cy_en_ctb_comp_edge_t;
 543:Generated_Source\PSoC6\pdl\drivers/peripheral/ctb/cy_ctb.h **** 
 544:Generated_Source\PSoC6\pdl\drivers/peripheral/ctb/cy_ctb.h **** /** Configure the comparator DSI trigger output level when output is synchronized. */
 545:Generated_Source\PSoC6\pdl\drivers/peripheral/ctb/cy_ctb.h **** typedef enum
 546:Generated_Source\PSoC6\pdl\drivers/peripheral/ctb/cy_ctb.h **** {
 547:Generated_Source\PSoC6\pdl\drivers/peripheral/ctb/cy_ctb.h ****     CY_CTB_COMP_DSI_TRIGGER_OUT_PULSE    = 0uL,                                        /**< Send pu
 548:Generated_Source\PSoC6\pdl\drivers/peripheral/ctb/cy_ctb.h ****     CY_CTB_COMP_DSI_TRIGGER_OUT_LEVEL    = CTBM_OA_RES0_CTRL_OA0_DSI_LEVEL_Msk,       /**< DSI outp
 549:Generated_Source\PSoC6\pdl\drivers/peripheral/ctb/cy_ctb.h **** }cy_en_ctb_comp_level_t;
 550:Generated_Source\PSoC6\pdl\drivers/peripheral/ctb/cy_ctb.h **** 
 551:Generated_Source\PSoC6\pdl\drivers/peripheral/ctb/cy_ctb.h **** /** Bypass the comparator output synchronization for DSI trigger. */
 552:Generated_Source\PSoC6\pdl\drivers/peripheral/ctb/cy_ctb.h **** typedef enum
 553:Generated_Source\PSoC6\pdl\drivers/peripheral/ctb/cy_ctb.h **** {
 554:Generated_Source\PSoC6\pdl\drivers/peripheral/ctb/cy_ctb.h ****     CY_CTB_COMP_BYPASS_SYNC          = 0uL,                                          /**< Comparato
 555:Generated_Source\PSoC6\pdl\drivers/peripheral/ctb/cy_ctb.h ****     CY_CTB_COMP_BYPASS_NO_SYNC       = CTBM_OA_RES0_CTRL_OA0_BYPASS_DSI_SYNC_Msk,   /**< Comparator
 556:Generated_Source\PSoC6\pdl\drivers/peripheral/ctb/cy_ctb.h **** }cy_en_ctb_comp_bypass_t;
 557:Generated_Source\PSoC6\pdl\drivers/peripheral/ctb/cy_ctb.h **** 
 558:Generated_Source\PSoC6\pdl\drivers/peripheral/ctb/cy_ctb.h **** /** Disable or enable the 10 mV hysteresis for the comparator. */
 559:Generated_Source\PSoC6\pdl\drivers/peripheral/ctb/cy_ctb.h **** typedef enum
 560:Generated_Source\PSoC6\pdl\drivers/peripheral/ctb/cy_ctb.h **** {
 561:Generated_Source\PSoC6\pdl\drivers/peripheral/ctb/cy_ctb.h ****     CY_CTB_COMP_HYST_DISABLE      = 0uL,                                    /**< Disable hysteresis
 562:Generated_Source\PSoC6\pdl\drivers/peripheral/ctb/cy_ctb.h ****     CY_CTB_COMP_HYST_10MV         = CTBM_OA_RES0_CTRL_OA0_HYST_EN_Msk,     /**< Enable the 10 mV hy
 563:Generated_Source\PSoC6\pdl\drivers/peripheral/ctb/cy_ctb.h **** }cy_en_ctb_comp_hyst_t;
 564:Generated_Source\PSoC6\pdl\drivers/peripheral/ctb/cy_ctb.h **** 
 565:Generated_Source\PSoC6\pdl\drivers/peripheral/ctb/cy_ctb.h **** /** Switch state, either open or closed, to be used in \ref Cy_CTB_SetAnalogSwitch. */
 566:Generated_Source\PSoC6\pdl\drivers/peripheral/ctb/cy_ctb.h **** typedef enum
 567:Generated_Source\PSoC6\pdl\drivers/peripheral/ctb/cy_ctb.h **** {
 568:Generated_Source\PSoC6\pdl\drivers/peripheral/ctb/cy_ctb.h ****     CY_CTB_SWITCH_OPEN      = 0uL,    /**< Open the switch */
 569:Generated_Source\PSoC6\pdl\drivers/peripheral/ctb/cy_ctb.h ****     CY_CTB_SWITCH_CLOSE     = 1uL     /**< Close the switch */
 570:Generated_Source\PSoC6\pdl\drivers/peripheral/ctb/cy_ctb.h **** }cy_en_ctb_switch_state_t;
 571:Generated_Source\PSoC6\pdl\drivers/peripheral/ctb/cy_ctb.h **** 
 572:Generated_Source\PSoC6\pdl\drivers/peripheral/ctb/cy_ctb.h **** /**
 573:Generated_Source\PSoC6\pdl\drivers/peripheral/ctb/cy_ctb.h **** * The switch register to be used in \ref Cy_CTB_SetAnalogSwitch.
 574:Generated_Source\PSoC6\pdl\drivers/peripheral/ctb/cy_ctb.h **** * The CTB has three registers for configuring the switch routing matrix.
 575:Generated_Source\PSoC6\pdl\drivers/peripheral/ctb/cy_ctb.h **** * */
ARM GAS  C:\Users\JC\AppData\Local\Temp\cclwO4Ug.s 			page 25


 576:Generated_Source\PSoC6\pdl\drivers/peripheral/ctb/cy_ctb.h **** typedef enum
 577:Generated_Source\PSoC6\pdl\drivers/peripheral/ctb/cy_ctb.h **** {
 578:Generated_Source\PSoC6\pdl\drivers/peripheral/ctb/cy_ctb.h ****     CY_CTB_SWITCH_OA0_SW     = 0uL,     /**< Switch register for Opamp0 */
 579:Generated_Source\PSoC6\pdl\drivers/peripheral/ctb/cy_ctb.h ****     CY_CTB_SWITCH_OA1_SW     = 1uL,     /**< Switch register for Opamp1 */
 580:Generated_Source\PSoC6\pdl\drivers/peripheral/ctb/cy_ctb.h ****     CY_CTB_SWITCH_CTD_SW     = 2uL,     /**< Switch register for CTDAC routing */
 581:Generated_Source\PSoC6\pdl\drivers/peripheral/ctb/cy_ctb.h **** }cy_en_ctb_switch_register_sel_t;
 582:Generated_Source\PSoC6\pdl\drivers/peripheral/ctb/cy_ctb.h **** 
 583:Generated_Source\PSoC6\pdl\drivers/peripheral/ctb/cy_ctb.h **** /**
 584:Generated_Source\PSoC6\pdl\drivers/peripheral/ctb/cy_ctb.h **** * Switch masks for Opamp0 to be used in \ref Cy_CTB_SetAnalogSwitch.
 585:Generated_Source\PSoC6\pdl\drivers/peripheral/ctb/cy_ctb.h **** */
 586:Generated_Source\PSoC6\pdl\drivers/peripheral/ctb/cy_ctb.h **** typedef enum
 587:Generated_Source\PSoC6\pdl\drivers/peripheral/ctb/cy_ctb.h **** {
 588:Generated_Source\PSoC6\pdl\drivers/peripheral/ctb/cy_ctb.h ****     CY_CTB_SW_OA0_POS_AMUXBUSA_MASK     = CTBM_OA0_SW_OA0P_A00_Msk,       /**< Switch A00: Opamp0 n
 589:Generated_Source\PSoC6\pdl\drivers/peripheral/ctb/cy_ctb.h ****     CY_CTB_SW_OA0_POS_PIN0_MASK         = CTBM_OA0_SW_OA0P_A20_Msk,       /**< Switch A20: Opamp0 n
 590:Generated_Source\PSoC6\pdl\drivers/peripheral/ctb/cy_ctb.h ****     CY_CTB_SW_OA0_POS_PIN6_MASK         = CTBM_OA0_SW_OA0P_A30_Msk,       /**< Switch A30: Opamp0 n
 591:Generated_Source\PSoC6\pdl\drivers/peripheral/ctb/cy_ctb.h ****     CY_CTB_SW_OA0_NEG_PIN1_MASK         = CTBM_OA0_SW_OA0M_A11_Msk,       /**< Switch A11: Opamp0 i
 592:Generated_Source\PSoC6\pdl\drivers/peripheral/ctb/cy_ctb.h ****     CY_CTB_SW_OA0_NEG_OUT_MASK          = CTBM_OA0_SW_OA0M_A81_Msk,       /**< Switch A81: Opamp0 i
 593:Generated_Source\PSoC6\pdl\drivers/peripheral/ctb/cy_ctb.h ****     CY_CTB_SW_OA0_OUT_SARBUS0_MASK      = CTBM_OA0_SW_OA0O_D51_Msk,       /**< Switch D51: Opamp0 o
 594:Generated_Source\PSoC6\pdl\drivers/peripheral/ctb/cy_ctb.h ****     CY_CTB_SW_OA0_OUT_SHORT_1X_10X_MASK = CTBM_OA0_SW_OA0O_D81_Msk,       /**< Switch D81: Short Op
 595:Generated_Source\PSoC6\pdl\drivers/peripheral/ctb/cy_ctb.h **** }cy_en_ctb_oa0_switches_t;
 596:Generated_Source\PSoC6\pdl\drivers/peripheral/ctb/cy_ctb.h **** 
 597:Generated_Source\PSoC6\pdl\drivers/peripheral/ctb/cy_ctb.h **** /**
 598:Generated_Source\PSoC6\pdl\drivers/peripheral/ctb/cy_ctb.h **** * Switch masks for Opamp1 to be used in \ref Cy_CTB_SetAnalogSwitch.
 599:Generated_Source\PSoC6\pdl\drivers/peripheral/ctb/cy_ctb.h **** */
 600:Generated_Source\PSoC6\pdl\drivers/peripheral/ctb/cy_ctb.h **** typedef enum
 601:Generated_Source\PSoC6\pdl\drivers/peripheral/ctb/cy_ctb.h **** {
 602:Generated_Source\PSoC6\pdl\drivers/peripheral/ctb/cy_ctb.h ****     CY_CTB_SW_OA1_POS_AMUXBUSB_MASK     = CTBM_OA1_SW_OA1P_A03_Msk,       /**< Switch A03: Opamp1 n
 603:Generated_Source\PSoC6\pdl\drivers/peripheral/ctb/cy_ctb.h ****     CY_CTB_SW_OA1_POS_PIN5_MASK         = CTBM_OA1_SW_OA1P_A13_Msk,       /**< Switch A13: Opamp1 n
 604:Generated_Source\PSoC6\pdl\drivers/peripheral/ctb/cy_ctb.h ****     CY_CTB_SW_OA1_POS_PIN7_MASK         = CTBM_OA1_SW_OA1P_A43_Msk,       /**< Switch A43: Opamp1 n
 605:Generated_Source\PSoC6\pdl\drivers/peripheral/ctb/cy_ctb.h ****     CY_CTB_SW_OA1_POS_AREF_MASK         = CTBM_OA1_SW_OA1P_A73_Msk,       /**< Switch A73: Opamp1 n
 606:Generated_Source\PSoC6\pdl\drivers/peripheral/ctb/cy_ctb.h ****     CY_CTB_SW_OA1_NEG_PIN4_MASK         = CTBM_OA1_SW_OA1M_A22_Msk,       /**< Switch A22: Opamp1 i
 607:Generated_Source\PSoC6\pdl\drivers/peripheral/ctb/cy_ctb.h ****     CY_CTB_SW_OA1_NEG_OUT_MASK          = CTBM_OA1_SW_OA1M_A82_Msk,       /**< switch A82: Opamp1 i
 608:Generated_Source\PSoC6\pdl\drivers/peripheral/ctb/cy_ctb.h ****     CY_CTB_SW_OA1_OUT_SARBUS0_MASK      = CTBM_OA1_SW_OA1O_D52_Msk,       /**< Switch D52: Opamp1 o
 609:Generated_Source\PSoC6\pdl\drivers/peripheral/ctb/cy_ctb.h ****     CY_CTB_SW_OA1_OUT_SARBUS1_MASK      = CTBM_OA1_SW_OA1O_D62_Msk,       /**< Switch D62: Opamp1 o
 610:Generated_Source\PSoC6\pdl\drivers/peripheral/ctb/cy_ctb.h ****     CY_CTB_SW_OA1_OUT_SHORT_1X_10X_MASK = CTBM_OA1_SW_OA1O_D82_Msk,       /**< Switch D82: Short Op
 611:Generated_Source\PSoC6\pdl\drivers/peripheral/ctb/cy_ctb.h **** }cy_en_ctb_oa1_switches_t;
 612:Generated_Source\PSoC6\pdl\drivers/peripheral/ctb/cy_ctb.h **** 
 613:Generated_Source\PSoC6\pdl\drivers/peripheral/ctb/cy_ctb.h **** /**
 614:Generated_Source\PSoC6\pdl\drivers/peripheral/ctb/cy_ctb.h **** * Switch masks for CTDAC to CTB routing to be used in \ref Cy_CTB_SetAnalogSwitch.
 615:Generated_Source\PSoC6\pdl\drivers/peripheral/ctb/cy_ctb.h **** */
 616:Generated_Source\PSoC6\pdl\drivers/peripheral/ctb/cy_ctb.h **** typedef enum
 617:Generated_Source\PSoC6\pdl\drivers/peripheral/ctb/cy_ctb.h **** {
 618:Generated_Source\PSoC6\pdl\drivers/peripheral/ctb/cy_ctb.h ****     CY_CTB_SW_CTD_REF_OA1_OUT_MASK              = CTBM_CTD_SW_CTDD_CRD_Msk,       /**< Switch CRD: 
 619:Generated_Source\PSoC6\pdl\drivers/peripheral/ctb/cy_ctb.h ****     CY_CTB_SW_CTD_REFSENSE_OA1_NEG_MASK         = CTBM_CTD_SW_CTDS_CRS_Msk,       /**< Switch CRS: 
 620:Generated_Source\PSoC6\pdl\drivers/peripheral/ctb/cy_ctb.h ****     CY_CTB_SW_CTD_OUT_OA1_NEG_MASK              = CTBM_CTD_SW_CTDS_COR_Msk,       /**< Switch COR: 
 621:Generated_Source\PSoC6\pdl\drivers/peripheral/ctb/cy_ctb.h ****     CY_CTB_SW_CTD_OUT_PIN6_MASK                 = CTBM_CTD_SW_CTDO_C6H_Msk,       /**< Switch C6H: 
 622:Generated_Source\PSoC6\pdl\drivers/peripheral/ctb/cy_ctb.h ****     CY_CTB_SW_CTD_OUT_CHOLD_MASK                = CTBM_CTD_SW_CTDO_COS_Msk,       /**< Switch COS: 
 623:Generated_Source\PSoC6\pdl\drivers/peripheral/ctb/cy_ctb.h ****     CY_CTB_SW_CTD_OUT_OA0_1X_OUT_MASK           = CTBM_CTD_SW_CTDH_COB_Msk,       /**< Switch COB: 
 624:Generated_Source\PSoC6\pdl\drivers/peripheral/ctb/cy_ctb.h ****     CY_CTB_SW_CTD_CHOLD_CONNECT_MASK            = CTBM_CTD_SW_CTDH_CHD_Msk,       /**< Switch CHD: 
 625:Generated_Source\PSoC6\pdl\drivers/peripheral/ctb/cy_ctb.h ****     CY_CTB_SW_CTD_CHOLD_OA0_POS_MASK            = CTBM_CTD_SW_CTDH_CA0_Msk,       /**< Switch CA0: 
 626:Generated_Source\PSoC6\pdl\drivers/peripheral/ctb/cy_ctb.h ****     CY_CTB_SW_CTD_CHOLD_OA0_POS_ISOLATE_MASK    = CTBM_CTD_SW_CTDH_CIS_Msk,       /**< Switch CIS: 
 627:Generated_Source\PSoC6\pdl\drivers/peripheral/ctb/cy_ctb.h ****     CY_CTB_SW_CTD_CHOLD_LEAKAGE_REDUCTION_MASK  = CTBM_CTD_SW_CTDH_ILR_Msk,       /**< Switch ILR: 
 628:Generated_Source\PSoC6\pdl\drivers/peripheral/ctb/cy_ctb.h **** }cy_en_ctb_ctd_switches_t;
 629:Generated_Source\PSoC6\pdl\drivers/peripheral/ctb/cy_ctb.h **** 
 630:Generated_Source\PSoC6\pdl\drivers/peripheral/ctb/cy_ctb.h **** 
 631:Generated_Source\PSoC6\pdl\drivers/peripheral/ctb/cy_ctb.h **** /**
 632:Generated_Source\PSoC6\pdl\drivers/peripheral/ctb/cy_ctb.h **** * Masks for CTB switches that can be controlled by the SAR sequencer.
ARM GAS  C:\Users\JC\AppData\Local\Temp\cclwO4Ug.s 			page 26


 633:Generated_Source\PSoC6\pdl\drivers/peripheral/ctb/cy_ctb.h **** * These masks are used in \ref Cy_CTB_EnableSarSeqCtrl and \ref Cy_CTB_DisableSarSeqCtrl.
 634:Generated_Source\PSoC6\pdl\drivers/peripheral/ctb/cy_ctb.h **** *
 635:Generated_Source\PSoC6\pdl\drivers/peripheral/ctb/cy_ctb.h **** * The SAR ADC subsystem supports analog routes through three CTB switches on SARBUS0 and SARBUS1.
 636:Generated_Source\PSoC6\pdl\drivers/peripheral/ctb/cy_ctb.h **** * This control allows for pins on the CTB dedicated port to route to the SAR ADC input channels:
 637:Generated_Source\PSoC6\pdl\drivers/peripheral/ctb/cy_ctb.h **** *
 638:Generated_Source\PSoC6\pdl\drivers/peripheral/ctb/cy_ctb.h **** *   - D51: Connects the inverting terminal of OA0 to SARBUS0
 639:Generated_Source\PSoC6\pdl\drivers/peripheral/ctb/cy_ctb.h **** *   - D52: Connects the inverting terminal of OA1 to SARBUS0
 640:Generated_Source\PSoC6\pdl\drivers/peripheral/ctb/cy_ctb.h **** *   - D62: Connects the inverting terminal of OA1 to SARBUS1
 641:Generated_Source\PSoC6\pdl\drivers/peripheral/ctb/cy_ctb.h **** */
 642:Generated_Source\PSoC6\pdl\drivers/peripheral/ctb/cy_ctb.h **** typedef enum
 643:Generated_Source\PSoC6\pdl\drivers/peripheral/ctb/cy_ctb.h **** {
 644:Generated_Source\PSoC6\pdl\drivers/peripheral/ctb/cy_ctb.h ****     CY_CTB_SW_SEQ_CTRL_D51_MASK            = CTBM_CTB_SW_SQ_CTRL_P2_SQ_CTRL23_Msk,  /**< Enable SAR
 645:Generated_Source\PSoC6\pdl\drivers/peripheral/ctb/cy_ctb.h ****     CY_CTB_SW_SEQ_CTRL_D52_D62_MASK        = CTBM_CTB_SW_SQ_CTRL_P3_SQ_CTRL23_Msk,  /**< Enable SAR
 646:Generated_Source\PSoC6\pdl\drivers/peripheral/ctb/cy_ctb.h ****     CY_CTB_SW_SEQ_CTRL_D51_D52_D62_MASK    = CTBM_CTB_SW_SQ_CTRL_P2_SQ_CTRL23_Msk | CTBM_CTB_SW_SQ_
 647:Generated_Source\PSoC6\pdl\drivers/peripheral/ctb/cy_ctb.h **** }cy_en_ctb_switch_sar_seq_t;
 648:Generated_Source\PSoC6\pdl\drivers/peripheral/ctb/cy_ctb.h **** 
 649:Generated_Source\PSoC6\pdl\drivers/peripheral/ctb/cy_ctb.h **** /**
 650:Generated_Source\PSoC6\pdl\drivers/peripheral/ctb/cy_ctb.h **** * Each opamp also has a programmable compensation capacitor block,
 651:Generated_Source\PSoC6\pdl\drivers/peripheral/ctb/cy_ctb.h **** * that optimizes the stability of the opamp performance based on output load.
 652:Generated_Source\PSoC6\pdl\drivers/peripheral/ctb/cy_ctb.h **** * The compensation cap will be set by the driver based on the opamp drive strength (1x or 10x) sele
 653:Generated_Source\PSoC6\pdl\drivers/peripheral/ctb/cy_ctb.h **** */
 654:Generated_Source\PSoC6\pdl\drivers/peripheral/ctb/cy_ctb.h **** typedef enum
 655:Generated_Source\PSoC6\pdl\drivers/peripheral/ctb/cy_ctb.h **** {
 656:Generated_Source\PSoC6\pdl\drivers/peripheral/ctb/cy_ctb.h ****     CY_CTB_OPAMP_COMPENSATION_CAP_OFF      = 0uL,       /**< No compensation */
 657:Generated_Source\PSoC6\pdl\drivers/peripheral/ctb/cy_ctb.h ****     CY_CTB_OPAMP_COMPENSATION_CAP_MIN      = 1uL,       /**< Minimum compensation - for 1x drive*/
 658:Generated_Source\PSoC6\pdl\drivers/peripheral/ctb/cy_ctb.h ****     CY_CTB_OPAMP_COMPENSATION_CAP_MED      = 2uL,       /**< Medium compensation */
 659:Generated_Source\PSoC6\pdl\drivers/peripheral/ctb/cy_ctb.h ****     CY_CTB_OPAMP_COMPENSATION_CAP_MAX      = 3uL,       /**< Maximum compensation - for 10x drive *
 660:Generated_Source\PSoC6\pdl\drivers/peripheral/ctb/cy_ctb.h **** }cy_en_ctb_compensation_cap_t;
 661:Generated_Source\PSoC6\pdl\drivers/peripheral/ctb/cy_ctb.h **** 
 662:Generated_Source\PSoC6\pdl\drivers/peripheral/ctb/cy_ctb.h **** /** Enable or disable the gain booster.
 663:Generated_Source\PSoC6\pdl\drivers/peripheral/ctb/cy_ctb.h **** * The gain booster will be set by the driver based on the opamp drive strength (1x or 10x) selectio
 664:Generated_Source\PSoC6\pdl\drivers/peripheral/ctb/cy_ctb.h **** */
 665:Generated_Source\PSoC6\pdl\drivers/peripheral/ctb/cy_ctb.h **** typedef enum
 666:Generated_Source\PSoC6\pdl\drivers/peripheral/ctb/cy_ctb.h **** {
 667:Generated_Source\PSoC6\pdl\drivers/peripheral/ctb/cy_ctb.h ****     CY_CTB_OPAMP_BOOST_DISABLE = 0uL,                                   /**< Disable gain booster -
 668:Generated_Source\PSoC6\pdl\drivers/peripheral/ctb/cy_ctb.h ****     CY_CTB_OPAMP_BOOST_ENABLE  = CTBM_OA_RES0_CTRL_OA0_BOOST_EN_Msk,   /**< Enable gain booster - f
 669:Generated_Source\PSoC6\pdl\drivers/peripheral/ctb/cy_ctb.h **** }cy_en_ctb_boost_en_t;
 670:Generated_Source\PSoC6\pdl\drivers/peripheral/ctb/cy_ctb.h **** 
 671:Generated_Source\PSoC6\pdl\drivers/peripheral/ctb/cy_ctb.h **** /** Sample and hold modes for firmware sampling of the CTDAC output.
 672:Generated_Source\PSoC6\pdl\drivers/peripheral/ctb/cy_ctb.h **** *
 673:Generated_Source\PSoC6\pdl\drivers/peripheral/ctb/cy_ctb.h **** * To perform a sample or a hold, a preparation step must first be executed to
 674:Generated_Source\PSoC6\pdl\drivers/peripheral/ctb/cy_ctb.h **** * open the required switches.
 675:Generated_Source\PSoC6\pdl\drivers/peripheral/ctb/cy_ctb.h **** *
 676:Generated_Source\PSoC6\pdl\drivers/peripheral/ctb/cy_ctb.h **** * -# Call \ref Cy_CTB_DACSampleAndHold with \ref CY_CTB_SH_PREPARE_SAMPLE or \ref CY_CTB_SH_PREPARE
 677:Generated_Source\PSoC6\pdl\drivers/peripheral/ctb/cy_ctb.h **** * -# Enable or disable CTDAC output
 678:Generated_Source\PSoC6\pdl\drivers/peripheral/ctb/cy_ctb.h **** * -# Call \ref Cy_CTB_DACSampleAndHold with \ref CY_CTB_SH_SAMPLE or \ref CY_CTB_SH_HOLD
 679:Generated_Source\PSoC6\pdl\drivers/peripheral/ctb/cy_ctb.h **** */
 680:Generated_Source\PSoC6\pdl\drivers/peripheral/ctb/cy_ctb.h **** typedef enum
 681:Generated_Source\PSoC6\pdl\drivers/peripheral/ctb/cy_ctb.h **** {
 682:Generated_Source\PSoC6\pdl\drivers/peripheral/ctb/cy_ctb.h ****     CY_CTB_SH_DISABLE           = 0uL,   /**< The hold capacitor is not connected - this disables s
 683:Generated_Source\PSoC6\pdl\drivers/peripheral/ctb/cy_ctb.h ****     CY_CTB_SH_PREPARE_SAMPLE    = 1uL,   /**< Prepares the required switches for a following sample
 684:Generated_Source\PSoC6\pdl\drivers/peripheral/ctb/cy_ctb.h ****     CY_CTB_SH_SAMPLE            = 2uL,   /**< Performs a sample of the voltage */
 685:Generated_Source\PSoC6\pdl\drivers/peripheral/ctb/cy_ctb.h ****     CY_CTB_SH_PREPARE_HOLD      = 3uL,   /**< Prepares the required switches for a following hold *
 686:Generated_Source\PSoC6\pdl\drivers/peripheral/ctb/cy_ctb.h ****     CY_CTB_SH_HOLD              = 4uL,   /**< Performs a hold of the previously sampled voltage */
 687:Generated_Source\PSoC6\pdl\drivers/peripheral/ctb/cy_ctb.h **** }cy_en_ctb_sample_hold_mode_t;
 688:Generated_Source\PSoC6\pdl\drivers/peripheral/ctb/cy_ctb.h **** 
 689:Generated_Source\PSoC6\pdl\drivers/peripheral/ctb/cy_ctb.h **** /** AREF IPTAT bias current output for the CTB
ARM GAS  C:\Users\JC\AppData\Local\Temp\cclwO4Ug.s 			page 27


 690:Generated_Source\PSoC6\pdl\drivers/peripheral/ctb/cy_ctb.h **** *
 691:Generated_Source\PSoC6\pdl\drivers/peripheral/ctb/cy_ctb.h **** * The CTB bias current can be 1 uA (normal) or 100 nA (low current).
 692:Generated_Source\PSoC6\pdl\drivers/peripheral/ctb/cy_ctb.h **** */
 693:Generated_Source\PSoC6\pdl\drivers/peripheral/ctb/cy_ctb.h **** typedef enum
 694:Generated_Source\PSoC6\pdl\drivers/peripheral/ctb/cy_ctb.h **** {
 695:Generated_Source\PSoC6\pdl\drivers/peripheral/ctb/cy_ctb.h ****     CY_CTB_IPTAT_NORMAL       = 0uL,                                               /**< 1 uA bias c
 696:Generated_Source\PSoC6\pdl\drivers/peripheral/ctb/cy_ctb.h ****     CY_CTB_IPTAT_LOW          = 1uL << PASS_AREF_AREF_CTRL_CTB_IPTAT_SCALE_Pos,    /**< 100 nA bias
 697:Generated_Source\PSoC6\pdl\drivers/peripheral/ctb/cy_ctb.h **** }cy_en_ctb_iptat_t;
 698:Generated_Source\PSoC6\pdl\drivers/peripheral/ctb/cy_ctb.h **** 
 699:Generated_Source\PSoC6\pdl\drivers/peripheral/ctb/cy_ctb.h **** /** CTB charge pump clock sources
 700:Generated_Source\PSoC6\pdl\drivers/peripheral/ctb/cy_ctb.h **** *
 701:Generated_Source\PSoC6\pdl\drivers/peripheral/ctb/cy_ctb.h **** * The CTB pump clock can come from:
 702:Generated_Source\PSoC6\pdl\drivers/peripheral/ctb/cy_ctb.h **** *   - a dedicated divider clock in the SRSS
 703:Generated_Source\PSoC6\pdl\drivers/peripheral/ctb/cy_ctb.h **** *   - one of the CLK_PERI dividers
 704:Generated_Source\PSoC6\pdl\drivers/peripheral/ctb/cy_ctb.h **** */
 705:Generated_Source\PSoC6\pdl\drivers/peripheral/ctb/cy_ctb.h **** typedef enum
 706:Generated_Source\PSoC6\pdl\drivers/peripheral/ctb/cy_ctb.h **** {
 707:Generated_Source\PSoC6\pdl\drivers/peripheral/ctb/cy_ctb.h ****     CY_CTB_CLK_PUMP_SRSS       = 0uL,                                                   /**< Use th
 708:Generated_Source\PSoC6\pdl\drivers/peripheral/ctb/cy_ctb.h ****     CY_CTB_CLK_PUMP_PERI       = 1uL << PASS_AREF_AREF_CTRL_CLOCK_PUMP_PERI_SEL_Pos,    /**< Use on
 709:Generated_Source\PSoC6\pdl\drivers/peripheral/ctb/cy_ctb.h **** }cy_en_ctb_clk_pump_source_t;
 710:Generated_Source\PSoC6\pdl\drivers/peripheral/ctb/cy_ctb.h **** 
 711:Generated_Source\PSoC6\pdl\drivers/peripheral/ctb/cy_ctb.h **** /** High level opamp current modes */
 712:Generated_Source\PSoC6\pdl\drivers/peripheral/ctb/cy_ctb.h **** typedef enum
 713:Generated_Source\PSoC6\pdl\drivers/peripheral/ctb/cy_ctb.h **** {
 714:Generated_Source\PSoC6\pdl\drivers/peripheral/ctb/cy_ctb.h ****     CY_CTB_CURRENT_HIGH_ACTIVE             = 0uL,    /**< Uses 1 uA reference current with charge p
 715:Generated_Source\PSoC6\pdl\drivers/peripheral/ctb/cy_ctb.h ****     CY_CTB_CURRENT_HIGH_ACTIVE_DEEPSLEEP   = 1uL,    /**< Uses 1 uA reference current with charge p
 716:Generated_Source\PSoC6\pdl\drivers/peripheral/ctb/cy_ctb.h ****     CY_CTB_CURRENT_LOW_ACTIVE_DEEPSLEEP    = 2uL,    /**< Uses 100 nA reference current with charge
 717:Generated_Source\PSoC6\pdl\drivers/peripheral/ctb/cy_ctb.h **** }cy_en_ctb_current_mode_t;
 718:Generated_Source\PSoC6\pdl\drivers/peripheral/ctb/cy_ctb.h **** 
 719:Generated_Source\PSoC6\pdl\drivers/peripheral/ctb/cy_ctb.h **** /** Return states for \ref Cy_CTB_Init, \ref Cy_CTB_OpampInit, \ref Cy_CTB_DeInit, and \ref Cy_CTB_
 720:Generated_Source\PSoC6\pdl\drivers/peripheral/ctb/cy_ctb.h **** typedef enum {
 721:Generated_Source\PSoC6\pdl\drivers/peripheral/ctb/cy_ctb.h ****     CY_CTB_SUCCESS    = 0x00uL,                                      /**< Initialization completed 
 722:Generated_Source\PSoC6\pdl\drivers/peripheral/ctb/cy_ctb.h ****     CY_CTB_BAD_PARAM  = CY_CTB_ID | CY_PDL_STATUS_ERROR | 0x01uL,    /**< Input pointers were NULL 
 723:Generated_Source\PSoC6\pdl\drivers/peripheral/ctb/cy_ctb.h **** }cy_en_ctb_status_t;
 724:Generated_Source\PSoC6\pdl\drivers/peripheral/ctb/cy_ctb.h **** 
 725:Generated_Source\PSoC6\pdl\drivers/peripheral/ctb/cy_ctb.h **** /** \} group_ctb_enums */
 726:Generated_Source\PSoC6\pdl\drivers/peripheral/ctb/cy_ctb.h **** 
 727:Generated_Source\PSoC6\pdl\drivers/peripheral/ctb/cy_ctb.h **** /***************************************
 728:Generated_Source\PSoC6\pdl\drivers/peripheral/ctb/cy_ctb.h **** *       Configuration Structures
 729:Generated_Source\PSoC6\pdl\drivers/peripheral/ctb/cy_ctb.h **** ***************************************/
 730:Generated_Source\PSoC6\pdl\drivers/peripheral/ctb/cy_ctb.h **** 
 731:Generated_Source\PSoC6\pdl\drivers/peripheral/ctb/cy_ctb.h **** /**
 732:Generated_Source\PSoC6\pdl\drivers/peripheral/ctb/cy_ctb.h **** * \addtogroup group_ctb_data_structures
 733:Generated_Source\PSoC6\pdl\drivers/peripheral/ctb/cy_ctb.h **** * \{
 734:Generated_Source\PSoC6\pdl\drivers/peripheral/ctb/cy_ctb.h **** */
 735:Generated_Source\PSoC6\pdl\drivers/peripheral/ctb/cy_ctb.h **** 
 736:Generated_Source\PSoC6\pdl\drivers/peripheral/ctb/cy_ctb.h **** /**
 737:Generated_Source\PSoC6\pdl\drivers/peripheral/ctb/cy_ctb.h **** * Configuration structure to set up the entire CTB to be used with \ref Cy_CTB_Init.
 738:Generated_Source\PSoC6\pdl\drivers/peripheral/ctb/cy_ctb.h **** */
 739:Generated_Source\PSoC6\pdl\drivers/peripheral/ctb/cy_ctb.h **** typedef struct {
 740:Generated_Source\PSoC6\pdl\drivers/peripheral/ctb/cy_ctb.h ****     cy_en_ctb_deep_sleep_t      deepSleep;      /**< Enable or disable the CTB during Deep Sleep */
 741:Generated_Source\PSoC6\pdl\drivers/peripheral/ctb/cy_ctb.h **** 
 742:Generated_Source\PSoC6\pdl\drivers/peripheral/ctb/cy_ctb.h ****     /* Opamp0 configuration */
 743:Generated_Source\PSoC6\pdl\drivers/peripheral/ctb/cy_ctb.h ****     cy_en_ctb_power_t           oa0Power;       /**< Opamp0 power mode: off, low, medium, or high *
 744:Generated_Source\PSoC6\pdl\drivers/peripheral/ctb/cy_ctb.h ****     cy_en_ctb_mode_t            oa0Mode;        /**< Opamp0 usage mode: 1x drive, 10x drive, or as 
 745:Generated_Source\PSoC6\pdl\drivers/peripheral/ctb/cy_ctb.h ****     cy_en_ctb_pump_t            oa0Pump;        /**< Opamp0 charge pump: enable to increase input r
 746:Generated_Source\PSoC6\pdl\drivers/peripheral/ctb/cy_ctb.h ****     cy_en_ctb_comp_edge_t       oa0CompEdge;    /**< Opamp0 comparator edge detection: disable, ris
ARM GAS  C:\Users\JC\AppData\Local\Temp\cclwO4Ug.s 			page 28


 747:Generated_Source\PSoC6\pdl\drivers/peripheral/ctb/cy_ctb.h ****     cy_en_ctb_comp_level_t      oa0CompLevel;   /**< Opamp0 comparator DSI (trigger) output: pulse 
 748:Generated_Source\PSoC6\pdl\drivers/peripheral/ctb/cy_ctb.h ****     cy_en_ctb_comp_bypass_t     oa0CompBypass;  /**< Opamp0 comparator DSI (trigger) output synchro
 749:Generated_Source\PSoC6\pdl\drivers/peripheral/ctb/cy_ctb.h ****     cy_en_ctb_comp_hyst_t       oa0CompHyst;    /**< Opamp0 comparator hysteresis: enable for 10 mV
 750:Generated_Source\PSoC6\pdl\drivers/peripheral/ctb/cy_ctb.h ****     bool                        oa0CompIntrEn;  /**< Opamp0 comparator interrupt enable */
 751:Generated_Source\PSoC6\pdl\drivers/peripheral/ctb/cy_ctb.h **** 
 752:Generated_Source\PSoC6\pdl\drivers/peripheral/ctb/cy_ctb.h ****     /* Opamp1 configuration */
 753:Generated_Source\PSoC6\pdl\drivers/peripheral/ctb/cy_ctb.h ****     cy_en_ctb_power_t           oa1Power;       /**< Opamp1 power mode: off, low, medium, or high *
 754:Generated_Source\PSoC6\pdl\drivers/peripheral/ctb/cy_ctb.h ****     cy_en_ctb_mode_t            oa1Mode;        /**< Opamp1 usage mode: 1x drive, 10x drive, or as 
 755:Generated_Source\PSoC6\pdl\drivers/peripheral/ctb/cy_ctb.h ****     cy_en_ctb_pump_t            oa1Pump;        /**< Opamp1 charge pump: enable to increase input r
 756:Generated_Source\PSoC6\pdl\drivers/peripheral/ctb/cy_ctb.h ****     cy_en_ctb_comp_edge_t       oa1CompEdge;    /**< Opamp1 comparator edge detection: disable, ris
 757:Generated_Source\PSoC6\pdl\drivers/peripheral/ctb/cy_ctb.h ****     cy_en_ctb_comp_level_t      oa1CompLevel;   /**< Opamp1 comparator DSI (trigger) output: pulse 
 758:Generated_Source\PSoC6\pdl\drivers/peripheral/ctb/cy_ctb.h ****     cy_en_ctb_comp_bypass_t     oa1CompBypass;  /**< Opamp1 comparator DSI (trigger) output synchro
 759:Generated_Source\PSoC6\pdl\drivers/peripheral/ctb/cy_ctb.h ****     cy_en_ctb_comp_hyst_t       oa1CompHyst;    /**< Opamp1 comparator hysteresis: enable for 10 mV
 760:Generated_Source\PSoC6\pdl\drivers/peripheral/ctb/cy_ctb.h ****     bool                        oa1CompIntrEn;  /**< Opamp1 comparator interrupt enable */
 761:Generated_Source\PSoC6\pdl\drivers/peripheral/ctb/cy_ctb.h **** 
 762:Generated_Source\PSoC6\pdl\drivers/peripheral/ctb/cy_ctb.h ****     /* Switch analog routing configuration */
 763:Generated_Source\PSoC6\pdl\drivers/peripheral/ctb/cy_ctb.h ****     bool                        configRouting;  /**< Configure or ignore routing related registers 
 764:Generated_Source\PSoC6\pdl\drivers/peripheral/ctb/cy_ctb.h ****     uint32_t                    oa0SwitchCtrl;  /**< Opamp0 routing control */
 765:Generated_Source\PSoC6\pdl\drivers/peripheral/ctb/cy_ctb.h ****     uint32_t                    oa1SwitchCtrl;  /**< Opamp1 routing control */
 766:Generated_Source\PSoC6\pdl\drivers/peripheral/ctb/cy_ctb.h ****     uint32_t                    ctdSwitchCtrl;  /**< Routing control between the CTDAC and CTB bloc
 767:Generated_Source\PSoC6\pdl\drivers/peripheral/ctb/cy_ctb.h **** }cy_stc_ctb_config_t;
 768:Generated_Source\PSoC6\pdl\drivers/peripheral/ctb/cy_ctb.h **** 
 769:Generated_Source\PSoC6\pdl\drivers/peripheral/ctb/cy_ctb.h **** /**
 770:Generated_Source\PSoC6\pdl\drivers/peripheral/ctb/cy_ctb.h **** * This configuration structure is used to initialize only one opamp of the CTB
 771:Generated_Source\PSoC6\pdl\drivers/peripheral/ctb/cy_ctb.h **** * without impacting analog routing. This structure is used with \ref Cy_CTB_OpampInit.
 772:Generated_Source\PSoC6\pdl\drivers/peripheral/ctb/cy_ctb.h **** */
 773:Generated_Source\PSoC6\pdl\drivers/peripheral/ctb/cy_ctb.h **** typedef struct {
 774:Generated_Source\PSoC6\pdl\drivers/peripheral/ctb/cy_ctb.h ****     cy_en_ctb_deep_sleep_t      deepSleep;      /**< Enable or disable the CTB during Deep Sleep */
 775:Generated_Source\PSoC6\pdl\drivers/peripheral/ctb/cy_ctb.h **** 
 776:Generated_Source\PSoC6\pdl\drivers/peripheral/ctb/cy_ctb.h ****     /* Opamp configuration */
 777:Generated_Source\PSoC6\pdl\drivers/peripheral/ctb/cy_ctb.h ****     cy_en_ctb_power_t           oaPower;        /**< Opamp power mode: off, low, medium, or high */
 778:Generated_Source\PSoC6\pdl\drivers/peripheral/ctb/cy_ctb.h ****     cy_en_ctb_mode_t            oaMode;         /**< Opamp usage mode: 1x drive, 10x drive, or as a
 779:Generated_Source\PSoC6\pdl\drivers/peripheral/ctb/cy_ctb.h ****     cy_en_ctb_pump_t            oaPump;         /**< Opamp charge pump: enable to increase input ra
 780:Generated_Source\PSoC6\pdl\drivers/peripheral/ctb/cy_ctb.h ****     cy_en_ctb_comp_edge_t       oaCompEdge;     /**< Opamp comparator edge detection: disable, risi
 781:Generated_Source\PSoC6\pdl\drivers/peripheral/ctb/cy_ctb.h ****     cy_en_ctb_comp_level_t      oaCompLevel;    /**< Opamp comparator DSI (trigger) output: pulse o
 782:Generated_Source\PSoC6\pdl\drivers/peripheral/ctb/cy_ctb.h ****     cy_en_ctb_comp_bypass_t     oaCompBypass;   /**< Opamp comparator DSI (trigger) output synchron
 783:Generated_Source\PSoC6\pdl\drivers/peripheral/ctb/cy_ctb.h ****     cy_en_ctb_comp_hyst_t       oaCompHyst;     /**< Opamp comparator hysteresis: enable for 10 mV 
 784:Generated_Source\PSoC6\pdl\drivers/peripheral/ctb/cy_ctb.h ****     bool                        oaCompIntrEn;   /**< Opamp comparator interrupt enable */
 785:Generated_Source\PSoC6\pdl\drivers/peripheral/ctb/cy_ctb.h **** }cy_stc_ctb_opamp_config_t;
 786:Generated_Source\PSoC6\pdl\drivers/peripheral/ctb/cy_ctb.h **** 
 787:Generated_Source\PSoC6\pdl\drivers/peripheral/ctb/cy_ctb.h **** /** This configuration structure is used to quickly initialize Opamp0 for the most commonly used co
 788:Generated_Source\PSoC6\pdl\drivers/peripheral/ctb/cy_ctb.h **** *
 789:Generated_Source\PSoC6\pdl\drivers/peripheral/ctb/cy_ctb.h **** * Other configuration options are set to:
 790:Generated_Source\PSoC6\pdl\drivers/peripheral/ctb/cy_ctb.h **** *   - .oa0Pump       = \ref CY_CTB_PUMP_ENABLE
 791:Generated_Source\PSoC6\pdl\drivers/peripheral/ctb/cy_ctb.h **** *   - .oa0CompEdge   = \ref CY_CTB_COMP_EDGE_BOTH
 792:Generated_Source\PSoC6\pdl\drivers/peripheral/ctb/cy_ctb.h **** *   - .oa0CompLevel  = \ref CY_CTB_COMP_DSI_TRIGGER_OUT_LEVEL
 793:Generated_Source\PSoC6\pdl\drivers/peripheral/ctb/cy_ctb.h **** *   - .oa0CompBypass = \ref CY_CTB_COMP_BYPASS_SYNC
 794:Generated_Source\PSoC6\pdl\drivers/peripheral/ctb/cy_ctb.h **** *   - .oa0CompHyst   = \ref CY_CTB_COMP_HYST_10MV
 795:Generated_Source\PSoC6\pdl\drivers/peripheral/ctb/cy_ctb.h **** *   - .oa0CompIntrEn = true
 796:Generated_Source\PSoC6\pdl\drivers/peripheral/ctb/cy_ctb.h **** */
 797:Generated_Source\PSoC6\pdl\drivers/peripheral/ctb/cy_ctb.h **** typedef struct
 798:Generated_Source\PSoC6\pdl\drivers/peripheral/ctb/cy_ctb.h **** {
 799:Generated_Source\PSoC6\pdl\drivers/peripheral/ctb/cy_ctb.h ****     cy_en_ctb_power_t   oa0Power;       /**< Opamp0 power mode: off, low, medium, or high */
 800:Generated_Source\PSoC6\pdl\drivers/peripheral/ctb/cy_ctb.h ****     cy_en_ctb_mode_t    oa0Mode;        /**< Opamp0 usage mode: 1x drive, 10x drive, or as a compar
 801:Generated_Source\PSoC6\pdl\drivers/peripheral/ctb/cy_ctb.h ****     uint32_t            oa0SwitchCtrl;  /**< Opamp0 routing control */
 802:Generated_Source\PSoC6\pdl\drivers/peripheral/ctb/cy_ctb.h ****     uint32_t            ctdSwitchCtrl;  /**< Routing control between the CTDAC and CTB blocks */
 803:Generated_Source\PSoC6\pdl\drivers/peripheral/ctb/cy_ctb.h **** }cy_stc_ctb_fast_config_oa0_t;
ARM GAS  C:\Users\JC\AppData\Local\Temp\cclwO4Ug.s 			page 29


 804:Generated_Source\PSoC6\pdl\drivers/peripheral/ctb/cy_ctb.h **** 
 805:Generated_Source\PSoC6\pdl\drivers/peripheral/ctb/cy_ctb.h **** /** This configuration structure is used to quickly initialize Opamp1 for the most commonly used co
 806:Generated_Source\PSoC6\pdl\drivers/peripheral/ctb/cy_ctb.h **** *
 807:Generated_Source\PSoC6\pdl\drivers/peripheral/ctb/cy_ctb.h **** * Other configuration options are set to:
 808:Generated_Source\PSoC6\pdl\drivers/peripheral/ctb/cy_ctb.h **** *   - .oa1Pump       = \ref CY_CTB_PUMP_ENABLE
 809:Generated_Source\PSoC6\pdl\drivers/peripheral/ctb/cy_ctb.h **** *   - .oa1CompEdge   = \ref CY_CTB_COMP_EDGE_BOTH
 810:Generated_Source\PSoC6\pdl\drivers/peripheral/ctb/cy_ctb.h **** *   - .oa1CompLevel  = \ref CY_CTB_COMP_DSI_TRIGGER_OUT_LEVEL
 811:Generated_Source\PSoC6\pdl\drivers/peripheral/ctb/cy_ctb.h **** *   - .oa1CompBypass = \ref CY_CTB_COMP_BYPASS_SYNC
 812:Generated_Source\PSoC6\pdl\drivers/peripheral/ctb/cy_ctb.h **** *   - .oa1CompHyst   = \ref CY_CTB_COMP_HYST_10MV
 813:Generated_Source\PSoC6\pdl\drivers/peripheral/ctb/cy_ctb.h **** *   - .oa1CompIntrEn = true
 814:Generated_Source\PSoC6\pdl\drivers/peripheral/ctb/cy_ctb.h **** */
 815:Generated_Source\PSoC6\pdl\drivers/peripheral/ctb/cy_ctb.h **** typedef struct
 816:Generated_Source\PSoC6\pdl\drivers/peripheral/ctb/cy_ctb.h **** {
 817:Generated_Source\PSoC6\pdl\drivers/peripheral/ctb/cy_ctb.h ****     cy_en_ctb_power_t   oa1Power;       /**< Opamp1 power mode: off, low, medium, or high */
 818:Generated_Source\PSoC6\pdl\drivers/peripheral/ctb/cy_ctb.h ****     cy_en_ctb_mode_t    oa1Mode;        /**< Opamp1 usage mode: 1x drive, 10x drive, or as a compar
 819:Generated_Source\PSoC6\pdl\drivers/peripheral/ctb/cy_ctb.h ****     uint32_t            oa1SwitchCtrl;  /**< Opamp1 routing control */
 820:Generated_Source\PSoC6\pdl\drivers/peripheral/ctb/cy_ctb.h ****     uint32_t            ctdSwitchCtrl;  /**< Routing control between the CTDAC and CTB blocks */
 821:Generated_Source\PSoC6\pdl\drivers/peripheral/ctb/cy_ctb.h **** }cy_stc_ctb_fast_config_oa1_t;
 822:Generated_Source\PSoC6\pdl\drivers/peripheral/ctb/cy_ctb.h **** 
 823:Generated_Source\PSoC6\pdl\drivers/peripheral/ctb/cy_ctb.h **** /** \} group_ctb_data_structures */
 824:Generated_Source\PSoC6\pdl\drivers/peripheral/ctb/cy_ctb.h **** 
 825:Generated_Source\PSoC6\pdl\drivers/peripheral/ctb/cy_ctb.h **** 
 826:Generated_Source\PSoC6\pdl\drivers/peripheral/ctb/cy_ctb.h **** /** \addtogroup group_ctb_globals
 827:Generated_Source\PSoC6\pdl\drivers/peripheral/ctb/cy_ctb.h **** * \{
 828:Generated_Source\PSoC6\pdl\drivers/peripheral/ctb/cy_ctb.h **** */
 829:Generated_Source\PSoC6\pdl\drivers/peripheral/ctb/cy_ctb.h **** /***************************************
 830:Generated_Source\PSoC6\pdl\drivers/peripheral/ctb/cy_ctb.h **** *        Global Variables
 831:Generated_Source\PSoC6\pdl\drivers/peripheral/ctb/cy_ctb.h **** ***************************************/
 832:Generated_Source\PSoC6\pdl\drivers/peripheral/ctb/cy_ctb.h **** 
 833:Generated_Source\PSoC6\pdl\drivers/peripheral/ctb/cy_ctb.h **** /** Configure Opamp0 as unused - powered down. See \ref Cy_CTB_FastInit. */
 834:Generated_Source\PSoC6\pdl\drivers/peripheral/ctb/cy_ctb.h **** extern const cy_stc_ctb_fast_config_oa0_t Cy_CTB_Fast_Opamp0_Unused;
 835:Generated_Source\PSoC6\pdl\drivers/peripheral/ctb/cy_ctb.h **** 
 836:Generated_Source\PSoC6\pdl\drivers/peripheral/ctb/cy_ctb.h **** /** Configure Opamp0 as a comparator. No routing is configured.
 837:Generated_Source\PSoC6\pdl\drivers/peripheral/ctb/cy_ctb.h **** *
 838:Generated_Source\PSoC6\pdl\drivers/peripheral/ctb/cy_ctb.h **** * \image html ctb_fast_config_comp.png
 839:Generated_Source\PSoC6\pdl\drivers/peripheral/ctb/cy_ctb.h **** * \image latex ctb_fast_config_comp.png width=100px
 840:Generated_Source\PSoC6\pdl\drivers/peripheral/ctb/cy_ctb.h **** *
 841:Generated_Source\PSoC6\pdl\drivers/peripheral/ctb/cy_ctb.h **** * See \ref Cy_CTB_FastInit.
 842:Generated_Source\PSoC6\pdl\drivers/peripheral/ctb/cy_ctb.h **** */
 843:Generated_Source\PSoC6\pdl\drivers/peripheral/ctb/cy_ctb.h **** extern const cy_stc_ctb_fast_config_oa0_t Cy_CTB_Fast_Opamp0_Comp;
 844:Generated_Source\PSoC6\pdl\drivers/peripheral/ctb/cy_ctb.h **** 
 845:Generated_Source\PSoC6\pdl\drivers/peripheral/ctb/cy_ctb.h **** /** Configure Opamp0 as an opamp with 1x drive. No routing is configured.
 846:Generated_Source\PSoC6\pdl\drivers/peripheral/ctb/cy_ctb.h **** *
 847:Generated_Source\PSoC6\pdl\drivers/peripheral/ctb/cy_ctb.h **** * \image html ctb_fast_config_opamp1x.png
 848:Generated_Source\PSoC6\pdl\drivers/peripheral/ctb/cy_ctb.h **** * \image latex ctb_fast_config_opamp1x.png width=100px
 849:Generated_Source\PSoC6\pdl\drivers/peripheral/ctb/cy_ctb.h **** *
 850:Generated_Source\PSoC6\pdl\drivers/peripheral/ctb/cy_ctb.h **** * See \ref Cy_CTB_FastInit.
 851:Generated_Source\PSoC6\pdl\drivers/peripheral/ctb/cy_ctb.h **** */
 852:Generated_Source\PSoC6\pdl\drivers/peripheral/ctb/cy_ctb.h **** extern const cy_stc_ctb_fast_config_oa0_t Cy_CTB_Fast_Opamp0_Opamp1x;
 853:Generated_Source\PSoC6\pdl\drivers/peripheral/ctb/cy_ctb.h **** 
 854:Generated_Source\PSoC6\pdl\drivers/peripheral/ctb/cy_ctb.h **** /** Configure Opamp0 as an opamp with 10x drive. No routing is configured.
 855:Generated_Source\PSoC6\pdl\drivers/peripheral/ctb/cy_ctb.h **** *
 856:Generated_Source\PSoC6\pdl\drivers/peripheral/ctb/cy_ctb.h **** * \image html ctb_fast_config_opamp10x.png
 857:Generated_Source\PSoC6\pdl\drivers/peripheral/ctb/cy_ctb.h **** * \image latex ctb_fast_config_opamp10x.png width=100px
 858:Generated_Source\PSoC6\pdl\drivers/peripheral/ctb/cy_ctb.h **** *
 859:Generated_Source\PSoC6\pdl\drivers/peripheral/ctb/cy_ctb.h **** * See \ref Cy_CTB_FastInit.
 860:Generated_Source\PSoC6\pdl\drivers/peripheral/ctb/cy_ctb.h **** */
ARM GAS  C:\Users\JC\AppData\Local\Temp\cclwO4Ug.s 			page 30


 861:Generated_Source\PSoC6\pdl\drivers/peripheral/ctb/cy_ctb.h **** extern const cy_stc_ctb_fast_config_oa0_t Cy_CTB_Fast_Opamp0_Opamp10x;
 862:Generated_Source\PSoC6\pdl\drivers/peripheral/ctb/cy_ctb.h **** 
 863:Generated_Source\PSoC6\pdl\drivers/peripheral/ctb/cy_ctb.h **** /** Configure Opamp0 as one stage of a differential amplifier.
 864:Generated_Source\PSoC6\pdl\drivers/peripheral/ctb/cy_ctb.h **** * The opamp is in 10x drive and the switches shown are closed.
 865:Generated_Source\PSoC6\pdl\drivers/peripheral/ctb/cy_ctb.h **** *
 866:Generated_Source\PSoC6\pdl\drivers/peripheral/ctb/cy_ctb.h **** * \image html ctb_fast_config_oa0_diffamp.png
 867:Generated_Source\PSoC6\pdl\drivers/peripheral/ctb/cy_ctb.h **** * \image latex ctb_fast_config_oa0_diffamp.png width=100px
 868:Generated_Source\PSoC6\pdl\drivers/peripheral/ctb/cy_ctb.h **** *
 869:Generated_Source\PSoC6\pdl\drivers/peripheral/ctb/cy_ctb.h **** * See the device datasheet for the dedicated CTB port.
 870:Generated_Source\PSoC6\pdl\drivers/peripheral/ctb/cy_ctb.h **** *
 871:Generated_Source\PSoC6\pdl\drivers/peripheral/ctb/cy_ctb.h **** * To be used with \ref Cy_CTB_FastInit and \ref Cy_CTB_Fast_Opamp1_Diffamp.
 872:Generated_Source\PSoC6\pdl\drivers/peripheral/ctb/cy_ctb.h **** */
 873:Generated_Source\PSoC6\pdl\drivers/peripheral/ctb/cy_ctb.h **** extern const cy_stc_ctb_fast_config_oa0_t Cy_CTB_Fast_Opamp0_Diffamp;
 874:Generated_Source\PSoC6\pdl\drivers/peripheral/ctb/cy_ctb.h **** 
 875:Generated_Source\PSoC6\pdl\drivers/peripheral/ctb/cy_ctb.h **** /** Configure Opamp0 as a buffer for the CTDAC output.
 876:Generated_Source\PSoC6\pdl\drivers/peripheral/ctb/cy_ctb.h **** * The buffer is in 10x drive and the switches shown are closed.
 877:Generated_Source\PSoC6\pdl\drivers/peripheral/ctb/cy_ctb.h **** * Configure the CTDAC for output buffer mode by calling \ref Cy_CTDAC_FastInit
 878:Generated_Source\PSoC6\pdl\drivers/peripheral/ctb/cy_ctb.h **** * with \ref Cy_CTDAC_Fast_VddaRef_BufferedOut or \ref Cy_CTDAC_Fast_OA1Ref_BufferedOut.
 879:Generated_Source\PSoC6\pdl\drivers/peripheral/ctb/cy_ctb.h **** *
 880:Generated_Source\PSoC6\pdl\drivers/peripheral/ctb/cy_ctb.h **** * \image html ctb_fast_config_vdac_output.png
 881:Generated_Source\PSoC6\pdl\drivers/peripheral/ctb/cy_ctb.h **** * \image latex ctb_fast_config_vdac_output.png
 882:Generated_Source\PSoC6\pdl\drivers/peripheral/ctb/cy_ctb.h **** *
 883:Generated_Source\PSoC6\pdl\drivers/peripheral/ctb/cy_ctb.h **** * See the device datasheet for the dedicated CTB port.
 884:Generated_Source\PSoC6\pdl\drivers/peripheral/ctb/cy_ctb.h **** *
 885:Generated_Source\PSoC6\pdl\drivers/peripheral/ctb/cy_ctb.h **** * See \ref Cy_CTB_FastInit.
 886:Generated_Source\PSoC6\pdl\drivers/peripheral/ctb/cy_ctb.h **** */
 887:Generated_Source\PSoC6\pdl\drivers/peripheral/ctb/cy_ctb.h **** extern const cy_stc_ctb_fast_config_oa0_t Cy_CTB_Fast_Opamp0_Vdac_Out;
 888:Generated_Source\PSoC6\pdl\drivers/peripheral/ctb/cy_ctb.h **** 
 889:Generated_Source\PSoC6\pdl\drivers/peripheral/ctb/cy_ctb.h **** /** Configure Opamp0 as a buffer for the CTDAC output with the sample and hold capacitor connected.
 890:Generated_Source\PSoC6\pdl\drivers/peripheral/ctb/cy_ctb.h **** * The buffer is in 10x drive and the switches shown are closed.
 891:Generated_Source\PSoC6\pdl\drivers/peripheral/ctb/cy_ctb.h **** * Configure the CTDAC for output buffer mode by calling \ref Cy_CTDAC_FastInit
 892:Generated_Source\PSoC6\pdl\drivers/peripheral/ctb/cy_ctb.h **** * with \ref Cy_CTDAC_Fast_VddaRef_BufferedOut or \ref Cy_CTDAC_Fast_OA1Ref_BufferedOut.
 893:Generated_Source\PSoC6\pdl\drivers/peripheral/ctb/cy_ctb.h **** 
 894:Generated_Source\PSoC6\pdl\drivers/peripheral/ctb/cy_ctb.h **** * \image html ctb_fast_config_vdac_sh.png
 895:Generated_Source\PSoC6\pdl\drivers/peripheral/ctb/cy_ctb.h **** * \image latex ctb_fast_config_vdac_sh.png
 896:Generated_Source\PSoC6\pdl\drivers/peripheral/ctb/cy_ctb.h **** *
 897:Generated_Source\PSoC6\pdl\drivers/peripheral/ctb/cy_ctb.h **** * See the device datasheet for the dedicated CTB port.
 898:Generated_Source\PSoC6\pdl\drivers/peripheral/ctb/cy_ctb.h **** *
 899:Generated_Source\PSoC6\pdl\drivers/peripheral/ctb/cy_ctb.h **** * See \ref Cy_CTB_FastInit.
 900:Generated_Source\PSoC6\pdl\drivers/peripheral/ctb/cy_ctb.h **** */
 901:Generated_Source\PSoC6\pdl\drivers/peripheral/ctb/cy_ctb.h **** extern const cy_stc_ctb_fast_config_oa0_t Cy_CTB_Fast_Opamp0_Vdac_Out_SH;
 902:Generated_Source\PSoC6\pdl\drivers/peripheral/ctb/cy_ctb.h **** 
 903:Generated_Source\PSoC6\pdl\drivers/peripheral/ctb/cy_ctb.h **** /** Configure Opamp1 as unused - powered down. See \ref Cy_CTB_FastInit.*/
 904:Generated_Source\PSoC6\pdl\drivers/peripheral/ctb/cy_ctb.h **** extern const cy_stc_ctb_fast_config_oa1_t Cy_CTB_Fast_Opamp1_Unused;
 905:Generated_Source\PSoC6\pdl\drivers/peripheral/ctb/cy_ctb.h **** 
 906:Generated_Source\PSoC6\pdl\drivers/peripheral/ctb/cy_ctb.h **** /** Configure Opamp1 as a comparator. No routing is configured.
 907:Generated_Source\PSoC6\pdl\drivers/peripheral/ctb/cy_ctb.h **** *
 908:Generated_Source\PSoC6\pdl\drivers/peripheral/ctb/cy_ctb.h **** * \image html ctb_fast_config_comp.png
 909:Generated_Source\PSoC6\pdl\drivers/peripheral/ctb/cy_ctb.h **** * \image latex ctb_fast_config_comp.png width=100px
 910:Generated_Source\PSoC6\pdl\drivers/peripheral/ctb/cy_ctb.h **** *
 911:Generated_Source\PSoC6\pdl\drivers/peripheral/ctb/cy_ctb.h **** * See \ref Cy_CTB_FastInit.
 912:Generated_Source\PSoC6\pdl\drivers/peripheral/ctb/cy_ctb.h **** */
 913:Generated_Source\PSoC6\pdl\drivers/peripheral/ctb/cy_ctb.h **** extern const cy_stc_ctb_fast_config_oa1_t Cy_CTB_Fast_Opamp1_Comp;
 914:Generated_Source\PSoC6\pdl\drivers/peripheral/ctb/cy_ctb.h **** 
 915:Generated_Source\PSoC6\pdl\drivers/peripheral/ctb/cy_ctb.h **** /** Configure Opamp1 as an opamp with 1x drive. No routing is configured.
 916:Generated_Source\PSoC6\pdl\drivers/peripheral/ctb/cy_ctb.h **** *
 917:Generated_Source\PSoC6\pdl\drivers/peripheral/ctb/cy_ctb.h **** * \image html ctb_fast_config_opamp1x.png
ARM GAS  C:\Users\JC\AppData\Local\Temp\cclwO4Ug.s 			page 31


 918:Generated_Source\PSoC6\pdl\drivers/peripheral/ctb/cy_ctb.h **** * \image latex ctb_fast_config_opamp1x.png width=100px
 919:Generated_Source\PSoC6\pdl\drivers/peripheral/ctb/cy_ctb.h **** *
 920:Generated_Source\PSoC6\pdl\drivers/peripheral/ctb/cy_ctb.h **** * See \ref Cy_CTB_FastInit.
 921:Generated_Source\PSoC6\pdl\drivers/peripheral/ctb/cy_ctb.h **** */
 922:Generated_Source\PSoC6\pdl\drivers/peripheral/ctb/cy_ctb.h **** extern const cy_stc_ctb_fast_config_oa1_t Cy_CTB_Fast_Opamp1_Opamp1x;
 923:Generated_Source\PSoC6\pdl\drivers/peripheral/ctb/cy_ctb.h **** 
 924:Generated_Source\PSoC6\pdl\drivers/peripheral/ctb/cy_ctb.h **** /** Configure Opamp1 as an opamp with 10x drive. No routing is configured.
 925:Generated_Source\PSoC6\pdl\drivers/peripheral/ctb/cy_ctb.h **** *
 926:Generated_Source\PSoC6\pdl\drivers/peripheral/ctb/cy_ctb.h **** * \image html ctb_fast_config_opamp10x.png
 927:Generated_Source\PSoC6\pdl\drivers/peripheral/ctb/cy_ctb.h **** * \image latex ctb_fast_config_opamp10x.png width=100px
 928:Generated_Source\PSoC6\pdl\drivers/peripheral/ctb/cy_ctb.h **** *
 929:Generated_Source\PSoC6\pdl\drivers/peripheral/ctb/cy_ctb.h **** * See \ref Cy_CTB_FastInit.
 930:Generated_Source\PSoC6\pdl\drivers/peripheral/ctb/cy_ctb.h **** */
 931:Generated_Source\PSoC6\pdl\drivers/peripheral/ctb/cy_ctb.h **** extern const cy_stc_ctb_fast_config_oa1_t Cy_CTB_Fast_Opamp1_Opamp10x;
 932:Generated_Source\PSoC6\pdl\drivers/peripheral/ctb/cy_ctb.h **** 
 933:Generated_Source\PSoC6\pdl\drivers/peripheral/ctb/cy_ctb.h **** /** Configure Opamp1 as one stage of a differential amplifier.
 934:Generated_Source\PSoC6\pdl\drivers/peripheral/ctb/cy_ctb.h **** * The opamp is in 10x drive and the switches shown are closed.
 935:Generated_Source\PSoC6\pdl\drivers/peripheral/ctb/cy_ctb.h **** *
 936:Generated_Source\PSoC6\pdl\drivers/peripheral/ctb/cy_ctb.h **** * \image html ctb_fast_config_oa1_diffamp.png
 937:Generated_Source\PSoC6\pdl\drivers/peripheral/ctb/cy_ctb.h **** * \image latex ctb_fast_config_oa1_diffamp.png width=100px
 938:Generated_Source\PSoC6\pdl\drivers/peripheral/ctb/cy_ctb.h **** *
 939:Generated_Source\PSoC6\pdl\drivers/peripheral/ctb/cy_ctb.h **** * See the device datasheet for the dedicated CTB port.
 940:Generated_Source\PSoC6\pdl\drivers/peripheral/ctb/cy_ctb.h **** *
 941:Generated_Source\PSoC6\pdl\drivers/peripheral/ctb/cy_ctb.h **** * To be used with \ref Cy_CTB_FastInit and \ref Cy_CTB_Fast_Opamp0_Diffamp.
 942:Generated_Source\PSoC6\pdl\drivers/peripheral/ctb/cy_ctb.h **** *
 943:Generated_Source\PSoC6\pdl\drivers/peripheral/ctb/cy_ctb.h **** */
 944:Generated_Source\PSoC6\pdl\drivers/peripheral/ctb/cy_ctb.h **** extern const cy_stc_ctb_fast_config_oa1_t Cy_CTB_Fast_Opamp1_Diffamp;
 945:Generated_Source\PSoC6\pdl\drivers/peripheral/ctb/cy_ctb.h **** 
 946:Generated_Source\PSoC6\pdl\drivers/peripheral/ctb/cy_ctb.h **** /** Configure Opamp1 as a buffer for the CTDAC reference. The reference comes from the
 947:Generated_Source\PSoC6\pdl\drivers/peripheral/ctb/cy_ctb.h **** * internal analog reference block (AREF).
 948:Generated_Source\PSoC6\pdl\drivers/peripheral/ctb/cy_ctb.h **** * The buffer is in 1x drive and the switches shown are closed.
 949:Generated_Source\PSoC6\pdl\drivers/peripheral/ctb/cy_ctb.h **** * Configure the CTDAC to use the buffered reference by calling \ref Cy_CTDAC_FastInit
 950:Generated_Source\PSoC6\pdl\drivers/peripheral/ctb/cy_ctb.h **** * with \ref Cy_CTDAC_Fast_OA1Ref_UnbufferedOut or \ref Cy_CTDAC_Fast_OA1Ref_BufferedOut.
 951:Generated_Source\PSoC6\pdl\drivers/peripheral/ctb/cy_ctb.h **** *
 952:Generated_Source\PSoC6\pdl\drivers/peripheral/ctb/cy_ctb.h **** * \image html ctb_fast_config_vdac_aref.png
 953:Generated_Source\PSoC6\pdl\drivers/peripheral/ctb/cy_ctb.h **** * \image latex ctb_fast_config_vdac_aref.png
 954:Generated_Source\PSoC6\pdl\drivers/peripheral/ctb/cy_ctb.h **** *
 955:Generated_Source\PSoC6\pdl\drivers/peripheral/ctb/cy_ctb.h **** * See \ref Cy_CTB_FastInit.
 956:Generated_Source\PSoC6\pdl\drivers/peripheral/ctb/cy_ctb.h **** *
 957:Generated_Source\PSoC6\pdl\drivers/peripheral/ctb/cy_ctb.h **** * Note the AREF block needs to be configured using a separate driver.
 958:Generated_Source\PSoC6\pdl\drivers/peripheral/ctb/cy_ctb.h **** */
 959:Generated_Source\PSoC6\pdl\drivers/peripheral/ctb/cy_ctb.h **** extern const cy_stc_ctb_fast_config_oa1_t Cy_CTB_Fast_Opamp1_Vdac_Ref_Aref;
 960:Generated_Source\PSoC6\pdl\drivers/peripheral/ctb/cy_ctb.h **** 
 961:Generated_Source\PSoC6\pdl\drivers/peripheral/ctb/cy_ctb.h **** /** Configure Opamp1 as a buffer for the CTDAC reference. The reference comes from Pin 5.
 962:Generated_Source\PSoC6\pdl\drivers/peripheral/ctb/cy_ctb.h **** * The buffer is in 1x drive and the switches shown are closed.
 963:Generated_Source\PSoC6\pdl\drivers/peripheral/ctb/cy_ctb.h **** * Configure the CTDAC to use the buffered reference by calling \ref Cy_CTDAC_FastInit
 964:Generated_Source\PSoC6\pdl\drivers/peripheral/ctb/cy_ctb.h **** * with \ref Cy_CTDAC_Fast_OA1Ref_UnbufferedOut or \ref Cy_CTDAC_Fast_OA1Ref_BufferedOut.
 965:Generated_Source\PSoC6\pdl\drivers/peripheral/ctb/cy_ctb.h **** *
 966:Generated_Source\PSoC6\pdl\drivers/peripheral/ctb/cy_ctb.h **** * \image html ctb_fast_config_vdac_pin5.png
 967:Generated_Source\PSoC6\pdl\drivers/peripheral/ctb/cy_ctb.h **** * \image latex ctb_fast_config_vdac_pin5.png
 968:Generated_Source\PSoC6\pdl\drivers/peripheral/ctb/cy_ctb.h **** *
 969:Generated_Source\PSoC6\pdl\drivers/peripheral/ctb/cy_ctb.h **** * See the device datasheet for the dedicated CTB port.
 970:Generated_Source\PSoC6\pdl\drivers/peripheral/ctb/cy_ctb.h **** *
 971:Generated_Source\PSoC6\pdl\drivers/peripheral/ctb/cy_ctb.h **** * See \ref Cy_CTB_FastInit.
 972:Generated_Source\PSoC6\pdl\drivers/peripheral/ctb/cy_ctb.h **** */
 973:Generated_Source\PSoC6\pdl\drivers/peripheral/ctb/cy_ctb.h **** extern const cy_stc_ctb_fast_config_oa1_t Cy_CTB_Fast_Opamp1_Vdac_Ref_Pin5;
 974:Generated_Source\PSoC6\pdl\drivers/peripheral/ctb/cy_ctb.h **** 
ARM GAS  C:\Users\JC\AppData\Local\Temp\cclwO4Ug.s 			page 32


 975:Generated_Source\PSoC6\pdl\drivers/peripheral/ctb/cy_ctb.h **** /** \} group_ctb_globals */
 976:Generated_Source\PSoC6\pdl\drivers/peripheral/ctb/cy_ctb.h **** 
 977:Generated_Source\PSoC6\pdl\drivers/peripheral/ctb/cy_ctb.h **** /***************************************
 978:Generated_Source\PSoC6\pdl\drivers/peripheral/ctb/cy_ctb.h **** *        Function Prototypes
 979:Generated_Source\PSoC6\pdl\drivers/peripheral/ctb/cy_ctb.h **** ***************************************/
 980:Generated_Source\PSoC6\pdl\drivers/peripheral/ctb/cy_ctb.h **** 
 981:Generated_Source\PSoC6\pdl\drivers/peripheral/ctb/cy_ctb.h **** /**
 982:Generated_Source\PSoC6\pdl\drivers/peripheral/ctb/cy_ctb.h **** * \addtogroup group_ctb_functions
 983:Generated_Source\PSoC6\pdl\drivers/peripheral/ctb/cy_ctb.h **** * \{
 984:Generated_Source\PSoC6\pdl\drivers/peripheral/ctb/cy_ctb.h **** */
 985:Generated_Source\PSoC6\pdl\drivers/peripheral/ctb/cy_ctb.h **** 
 986:Generated_Source\PSoC6\pdl\drivers/peripheral/ctb/cy_ctb.h **** /**
 987:Generated_Source\PSoC6\pdl\drivers/peripheral/ctb/cy_ctb.h **** * \addtogroup group_ctb_functions_init
 988:Generated_Source\PSoC6\pdl\drivers/peripheral/ctb/cy_ctb.h **** * This set of functions are for initializing, enabling, and disabling the CTB.
 989:Generated_Source\PSoC6\pdl\drivers/peripheral/ctb/cy_ctb.h **** * \{
 990:Generated_Source\PSoC6\pdl\drivers/peripheral/ctb/cy_ctb.h **** */
 991:Generated_Source\PSoC6\pdl\drivers/peripheral/ctb/cy_ctb.h **** cy_en_ctb_status_t Cy_CTB_Init(CTBM_Type *base, const cy_stc_ctb_config_t *config);
 992:Generated_Source\PSoC6\pdl\drivers/peripheral/ctb/cy_ctb.h **** cy_en_ctb_status_t Cy_CTB_OpampInit(CTBM_Type *base, cy_en_ctb_opamp_sel_t opampNum, const cy_stc_c
 993:Generated_Source\PSoC6\pdl\drivers/peripheral/ctb/cy_ctb.h **** cy_en_ctb_status_t Cy_CTB_DeInit(CTBM_Type *base, bool deInitRouting);
 994:Generated_Source\PSoC6\pdl\drivers/peripheral/ctb/cy_ctb.h **** cy_en_ctb_status_t Cy_CTB_FastInit(CTBM_Type *base, const cy_stc_ctb_fast_config_oa0_t *config0, co
 995:Generated_Source\PSoC6\pdl\drivers/peripheral/ctb/cy_ctb.h **** __STATIC_INLINE void Cy_CTB_Enable(CTBM_Type *base);
 996:Generated_Source\PSoC6\pdl\drivers/peripheral/ctb/cy_ctb.h **** __STATIC_INLINE void Cy_CTB_Disable(CTBM_Type *base);
 997:Generated_Source\PSoC6\pdl\drivers/peripheral/ctb/cy_ctb.h **** /** \} */
 998:Generated_Source\PSoC6\pdl\drivers/peripheral/ctb/cy_ctb.h **** 
 999:Generated_Source\PSoC6\pdl\drivers/peripheral/ctb/cy_ctb.h **** /**
1000:Generated_Source\PSoC6\pdl\drivers/peripheral/ctb/cy_ctb.h **** * \addtogroup group_ctb_functions_basic
1001:Generated_Source\PSoC6\pdl\drivers/peripheral/ctb/cy_ctb.h **** * This set of functions are for configuring basic usage of the CTB.
1002:Generated_Source\PSoC6\pdl\drivers/peripheral/ctb/cy_ctb.h **** * \{
1003:Generated_Source\PSoC6\pdl\drivers/peripheral/ctb/cy_ctb.h **** */
1004:Generated_Source\PSoC6\pdl\drivers/peripheral/ctb/cy_ctb.h **** void Cy_CTB_SetDeepSleepMode(CTBM_Type *base, cy_en_ctb_deep_sleep_t deepSleep);
1005:Generated_Source\PSoC6\pdl\drivers/peripheral/ctb/cy_ctb.h **** void Cy_CTB_SetOutputMode(CTBM_Type *base, cy_en_ctb_opamp_sel_t opampNum, cy_en_ctb_mode_t mode);
1006:Generated_Source\PSoC6\pdl\drivers/peripheral/ctb/cy_ctb.h **** void Cy_CTB_SetPower(CTBM_Type *base, cy_en_ctb_opamp_sel_t opampNum, cy_en_ctb_power_t power, cy_e
1007:Generated_Source\PSoC6\pdl\drivers/peripheral/ctb/cy_ctb.h **** /** \} */
1008:Generated_Source\PSoC6\pdl\drivers/peripheral/ctb/cy_ctb.h **** 
1009:Generated_Source\PSoC6\pdl\drivers/peripheral/ctb/cy_ctb.h **** /**
1010:Generated_Source\PSoC6\pdl\drivers/peripheral/ctb/cy_ctb.h **** * \addtogroup group_ctb_functions_sample_hold
1011:Generated_Source\PSoC6\pdl\drivers/peripheral/ctb/cy_ctb.h **** * This function enables sample and hold of the CTDAC output.
1012:Generated_Source\PSoC6\pdl\drivers/peripheral/ctb/cy_ctb.h **** * \{
1013:Generated_Source\PSoC6\pdl\drivers/peripheral/ctb/cy_ctb.h **** */
1014:Generated_Source\PSoC6\pdl\drivers/peripheral/ctb/cy_ctb.h **** void Cy_CTB_DACSampleAndHold(CTBM_Type *base, cy_en_ctb_sample_hold_mode_t mode);
1015:Generated_Source\PSoC6\pdl\drivers/peripheral/ctb/cy_ctb.h **** /** \} */
1016:Generated_Source\PSoC6\pdl\drivers/peripheral/ctb/cy_ctb.h **** 
1017:Generated_Source\PSoC6\pdl\drivers/peripheral/ctb/cy_ctb.h **** /**
1018:Generated_Source\PSoC6\pdl\drivers/peripheral/ctb/cy_ctb.h **** * \addtogroup group_ctb_functions_comparator
1019:Generated_Source\PSoC6\pdl\drivers/peripheral/ctb/cy_ctb.h **** * This set of functions are specific to the comparator mode
1020:Generated_Source\PSoC6\pdl\drivers/peripheral/ctb/cy_ctb.h **** * \{
1021:Generated_Source\PSoC6\pdl\drivers/peripheral/ctb/cy_ctb.h **** */
1022:Generated_Source\PSoC6\pdl\drivers/peripheral/ctb/cy_ctb.h **** void Cy_CTB_CompSetConfig(CTBM_Type *base, cy_en_ctb_opamp_sel_t compNum, cy_en_ctb_comp_level_t le
1023:Generated_Source\PSoC6\pdl\drivers/peripheral/ctb/cy_ctb.h **** uint32_t Cy_CTB_CompGetConfig(const CTBM_Type *base, cy_en_ctb_opamp_sel_t compNum);
1024:Generated_Source\PSoC6\pdl\drivers/peripheral/ctb/cy_ctb.h **** void Cy_CTB_CompSetInterruptEdgeType(CTBM_Type *base, cy_en_ctb_opamp_sel_t compNum, cy_en_ctb_comp
1025:Generated_Source\PSoC6\pdl\drivers/peripheral/ctb/cy_ctb.h **** uint32_t Cy_CTB_CompGetStatus(const CTBM_Type *base, cy_en_ctb_opamp_sel_t compNum);
1026:Generated_Source\PSoC6\pdl\drivers/peripheral/ctb/cy_ctb.h **** /** \} */
1027:Generated_Source\PSoC6\pdl\drivers/peripheral/ctb/cy_ctb.h **** 
1028:Generated_Source\PSoC6\pdl\drivers/peripheral/ctb/cy_ctb.h **** /**
1029:Generated_Source\PSoC6\pdl\drivers/peripheral/ctb/cy_ctb.h **** * \addtogroup group_ctb_functions_trim
1030:Generated_Source\PSoC6\pdl\drivers/peripheral/ctb/cy_ctb.h **** * These are advanced functions for trimming the offset and slope of the opamps.
1031:Generated_Source\PSoC6\pdl\drivers/peripheral/ctb/cy_ctb.h **** * Most users do not need to call these functions and can use the factory trimmed values.
ARM GAS  C:\Users\JC\AppData\Local\Temp\cclwO4Ug.s 			page 33


1032:Generated_Source\PSoC6\pdl\drivers/peripheral/ctb/cy_ctb.h **** * \{
1033:Generated_Source\PSoC6\pdl\drivers/peripheral/ctb/cy_ctb.h **** */
1034:Generated_Source\PSoC6\pdl\drivers/peripheral/ctb/cy_ctb.h **** void Cy_CTB_OpampSetOffset(CTBM_Type *base, cy_en_ctb_opamp_sel_t opampNum, uint32_t trim);
1035:Generated_Source\PSoC6\pdl\drivers/peripheral/ctb/cy_ctb.h **** uint32_t Cy_CTB_OpampGetOffset(const CTBM_Type *base, cy_en_ctb_opamp_sel_t opampNum);
1036:Generated_Source\PSoC6\pdl\drivers/peripheral/ctb/cy_ctb.h **** void Cy_CTB_OpampSetSlope(CTBM_Type *base, cy_en_ctb_opamp_sel_t opampNum, uint32_t trim);
1037:Generated_Source\PSoC6\pdl\drivers/peripheral/ctb/cy_ctb.h **** uint32_t Cy_CTB_OpampGetSlope(const CTBM_Type *base, cy_en_ctb_opamp_sel_t opampNum);
1038:Generated_Source\PSoC6\pdl\drivers/peripheral/ctb/cy_ctb.h **** /** \} */
1039:Generated_Source\PSoC6\pdl\drivers/peripheral/ctb/cy_ctb.h **** 
1040:Generated_Source\PSoC6\pdl\drivers/peripheral/ctb/cy_ctb.h **** /**
1041:Generated_Source\PSoC6\pdl\drivers/peripheral/ctb/cy_ctb.h **** * \addtogroup group_ctb_functions_switches
1042:Generated_Source\PSoC6\pdl\drivers/peripheral/ctb/cy_ctb.h **** * This set of functions is for controlling routing switches.
1043:Generated_Source\PSoC6\pdl\drivers/peripheral/ctb/cy_ctb.h **** * \{
1044:Generated_Source\PSoC6\pdl\drivers/peripheral/ctb/cy_ctb.h **** */
1045:Generated_Source\PSoC6\pdl\drivers/peripheral/ctb/cy_ctb.h **** void Cy_CTB_SetAnalogSwitch(CTBM_Type *base, cy_en_ctb_switch_register_sel_t switchSelect, uint32_t
1046:Generated_Source\PSoC6\pdl\drivers/peripheral/ctb/cy_ctb.h **** uint32_t Cy_CTB_GetAnalogSwitch(const CTBM_Type *base, cy_en_ctb_switch_register_sel_t switchSelect
1047:Generated_Source\PSoC6\pdl\drivers/peripheral/ctb/cy_ctb.h **** __STATIC_INLINE void Cy_CTB_OpenAllSwitches(CTBM_Type *base);
1048:Generated_Source\PSoC6\pdl\drivers/peripheral/ctb/cy_ctb.h **** __STATIC_INLINE void Cy_CTB_EnableSarSeqCtrl(CTBM_Type *base, cy_en_ctb_switch_sar_seq_t switchMask
1049:Generated_Source\PSoC6\pdl\drivers/peripheral/ctb/cy_ctb.h **** __STATIC_INLINE void Cy_CTB_DisableSarSeqCtrl(CTBM_Type *base, cy_en_ctb_switch_sar_seq_t switchMas
1050:Generated_Source\PSoC6\pdl\drivers/peripheral/ctb/cy_ctb.h **** /** \} */
1051:Generated_Source\PSoC6\pdl\drivers/peripheral/ctb/cy_ctb.h **** 
1052:Generated_Source\PSoC6\pdl\drivers/peripheral/ctb/cy_ctb.h **** /**
1053:Generated_Source\PSoC6\pdl\drivers/peripheral/ctb/cy_ctb.h **** * \addtogroup group_ctb_functions_interrupts
1054:Generated_Source\PSoC6\pdl\drivers/peripheral/ctb/cy_ctb.h **** * This set of functions is related to the comparator interrupts.
1055:Generated_Source\PSoC6\pdl\drivers/peripheral/ctb/cy_ctb.h **** * \{
1056:Generated_Source\PSoC6\pdl\drivers/peripheral/ctb/cy_ctb.h **** */
1057:Generated_Source\PSoC6\pdl\drivers/peripheral/ctb/cy_ctb.h **** __STATIC_INLINE uint32_t Cy_CTB_GetInterruptStatus(const CTBM_Type *base, cy_en_ctb_opamp_sel_t com
1058:Generated_Source\PSoC6\pdl\drivers/peripheral/ctb/cy_ctb.h **** __STATIC_INLINE void Cy_CTB_ClearInterrupt(CTBM_Type *base, cy_en_ctb_opamp_sel_t compNum);
1059:Generated_Source\PSoC6\pdl\drivers/peripheral/ctb/cy_ctb.h **** __STATIC_INLINE void Cy_CTB_SetInterrupt(CTBM_Type *base, cy_en_ctb_opamp_sel_t compNum);
1060:Generated_Source\PSoC6\pdl\drivers/peripheral/ctb/cy_ctb.h **** __STATIC_INLINE void Cy_CTB_SetInterruptMask(CTBM_Type *base, cy_en_ctb_opamp_sel_t compNum);
1061:Generated_Source\PSoC6\pdl\drivers/peripheral/ctb/cy_ctb.h **** __STATIC_INLINE uint32_t Cy_CTB_GetInterruptMask(const CTBM_Type *base, cy_en_ctb_opamp_sel_t compN
1062:Generated_Source\PSoC6\pdl\drivers/peripheral/ctb/cy_ctb.h **** __STATIC_INLINE uint32_t Cy_CTB_GetInterruptStatusMasked(const CTBM_Type *base, cy_en_ctb_opamp_sel
1063:Generated_Source\PSoC6\pdl\drivers/peripheral/ctb/cy_ctb.h **** /** \} */
1064:Generated_Source\PSoC6\pdl\drivers/peripheral/ctb/cy_ctb.h **** 
1065:Generated_Source\PSoC6\pdl\drivers/peripheral/ctb/cy_ctb.h **** /**
1066:Generated_Source\PSoC6\pdl\drivers/peripheral/ctb/cy_ctb.h **** * \addtogroup group_ctb_functions_aref
1067:Generated_Source\PSoC6\pdl\drivers/peripheral/ctb/cy_ctb.h **** * This set of functions impacts all opamps on the chip.
1068:Generated_Source\PSoC6\pdl\drivers/peripheral/ctb/cy_ctb.h **** * Notice how some of these functions do not take a base address input.
1069:Generated_Source\PSoC6\pdl\drivers/peripheral/ctb/cy_ctb.h **** * When calling \ref Cy_CTB_SetCurrentMode for a CTB instance on the device,
1070:Generated_Source\PSoC6\pdl\drivers/peripheral/ctb/cy_ctb.h **** * it should be called for all other CTB instances as well. This is because
1071:Generated_Source\PSoC6\pdl\drivers/peripheral/ctb/cy_ctb.h **** * there is only one IPTAT level (1 uA or 100 nA) chip wide.
1072:Generated_Source\PSoC6\pdl\drivers/peripheral/ctb/cy_ctb.h **** * \{
1073:Generated_Source\PSoC6\pdl\drivers/peripheral/ctb/cy_ctb.h **** */
1074:Generated_Source\PSoC6\pdl\drivers/peripheral/ctb/cy_ctb.h **** void Cy_CTB_SetCurrentMode(CTBM_Type *base, cy_en_ctb_current_mode_t currentMode);
1075:Generated_Source\PSoC6\pdl\drivers/peripheral/ctb/cy_ctb.h **** __STATIC_INLINE void Cy_CTB_SetIptatLevel(cy_en_ctb_iptat_t iptat);
1076:Generated_Source\PSoC6\pdl\drivers/peripheral/ctb/cy_ctb.h **** __STATIC_INLINE void Cy_CTB_SetClkPumpSource(cy_en_ctb_clk_pump_source_t clkPump);
1077:Generated_Source\PSoC6\pdl\drivers/peripheral/ctb/cy_ctb.h **** __STATIC_INLINE void Cy_CTB_EnableRedirect(void);
1078:Generated_Source\PSoC6\pdl\drivers/peripheral/ctb/cy_ctb.h **** __STATIC_INLINE void Cy_CTB_DisableRedirect(void);
1079:Generated_Source\PSoC6\pdl\drivers/peripheral/ctb/cy_ctb.h **** /** \} */
1080:Generated_Source\PSoC6\pdl\drivers/peripheral/ctb/cy_ctb.h **** 
1081:Generated_Source\PSoC6\pdl\drivers/peripheral/ctb/cy_ctb.h **** /**
1082:Generated_Source\PSoC6\pdl\drivers/peripheral/ctb/cy_ctb.h **** * \addtogroup group_ctb_functions_init
1083:Generated_Source\PSoC6\pdl\drivers/peripheral/ctb/cy_ctb.h **** * \{
1084:Generated_Source\PSoC6\pdl\drivers/peripheral/ctb/cy_ctb.h **** */
1085:Generated_Source\PSoC6\pdl\drivers/peripheral/ctb/cy_ctb.h **** 
1086:Generated_Source\PSoC6\pdl\drivers/peripheral/ctb/cy_ctb.h **** /*******************************************************************************
1087:Generated_Source\PSoC6\pdl\drivers/peripheral/ctb/cy_ctb.h **** * Function Name: Cy_CTB_Enable
1088:Generated_Source\PSoC6\pdl\drivers/peripheral/ctb/cy_ctb.h **** ****************************************************************************//**
ARM GAS  C:\Users\JC\AppData\Local\Temp\cclwO4Ug.s 			page 34


1089:Generated_Source\PSoC6\pdl\drivers/peripheral/ctb/cy_ctb.h **** *
1090:Generated_Source\PSoC6\pdl\drivers/peripheral/ctb/cy_ctb.h **** * Power up the CTB hardware block.
1091:Generated_Source\PSoC6\pdl\drivers/peripheral/ctb/cy_ctb.h **** *
1092:Generated_Source\PSoC6\pdl\drivers/peripheral/ctb/cy_ctb.h **** * \param base
1093:Generated_Source\PSoC6\pdl\drivers/peripheral/ctb/cy_ctb.h **** * Pointer to structure describing registers
1094:Generated_Source\PSoC6\pdl\drivers/peripheral/ctb/cy_ctb.h **** *
1095:Generated_Source\PSoC6\pdl\drivers/peripheral/ctb/cy_ctb.h **** * \return None
1096:Generated_Source\PSoC6\pdl\drivers/peripheral/ctb/cy_ctb.h **** *
1097:Generated_Source\PSoC6\pdl\drivers/peripheral/ctb/cy_ctb.h **** *******************************************************************************/
1098:Generated_Source\PSoC6\pdl\drivers/peripheral/ctb/cy_ctb.h **** __STATIC_INLINE void Cy_CTB_Enable(CTBM_Type *base)
1099:Generated_Source\PSoC6\pdl\drivers/peripheral/ctb/cy_ctb.h **** {
  65              		.loc 2 1099 0
  66              		.cfi_startproc
  67              		@ args = 0, pretend = 0, frame = 8
  68              		@ frame_needed = 1, uses_anonymous_args = 0
  69 0000 80B5     		push	{r7, lr}
  70              		.cfi_def_cfa_offset 8
  71              		.cfi_offset 7, -8
  72              		.cfi_offset 14, -4
  73 0002 82B0     		sub	sp, sp, #8
  74              		.cfi_def_cfa_offset 16
  75 0004 00AF     		add	r7, sp, #0
  76              		.cfi_def_cfa_register 7
  77 0006 7860     		str	r0, [r7, #4]
1100:Generated_Source\PSoC6\pdl\drivers/peripheral/ctb/cy_ctb.h ****     CTBM_CTB_CTRL(base) |= CTBM_CTB_CTRL_ENABLED_Msk;
  78              		.loc 2 1100 0
  79 0008 7B68     		ldr	r3, [r7, #4]
  80 000a 1B68     		ldr	r3, [r3]
  81 000c 8022     		movs	r2, #128
  82 000e 1206     		lsls	r2, r2, #24
  83 0010 1A43     		orrs	r2, r3
  84 0012 7B68     		ldr	r3, [r7, #4]
  85 0014 1A60     		str	r2, [r3]
1101:Generated_Source\PSoC6\pdl\drivers/peripheral/ctb/cy_ctb.h **** }
  86              		.loc 2 1101 0
  87 0016 C046     		nop
  88 0018 BD46     		mov	sp, r7
  89 001a 02B0     		add	sp, sp, #8
  90              		@ sp needed
  91 001c 80BD     		pop	{r7, pc}
  92              		.cfi_endproc
  93              	.LFE158:
  94              		.size	Cy_CTB_Enable, .-Cy_CTB_Enable
  95 001e C046     		.section	.text.VDAC_1_Enable,"ax",%progbits
  96              		.align	2
  97              		.code	16
  98              		.thumb_func
  99              		.type	VDAC_1_Enable, %function
 100              	VDAC_1_Enable:
 101              	.LFB173:
 102              		.file 3 "Generated_Source\\PSoC6\\VDAC_1.h"
   1:Generated_Source\PSoC6/VDAC_1.h **** /*******************************************************************************
   2:Generated_Source\PSoC6/VDAC_1.h **** * File Name: VDAC_1.h
   3:Generated_Source\PSoC6/VDAC_1.h **** * Version 2.0
   4:Generated_Source\PSoC6/VDAC_1.h **** *
   5:Generated_Source\PSoC6/VDAC_1.h **** * Description:
   6:Generated_Source\PSoC6/VDAC_1.h **** *  This file provides constants and parameter values for the VDAC_1
ARM GAS  C:\Users\JC\AppData\Local\Temp\cclwO4Ug.s 			page 35


   7:Generated_Source\PSoC6/VDAC_1.h **** *  component.
   8:Generated_Source\PSoC6/VDAC_1.h **** *
   9:Generated_Source\PSoC6/VDAC_1.h **** * Note:
  10:Generated_Source\PSoC6/VDAC_1.h **** *  None.
  11:Generated_Source\PSoC6/VDAC_1.h **** *
  12:Generated_Source\PSoC6/VDAC_1.h **** ********************************************************************************
  13:Generated_Source\PSoC6/VDAC_1.h **** * Copyright 2017, Cypress Semiconductor Corporation.  All rights reserved.
  14:Generated_Source\PSoC6/VDAC_1.h **** * You may use this file only in accordance with the license, terms, conditions,
  15:Generated_Source\PSoC6/VDAC_1.h **** * disclaimers, and limitations in the end user license agreement accompanying
  16:Generated_Source\PSoC6/VDAC_1.h **** * the software package with which this file was provided.
  17:Generated_Source\PSoC6/VDAC_1.h **** *******************************************************************************/
  18:Generated_Source\PSoC6/VDAC_1.h **** 
  19:Generated_Source\PSoC6/VDAC_1.h **** #if !defined(CY_VDAC_1_H)
  20:Generated_Source\PSoC6/VDAC_1.h **** #define CY_VDAC_1_H
  21:Generated_Source\PSoC6/VDAC_1.h **** 
  22:Generated_Source\PSoC6/VDAC_1.h **** #include <cy_device_headers.h>
  23:Generated_Source\PSoC6/VDAC_1.h **** #include <ctdac/cy_ctdac.h>
  24:Generated_Source\PSoC6/VDAC_1.h **** #ifdef CTBM0
  25:Generated_Source\PSoC6/VDAC_1.h **** #include <ctb/cy_ctb.h>
  26:Generated_Source\PSoC6/VDAC_1.h **** #endif
  27:Generated_Source\PSoC6/VDAC_1.h **** #include <syspm/cy_syspm.h>
  28:Generated_Source\PSoC6/VDAC_1.h **** 
  29:Generated_Source\PSoC6/VDAC_1.h **** /*******************************************************************************
  30:Generated_Source\PSoC6/VDAC_1.h ****                             Symbol Data Types
  31:Generated_Source\PSoC6/VDAC_1.h **** The data types that are used in the customizer are redefined as constants here.
  32:Generated_Source\PSoC6/VDAC_1.h **** *******************************************************************************/
  33:Generated_Source\PSoC6/VDAC_1.h **** #define VDAC_1_COMP_REFSOURCE_EXTERNAL            0uL
  34:Generated_Source\PSoC6/VDAC_1.h **** #define VDAC_1_COMP_REFSOURCE_VDDA                1uL
  35:Generated_Source\PSoC6/VDAC_1.h **** #define VDAC_1_COMP_REFSOURCE_DWR                 2uL
  36:Generated_Source\PSoC6/VDAC_1.h **** #define VDAC_1_COMP_FORMAT_UNSIGNED               0uL
  37:Generated_Source\PSoC6/VDAC_1.h **** #define VDAC_1_COMP_FORMAT_SIGNED                 1uL
  38:Generated_Source\PSoC6/VDAC_1.h **** #define VDAC_1_COMP_OUTPUT_UNBUFFERED_PIN         0uL
  39:Generated_Source\PSoC6/VDAC_1.h **** #define VDAC_1_COMP_OUTPUT_UNBUFFERED_INTERNAL    1uL
  40:Generated_Source\PSoC6/VDAC_1.h **** #define VDAC_1_COMP_OUTPUT_BUFFERED_PIN           2uL
  41:Generated_Source\PSoC6/VDAC_1.h **** #define VDAC_1_COMP_OUTPUT_BUFFERED_INTERNAL      3uL
  42:Generated_Source\PSoC6/VDAC_1.h **** #define VDAC_1_COMP_UPDATE_DIRECT                 0uL
  43:Generated_Source\PSoC6/VDAC_1.h **** #define VDAC_1_COMP_UPDATE_BUFFERED               1uL
  44:Generated_Source\PSoC6/VDAC_1.h **** #define VDAC_1_COMP_UPDATE_STROBE_EDGE            2uL
  45:Generated_Source\PSoC6/VDAC_1.h **** #define VDAC_1_COMP_UPDATE_STROBE_IMMEDIATE       3uL
  46:Generated_Source\PSoC6/VDAC_1.h **** #define VDAC_1_COMP_UPDATE_STROBE_LEVEL           4uL
  47:Generated_Source\PSoC6/VDAC_1.h **** #define VDAC_1_COMP_DEEPSLEEP_OFF                 0uL
  48:Generated_Source\PSoC6/VDAC_1.h **** #define VDAC_1_COMP_DEEPSLEEP_ON                  1uL
  49:Generated_Source\PSoC6/VDAC_1.h **** 
  50:Generated_Source\PSoC6/VDAC_1.h **** /*******************************************************************************
  51:Generated_Source\PSoC6/VDAC_1.h ****                             Internal Constants
  52:Generated_Source\PSoC6/VDAC_1.h **** *******************************************************************************/
  53:Generated_Source\PSoC6/VDAC_1.h **** #define VDAC_1_COMP_INTERRUPT_ENABLE          1uL
  54:Generated_Source\PSoC6/VDAC_1.h **** #define VDAC_1_COMP_INTERRUPT_DISABLE         0uL
  55:Generated_Source\PSoC6/VDAC_1.h **** #define VDAC_1_COMP_AREF_CURRENT_LOW_USED     (CYDEV_SYSTEM_AREF_CURRENT == CYDEV_SYSTEM_AREF_CURRE
  56:Generated_Source\PSoC6/VDAC_1.h **** 
  57:Generated_Source\PSoC6/VDAC_1.h **** /*******************************************************************************
  58:Generated_Source\PSoC6/VDAC_1.h ****                                   Parameters
  59:Generated_Source\PSoC6/VDAC_1.h **** The parameters that are set in the customizer are redefined as constants here.
  60:Generated_Source\PSoC6/VDAC_1.h **** *******************************************************************************/
  61:Generated_Source\PSoC6/VDAC_1.h **** #define VDAC_1_PARAM_VrefSource           (1uL)
  62:Generated_Source\PSoC6/VDAC_1.h **** #define VDAC_1_PARAM_InitialCode          (0)
  63:Generated_Source\PSoC6/VDAC_1.h **** #define VDAC_1_PARAM_OutputBuffer         (2uL)
ARM GAS  C:\Users\JC\AppData\Local\Temp\cclwO4Ug.s 			page 36


  64:Generated_Source\PSoC6/VDAC_1.h **** #define VDAC_1_PARAM_SampleAndHold        (1uL)
  65:Generated_Source\PSoC6/VDAC_1.h **** #define VDAC_1_PARAM_OutputBufferPower    (2uL)
  66:Generated_Source\PSoC6/VDAC_1.h **** #define VDAC_1_PARAM_DacCodeMode          (0uL)
  67:Generated_Source\PSoC6/VDAC_1.h **** #define VDAC_1_PARAM_UpdateMode           (1uL)
  68:Generated_Source\PSoC6/VDAC_1.h **** #define VDAC_1_PARAM_DeepSleep            (0uL)
  69:Generated_Source\PSoC6/VDAC_1.h **** #define VDAC_1_PARAM_ShowTrig             (0uL)
  70:Generated_Source\PSoC6/VDAC_1.h **** #define VDAC_1_PARAM_OpAmpUsage           (1uL)
  71:Generated_Source\PSoC6/VDAC_1.h **** #define VDAC_1_PARAM_VrefVoltage_mV       (3300uL)
  72:Generated_Source\PSoC6/VDAC_1.h **** #define VDAC_1_PARAM_ReferenceBufferUsed  (VDAC_1_PARAM_VrefSource != VDAC_1_COMP_REFSOURCE_VDDA)
  73:Generated_Source\PSoC6/VDAC_1.h **** #define VDAC_1_PARAM_OutputBufferUsed     (VDAC_1_PARAM_OutputBuffer > VDAC_1_COMP_OUTPUT_UNBUFFERE
  74:Generated_Source\PSoC6/VDAC_1.h **** 
  75:Generated_Source\PSoC6/VDAC_1.h **** /*******************************************************************************
  76:Generated_Source\PSoC6/VDAC_1.h ****                             Enumerated Definitions
  77:Generated_Source\PSoC6/VDAC_1.h **** *******************************************************************************/
  78:Generated_Source\PSoC6/VDAC_1.h **** /** This enum type is used when calling VDAC_1_SetSampleAndHold().*/
  79:Generated_Source\PSoC6/VDAC_1.h **** typedef enum {
  80:Generated_Source\PSoC6/VDAC_1.h ****     VDAC_1_SH_DISABLE  = 0u,      /**< Disable sample and hold by disconnecting the S/H capacitor *
  81:Generated_Source\PSoC6/VDAC_1.h ****     VDAC_1_SH_SAMPLE   = 1u,      /**< Sample the VDAC output */
  82:Generated_Source\PSoC6/VDAC_1.h ****     VDAC_1_SH_HOLD     = 2u,      /**< Hold the VDAC output */
  83:Generated_Source\PSoC6/VDAC_1.h **** }VDAC_1_en_sample_hold_t;
  84:Generated_Source\PSoC6/VDAC_1.h **** 
  85:Generated_Source\PSoC6/VDAC_1.h **** /*******************************************************************************
  86:Generated_Source\PSoC6/VDAC_1.h ****                     Variables with External Linkage
  87:Generated_Source\PSoC6/VDAC_1.h **** *******************************************************************************/
  88:Generated_Source\PSoC6/VDAC_1.h **** 
  89:Generated_Source\PSoC6/VDAC_1.h **** /** Configuration structure for initializing the CTDAC PDL */
  90:Generated_Source\PSoC6/VDAC_1.h **** extern const cy_stc_ctdac_config_t VDAC_1_ctdacConfig;
  91:Generated_Source\PSoC6/VDAC_1.h **** 
  92:Generated_Source\PSoC6/VDAC_1.h **** #if VDAC_1_PARAM_OutputBufferUsed
  93:Generated_Source\PSoC6/VDAC_1.h ****     /** Configuration structure for initializing Opamp0 of the CTB as the CTDAC output buffer */
  94:Generated_Source\PSoC6/VDAC_1.h ****     extern const cy_stc_ctb_opamp_config_t VDAC_1_outputBufferConfig;
  95:Generated_Source\PSoC6/VDAC_1.h **** #endif
  96:Generated_Source\PSoC6/VDAC_1.h **** 
  97:Generated_Source\PSoC6/VDAC_1.h **** #if VDAC_1_PARAM_ReferenceBufferUsed
  98:Generated_Source\PSoC6/VDAC_1.h ****     /** Configuration structure for initializing Opamp1 of the CTB as the CTDAC reference buffer */
  99:Generated_Source\PSoC6/VDAC_1.h ****     extern const cy_stc_ctb_opamp_config_t VDAC_1_refBufferConfig;
 100:Generated_Source\PSoC6/VDAC_1.h **** #endif
 101:Generated_Source\PSoC6/VDAC_1.h **** 
 102:Generated_Source\PSoC6/VDAC_1.h **** /** Tracks whether block is initialized (1) or not (0). */
 103:Generated_Source\PSoC6/VDAC_1.h **** extern uint8_t VDAC_1_initVar;
 104:Generated_Source\PSoC6/VDAC_1.h **** 
 105:Generated_Source\PSoC6/VDAC_1.h **** /**
 106:Generated_Source\PSoC6/VDAC_1.h **** * \addtogroup group_globals
 107:Generated_Source\PSoC6/VDAC_1.h **** * \{
 108:Generated_Source\PSoC6/VDAC_1.h **** */
 109:Generated_Source\PSoC6/VDAC_1.h **** 
 110:Generated_Source\PSoC6/VDAC_1.h **** /** System power management callback structure for Deep Sleep entry and exit.
 111:Generated_Source\PSoC6/VDAC_1.h **** * This callback is needed in order to disable deglitching before
 112:Generated_Source\PSoC6/VDAC_1.h **** * the device enters Deep Sleep. This ensures that the deglitch switches
 113:Generated_Source\PSoC6/VDAC_1.h **** * are closed and that DAC operation in Deep Sleep, if enabled, is correct.
 114:Generated_Source\PSoC6/VDAC_1.h **** * The callback also ensures that deglitching is re-enabled when the device wakes up.
 115:Generated_Source\PSoC6/VDAC_1.h **** * Registering this Deep Sleep callback is needed only if Deep Sleep operation
 116:Generated_Source\PSoC6/VDAC_1.h **** * is enabled in the Customizer Configure dialog (see \ref customizer_enable_deepsleep).
 117:Generated_Source\PSoC6/VDAC_1.h **** *
 118:Generated_Source\PSoC6/VDAC_1.h **** * \snippet SUT_2.cydsn/main_cm4.c SNIPPET_DEEPSLEEP
 119:Generated_Source\PSoC6/VDAC_1.h **** */
 120:Generated_Source\PSoC6/VDAC_1.h **** extern cy_stc_syspm_callback_t VDAC_1_DeepSleepCallbackStruct;
ARM GAS  C:\Users\JC\AppData\Local\Temp\cclwO4Ug.s 			page 37


 121:Generated_Source\PSoC6/VDAC_1.h **** 
 122:Generated_Source\PSoC6/VDAC_1.h **** /** \} group_globals */
 123:Generated_Source\PSoC6/VDAC_1.h **** 
 124:Generated_Source\PSoC6/VDAC_1.h **** /*******************************************************************************
 125:Generated_Source\PSoC6/VDAC_1.h ****                         CTDAC Configuration Defines
 126:Generated_Source\PSoC6/VDAC_1.h **** Constants used in the configuration structure for initializing the CTDAC
 127:Generated_Source\PSoC6/VDAC_1.h **** *******************************************************************************/
 128:Generated_Source\PSoC6/VDAC_1.h **** #define VDAC_1_CTDAC_HW                   CTDAC0 /**< The pointer to the base address of the CTDAC 
 129:Generated_Source\PSoC6/VDAC_1.h **** 
 130:Generated_Source\PSoC6/VDAC_1.h **** #define VDAC_1_CTDAC_REFSOURCE            ((VDAC_1_PARAM_VrefSource == VDAC_1_COMP_REFSOURCE_VDDA) 
 131:Generated_Source\PSoC6/VDAC_1.h ****                                                     CY_CTDAC_REFSOURCE_VDDA : CY_CTDAC_REFSOURCE_EX
 132:Generated_Source\PSoC6/VDAC_1.h **** #define VDAC_1_CTDAC_SIGNMODE             ((VDAC_1_PARAM_DacCodeMode == VDAC_1_COMP_FORMAT_SIGNED) 
 133:Generated_Source\PSoC6/VDAC_1.h ****                                                     CY_CTDAC_FORMAT_SIGNED : CY_CTDAC_FORMAT_UNSIGN
 134:Generated_Source\PSoC6/VDAC_1.h **** #define VDAC_1_CTDAC_UPDATEMODE           (cy_en_ctdac_update_t) VDAC_1_PARAM_UpdateMode
 135:Generated_Source\PSoC6/VDAC_1.h **** #define VDAC_1_CTDAC_OUTPUTBUFFER         ((VDAC_1_PARAM_OutputBuffer <= VDAC_1_COMP_OUTPUT_UNBUFFE
 136:Generated_Source\PSoC6/VDAC_1.h ****                                                     CY_CTDAC_OUTPUT_UNBUFFERED : CY_CTDAC_OUTPUT_BU
 137:Generated_Source\PSoC6/VDAC_1.h **** #define VDAC_1_CTDAC_DEGLITCHMODE         ((VDAC_1_PARAM_OutputBuffer <= VDAC_1_COMP_OUTPUT_UNBUFFE
 138:Generated_Source\PSoC6/VDAC_1.h ****                                                     CY_CTDAC_DEGLITCHMODE_UNBUFFERED : CY_CTDAC_DEG
 139:Generated_Source\PSoC6/VDAC_1.h **** #define VDAC_1_CTDAC_DEEPSLEEP            ((VDAC_1_PARAM_DeepSleep == VDAC_1_COMP_DEEPSLEEP_OFF) ? 
 140:Generated_Source\PSoC6/VDAC_1.h ****                                                     CY_CTDAC_DEEPSLEEP_DISABLE : CY_CTDAC_DEEPSLEEP
 141:Generated_Source\PSoC6/VDAC_1.h **** 
 142:Generated_Source\PSoC6/VDAC_1.h **** #define VDAC_1_DEGLITCH_TARGET_TIME_NS    (700uL)
 143:Generated_Source\PSoC6/VDAC_1.h **** #define VDAC_1_FACTOR_NANO_TO_MICRO       (1000uL)
 144:Generated_Source\PSoC6/VDAC_1.h **** #define VDAC_1_DEGLITCH_TARGET_CYCLES     (((CYDEV_CLK_PERICLK__MHZ * VDAC_1_DEGLITCH_TARGET_TIME_N
 145:Generated_Source\PSoC6/VDAC_1.h **** 
 146:Generated_Source\PSoC6/VDAC_1.h **** #if VDAC_1_PARAM_ReferenceBufferUsed
 147:Generated_Source\PSoC6/VDAC_1.h ****     #define VDAC_1_CTB_HW                     VDAC_1_REFBUF__HW
 148:Generated_Source\PSoC6/VDAC_1.h ****     #define VDAC_1_CTB_REFBUF_OPAMP_NUM       CY_CTB_OPAMP_1
 149:Generated_Source\PSoC6/VDAC_1.h ****     #define VDAC_1_CTB_REFBUF_POWER           CY_CTB_POWER_MEDIUM
 150:Generated_Source\PSoC6/VDAC_1.h ****     #define VDAC_1_CTB_REFBUF_DRIVE           CY_CTB_MODE_OPAMP1X
 151:Generated_Source\PSoC6/VDAC_1.h ****     #define VDAC_1_CTB_REFBUF_DEEPSLEEP       ((VDAC_1_PARAM_DeepSleep == VDAC_1_COMP_DEEPSLEEP_OFF
 152:Generated_Source\PSoC6/VDAC_1.h ****                                                         CY_CTB_DEEPSLEEP_DISABLE : CY_CTB_DEEPSLEEP
 153:Generated_Source\PSoC6/VDAC_1.h ****     #if VDAC_1_COMP_AREF_CURRENT_LOW_USED
 154:Generated_Source\PSoC6/VDAC_1.h ****         #define VDAC_1_CTB_REFBUF_PUMP        CY_CTB_PUMP_DISABLE
 155:Generated_Source\PSoC6/VDAC_1.h ****     #else
 156:Generated_Source\PSoC6/VDAC_1.h ****         #define VDAC_1_CTB_REFBUF_PUMP        ((VDAC_1_PARAM_DeepSleep == VDAC_1_COMP_DEEPSLEEP_OFF
 157:Generated_Source\PSoC6/VDAC_1.h ****                                                         CY_CTB_PUMP_ENABLE : CY_CTB_PUMP_DISABLE)
 158:Generated_Source\PSoC6/VDAC_1.h ****     #endif
 159:Generated_Source\PSoC6/VDAC_1.h **** #endif
 160:Generated_Source\PSoC6/VDAC_1.h **** 
 161:Generated_Source\PSoC6/VDAC_1.h **** /*******************************************************************************
 162:Generated_Source\PSoC6/VDAC_1.h ****                         CTB Configuration Defines
 163:Generated_Source\PSoC6/VDAC_1.h **** Constants used in the configuration structure for initializing the CTB
 164:Generated_Source\PSoC6/VDAC_1.h **** *******************************************************************************/
 165:Generated_Source\PSoC6/VDAC_1.h **** #if VDAC_1_PARAM_OutputBufferUsed
 166:Generated_Source\PSoC6/VDAC_1.h ****     #if !defined(VDAC_1_CTB_HW)
 167:Generated_Source\PSoC6/VDAC_1.h ****         #define VDAC_1_CTB_HW                VDAC_1_VOUTBUF__HW
 168:Generated_Source\PSoC6/VDAC_1.h ****     #endif
 169:Generated_Source\PSoC6/VDAC_1.h ****     #define VDAC_1_CTB_VOUTBUF_OPAMP_NUM      CY_CTB_OPAMP_0
 170:Generated_Source\PSoC6/VDAC_1.h ****     #define VDAC_1_CTB_VOUTBUF_POWER          (cy_en_ctb_power_t) VDAC_1_PARAM_OutputBufferPower
 171:Generated_Source\PSoC6/VDAC_1.h ****     #define VDAC_1_CTB_VOUTBUF_DRIVE          ((VDAC_1_PARAM_OutputBuffer == VDAC_1_COMP_OUTPUT_BUF
 172:Generated_Source\PSoC6/VDAC_1.h ****                                                             CY_CTB_MODE_OPAMP1X : CY_CTB_MODE_OPAMP
 173:Generated_Source\PSoC6/VDAC_1.h ****     #define VDAC_1_CTB_VOUTBUF_DEEPSLEEP      ((VDAC_1_PARAM_DeepSleep == VDAC_1_COMP_DEEPSLEEP_OFF
 174:Generated_Source\PSoC6/VDAC_1.h ****                                                         CY_CTB_DEEPSLEEP_DISABLE : CY_CTB_DEEPSLEEP
 175:Generated_Source\PSoC6/VDAC_1.h ****     #if VDAC_1_COMP_AREF_CURRENT_LOW_USED
 176:Generated_Source\PSoC6/VDAC_1.h ****         #define VDAC_1_CTB_VOUTBUF_PUMP       CY_CTB_PUMP_DISABLE
 177:Generated_Source\PSoC6/VDAC_1.h ****     #else
ARM GAS  C:\Users\JC\AppData\Local\Temp\cclwO4Ug.s 			page 38


 178:Generated_Source\PSoC6/VDAC_1.h ****         #define VDAC_1_CTB_VOUTBUF_PUMP       ((VDAC_1_PARAM_DeepSleep == VDAC_1_COMP_DEEPSLEEP_OFF
 179:Generated_Source\PSoC6/VDAC_1.h ****                                                         CY_CTB_PUMP_ENABLE : CY_CTB_PUMP_DISABLE)
 180:Generated_Source\PSoC6/VDAC_1.h ****     #endif
 181:Generated_Source\PSoC6/VDAC_1.h **** #endif
 182:Generated_Source\PSoC6/VDAC_1.h **** 
 183:Generated_Source\PSoC6/VDAC_1.h **** /*******************************************************************************
 184:Generated_Source\PSoC6/VDAC_1.h ****                         Function Prototypes
 185:Generated_Source\PSoC6/VDAC_1.h **** *******************************************************************************/
 186:Generated_Source\PSoC6/VDAC_1.h **** void VDAC_1_Start(void);
 187:Generated_Source\PSoC6/VDAC_1.h **** __STATIC_INLINE void VDAC_1_Enable(void);
 188:Generated_Source\PSoC6/VDAC_1.h **** __STATIC_INLINE void VDAC_1_Init(void);
 189:Generated_Source\PSoC6/VDAC_1.h **** __STATIC_INLINE void VDAC_1_Stop(void);
 190:Generated_Source\PSoC6/VDAC_1.h **** __STATIC_INLINE void VDAC_1_SetValue(int32_t value);
 191:Generated_Source\PSoC6/VDAC_1.h **** __STATIC_INLINE void VDAC_1_SetValueBuffered(int32_t value);
 192:Generated_Source\PSoC6/VDAC_1.h **** __STATIC_INLINE void VDAC_1_SetSignMode(cy_en_ctdac_format_t signMode);
 193:Generated_Source\PSoC6/VDAC_1.h **** void VDAC_1_SetDeepSleepMode(cy_en_ctdac_deep_sleep_t deepSleepMode);
 194:Generated_Source\PSoC6/VDAC_1.h **** 
 195:Generated_Source\PSoC6/VDAC_1.h **** void VDAC_1_SetSampleAndHold(VDAC_1_en_sample_hold_t mode);
 196:Generated_Source\PSoC6/VDAC_1.h **** 
 197:Generated_Source\PSoC6/VDAC_1.h **** /**
 198:Generated_Source\PSoC6/VDAC_1.h **** * \addtogroup group_component
 199:Generated_Source\PSoC6/VDAC_1.h **** * \{
 200:Generated_Source\PSoC6/VDAC_1.h **** */
 201:Generated_Source\PSoC6/VDAC_1.h **** void VDAC_1_EasySampleAndHold(void);
 202:Generated_Source\PSoC6/VDAC_1.h **** /** \} group_component */
 203:Generated_Source\PSoC6/VDAC_1.h **** 
 204:Generated_Source\PSoC6/VDAC_1.h **** __STATIC_INLINE void VDAC_1_EnableInterrupt(void);
 205:Generated_Source\PSoC6/VDAC_1.h **** __STATIC_INLINE void VDAC_1_DisableInterrupt(void);
 206:Generated_Source\PSoC6/VDAC_1.h **** __STATIC_INLINE uint32_t VDAC_1_GetInterruptMask(void);
 207:Generated_Source\PSoC6/VDAC_1.h **** __STATIC_INLINE uint32_t VDAC_1_GetInterruptStatus(void);
 208:Generated_Source\PSoC6/VDAC_1.h **** __STATIC_INLINE uint32_t VDAC_1_GetInterruptStatusMasked(void);
 209:Generated_Source\PSoC6/VDAC_1.h **** __STATIC_INLINE void VDAC_1_ClearInterrupt(void);
 210:Generated_Source\PSoC6/VDAC_1.h **** __STATIC_INLINE void VDAC_1_SetInterrupt(void);
 211:Generated_Source\PSoC6/VDAC_1.h **** 
 212:Generated_Source\PSoC6/VDAC_1.h **** /*******************************************************************************
 213:Generated_Source\PSoC6/VDAC_1.h **** * Function Name: VDAC_1_Enable
 214:Generated_Source\PSoC6/VDAC_1.h **** ****************************************************************************//**
 215:Generated_Source\PSoC6/VDAC_1.h **** *
 216:Generated_Source\PSoC6/VDAC_1.h **** * Powers up all required hardware blocks. This includes the DAC hardware block
 217:Generated_Source\PSoC6/VDAC_1.h **** * and CTB hardware block, if used.
 218:Generated_Source\PSoC6/VDAC_1.h **** * If no opamps are used, the CTB hardware block is untouched.
 219:Generated_Source\PSoC6/VDAC_1.h **** *
 220:Generated_Source\PSoC6/VDAC_1.h **** *******************************************************************************/
 221:Generated_Source\PSoC6/VDAC_1.h **** __STATIC_INLINE void VDAC_1_Enable(void)
 222:Generated_Source\PSoC6/VDAC_1.h **** {
 103              		.loc 3 222 0
 104              		.cfi_startproc
 105              		@ args = 0, pretend = 0, frame = 0
 106              		@ frame_needed = 1, uses_anonymous_args = 0
 107 0000 80B5     		push	{r7, lr}
 108              		.cfi_def_cfa_offset 8
 109              		.cfi_offset 7, -8
 110              		.cfi_offset 14, -4
 111 0002 00AF     		add	r7, sp, #0
 112              		.cfi_def_cfa_register 7
 223:Generated_Source\PSoC6/VDAC_1.h ****     Cy_CTDAC_Enable(VDAC_1_CTDAC_HW);
 113              		.loc 3 223 0
ARM GAS  C:\Users\JC\AppData\Local\Temp\cclwO4Ug.s 			page 39


 114 0004 054B     		ldr	r3, .L4
 115 0006 1800     		movs	r0, r3
 116 0008 FFF7FEFF 		bl	Cy_CTDAC_Enable
 224:Generated_Source\PSoC6/VDAC_1.h **** 
 225:Generated_Source\PSoC6/VDAC_1.h **** #if (VDAC_1_PARAM_ReferenceBufferUsed || VDAC_1_PARAM_OutputBufferUsed)
 226:Generated_Source\PSoC6/VDAC_1.h ****     Cy_CTB_Enable(VDAC_1_CTB_HW);
 117              		.loc 3 226 0
 118 000c 044B     		ldr	r3, .L4+4
 119 000e 1800     		movs	r0, r3
 120 0010 FFF7FEFF 		bl	Cy_CTB_Enable
 227:Generated_Source\PSoC6/VDAC_1.h **** #endif
 228:Generated_Source\PSoC6/VDAC_1.h **** }
 121              		.loc 3 228 0
 122 0014 C046     		nop
 123 0016 BD46     		mov	sp, r7
 124              		@ sp needed
 125 0018 80BD     		pop	{r7, pc}
 126              	.L5:
 127 001a C046     		.align	2
 128              	.L4:
 129 001c 00001441 		.word	1091829760
 130 0020 00001041 		.word	1091567616
 131              		.cfi_endproc
 132              	.LFE173:
 133              		.size	VDAC_1_Enable, .-VDAC_1_Enable
 134              		.section	.text.VDAC_1_Init,"ax",%progbits
 135              		.align	2
 136              		.code	16
 137              		.thumb_func
 138              		.type	VDAC_1_Init, %function
 139              	VDAC_1_Init:
 140              	.LFB174:
 229:Generated_Source\PSoC6/VDAC_1.h **** 
 230:Generated_Source\PSoC6/VDAC_1.h **** /*******************************************************************************
 231:Generated_Source\PSoC6/VDAC_1.h **** * Function Name: VDAC_1_Init
 232:Generated_Source\PSoC6/VDAC_1.h **** ****************************************************************************//**
 233:Generated_Source\PSoC6/VDAC_1.h **** *
 234:Generated_Source\PSoC6/VDAC_1.h **** * Initializes all required hardware blocks. This includes the DAC hardware block
 235:Generated_Source\PSoC6/VDAC_1.h **** * and CTB hardware block, if used.
 236:Generated_Source\PSoC6/VDAC_1.h **** * If no opamps are used, the CTB hardware block is untouched.
 237:Generated_Source\PSoC6/VDAC_1.h **** *
 238:Generated_Source\PSoC6/VDAC_1.h **** * This function should only be called once (after reset) and
 239:Generated_Source\PSoC6/VDAC_1.h **** * does not enable the hardware.
 240:Generated_Source\PSoC6/VDAC_1.h **** *
 241:Generated_Source\PSoC6/VDAC_1.h **** * VDAC_1_Start() is the preferred function to initialize
 242:Generated_Source\PSoC6/VDAC_1.h **** * and enable the hardware.
 243:Generated_Source\PSoC6/VDAC_1.h **** *
 244:Generated_Source\PSoC6/VDAC_1.h **** *******************************************************************************/
 245:Generated_Source\PSoC6/VDAC_1.h **** __STATIC_INLINE void VDAC_1_Init(void)
 246:Generated_Source\PSoC6/VDAC_1.h **** {
 141              		.loc 3 246 0
 142              		.cfi_startproc
 143              		@ args = 0, pretend = 0, frame = 0
 144              		@ frame_needed = 1, uses_anonymous_args = 0
 145 0000 80B5     		push	{r7, lr}
 146              		.cfi_def_cfa_offset 8
 147              		.cfi_offset 7, -8
ARM GAS  C:\Users\JC\AppData\Local\Temp\cclwO4Ug.s 			page 40


 148              		.cfi_offset 14, -4
 149 0002 00AF     		add	r7, sp, #0
 150              		.cfi_def_cfa_register 7
 247:Generated_Source\PSoC6/VDAC_1.h ****     (void)Cy_CTDAC_Init(VDAC_1_CTDAC_HW, &VDAC_1_ctdacConfig);
 151              		.loc 3 247 0
 152 0004 074B     		ldr	r3, .L7
 153 0006 084A     		ldr	r2, .L7+4
 154 0008 1900     		movs	r1, r3
 155 000a 1000     		movs	r0, r2
 156 000c FFF7FEFF 		bl	Cy_CTDAC_Init
 248:Generated_Source\PSoC6/VDAC_1.h **** 
 249:Generated_Source\PSoC6/VDAC_1.h **** #if VDAC_1_PARAM_ReferenceBufferUsed
 250:Generated_Source\PSoC6/VDAC_1.h ****     (void)Cy_CTB_OpampInit(VDAC_1_CTB_HW, VDAC_1_CTB_REFBUF_OPAMP_NUM, &VDAC_1_refBufferConfig);
 251:Generated_Source\PSoC6/VDAC_1.h **** #endif
 252:Generated_Source\PSoC6/VDAC_1.h **** 
 253:Generated_Source\PSoC6/VDAC_1.h **** #if VDAC_1_PARAM_OutputBufferUsed
 254:Generated_Source\PSoC6/VDAC_1.h ****     (void)Cy_CTB_OpampInit(VDAC_1_CTB_HW, VDAC_1_CTB_VOUTBUF_OPAMP_NUM, &VDAC_1_outputBufferConfig)
 157              		.loc 3 254 0
 158 0010 064B     		ldr	r3, .L7+8
 159 0012 0748     		ldr	r0, .L7+12
 160 0014 1A00     		movs	r2, r3
 161 0016 0121     		movs	r1, #1
 162 0018 FFF7FEFF 		bl	Cy_CTB_OpampInit
 255:Generated_Source\PSoC6/VDAC_1.h **** #endif
 256:Generated_Source\PSoC6/VDAC_1.h **** }
 163              		.loc 3 256 0
 164 001c C046     		nop
 165 001e BD46     		mov	sp, r7
 166              		@ sp needed
 167 0020 80BD     		pop	{r7, pc}
 168              	.L8:
 169 0022 C046     		.align	2
 170              	.L7:
 171 0024 00000000 		.word	VDAC_1_ctdacConfig
 172 0028 00001441 		.word	1091829760
 173 002c 00000000 		.word	VDAC_1_outputBufferConfig
 174 0030 00001041 		.word	1091567616
 175              		.cfi_endproc
 176              	.LFE174:
 177              		.size	VDAC_1_Init, .-VDAC_1_Init
 178              		.global	VDAC_1_initVar
 179              		.bss
 180              		.type	VDAC_1_initVar, %object
 181              		.size	VDAC_1_initVar, 1
 182              	VDAC_1_initVar:
 183 0000 00       		.space	1
 184              		.global	VDAC_1_ctdacConfig
 185              		.section	.rodata
 186              		.align	2
 187              		.type	VDAC_1_ctdacConfig, %object
 188              		.size	VDAC_1_ctdacConfig, 52
 189              	VDAC_1_ctdacConfig:
 190 0000 01       		.byte	1
 191 0001 000000   		.space	3
 192 0004 00000000 		.word	0
 193 0008 01       		.byte	1
 194 0009 00       		.space	1
ARM GAS  C:\Users\JC\AppData\Local\Temp\cclwO4Ug.s 			page 41


 195 000a 0002     		.short	512
 196 000c 00004000 		.word	4194304
 197 0010 00       		.byte	0
 198 0011 000000   		.space	3
 199 0014 00000000 		.word	0
 200 0018 22000000 		.word	34
 201 001c 00000000 		.word	0
 202 0020 00000000 		.word	0
 203 0024 01       		.byte	1
 204 0025 00       		.byte	0
 205 0026 00       		.byte	0
 206 0027 00       		.space	1
 207 0028 00000000 		.word	0
 208 002c 00000000 		.word	0
 209 0030 00000000 		.word	0
 210              		.global	VDAC_1_outputBufferConfig
 211              		.align	2
 212              		.type	VDAC_1_outputBufferConfig, %object
 213              		.size	VDAC_1_outputBufferConfig, 16
 214              	VDAC_1_outputBufferConfig:
 215 0034 00000000 		.word	0
 216 0038 02       		.byte	2
 217 0039 08       		.byte	8
 218 003a 0008     		.short	2048
 219 003c 0000     		.short	0
 220 003e 00       		.byte	0
 221 003f 00       		.byte	0
 222 0040 00       		.byte	0
 223 0041 00       		.byte	0
 224 0042 0000     		.space	2
 225              		.bss
 226 0001 000000   		.align	2
 227              	VDAC_1_ctdacContext:
 228 0004 00000000 		.space	4
 229              		.data
 230              		.align	2
 231              		.type	VDAC_1_DeepSleepCallbackParams, %object
 232              		.size	VDAC_1_DeepSleepCallbackParams, 8
 233              	VDAC_1_DeepSleepCallbackParams:
 234 0000 00001441 		.word	1091829760
 235 0004 04000000 		.word	VDAC_1_ctdacContext
 236              		.global	VDAC_1_DeepSleepCallbackStruct
 237              		.align	2
 238              		.type	VDAC_1_DeepSleepCallbackStruct, %object
 239              		.size	VDAC_1_DeepSleepCallbackStruct, 24
 240              	VDAC_1_DeepSleepCallbackStruct:
 241 0008 00000000 		.word	Cy_CTDAC_DeepSleepCallback
 242 000c 01       		.byte	1
 243 000d 00000000 		.space	7
 243      000000
 244 0014 00000000 		.word	VDAC_1_DeepSleepCallbackParams
 245 0018 00000000 		.space	8
 245      00000000 
 246              		.section	.text.VDAC_1_Start,"ax",%progbits
 247              		.align	2
 248              		.global	VDAC_1_Start
 249              		.code	16
ARM GAS  C:\Users\JC\AppData\Local\Temp\cclwO4Ug.s 			page 42


 250              		.thumb_func
 251              		.type	VDAC_1_Start, %function
 252              	VDAC_1_Start:
 253              	.LFB186:
 254              		.file 4 "Generated_Source\\PSoC6\\VDAC_1.c"
   1:Generated_Source\PSoC6/VDAC_1.c **** /*******************************************************************************
   2:Generated_Source\PSoC6/VDAC_1.c **** * File Name: VDAC_1.c
   3:Generated_Source\PSoC6/VDAC_1.c **** * Version 2.0
   4:Generated_Source\PSoC6/VDAC_1.c **** *
   5:Generated_Source\PSoC6/VDAC_1.c **** * Description:
   6:Generated_Source\PSoC6/VDAC_1.c **** *  This file provides the source code to the API for the VDAC_1
   7:Generated_Source\PSoC6/VDAC_1.c **** *  component.
   8:Generated_Source\PSoC6/VDAC_1.c **** *
   9:Generated_Source\PSoC6/VDAC_1.c **** * Note:
  10:Generated_Source\PSoC6/VDAC_1.c **** *  None.
  11:Generated_Source\PSoC6/VDAC_1.c **** *
  12:Generated_Source\PSoC6/VDAC_1.c **** ********************************************************************************
  13:Generated_Source\PSoC6/VDAC_1.c **** * Copyright 2017, Cypress Semiconductor Corporation.  All rights reserved.
  14:Generated_Source\PSoC6/VDAC_1.c **** * You may use this file only in accordance with the license, terms, conditions,
  15:Generated_Source\PSoC6/VDAC_1.c **** * disclaimers, and limitations in the end user license agreement accompanying
  16:Generated_Source\PSoC6/VDAC_1.c **** * the software package with which this file was provided.
  17:Generated_Source\PSoC6/VDAC_1.c **** *******************************************************************************/
  18:Generated_Source\PSoC6/VDAC_1.c **** #include "VDAC_1.h"
  19:Generated_Source\PSoC6/VDAC_1.c **** #include <syslib/cy_syslib.h>
  20:Generated_Source\PSoC6/VDAC_1.c **** 
  21:Generated_Source\PSoC6/VDAC_1.c **** uint8_t VDAC_1_initVar = 0u;
  22:Generated_Source\PSoC6/VDAC_1.c **** 
  23:Generated_Source\PSoC6/VDAC_1.c **** const cy_stc_ctdac_config_t VDAC_1_ctdacConfig =
  24:Generated_Source\PSoC6/VDAC_1.c **** {
  25:Generated_Source\PSoC6/VDAC_1.c ****     .refSource          = VDAC_1_CTDAC_REFSOURCE,
  26:Generated_Source\PSoC6/VDAC_1.c ****     .formatMode         = VDAC_1_CTDAC_SIGNMODE,
  27:Generated_Source\PSoC6/VDAC_1.c ****     .updateMode         = VDAC_1_CTDAC_UPDATEMODE,
  28:Generated_Source\PSoC6/VDAC_1.c ****     .deglitchMode       = VDAC_1_CTDAC_DEGLITCHMODE,
  29:Generated_Source\PSoC6/VDAC_1.c ****     .outputMode         = CY_CTDAC_OUTPUT_VALUE,
  30:Generated_Source\PSoC6/VDAC_1.c ****     .outputBuffer       = VDAC_1_CTDAC_OUTPUTBUFFER,
  31:Generated_Source\PSoC6/VDAC_1.c ****     .deepSleep          = VDAC_1_CTDAC_DEEPSLEEP,
  32:Generated_Source\PSoC6/VDAC_1.c ****     .deglitchCycles     = VDAC_1_DEGLITCH_TARGET_CYCLES,
  33:Generated_Source\PSoC6/VDAC_1.c ****     .value              = VDAC_1_PARAM_InitialCode,
  34:Generated_Source\PSoC6/VDAC_1.c ****     .nextValue          = VDAC_1_PARAM_InitialCode,
  35:Generated_Source\PSoC6/VDAC_1.c ****     .enableInterrupt    = true,
  36:Generated_Source\PSoC6/VDAC_1.c ****     .configClock        = false, /* Creator and the schematic will manage the clock */
  37:Generated_Source\PSoC6/VDAC_1.c ****     .dividerType        = CY_SYSCLK_DIV_8_BIT,
  38:Generated_Source\PSoC6/VDAC_1.c ****     .dividerNum         = CY_CTDAC_DEINIT,
  39:Generated_Source\PSoC6/VDAC_1.c ****     .dividerIntValue    = CY_CTDAC_DEINIT,
  40:Generated_Source\PSoC6/VDAC_1.c ****     .dividerFracValue   = CY_CTDAC_DEINIT,
  41:Generated_Source\PSoC6/VDAC_1.c **** };
  42:Generated_Source\PSoC6/VDAC_1.c **** 
  43:Generated_Source\PSoC6/VDAC_1.c **** #if VDAC_1_PARAM_OutputBufferUsed
  44:Generated_Source\PSoC6/VDAC_1.c ****     const cy_stc_ctb_opamp_config_t VDAC_1_outputBufferConfig =
  45:Generated_Source\PSoC6/VDAC_1.c ****     {
  46:Generated_Source\PSoC6/VDAC_1.c ****         .deepSleep         = VDAC_1_CTB_VOUTBUF_DEEPSLEEP,
  47:Generated_Source\PSoC6/VDAC_1.c ****         .oaPower           = VDAC_1_CTB_VOUTBUF_POWER,
  48:Generated_Source\PSoC6/VDAC_1.c ****         .oaMode            = VDAC_1_CTB_VOUTBUF_DRIVE,
  49:Generated_Source\PSoC6/VDAC_1.c ****         .oaPump            = VDAC_1_CTB_VOUTBUF_PUMP,
  50:Generated_Source\PSoC6/VDAC_1.c ****         .oaCompEdge        = CY_CTB_COMP_EDGE_DISABLE,
  51:Generated_Source\PSoC6/VDAC_1.c ****         .oaCompLevel       = CY_CTB_COMP_DSI_TRIGGER_OUT_PULSE,
  52:Generated_Source\PSoC6/VDAC_1.c ****         .oaCompBypass      = CY_CTB_COMP_BYPASS_SYNC,
ARM GAS  C:\Users\JC\AppData\Local\Temp\cclwO4Ug.s 			page 43


  53:Generated_Source\PSoC6/VDAC_1.c ****         .oaCompHyst        = CY_CTB_COMP_HYST_DISABLE,
  54:Generated_Source\PSoC6/VDAC_1.c ****         .oaCompIntrEn      = false,
  55:Generated_Source\PSoC6/VDAC_1.c ****     };
  56:Generated_Source\PSoC6/VDAC_1.c **** #endif /* VDAC_1_PARAM_OutputBufferUsed */
  57:Generated_Source\PSoC6/VDAC_1.c **** 
