ARM GAS  C:\Users\JC\AppData\Local\Temp\ccwQKh3g.s 			page 1


   1              		.syntax unified
   2              		.cpu cortex-m4
   3              		.eabi_attribute 27, 1
   4              		.fpu fpv4-sp-d16
   5              		.eabi_attribute 20, 1
   6              		.eabi_attribute 21, 1
   7              		.eabi_attribute 23, 3
   8              		.eabi_attribute 24, 1
   9              		.eabi_attribute 25, 1
  10              		.eabi_attribute 26, 1
  11              		.eabi_attribute 30, 1
  12              		.eabi_attribute 34, 1
  13              		.eabi_attribute 18, 4
  14              		.thumb
  15              		.syntax unified
  16              		.file	"main_cm4.c"
  17              		.text
  18              	.Ltext0:
  19              		.cfi_sections	.debug_frame
  20              		.section	.text.genericEventHandler,"ax",%progbits
  21              		.align	2
  22              		.global	genericEventHandler
  23              		.thumb
  24              		.thumb_func
  25              		.type	genericEventHandler, %function
  26              	genericEventHandler:
  27              	.LFB492:
  28              		.file 1 "main_cm4.c"
   1:main_cm4.c    **** /* ========================================
   2:main_cm4.c    ****  *
   3:main_cm4.c    ****  * Copyright YOUR COMPANY, THE YEAR
   4:main_cm4.c    ****  * All Rights Reserved
   5:main_cm4.c    ****  * UNPUBLISHED, LICENSED SOFTWARE.
   6:main_cm4.c    ****  *
   7:main_cm4.c    ****  * CONFIDENTIAL AND PROPRIETARY INFORMATION
   8:main_cm4.c    ****  * WHICH IS THE PROPERTY OF your company.
   9:main_cm4.c    ****  *
  10:main_cm4.c    ****  * ========================================
  11:main_cm4.c    **** */
  12:main_cm4.c    **** #include "project.h"
  13:main_cm4.c    **** #include "stdio.h"
  14:main_cm4.c    **** 
  15:main_cm4.c    **** int dataNotify = 0;
  16:main_cm4.c    **** int bleConnected = 0;
  17:main_cm4.c    **** uint8_t hand;
  18:main_cm4.c    **** int flagNotify = 0;
  19:main_cm4.c    **** 
  20:main_cm4.c    **** struct data 
  21:main_cm4.c    **** {
  22:main_cm4.c    ****     float DAC_volt;
  23:main_cm4.c    ****     float ADC_volt;
  24:main_cm4.c    **** };
  25:main_cm4.c    **** 
  26:main_cm4.c    **** 
  27:main_cm4.c    **** void genericEventHandler(uint32_t event, void *eventParameter)
  28:main_cm4.c    **** {
  29              		.loc 1 28 0
ARM GAS  C:\Users\JC\AppData\Local\Temp\ccwQKh3g.s 			page 2


  30              		.cfi_startproc
  31              		@ args = 0, pretend = 0, frame = 0
  32              		@ frame_needed = 0, uses_anonymous_args = 0
  33              	.LVL0:
  34 0000 10B5     		push	{r4, lr}
  35              		.cfi_def_cfa_offset 8
  36              		.cfi_offset 4, -8
  37              		.cfi_offset 14, -4
  29:main_cm4.c    ****     switch(event)
  38              		.loc 1 29 0
  39 0002 44F20803 		movw	r3, #16392
  40 0006 9842     		cmp	r0, r3
  41 0008 07D0     		beq	.L3
  42 000a 0C46     		mov	r4, r1
  43 000c 45F20103 		movw	r3, #20481
  44 0010 9842     		cmp	r0, r3
  45 0012 0AD0     		beq	.L4
  46 0014 B0F5805F 		cmp	r0, #4096
  47 0018 11D1     		bne	.L1
  48              	.L3:
  30:main_cm4.c    ****     {
  31:main_cm4.c    ****         case CY_BLE_EVT_STACK_ON:
  32:main_cm4.c    ****         case CY_BLE_EVT_GAP_DEVICE_DISCONNECTED:
  33:main_cm4.c    ****         {
  34:main_cm4.c    ****             Cy_BLE_GAPP_StartAdvertisement(CY_BLE_ADVERTISING_FAST, CY_BLE_PERIPHERAL_CONFIGURATION
  49              		.loc 1 34 0
  50 001a 0021     		movs	r1, #0
  51              	.LVL1:
  52 001c 0846     		mov	r0, r1
  53              	.LVL2:
  54 001e FFF7FEFF 		bl	Cy_BLE_GAPP_StartAdvertisement
  55              	.LVL3:
  35:main_cm4.c    ****             bleConnected = 0;
  56              		.loc 1 35 0
  57 0022 0022     		movs	r2, #0
  58 0024 064B     		ldr	r3, .L6
  59 0026 1A60     		str	r2, [r3]
  36:main_cm4.c    ****             break;
  60              		.loc 1 36 0
  61 0028 10BD     		pop	{r4, pc}
  62              	.LVL4:
  63              	.L4:
  64              	.LBB5:
  37:main_cm4.c    ****         }
  38:main_cm4.c    ****         
  39:main_cm4.c    ****         case CY_BLE_EVT_GATT_CONNECT_IND:
  40:main_cm4.c    ****         {
  41:main_cm4.c    ****             bleConnected = 1;
  65              		.loc 1 41 0
  66 002a 0122     		movs	r2, #1
  67 002c 044B     		ldr	r3, .L6
  68 002e 1A60     		str	r2, [r3]
  42:main_cm4.c    ****             cy_stc_ble_gap_bd_addr_info_t param;
  43:main_cm4.c    **** //            param.bdAddr=param.addrType=CY_BLE_GAP_RANDOM_PRIV_RESOLVABLE_ADDR;
  44:main_cm4.c    **** //            bdHand=Cy_BLE_GAP_GetPeerBdAddr(&param);
  45:main_cm4.c    ****             printf("CY_BLE_EVT_GATT_CONNECT_IND bdHandle=%x\r\n",((cy_stc_ble_conn_handle_t *)event
  69              		.loc 1 45 0
ARM GAS  C:\Users\JC\AppData\Local\Temp\ccwQKh3g.s 			page 3


  70 0030 0978     		ldrb	r1, [r1]	@ zero_extendqisi2
  71              	.LVL5:
  72 0032 0448     		ldr	r0, .L6+4
  73              	.LVL6:
  74 0034 FFF7FEFF 		bl	printf
  75              	.LVL7:
  46:main_cm4.c    ****             hand=((cy_stc_ble_conn_handle_t *)eventParameter)->bdHandle;
  76              		.loc 1 46 0
  77 0038 2278     		ldrb	r2, [r4]	@ zero_extendqisi2
  78 003a 034B     		ldr	r3, .L6+8
  79 003c 1A70     		strb	r2, [r3]
  80              	.L1:
  81 003e 10BD     		pop	{r4, pc}
  82              	.LVL8:
  83              	.L7:
  84              		.align	2
  85              	.L6:
  86 0040 00000000 		.word	.LANCHOR0
  87 0044 00000000 		.word	.LC0
  88 0048 00000000 		.word	hand
  89              	.LBE5:
  90              		.cfi_endproc
  91              	.LFE492:
  92              		.size	genericEventHandler, .-genericEventHandler
  93              		.section	.text.bleInterruptNotify,"ax",%progbits
  94              		.align	2
  95              		.global	bleInterruptNotify
  96              		.thumb
  97              		.thumb_func
  98              		.type	bleInterruptNotify, %function
  99              	bleInterruptNotify:
 100              	.LFB493:
  47:main_cm4.c    ****             break;
  48:main_cm4.c    ****         }
  49:main_cm4.c    ****         case CY_BLE_EVT_GATTS_WRITE_REQ:
  50:main_cm4.c    ****         {
  51:main_cm4.c    ****             cy_stc_ble_gatts_write_cmd_req_param_t *writeReqParameter = (cy_stc_ble_gatts_write_cmd
  52:main_cm4.c    ****             
  53:main_cm4.c    ****             break;
  54:main_cm4.c    ****         }
  55:main_cm4.c    ****     }
  56:main_cm4.c    **** }
  57:main_cm4.c    **** 
  58:main_cm4.c    **** void bleInterruptNotify()
  59:main_cm4.c    **** {
 101              		.loc 1 59 0
 102              		.cfi_startproc
 103              		@ args = 0, pretend = 0, frame = 0
 104              		@ frame_needed = 0, uses_anonymous_args = 0
 105 0000 08B5     		push	{r3, lr}
 106              		.cfi_def_cfa_offset 8
 107              		.cfi_offset 3, -8
 108              		.cfi_offset 14, -4
  60:main_cm4.c    ****     Cy_BLE_ProcessEvents();
 109              		.loc 1 60 0
 110 0002 FFF7FEFF 		bl	Cy_BLE_ProcessEvents
 111              	.LVL9:
ARM GAS  C:\Users\JC\AppData\Local\Temp\ccwQKh3g.s 			page 4


 112 0006 08BD     		pop	{r3, pc}
 113              		.cfi_endproc
 114              	.LFE493:
 115              		.size	bleInterruptNotify, .-bleInterruptNotify
 116              		.section	.text.main,"ax",%progbits
 117              		.align	2
 118              		.global	main
 119              		.thumb
 120              		.thumb_func
 121              		.type	main, %function
 122              	main:
 123              	.LFB494:
  61:main_cm4.c    **** }
  62:main_cm4.c    **** 
  63:main_cm4.c    **** int main(void)
  64:main_cm4.c    **** {
 124              		.loc 1 64 0
 125              		.cfi_startproc
 126              		@ args = 0, pretend = 0, frame = 24
 127              		@ frame_needed = 0, uses_anonymous_args = 0
 128 0000 00B5     		push	{lr}
 129              		.cfi_def_cfa_offset 4
 130              		.cfi_offset 14, -4
 131 0002 87B0     		sub	sp, sp, #28
 132              		.cfi_def_cfa_offset 32
 133              	.LBB6:
 134              	.LBB7:
 135              		.file 2 "Generated_Source\\PSoC6\\pdl\\cmsis/include/cmsis_gcc.h"
   1:Generated_Source\PSoC6\pdl\cmsis/include/cmsis_gcc.h **** /**************************************************************************//**
   2:Generated_Source\PSoC6\pdl\cmsis/include/cmsis_gcc.h ****  * @file     cmsis_gcc.h
   3:Generated_Source\PSoC6\pdl\cmsis/include/cmsis_gcc.h ****  * @brief    CMSIS compiler GCC header file
   4:Generated_Source\PSoC6\pdl\cmsis/include/cmsis_gcc.h ****  * @version  V5.0.3
   5:Generated_Source\PSoC6\pdl\cmsis/include/cmsis_gcc.h ****  * @date     16. January 2018
   6:Generated_Source\PSoC6\pdl\cmsis/include/cmsis_gcc.h ****  ******************************************************************************/
   7:Generated_Source\PSoC6\pdl\cmsis/include/cmsis_gcc.h **** /*
   8:Generated_Source\PSoC6\pdl\cmsis/include/cmsis_gcc.h ****  * Copyright (c) 2009-2017 ARM Limited. All rights reserved.
   9:Generated_Source\PSoC6\pdl\cmsis/include/cmsis_gcc.h ****  *
  10:Generated_Source\PSoC6\pdl\cmsis/include/cmsis_gcc.h ****  * SPDX-License-Identifier: Apache-2.0
  11:Generated_Source\PSoC6\pdl\cmsis/include/cmsis_gcc.h ****  *
  12:Generated_Source\PSoC6\pdl\cmsis/include/cmsis_gcc.h ****  * Licensed under the Apache License, Version 2.0 (the License); you may
  13:Generated_Source\PSoC6\pdl\cmsis/include/cmsis_gcc.h ****  * not use this file except in compliance with the License.
  14:Generated_Source\PSoC6\pdl\cmsis/include/cmsis_gcc.h ****  * You may obtain a copy of the License at
  15:Generated_Source\PSoC6\pdl\cmsis/include/cmsis_gcc.h ****  *
  16:Generated_Source\PSoC6\pdl\cmsis/include/cmsis_gcc.h ****  * www.apache.org/licenses/LICENSE-2.0
  17:Generated_Source\PSoC6\pdl\cmsis/include/cmsis_gcc.h ****  *
  18:Generated_Source\PSoC6\pdl\cmsis/include/cmsis_gcc.h ****  * Unless required by applicable law or agreed to in writing, software
  19:Generated_Source\PSoC6\pdl\cmsis/include/cmsis_gcc.h ****  * distributed under the License is distributed on an AS IS BASIS, WITHOUT
  20:Generated_Source\PSoC6\pdl\cmsis/include/cmsis_gcc.h ****  * WARRANTIES OR CONDITIONS OF ANY KIND, either express or implied.
  21:Generated_Source\PSoC6\pdl\cmsis/include/cmsis_gcc.h ****  * See the License for the specific language governing permissions and
  22:Generated_Source\PSoC6\pdl\cmsis/include/cmsis_gcc.h ****  * limitations under the License.
  23:Generated_Source\PSoC6\pdl\cmsis/include/cmsis_gcc.h ****  */
  24:Generated_Source\PSoC6\pdl\cmsis/include/cmsis_gcc.h **** 
  25:Generated_Source\PSoC6\pdl\cmsis/include/cmsis_gcc.h **** #ifndef __CMSIS_GCC_H
  26:Generated_Source\PSoC6\pdl\cmsis/include/cmsis_gcc.h **** #define __CMSIS_GCC_H
  27:Generated_Source\PSoC6\pdl\cmsis/include/cmsis_gcc.h **** 
  28:Generated_Source\PSoC6\pdl\cmsis/include/cmsis_gcc.h **** /* ignore some GCC warnings */
  29:Generated_Source\PSoC6\pdl\cmsis/include/cmsis_gcc.h **** #pragma GCC diagnostic push
ARM GAS  C:\Users\JC\AppData\Local\Temp\ccwQKh3g.s 			page 5


  30:Generated_Source\PSoC6\pdl\cmsis/include/cmsis_gcc.h **** #pragma GCC diagnostic ignored "-Wsign-conversion"
  31:Generated_Source\PSoC6\pdl\cmsis/include/cmsis_gcc.h **** #pragma GCC diagnostic ignored "-Wconversion"
  32:Generated_Source\PSoC6\pdl\cmsis/include/cmsis_gcc.h **** #pragma GCC diagnostic ignored "-Wunused-parameter"
  33:Generated_Source\PSoC6\pdl\cmsis/include/cmsis_gcc.h **** 
  34:Generated_Source\PSoC6\pdl\cmsis/include/cmsis_gcc.h **** /* Fallback for __has_builtin */
  35:Generated_Source\PSoC6\pdl\cmsis/include/cmsis_gcc.h **** #ifndef __has_builtin
  36:Generated_Source\PSoC6\pdl\cmsis/include/cmsis_gcc.h ****   #define __has_builtin(x) (0)
  37:Generated_Source\PSoC6\pdl\cmsis/include/cmsis_gcc.h **** #endif
  38:Generated_Source\PSoC6\pdl\cmsis/include/cmsis_gcc.h **** 
  39:Generated_Source\PSoC6\pdl\cmsis/include/cmsis_gcc.h **** /* CMSIS compiler specific defines */
  40:Generated_Source\PSoC6\pdl\cmsis/include/cmsis_gcc.h **** #ifndef   __ASM
  41:Generated_Source\PSoC6\pdl\cmsis/include/cmsis_gcc.h ****   #define __ASM                                  __asm
  42:Generated_Source\PSoC6\pdl\cmsis/include/cmsis_gcc.h **** #endif
  43:Generated_Source\PSoC6\pdl\cmsis/include/cmsis_gcc.h **** #ifndef   __INLINE
  44:Generated_Source\PSoC6\pdl\cmsis/include/cmsis_gcc.h ****   #define __INLINE                               inline
  45:Generated_Source\PSoC6\pdl\cmsis/include/cmsis_gcc.h **** #endif
  46:Generated_Source\PSoC6\pdl\cmsis/include/cmsis_gcc.h **** #ifndef   __STATIC_INLINE
  47:Generated_Source\PSoC6\pdl\cmsis/include/cmsis_gcc.h ****   #define __STATIC_INLINE                        static inline
  48:Generated_Source\PSoC6\pdl\cmsis/include/cmsis_gcc.h **** #endif
  49:Generated_Source\PSoC6\pdl\cmsis/include/cmsis_gcc.h **** #ifndef   __STATIC_FORCEINLINE                 
  50:Generated_Source\PSoC6\pdl\cmsis/include/cmsis_gcc.h ****   #define __STATIC_FORCEINLINE                   __attribute__((always_inline)) static inline
  51:Generated_Source\PSoC6\pdl\cmsis/include/cmsis_gcc.h **** #endif                                           
  52:Generated_Source\PSoC6\pdl\cmsis/include/cmsis_gcc.h **** #ifndef   __NO_RETURN
  53:Generated_Source\PSoC6\pdl\cmsis/include/cmsis_gcc.h ****   #define __NO_RETURN                            __attribute__((__noreturn__))
  54:Generated_Source\PSoC6\pdl\cmsis/include/cmsis_gcc.h **** #endif
  55:Generated_Source\PSoC6\pdl\cmsis/include/cmsis_gcc.h **** #ifndef   __USED
  56:Generated_Source\PSoC6\pdl\cmsis/include/cmsis_gcc.h ****   #define __USED                                 __attribute__((used))
  57:Generated_Source\PSoC6\pdl\cmsis/include/cmsis_gcc.h **** #endif
  58:Generated_Source\PSoC6\pdl\cmsis/include/cmsis_gcc.h **** #ifndef   __WEAK
  59:Generated_Source\PSoC6\pdl\cmsis/include/cmsis_gcc.h ****   #define __WEAK                                 __attribute__((weak))
  60:Generated_Source\PSoC6\pdl\cmsis/include/cmsis_gcc.h **** #endif
  61:Generated_Source\PSoC6\pdl\cmsis/include/cmsis_gcc.h **** #ifndef   __PACKED
  62:Generated_Source\PSoC6\pdl\cmsis/include/cmsis_gcc.h ****   #define __PACKED                               __attribute__((packed, aligned(1)))
  63:Generated_Source\PSoC6\pdl\cmsis/include/cmsis_gcc.h **** #endif
  64:Generated_Source\PSoC6\pdl\cmsis/include/cmsis_gcc.h **** #ifndef   __PACKED_STRUCT
  65:Generated_Source\PSoC6\pdl\cmsis/include/cmsis_gcc.h ****   #define __PACKED_STRUCT                        struct __attribute__((packed, aligned(1)))
  66:Generated_Source\PSoC6\pdl\cmsis/include/cmsis_gcc.h **** #endif
  67:Generated_Source\PSoC6\pdl\cmsis/include/cmsis_gcc.h **** #ifndef   __PACKED_UNION
  68:Generated_Source\PSoC6\pdl\cmsis/include/cmsis_gcc.h ****   #define __PACKED_UNION                         union __attribute__((packed, aligned(1)))
  69:Generated_Source\PSoC6\pdl\cmsis/include/cmsis_gcc.h **** #endif
  70:Generated_Source\PSoC6\pdl\cmsis/include/cmsis_gcc.h **** #ifndef   __UNALIGNED_UINT32        /* deprecated */
  71:Generated_Source\PSoC6\pdl\cmsis/include/cmsis_gcc.h ****   #pragma GCC diagnostic push
  72:Generated_Source\PSoC6\pdl\cmsis/include/cmsis_gcc.h ****   #pragma GCC diagnostic ignored "-Wpacked"
  73:Generated_Source\PSoC6\pdl\cmsis/include/cmsis_gcc.h ****   #pragma GCC diagnostic ignored "-Wattributes"
  74:Generated_Source\PSoC6\pdl\cmsis/include/cmsis_gcc.h ****   struct __attribute__((packed)) T_UINT32 { uint32_t v; };
  75:Generated_Source\PSoC6\pdl\cmsis/include/cmsis_gcc.h ****   #pragma GCC diagnostic pop
  76:Generated_Source\PSoC6\pdl\cmsis/include/cmsis_gcc.h ****   #define __UNALIGNED_UINT32(x)                  (((struct T_UINT32 *)(x))->v)
  77:Generated_Source\PSoC6\pdl\cmsis/include/cmsis_gcc.h **** #endif
  78:Generated_Source\PSoC6\pdl\cmsis/include/cmsis_gcc.h **** #ifndef   __UNALIGNED_UINT16_WRITE
  79:Generated_Source\PSoC6\pdl\cmsis/include/cmsis_gcc.h ****   #pragma GCC diagnostic push
  80:Generated_Source\PSoC6\pdl\cmsis/include/cmsis_gcc.h ****   #pragma GCC diagnostic ignored "-Wpacked"
  81:Generated_Source\PSoC6\pdl\cmsis/include/cmsis_gcc.h ****   #pragma GCC diagnostic ignored "-Wattributes"
  82:Generated_Source\PSoC6\pdl\cmsis/include/cmsis_gcc.h ****   __PACKED_STRUCT T_UINT16_WRITE { uint16_t v; };
  83:Generated_Source\PSoC6\pdl\cmsis/include/cmsis_gcc.h ****   #pragma GCC diagnostic pop
  84:Generated_Source\PSoC6\pdl\cmsis/include/cmsis_gcc.h ****   #define __UNALIGNED_UINT16_WRITE(addr, val)    (void)((((struct T_UINT16_WRITE *)(void *)(addr))-
  85:Generated_Source\PSoC6\pdl\cmsis/include/cmsis_gcc.h **** #endif
  86:Generated_Source\PSoC6\pdl\cmsis/include/cmsis_gcc.h **** #ifndef   __UNALIGNED_UINT16_READ
ARM GAS  C:\Users\JC\AppData\Local\Temp\ccwQKh3g.s 			page 6


  87:Generated_Source\PSoC6\pdl\cmsis/include/cmsis_gcc.h ****   #pragma GCC diagnostic push
  88:Generated_Source\PSoC6\pdl\cmsis/include/cmsis_gcc.h ****   #pragma GCC diagnostic ignored "-Wpacked"
  89:Generated_Source\PSoC6\pdl\cmsis/include/cmsis_gcc.h ****   #pragma GCC diagnostic ignored "-Wattributes"
  90:Generated_Source\PSoC6\pdl\cmsis/include/cmsis_gcc.h ****   __PACKED_STRUCT T_UINT16_READ { uint16_t v; };
  91:Generated_Source\PSoC6\pdl\cmsis/include/cmsis_gcc.h ****   #pragma GCC diagnostic pop
  92:Generated_Source\PSoC6\pdl\cmsis/include/cmsis_gcc.h ****   #define __UNALIGNED_UINT16_READ(addr)          (((const struct T_UINT16_READ *)(const void *)(add
  93:Generated_Source\PSoC6\pdl\cmsis/include/cmsis_gcc.h **** #endif
  94:Generated_Source\PSoC6\pdl\cmsis/include/cmsis_gcc.h **** #ifndef   __UNALIGNED_UINT32_WRITE
  95:Generated_Source\PSoC6\pdl\cmsis/include/cmsis_gcc.h ****   #pragma GCC diagnostic push
  96:Generated_Source\PSoC6\pdl\cmsis/include/cmsis_gcc.h ****   #pragma GCC diagnostic ignored "-Wpacked"
  97:Generated_Source\PSoC6\pdl\cmsis/include/cmsis_gcc.h ****   #pragma GCC diagnostic ignored "-Wattributes"
  98:Generated_Source\PSoC6\pdl\cmsis/include/cmsis_gcc.h ****   __PACKED_STRUCT T_UINT32_WRITE { uint32_t v; };
  99:Generated_Source\PSoC6\pdl\cmsis/include/cmsis_gcc.h ****   #pragma GCC diagnostic pop
 100:Generated_Source\PSoC6\pdl\cmsis/include/cmsis_gcc.h ****   #define __UNALIGNED_UINT32_WRITE(addr, val)    (void)((((struct T_UINT32_WRITE *)(void *)(addr))-
 101:Generated_Source\PSoC6\pdl\cmsis/include/cmsis_gcc.h **** #endif
 102:Generated_Source\PSoC6\pdl\cmsis/include/cmsis_gcc.h **** #ifndef   __UNALIGNED_UINT32_READ
 103:Generated_Source\PSoC6\pdl\cmsis/include/cmsis_gcc.h ****   #pragma GCC diagnostic push
 104:Generated_Source\PSoC6\pdl\cmsis/include/cmsis_gcc.h ****   #pragma GCC diagnostic ignored "-Wpacked"
 105:Generated_Source\PSoC6\pdl\cmsis/include/cmsis_gcc.h ****   #pragma GCC diagnostic ignored "-Wattributes"
 106:Generated_Source\PSoC6\pdl\cmsis/include/cmsis_gcc.h ****   __PACKED_STRUCT T_UINT32_READ { uint32_t v; };
 107:Generated_Source\PSoC6\pdl\cmsis/include/cmsis_gcc.h ****   #pragma GCC diagnostic pop
 108:Generated_Source\PSoC6\pdl\cmsis/include/cmsis_gcc.h ****   #define __UNALIGNED_UINT32_READ(addr)          (((const struct T_UINT32_READ *)(const void *)(add
 109:Generated_Source\PSoC6\pdl\cmsis/include/cmsis_gcc.h **** #endif
 110:Generated_Source\PSoC6\pdl\cmsis/include/cmsis_gcc.h **** #ifndef   __ALIGNED
 111:Generated_Source\PSoC6\pdl\cmsis/include/cmsis_gcc.h ****   #define __ALIGNED(x)                           __attribute__((aligned(x)))
 112:Generated_Source\PSoC6\pdl\cmsis/include/cmsis_gcc.h **** #endif
 113:Generated_Source\PSoC6\pdl\cmsis/include/cmsis_gcc.h **** #ifndef   __RESTRICT
 114:Generated_Source\PSoC6\pdl\cmsis/include/cmsis_gcc.h ****   #define __RESTRICT                             __restrict
 115:Generated_Source\PSoC6\pdl\cmsis/include/cmsis_gcc.h **** #endif
 116:Generated_Source\PSoC6\pdl\cmsis/include/cmsis_gcc.h **** 
 117:Generated_Source\PSoC6\pdl\cmsis/include/cmsis_gcc.h **** 
 118:Generated_Source\PSoC6\pdl\cmsis/include/cmsis_gcc.h **** /* ###########################  Core Function Access  ########################### */
 119:Generated_Source\PSoC6\pdl\cmsis/include/cmsis_gcc.h **** /** \ingroup  CMSIS_Core_FunctionInterface
 120:Generated_Source\PSoC6\pdl\cmsis/include/cmsis_gcc.h ****     \defgroup CMSIS_Core_RegAccFunctions CMSIS Core Register Access Functions
 121:Generated_Source\PSoC6\pdl\cmsis/include/cmsis_gcc.h ****   @{
 122:Generated_Source\PSoC6\pdl\cmsis/include/cmsis_gcc.h ****  */
 123:Generated_Source\PSoC6\pdl\cmsis/include/cmsis_gcc.h **** 
 124:Generated_Source\PSoC6\pdl\cmsis/include/cmsis_gcc.h **** /**
 125:Generated_Source\PSoC6\pdl\cmsis/include/cmsis_gcc.h ****   \brief   Enable IRQ Interrupts
 126:Generated_Source\PSoC6\pdl\cmsis/include/cmsis_gcc.h ****   \details Enables IRQ interrupts by clearing the I-bit in the CPSR.
 127:Generated_Source\PSoC6\pdl\cmsis/include/cmsis_gcc.h ****            Can only be executed in Privileged modes.
 128:Generated_Source\PSoC6\pdl\cmsis/include/cmsis_gcc.h ****  */
 129:Generated_Source\PSoC6\pdl\cmsis/include/cmsis_gcc.h **** __STATIC_FORCEINLINE void __enable_irq(void)
 130:Generated_Source\PSoC6\pdl\cmsis/include/cmsis_gcc.h **** {
 131:Generated_Source\PSoC6\pdl\cmsis/include/cmsis_gcc.h ****   __ASM volatile ("cpsie i" : : : "memory");
 136              		.loc 2 131 0
 137              		.syntax unified
 138              	@ 131 "Generated_Source\PSoC6\pdl\cmsis/include/cmsis_gcc.h" 1
 139 0004 62B6     		cpsie i
 140              	@ 0 "" 2
 141              		.thumb
 142              		.syntax unified
 143              	.LBE7:
 144              	.LBE6:
  65:main_cm4.c    ****     __enable_irq(); /* Enable global interrupts. */
  66:main_cm4.c    ****     UART_1_Start();
 145              		.loc 1 66 0
ARM GAS  C:\Users\JC\AppData\Local\Temp\ccwQKh3g.s 			page 7


 146 0006 FFF7FEFF 		bl	UART_1_Start
 147              	.LVL10:
  67:main_cm4.c    ****     
  68:main_cm4.c    ****     Cy_BLE_Start(genericEventHandler);
 148              		.loc 1 68 0
 149 000a 2748     		ldr	r0, .L22
 150 000c FFF7FEFF 		bl	Cy_BLE_Start
 151              	.LVL11:
  69:main_cm4.c    ****     
  70:main_cm4.c    ****     while(Cy_BLE_GetState() != CY_BLE_STATE_ON)
 152              		.loc 1 70 0
 153 0010 01E0     		b	.L11
 154              	.L12:
  71:main_cm4.c    ****     {
  72:main_cm4.c    ****         Cy_BLE_ProcessEvents();
 155              		.loc 1 72 0
 156 0012 FFF7FEFF 		bl	Cy_BLE_ProcessEvents
 157              	.LVL12:
 158              	.L11:
  70:main_cm4.c    ****     {
 159              		.loc 1 70 0
 160 0016 254B     		ldr	r3, .L22+4
 161 0018 1B78     		ldrb	r3, [r3]	@ zero_extendqisi2
 162 001a 022B     		cmp	r3, #2
 163 001c F9D1     		bne	.L12
  73:main_cm4.c    ****     }
  74:main_cm4.c    ****     Cy_BLE_RegisterAppHostCallback(bleInterruptNotify);
 164              		.loc 1 74 0
 165 001e 2448     		ldr	r0, .L22+8
 166 0020 FFF7FEFF 		bl	Cy_BLE_RegisterAppHostCallback
 167              	.LVL13:
 168              	.L20:
 169              	.LBB8:
  75:main_cm4.c    **** 
  76:main_cm4.c    ****     /* Place your initialization/startup code here (e.g. MyInst_Start()) */
  77:main_cm4.c    **** 
  78:main_cm4.c    ****     for(;;)
  79:main_cm4.c    ****     {
  80:main_cm4.c    ****         if (dataNotify < 100){
 170              		.loc 1 80 0
 171 0024 234B     		ldr	r3, .L22+12
 172 0026 5B68     		ldr	r3, [r3, #4]
 173 0028 632B     		cmp	r3, #99
 174 002a 03DC     		bgt	.L13
  81:main_cm4.c    ****             dataNotify++;
 175              		.loc 1 81 0
 176 002c 0133     		adds	r3, r3, #1
 177 002e 214A     		ldr	r2, .L22+12
 178 0030 5360     		str	r3, [r2, #4]
 179 0032 02E0     		b	.L14
 180              	.L13:
  82:main_cm4.c    ****         }
  83:main_cm4.c    ****         else{
  84:main_cm4.c    ****             dataNotify = 0;
 181              		.loc 1 84 0
 182 0034 0022     		movs	r2, #0
 183 0036 1F4B     		ldr	r3, .L22+12
ARM GAS  C:\Users\JC\AppData\Local\Temp\ccwQKh3g.s 			page 8


 184 0038 5A60     		str	r2, [r3, #4]
 185              	.L14:
  85:main_cm4.c    ****         }
  86:main_cm4.c    ****        
  87:main_cm4.c    ****         
  88:main_cm4.c    ****         /* Place your application code here. */
  89:main_cm4.c    ****         cy_stc_ble_gatt_handle_value_pair_t serviceHandle;
  90:main_cm4.c    ****         cy_stc_ble_gatt_value_t serviceData;
  91:main_cm4.c    ****         
  92:main_cm4.c    ****         serviceData.val = (uint8*) &dataNotify;
 186              		.loc 1 92 0
 187 003a 1F4B     		ldr	r3, .L22+16
 188 003c 0193     		str	r3, [sp, #4]
  93:main_cm4.c    ****         serviceData.len = 2;
 189              		.loc 1 93 0
 190 003e 0223     		movs	r3, #2
 191 0040 ADF80830 		strh	r3, [sp, #8]	@ movhi
  94:main_cm4.c    ****         
  95:main_cm4.c    ****         serviceHandle.attrHandle = CY_BLE_DATA_SERVICE_DATA_CHAR_HANDLE;
 192              		.loc 1 95 0
 193 0044 1223     		movs	r3, #18
 194 0046 ADF81430 		strh	r3, [sp, #20]	@ movhi
  96:main_cm4.c    ****         serviceHandle.value = serviceData;
 195              		.loc 1 96 0
 196 004a 03AB     		add	r3, sp, #12
 197 004c 01AA     		add	r2, sp, #4
 198 004e 92E80300 		ldmia	r2, {r0, r1}
 199 0052 83E80300 		stmia	r3, {r0, r1}
  97:main_cm4.c    ****         
  98:main_cm4.c    ****         //cy_stc_ble_conn_handle_t connHandle;
  99:main_cm4.c    ****         //connHandle.bdHandle=hand;
 100:main_cm4.c    ****         
 101:main_cm4.c    ****         // error code debugging
 102:main_cm4.c    ****         //cy_en_ble_gatt_err_code_t e=Cy_BLE_GATTS_WriteAttributeValueLocal(&serviceHandle);
 103:main_cm4.c    **** //        if(e==CY_BLE_GATT_ERR_INVALID_HANDLE){
 104:main_cm4.c    **** //            printf("error \r\n");   
 105:main_cm4.c    **** //        }else if(e==CY_BLE_GATT_ERR_UNLIKELY_ERROR){
 106:main_cm4.c    **** //            printf("error1 \r\n");   
 107:main_cm4.c    **** //        }else if(e==CY_BLE_GATT_ERR_INVALID_ATTRIBUTE_LEN){
 108:main_cm4.c    **** //            printf("error2 \r\n");   
 109:main_cm4.c    **** //        }
 110:main_cm4.c    ****         
 111:main_cm4.c    ****         //printf("Connhandle %x \r\n", connHandle);
 112:main_cm4.c    ****         
 113:main_cm4.c    ****         cy_en_ble_api_result_t e = Cy_BLE_GATTS_SendNotification(&cy_ble_connHandle[0], &serviceHan
 200              		.loc 1 113 0
 201 0056 1946     		mov	r1, r3
 202 0058 1848     		ldr	r0, .L22+20
 203 005a FFF7FEFF 		bl	Cy_BLE_GATTS_SendNotification
 204              	.LVL14:
 114:main_cm4.c    ****         if (e == CY_BLE_SUCCESS) {
 205              		.loc 1 114 0
 206 005e 18B9     		cbnz	r0, .L15
 115:main_cm4.c    ****             printf("Good transmission\r\n");
 207              		.loc 1 115 0
 208 0060 1748     		ldr	r0, .L22+24
 209              	.LVL15:
ARM GAS  C:\Users\JC\AppData\Local\Temp\ccwQKh3g.s 			page 9


 210 0062 FFF7FEFF 		bl	puts
 211              	.LVL16:
 212 0066 1AE0     		b	.L16
 213              	.LVL17:
 214              	.L15:
 116:main_cm4.c    ****         } else if (e == CY_BLE_ERROR_NO_DEVICE_ENTITY) {
 215              		.loc 1 116 0
 216 0068 164A     		ldr	r2, .L22+28
 217 006a 9042     		cmp	r0, r2
 218 006c 03D1     		bne	.L17
 117:main_cm4.c    ****             printf("Error 1\r\n");
 219              		.loc 1 117 0
 220 006e 1648     		ldr	r0, .L22+32
 221              	.LVL18:
 222 0070 FFF7FEFF 		bl	puts
 223              	.LVL19:
 224 0074 13E0     		b	.L16
 225              	.LVL20:
 226              	.L17:
 118:main_cm4.c    ****         } else if (e == CY_BLE_ERROR_INVALID_PARAMETER) {
 227              		.loc 1 118 0
 228 0076 154A     		ldr	r2, .L22+36
 229 0078 9042     		cmp	r0, r2
 230 007a 03D1     		bne	.L18
 119:main_cm4.c    ****             printf("Error 2\r\n");
 231              		.loc 1 119 0
 232 007c 1448     		ldr	r0, .L22+40
 233              	.LVL21:
 234 007e FFF7FEFF 		bl	puts
 235              	.LVL22:
 236 0082 0CE0     		b	.L16
 237              	.LVL23:
 238              	.L18:
 120:main_cm4.c    ****         } else if (e == CY_BLE_ERROR_INVALID_OPERATION) {
 239              		.loc 1 120 0
 240 0084 134A     		ldr	r2, .L22+44
 241 0086 9042     		cmp	r0, r2
 242 0088 03D1     		bne	.L19
 121:main_cm4.c    ****             printf("Error 3\r\n");
 243              		.loc 1 121 0
 244 008a 1348     		ldr	r0, .L22+48
 245              	.LVL24:
 246 008c FFF7FEFF 		bl	puts
 247              	.LVL25:
 248 0090 05E0     		b	.L16
 249              	.LVL26:
 250              	.L19:
 122:main_cm4.c    ****         } else if (e == CY_BLE_ERROR_NTF_DISABLED) {
 251              		.loc 1 122 0
 252 0092 124A     		ldr	r2, .L22+52
 253 0094 9042     		cmp	r0, r2
 254 0096 02D1     		bne	.L16
 123:main_cm4.c    ****             printf("Error 4\r\n");
 255              		.loc 1 123 0
 256 0098 1148     		ldr	r0, .L22+56
 257              	.LVL27:
 258 009a FFF7FEFF 		bl	puts
ARM GAS  C:\Users\JC\AppData\Local\Temp\ccwQKh3g.s 			page 10


 259              	.LVL28:
 260              	.L16:
 124:main_cm4.c    ****         }
 125:main_cm4.c    ****     
 126:main_cm4.c    ****    
 127:main_cm4.c    ****         CyDelay(10);
 261              		.loc 1 127 0
 262 009e 0A20     		movs	r0, #10
 263 00a0 FFF7FEFF 		bl	Cy_SysLib_Delay
 264              	.LVL29:
 265              	.LBE8:
 128:main_cm4.c    ****         //CyDelay(1000);
 129:main_cm4.c    ****         
 130:main_cm4.c    ****     }
 266              		.loc 1 130 0
 267 00a4 BEE7     		b	.L20
 268              	.L23:
 269 00a6 00BF     		.align	2
 270              	.L22:
 271 00a8 00000000 		.word	genericEventHandler
 272 00ac 00000000 		.word	cy_ble_state
 273 00b0 00000000 		.word	bleInterruptNotify
 274 00b4 00000000 		.word	.LANCHOR0
 275 00b8 04000000 		.word	.LANCHOR0+4
 276 00bc 00000000 		.word	cy_ble_connHandle
 277 00c0 2C000000 		.word	.LC1
 278 00c4 07001600 		.word	1441799
 279 00c8 40000000 		.word	.LC2
 280 00cc 01001600 		.word	1441793
 281 00d0 4C000000 		.word	.LC3
 282 00d4 02001600 		.word	1441794
 283 00d8 58000000 		.word	.LC4
 284 00dc 17001600 		.word	1441815
 285 00e0 64000000 		.word	.LC5
 286              		.cfi_endproc
 287              	.LFE494:
 288              		.size	main, .-main
 289              		.global	flagNotify
 290              		.comm	hand,1,1
 291              		.global	bleConnected
 292              		.global	dataNotify
 293              		.section	.rodata.str1.4,"aMS",%progbits,1
 294              		.align	2
 295              	.LC0:
 296 0000 43595F42 		.ascii	"CY_BLE_EVT_GATT_CONNECT_IND bdHandle=%x\015\012\000"
 296      4C455F45 
 296      56545F47 
 296      4154545F 
 296      434F4E4E 
 297 002a 0000     		.space	2
 298              	.LC1:
 299 002c 476F6F64 		.ascii	"Good transmission\015\000"
 299      20747261 
 299      6E736D69 
 299      7373696F 
 299      6E0D00
 300 003f 00       		.space	1
ARM GAS  C:\Users\JC\AppData\Local\Temp\ccwQKh3g.s 			page 11


 301              	.LC2:
 302 0040 4572726F 		.ascii	"Error 1\015\000"
 302      7220310D 
 302      00
 303 0049 000000   		.space	3
 304              	.LC3:
 305 004c 4572726F 		.ascii	"Error 2\015\000"
 305      7220320D 
 305      00
 306 0055 000000   		.space	3
 307              	.LC4:
 308 0058 4572726F 		.ascii	"Error 3\015\000"
 308      7220330D 
 308      00
 309 0061 000000   		.space	3
 310              	.LC5:
 311 0064 4572726F 		.ascii	"Error 4\015\000"
 311      7220340D 
 311      00
 312              		.bss
 313              		.align	2
 314              		.set	.LANCHOR0,. + 0
 315              		.type	bleConnected, %object
 316              		.size	bleConnected, 4
 317              	bleConnected:
 318 0000 00000000 		.space	4
 319              		.type	dataNotify, %object
 320              		.size	dataNotify, 4
 321              	dataNotify:
 322 0004 00000000 		.space	4
 323              		.type	flagNotify, %object
 324              		.size	flagNotify, 4
 325              	flagNotify:
 326 0008 00000000 		.space	4
 327              		.text
 328              	.Letext0:
 329              		.file 3 "c:\\program files (x86)\\cypress\\psoc creator\\4.4\\psoc creator\\import\\gnu\\arm\\5.4.
 330              		.file 4 "c:\\program files (x86)\\cypress\\psoc creator\\4.4\\psoc creator\\import\\gnu\\arm\\5.4.
 331              		.file 5 "Generated_Source\\PSoC6\\pdl\\drivers/peripheral/device/cy_device.h"
 332              		.file 6 "Generated_Source\\PSoC6\\pdl\\drivers/peripheral/syslib/cy_syslib.h"
 333              		.file 7 "Generated_Source\\PSoC6\\pdl\\drivers/peripheral/scb/cy_scb_uart.h"
 334              		.file 8 "Generated_Source\\PSoC6\\pdl\\middleware/ble/cy_ble_stack.h"
 335              		.file 9 "Generated_Source\\PSoC6\\pdl\\middleware/ble/cy_ble_stack_host_main.h"
 336              		.file 10 "Generated_Source\\PSoC6\\pdl\\middleware/ble/cy_ble_stack_gatt.h"
 337              		.file 11 "Generated_Source\\PSoC6\\pdl\\middleware/ble/cy_ble_stack_gap.h"
 338              		.file 12 "Generated_Source\\PSoC6\\pdl\\middleware/ble/cy_ble_gap.h"
 339              		.file 13 "Generated_Source\\PSoC6\\pdl\\middleware/ble/cy_ble_stack_gatt_server.h"
 340              		.file 14 "Generated_Source\\PSoC6\\pdl\\cmsis/include/core_cm4.h"
 341              		.file 15 "Generated_Source\\PSoC6/UART_1.h"
 342              		.file 16 "c:\\program files (x86)\\cypress\\psoc creator\\4.4\\psoc creator\\import\\gnu\\arm\\5.4
 343              		.file 17 "Generated_Source\\PSoC6\\pdl\\middleware/ble/cy_ble_gatt.h"
 344              		.file 18 "Generated_Source\\PSoC6/BLE.h"
 345              		.file 19 "Generated_Source\\PSoC6\\pdl\\middleware/ble/cy_ble.h"
 346              		.file 20 "<built-in>"